	.file	"mainMXGraph.cpp"
	.text
.Ltext0:
	.section	.text._ZnwmPv,"axG",@progbits,_ZnwmPv,comdat
	.weak	_ZnwmPv
	.type	_ZnwmPv, @function
_ZnwmPv:
.LASANPC38:
.LFB38:
	.file 1 "/usr/include/c++/9/new"
	.loc 1 174 1
	.cfi_startproc
	endbr64
	pushq	%rbp
	.cfi_def_cfa_offset 16
	.cfi_offset 6, -16
	movq	%rsp, %rbp
	.cfi_def_cfa_register 6
	movq	%rdi, -8(%rbp)
	movq	%rsi, -16(%rbp)
	.loc 1 174 10
	movq	-16(%rbp), %rax
	.loc 1 174 15
	popq	%rbp
	.cfi_def_cfa 7, 8
	ret
	.cfi_endproc
.LFE38:
	.size	_ZnwmPv, .-_ZnwmPv
	.section	.text._ZdlPvS_,"axG",@progbits,_ZdlPvS_,comdat
	.weak	_ZdlPvS_
	.type	_ZdlPvS_, @function
_ZdlPvS_:
.LASANPC40:
.LFB40:
	.loc 1 179 53
	.cfi_startproc
	endbr64
	pushq	%rbp
	.cfi_def_cfa_offset 16
	.cfi_offset 6, -16
	movq	%rsp, %rbp
	.cfi_def_cfa_register 6
	movq	%rdi, -8(%rbp)
	movq	%rsi, -16(%rbp)
	.loc 1 179 55
	nop
	popq	%rbp
	.cfi_def_cfa 7, 8
	ret
	.cfi_endproc
.LFE40:
	.size	_ZdlPvS_, .-_ZdlPvS_
	.section	.text._ZSt4__lgl,"axG",@progbits,_ZSt4__lgl,comdat
	.weak	_ZSt4__lgl
	.type	_ZSt4__lgl, @function
_ZSt4__lgl:
.LASANPC363:
.LFB363:
	.file 2 "/usr/include/c++/9/bits/stl_algobase.h"
	.loc 2 1029 3
	.cfi_startproc
	endbr64
	pushq	%rbp
	.cfi_def_cfa_offset 16
	.cfi_offset 6, -16
	movq	%rsp, %rbp
	.cfi_def_cfa_register 6
	movq	%rdi, -8(%rbp)
	.loc 2 1029 54
	movq	-8(%rbp), %rax
	bsrq	%rax, %rax
	xorq	$63, %rax
	.loc 2 1029 38
	movl	$63, %edx
	subl	%eax, %edx
	movl	%edx, %eax
	.loc 2 1029 58
	cltq
	.loc 2 1029 61
	popq	%rbp
	.cfi_def_cfa 7, 8
	ret
	.cfi_endproc
.LFE363:
	.size	_ZSt4__lgl, .-_ZSt4__lgl
	.section	.text._ZNSt11char_traitsIcE6assignERcRKc,"axG",@progbits,_ZNSt11char_traitsIcE6assignERcRKc,comdat
	.weak	_ZNSt11char_traitsIcE6assignERcRKc
	.type	_ZNSt11char_traitsIcE6assignERcRKc, @function
_ZNSt11char_traitsIcE6assignERcRKc:
.LASANPC397:
.LFB397:
	.file 3 "/usr/include/c++/9/bits/char_traits.h"
	.loc 3 299 7
	.cfi_startproc
	endbr64
	pushq	%rbp
	.cfi_def_cfa_offset 16
	.cfi_offset 6, -16
	movq	%rsp, %rbp
	.cfi_def_cfa_register 6
	subq	$16, %rsp
	movq	%rdi, -8(%rbp)
	movq	%rsi, -16(%rbp)
	.loc 3 300 16
	movq	-16(%rbp), %rax
	movq	%rax, %rdx
	shrq	$3, %rdx
	addq	$2147450880, %rdx
	movzbl	(%rdx), %edx
	testb	%dl, %dl
	setne	%cl
	movq	%rax, %rsi
	andl	$7, %esi
	cmpb	%dl, %sil
	setge	%dl
	andl	%ecx, %edx
	testb	%dl, %dl
	je	.L7
	movq	%rax, %rdi
	call	__asan_report_load1@PLT
.L7:
	movq	-16(%rbp), %rax
	movzbl	(%rax), %ecx
	.loc 3 300 14
	movq	-8(%rbp), %rax
	movq	%rax, %rdx
	shrq	$3, %rdx
	addq	$2147450880, %rdx
	movzbl	(%rdx), %edx
	testb	%dl, %dl
	setne	%sil
	movq	%rax, %rdi
	andl	$7, %edi
	cmpb	%dl, %dil
	setge	%dl
	andl	%esi, %edx
	testb	%dl, %dl
	je	.L8
	movq	%rax, %rdi
	call	__asan_report_store1@PLT
.L8:
	movq	-8(%rbp), %rax
	movb	%cl, (%rax)
	.loc 3 300 22
	nop
	leave
	.cfi_def_cfa 7, 8
	ret
	.cfi_endproc
.LFE397:
	.size	_ZNSt11char_traitsIcE6assignERcRKc, .-_ZNSt11char_traitsIcE6assignERcRKc
	.section	.text._ZNSt11char_traitsIcE6lengthEPKc,"axG",@progbits,_ZNSt11char_traitsIcE6lengthEPKc,comdat
	.weak	_ZNSt11char_traitsIcE6lengthEPKc
	.type	_ZNSt11char_traitsIcE6lengthEPKc, @function
_ZNSt11char_traitsIcE6lengthEPKc:
.LASANPC402:
.LFB402:
	.loc 3 329 7
	.cfi_startproc
	endbr64
	pushq	%rbp
	.cfi_def_cfa_offset 16
	.cfi_offset 6, -16
	movq	%rsp, %rbp
	.cfi_def_cfa_register 6
	subq	$32, %rsp
	movq	%rdi, -24(%rbp)
	movq	-24(%rbp), %rax
	movq	%rax, -8(%rbp)
.LBB4:
.LBB5:
	.loc 3 236 46
	movl	$0, %eax
.LBE5:
.LBE4:
	.loc 3 332 2
	testb	%al, %al
	je	.L11
	.loc 3 333 52
	movq	-24(%rbp), %rax
	movq	%rax, %rdi
	call	_ZN9__gnu_cxx11char_traitsIcE6lengthEPKc
	.loc 3 333 56
	jmp	.L12
.L11:
	.loc 3 335 25
	movq	-24(%rbp), %rax
	movq	%rax, %rdi
	call	strlen@PLT
	.loc 3 335 29
	nop
.L12:
	.loc 3 336 7
	leave
	.cfi_def_cfa 7, 8
	ret
	.cfi_endproc
.LFE402:
	.size	_ZNSt11char_traitsIcE6lengthEPKc, .-_ZNSt11char_traitsIcE6lengthEPKc
	.section	.text._ZStorSt13_Ios_OpenmodeS_,"axG",@progbits,_ZStorSt13_Ios_OpenmodeS_,comdat
	.weak	_ZStorSt13_Ios_OpenmodeS_
	.type	_ZStorSt13_Ios_OpenmodeS_, @function
_ZStorSt13_Ios_OpenmodeS_:
.LASANPC1423:
.LFB1423:
	.file 4 "/usr/include/c++/9/bits/ios_base.h"
	.loc 4 130 3
	.cfi_startproc
	endbr64
	pushq	%rbp
	.cfi_def_cfa_offset 16
	.cfi_offset 6, -16
	movq	%rsp, %rbp
	.cfi_def_cfa_register 6
	movl	%edi, -4(%rbp)
	movl	%esi, -8(%rbp)
	.loc 4 130 71
	movl	-4(%rbp), %eax
	orl	-8(%rbp), %eax
	.loc 4 130 74
	popq	%rbp
	.cfi_def_cfa 7, 8
	ret
	.cfi_endproc
.LFE1423:
	.size	_ZStorSt13_Ios_OpenmodeS_, .-_ZStorSt13_Ios_OpenmodeS_
	.bss
	.align 32
	.type	_ZStL8__ioinit, @object
	.size	_ZStL8__ioinit, 1
_ZStL8__ioinit:
	.zero	64
	.section	.text._ZNSt14_Bit_referenceC2EPmm,"axG",@progbits,_ZNSt14_Bit_referenceC5EPmm,comdat
	.align 2
	.weak	_ZNSt14_Bit_referenceC2EPmm
	.type	_ZNSt14_Bit_referenceC2EPmm, @function
_ZNSt14_Bit_referenceC2EPmm:
.LASANPC2033:
.LFB2033:
	.file 5 "/usr/include/c++/9/bits/stl_bvector.h"
	.loc 5 77 5
	.cfi_startproc
	endbr64
	pushq	%rbp
	.cfi_def_cfa_offset 16
	.cfi_offset 6, -16
	movq	%rsp, %rbp
	.cfi_def_cfa_register 6
	subq	$32, %rsp
	movq	%rdi, -8(%rbp)
	movq	%rsi, -16(%rbp)
	movq	%rdx, -24(%rbp)
.LBB6:
	.loc 5 78 29
	movq	-8(%rbp), %rax
	movq	%rax, %rdx
	shrq	$3, %rdx
	addq	$2147450880, %rdx
	movzbl	(%rdx), %edx
	testb	%dl, %dl
	je	.L16
	movq	%rax, %rdi
	call	__asan_report_store8@PLT
.L16:
	movq	-8(%rbp), %rax
	movq	-16(%rbp), %rdx
	movq	%rdx, (%rax)
	movq	-8(%rbp), %rax
	addq	$8, %rax
	movq	%rax, %rdx
	shrq	$3, %rdx
	addq	$2147450880, %rdx
	movzbl	(%rdx), %edx
	testb	%dl, %dl
	je	.L17
	movq	%rax, %rdi
	call	__asan_report_store8@PLT
.L17:
	movq	-8(%rbp), %rax
	movq	-24(%rbp), %rdx
	movq	%rdx, 8(%rax)
.LBE6:
	.loc 5 78 33
	nop
	leave
	.cfi_def_cfa 7, 8
	ret
	.cfi_endproc
.LFE2033:
	.size	_ZNSt14_Bit_referenceC2EPmm, .-_ZNSt14_Bit_referenceC2EPmm
	.weak	_ZNSt14_Bit_referenceC1EPmm
	.set	_ZNSt14_Bit_referenceC1EPmm,_ZNSt14_Bit_referenceC2EPmm
	.section	.text._ZNKSt14_Bit_referencecvbEv,"axG",@progbits,_ZNKSt14_Bit_referencecvbEv,comdat
	.align 2
	.weak	_ZNKSt14_Bit_referencecvbEv
	.type	_ZNKSt14_Bit_referencecvbEv, @function
_ZNKSt14_Bit_referencecvbEv:
.LASANPC2038:
.LFB2038:
	.loc 5 86 5
	.cfi_startproc
	endbr64
	pushq	%rbp
	.cfi_def_cfa_offset 16
	.cfi_offset 6, -16
	movq	%rsp, %rbp
	.cfi_def_cfa_register 6
	subq	$16, %rsp
	movq	%rdi, -8(%rbp)
	.loc 5 87 18
	movq	-8(%rbp), %rax
	movq	%rax, %rdx
	shrq	$3, %rdx
	addq	$2147450880, %rdx
	movzbl	(%rdx), %edx
	testb	%dl, %dl
	je	.L19
	movq	%rax, %rdi
	call	__asan_report_load8@PLT
.L19:
	movq	-8(%rbp), %rax
	movq	(%rax), %rax
	.loc 5 87 17
	movq	%rax, %rdx
	movq	%rdx, %rcx
	shrq	$3, %rcx
	addq	$2147450880, %rcx
	movzbl	(%rcx), %ecx
	testb	%cl, %cl
	je	.L20
	movq	%rdx, %rdi
	call	__asan_report_load8@PLT
.L20:
	movq	(%rax), %rcx
	.loc 5 87 25
	movq	-8(%rbp), %rax
	addq	$8, %rax
	movq	%rax, %rdx
	shrq	$3, %rdx
	addq	$2147450880, %rdx
	movzbl	(%rdx), %edx
	testb	%dl, %dl
	je	.L21
	movq	%rax, %rdi
	call	__asan_report_load8@PLT
.L21:
	movq	-8(%rbp), %rax
	movq	8(%rax), %rax
	.loc 5 87 23
	andq	%rcx, %rax
	.loc 5 87 32
	testq	%rax, %rax
	setne	%al
	.loc 5 87 35
	leave
	.cfi_def_cfa 7, 8
	ret
	.cfi_endproc
.LFE2038:
	.size	_ZNKSt14_Bit_referencecvbEv, .-_ZNKSt14_Bit_referencecvbEv
	.section	.text._ZNSt14_Bit_referenceaSEb,"axG",@progbits,_ZNSt14_Bit_referenceaSEb,comdat
	.align 2
	.weak	_ZNSt14_Bit_referenceaSEb
	.type	_ZNSt14_Bit_referenceaSEb, @function
_ZNSt14_Bit_referenceaSEb:
.LASANPC2039:
.LFB2039:
	.loc 5 90 5
	.cfi_startproc
	endbr64
	pushq	%rbp
	.cfi_def_cfa_offset 16
	.cfi_offset 6, -16
	movq	%rsp, %rbp
	.cfi_def_cfa_register 6
	subq	$16, %rsp
	movq	%rdi, -8(%rbp)
	movl	%esi, %eax
	movb	%al, -12(%rbp)
	.loc 5 92 7
	cmpb	$0, -12(%rbp)
	je	.L24
	.loc 5 93 3
	movq	-8(%rbp), %rax
	movq	%rax, %rdx
	shrq	$3, %rdx
	addq	$2147450880, %rdx
	movzbl	(%rdx), %edx
	testb	%dl, %dl
	je	.L25
	movq	%rax, %rdi
	call	__asan_report_load8@PLT
.L25:
	movq	-8(%rbp), %rax
	movq	(%rax), %rax
	.loc 5 93 8
	movq	%rax, %rdx
	movq	%rdx, %rcx
	shrq	$3, %rcx
	addq	$2147450880, %rcx
	movzbl	(%rcx), %ecx
	testb	%cl, %cl
	je	.L26
	movq	%rdx, %rdi
	call	__asan_report_load8@PLT
.L26:
	movq	(%rax), %rcx
	.loc 5 93 11
	movq	-8(%rbp), %rax
	addq	$8, %rax
	movq	%rax, %rdx
	shrq	$3, %rdx
	addq	$2147450880, %rdx
	movzbl	(%rdx), %edx
	testb	%dl, %dl
	je	.L27
	movq	%rax, %rdi
	call	__asan_report_load8@PLT
.L27:
	movq	-8(%rbp), %rax
	movq	8(%rax), %rdx
	.loc 5 93 3
	movq	-8(%rbp), %rax
	movq	(%rax), %rax
	.loc 5 93 8
	movq	%rcx, %rsi
	orq	%rdx, %rsi
	movq	%rax, %rdx
	movq	%rdx, %rcx
	shrq	$3, %rcx
	addq	$2147450880, %rcx
	movzbl	(%rcx), %ecx
	testb	%cl, %cl
	je	.L28
	movq	%rdx, %rdi
	call	__asan_report_store8@PLT
.L28:
	movq	%rsi, (%rax)
	jmp	.L29
.L24:
	.loc 5 95 3
	movq	-8(%rbp), %rax
	movq	%rax, %rdx
	shrq	$3, %rdx
	addq	$2147450880, %rdx
	movzbl	(%rdx), %edx
	testb	%dl, %dl
	je	.L30
	movq	%rax, %rdi
	call	__asan_report_load8@PLT
.L30:
	movq	-8(%rbp), %rax
	movq	(%rax), %rax
	.loc 5 95 8
	movq	%rax, %rdx
	movq	%rdx, %rcx
	shrq	$3, %rcx
	addq	$2147450880, %rcx
	movzbl	(%rcx), %ecx
	testb	%cl, %cl
	je	.L31
	movq	%rdx, %rdi
	call	__asan_report_load8@PLT
.L31:
	movq	(%rax), %rcx
	.loc 5 95 12
	movq	-8(%rbp), %rax
	addq	$8, %rax
	movq	%rax, %rdx
	shrq	$3, %rdx
	addq	$2147450880, %rdx
	movzbl	(%rdx), %edx
	testb	%dl, %dl
	je	.L32
	movq	%rax, %rdi
	call	__asan_report_load8@PLT
.L32:
	movq	-8(%rbp), %rax
	movq	8(%rax), %rax
	.loc 5 95 11
	notq	%rax
	movq	%rax, %rdx
	.loc 5 95 3
	movq	-8(%rbp), %rax
	movq	(%rax), %rax
	.loc 5 95 8
	movq	%rcx, %rsi
	andq	%rdx, %rsi
	movq	%rax, %rdx
	movq	%rdx, %rcx
	shrq	$3, %rcx
	addq	$2147450880, %rcx
	movzbl	(%rcx), %ecx
	testb	%cl, %cl
	je	.L33
	movq	%rdx, %rdi
	call	__asan_report_store8@PLT
.L33:
	movq	%rsi, (%rax)
.L29:
	.loc 5 96 15
	movq	-8(%rbp), %rax
	.loc 5 97 5
	leave
	.cfi_def_cfa 7, 8
	ret
	.cfi_endproc
.LFE2039:
	.size	_ZNSt14_Bit_referenceaSEb, .-_ZNSt14_Bit_referenceaSEb
	.section	.text._ZNSt18_Bit_iterator_baseC2EPmj,"axG",@progbits,_ZNSt18_Bit_iterator_baseC5EPmj,comdat
	.align 2
	.weak	_ZNSt18_Bit_iterator_baseC2EPmj
	.type	_ZNSt18_Bit_iterator_baseC2EPmj, @function
_ZNSt18_Bit_iterator_baseC2EPmj:
.LASANPC2048:
.LFB2048:
	.loc 5 148 5
	.cfi_startproc
	endbr64
	pushq	%rbp
	.cfi_def_cfa_offset 16
	.cfi_offset 6, -16
	movq	%rsp, %rbp
	.cfi_def_cfa_register 6
	subq	$32, %rsp
	movq	%rdi, -8(%rbp)
	movq	%rsi, -16(%rbp)
	movl	%edx, -20(%rbp)
.LBB7:
	.loc 5 149 31
	movq	-8(%rbp), %rax
	movq	%rax, %rdx
	shrq	$3, %rdx
	addq	$2147450880, %rdx
	movzbl	(%rdx), %edx
	testb	%dl, %dl
	je	.L36
	movq	%rax, %rdi
	call	__asan_report_store8@PLT
.L36:
	movq	-8(%rbp), %rax
	movq	-16(%rbp), %rdx
	movq	%rdx, (%rax)
	movq	-8(%rbp), %rax
	addq	$8, %rax
	movq	%rax, %rdx
	movq	%rdx, %rax
	shrq	$3, %rax
	addq	$2147450880, %rax
	movzbl	(%rax), %eax
	testb	%al, %al
	setne	%cl
	cmpb	$3, %al
	setle	%al
	andl	%ecx, %eax
	testb	%al, %al
	je	.L37
	movq	%rdx, %rdi
	call	__asan_report_store4@PLT
.L37:
	movq	-8(%rbp), %rax
	movl	-20(%rbp), %edx
	movl	%edx, 8(%rax)
.LBE7:
	.loc 5 149 35
	nop
	leave
	.cfi_def_cfa 7, 8
	ret
	.cfi_endproc
.LFE2048:
	.size	_ZNSt18_Bit_iterator_baseC2EPmj, .-_ZNSt18_Bit_iterator_baseC2EPmj
	.weak	_ZNSt18_Bit_iterator_baseC1EPmj
	.set	_ZNSt18_Bit_iterator_baseC1EPmj,_ZNSt18_Bit_iterator_baseC2EPmj
	.section	.text._ZNSt18_Bit_iterator_base10_M_bump_upEv,"axG",@progbits,_ZNSt18_Bit_iterator_base10_M_bump_upEv,comdat
	.align 2
	.weak	_ZNSt18_Bit_iterator_base10_M_bump_upEv
	.type	_ZNSt18_Bit_iterator_base10_M_bump_upEv, @function
_ZNSt18_Bit_iterator_base10_M_bump_upEv:
.LASANPC2050:
.LFB2050:
	.loc 5 152 5
	.cfi_startproc
	endbr64
	pushq	%rbp
	.cfi_def_cfa_offset 16
	.cfi_offset 6, -16
	movq	%rsp, %rbp
	.cfi_def_cfa_register 6
	subq	$16, %rsp
	movq	%rdi, -8(%rbp)
	.loc 5 154 11
	movq	-8(%rbp), %rax
	addq	$8, %rax
	movq	%rax, %rdx
	movq	%rdx, %rax
	shrq	$3, %rax
	addq	$2147450880, %rax
	movzbl	(%rax), %eax
	testb	%al, %al
	setne	%cl
	cmpb	$3, %al
	setle	%al
	andl	%ecx, %eax
	testb	%al, %al
	je	.L39
	movq	%rdx, %rdi
	call	__asan_report_load4@PLT
.L39:
	movq	-8(%rbp), %rax
	movl	8(%rax), %eax
	.loc 5 154 20
	leal	1(%rax), %ecx
	movq	-8(%rbp), %rdx
	movl	%ecx, 8(%rdx)
	.loc 5 154 23
	cmpl	$63, %eax
	sete	%al
	.loc 5 154 7
	testb	%al, %al
	je	.L42
	.loc 5 156 14
	movq	-8(%rbp), %rax
	movl	$0, 8(%rax)
	.loc 5 157 6
	movq	-8(%rbp), %rax
	movq	%rax, %rdx
	shrq	$3, %rdx
	addq	$2147450880, %rdx
	movzbl	(%rdx), %edx
	testb	%dl, %dl
	je	.L41
	movq	%rax, %rdi
	call	__asan_report_load8@PLT
.L41:
	movq	-8(%rbp), %rax
	movq	(%rax), %rax
	.loc 5 157 4
	leaq	8(%rax), %rdx
	movq	-8(%rbp), %rax
	movq	%rdx, (%rax)
.L42:
	.loc 5 159 5
	nop
	leave
	.cfi_def_cfa 7, 8
	ret
	.cfi_endproc
.LFE2050:
	.size	_ZNSt18_Bit_iterator_base10_M_bump_upEv, .-_ZNSt18_Bit_iterator_base10_M_bump_upEv
	.section	.text._ZNSt18_Bit_iterator_base7_M_incrEl,"axG",@progbits,_ZNSt18_Bit_iterator_base7_M_incrEl,comdat
	.align 2
	.weak	_ZNSt18_Bit_iterator_base7_M_incrEl
	.type	_ZNSt18_Bit_iterator_base7_M_incrEl, @function
_ZNSt18_Bit_iterator_base7_M_incrEl:
.LASANPC2052:
.LFB2052:
	.loc 5 172 5
	.cfi_startproc
	endbr64
	pushq	%rbp
	.cfi_def_cfa_offset 16
	.cfi_offset 6, -16
	movq	%rsp, %rbp
	.cfi_def_cfa_register 6
	subq	$32, %rsp
	movq	%rdi, -24(%rbp)
	movq	%rsi, -32(%rbp)
	.loc 5 174 35
	movq	-24(%rbp), %rax
	addq	$8, %rax
	movq	%rax, %rdx
	movq	%rdx, %rax
	shrq	$3, %rax
	addq	$2147450880, %rax
	movzbl	(%rax), %eax
	testb	%al, %al
	setne	%cl
	cmpb	$3, %al
	setle	%al
	andl	%ecx, %eax
	testb	%al, %al
	je	.L44
	movq	%rdx, %rdi
	call	__asan_report_load4@PLT
.L44:
	movq	-24(%rbp), %rax
	movl	8(%rax), %eax
	movl	%eax, %edx
	.loc 5 174 23
	movq	-32(%rbp), %rax
	addq	%rdx, %rax
	movq	%rax, -8(%rbp)
	.loc 5 175 12
	movq	-24(%rbp), %rax
	movq	%rax, %rdx
	shrq	$3, %rdx
	addq	$2147450880, %rdx
	movzbl	(%rdx), %edx
	testb	%dl, %dl
	je	.L45
	movq	%rax, %rdi
	call	__asan_report_load8@PLT
.L45:
	movq	-24(%rbp), %rax
	movq	(%rax), %rdx
	.loc 5 175 19
	movq	-8(%rbp), %rax
	leaq	63(%rax), %rcx
	testq	%rax, %rax
	cmovs	%rcx, %rax
	sarq	$6, %rax
	.loc 5 175 12
	salq	$3, %rax
	addq	%rax, %rdx
	movq	-24(%rbp), %rax
	movq	%rdx, (%rax)
	.loc 5 176 11
	movq	-8(%rbp), %rax
	cqto
	shrq	$58, %rdx
	addq	%rdx, %rax
	andl	$63, %eax
	subq	%rdx, %rax
	movq	%rax, -8(%rbp)
	.loc 5 177 7
	cmpq	$0, -8(%rbp)
	jns	.L46
	.loc 5 179 8
	addq	$64, -8(%rbp)
	.loc 5 180 6
	movq	-24(%rbp), %rax
	movq	(%rax), %rax
	.loc 5 180 4
	leaq	-8(%rax), %rdx
	movq	-24(%rbp), %rax
	movq	%rdx, (%rax)
.L46:
	.loc 5 182 17
	movq	-8(%rbp), %rax
	movl	%eax, %esi
	movq	-24(%rbp), %rax
	addq	$8, %rax
	movq	%rax, %rdx
	movq	%rdx, %rax
	shrq	$3, %rax
	addq	$2147450880, %rax
	movzbl	(%rax), %eax
	testb	%al, %al
	setne	%cl
	cmpb	$3, %al
	setle	%al
	andl	%ecx, %eax
	testb	%al, %al
	je	.L47
	movq	%rdx, %rdi
	call	__asan_report_store4@PLT
.L47:
	movq	-24(%rbp), %rax
	movl	%esi, 8(%rax)
	.loc 5 183 5
	nop
	leave
	.cfi_def_cfa 7, 8
	ret
	.cfi_endproc
.LFE2052:
	.size	_ZNSt18_Bit_iterator_base7_M_incrEl, .-_ZNSt18_Bit_iterator_base7_M_incrEl
	.section	.text._ZStmiRKSt18_Bit_iterator_baseS1_,"axG",@progbits,_ZStmiRKSt18_Bit_iterator_baseS1_,comdat
	.weak	_ZStmiRKSt18_Bit_iterator_baseS1_
	.type	_ZStmiRKSt18_Bit_iterator_baseS1_, @function
_ZStmiRKSt18_Bit_iterator_baseS1_:
.LASANPC2059:
.LFB2059:
	.loc 5 215 3
	.cfi_startproc
	endbr64
	pushq	%rbp
	.cfi_def_cfa_offset 16
	.cfi_offset 6, -16
	movq	%rsp, %rbp
	.cfi_def_cfa_register 6
	subq	$16, %rsp
	movq	%rdi, -8(%rbp)
	movq	%rsi, -16(%rbp)
	.loc 5 216 37
	movq	-8(%rbp), %rax
	movq	%rax, %rdx
	shrq	$3, %rdx
	addq	$2147450880, %rdx
	movzbl	(%rdx), %edx
	testb	%dl, %dl
	je	.L49
	movq	%rax, %rdi
	call	__asan_report_load8@PLT
.L49:
	movq	-8(%rbp), %rax
	movq	(%rax), %rcx
	.loc 5 216 48
	movq	-16(%rbp), %rax
	movq	%rax, %rdx
	shrq	$3, %rdx
	addq	$2147450880, %rdx
	movzbl	(%rdx), %edx
	testb	%dl, %dl
	je	.L50
	movq	%rax, %rdi
	call	__asan_report_load8@PLT
.L50:
	movq	-16(%rbp), %rax
	movq	(%rax), %rax
	.loc 5 216 42
	subq	%rax, %rcx
	movq	%rcx, %rax
	.loc 5 217 6
	leaq	0(,%rax,8), %rcx
	.loc 5 217 12
	movq	-8(%rbp), %rax
	addq	$8, %rax
	movq	%rax, %rdx
	movq	%rdx, %rax
	shrq	$3, %rax
	addq	$2147450880, %rax
	movzbl	(%rax), %eax
	testb	%al, %al
	setne	%sil
	cmpb	$3, %al
	setle	%al
	andl	%esi, %eax
	testb	%al, %al
	je	.L51
	movq	%rdx, %rdi
	call	__asan_report_load4@PLT
.L51:
	movq	-8(%rbp), %rax
	movl	8(%rax), %eax
	movl	%eax, %eax
	.loc 5 217 6
	addq	%rax, %rcx
	.loc 5 217 28
	movq	-16(%rbp), %rax
	addq	$8, %rax
	movq	%rax, %rdx
	movq	%rdx, %rax
	shrq	$3, %rax
	addq	$2147450880, %rax
	movzbl	(%rax), %eax
	testb	%al, %al
	setne	%sil
	cmpb	$3, %al
	setle	%al
	andl	%esi, %eax
	testb	%al, %al
	je	.L52
	movq	%rdx, %rdi
	call	__asan_report_load4@PLT
.L52:
	movq	-16(%rbp), %rax
	movl	8(%rax), %eax
	movl	%eax, %eax
	.loc 5 217 37
	subq	%rax, %rcx
	movq	%rcx, %rax
	.loc 5 218 3
	leave
	.cfi_def_cfa 7, 8
	ret
	.cfi_endproc
.LFE2059:
	.size	_ZStmiRKSt18_Bit_iterator_baseS1_, .-_ZStmiRKSt18_Bit_iterator_baseS1_
	.section	.text._ZNSt13_Bit_iteratorC2Ev,"axG",@progbits,_ZNSt13_Bit_iteratorC5Ev,comdat
	.align 2
	.weak	_ZNSt13_Bit_iteratorC2Ev
	.type	_ZNSt13_Bit_iteratorC2Ev, @function
_ZNSt13_Bit_iteratorC2Ev:
.LASANPC2061:
.LFB2061:
	.loc 5 226 5
	.cfi_startproc
	endbr64
	pushq	%rbp
	.cfi_def_cfa_offset 16
	.cfi_offset 6, -16
	movq	%rsp, %rbp
	.cfi_def_cfa_register 6
	subq	$16, %rsp
	movq	%rdi, -8(%rbp)
.LBB8:
	.loc 5 226 46
	movq	-8(%rbp), %rax
	movl	$0, %edx
	movl	$0, %esi
	movq	%rax, %rdi
	call	_ZNSt18_Bit_iterator_baseC2EPmj
.LBE8:
	.loc 5 226 50
	nop
	leave
	.cfi_def_cfa 7, 8
	ret
	.cfi_endproc
.LFE2061:
	.size	_ZNSt13_Bit_iteratorC2Ev, .-_ZNSt13_Bit_iteratorC2Ev
	.weak	_ZNSt13_Bit_iteratorC1Ev
	.set	_ZNSt13_Bit_iteratorC1Ev,_ZNSt13_Bit_iteratorC2Ev
	.section	.text._ZNSt13_Bit_iteratorC2EPmj,"axG",@progbits,_ZNSt13_Bit_iteratorC5EPmj,comdat
	.align 2
	.weak	_ZNSt13_Bit_iteratorC2EPmj
	.type	_ZNSt13_Bit_iteratorC2EPmj, @function
_ZNSt13_Bit_iteratorC2EPmj:
.LASANPC2064:
.LFB2064:
	.loc 5 228 5
	.cfi_startproc
	endbr64
	pushq	%rbp
	.cfi_def_cfa_offset 16
	.cfi_offset 6, -16
	movq	%rsp, %rbp
	.cfi_def_cfa_register 6
	subq	$32, %rsp
	movq	%rdi, -8(%rbp)
	movq	%rsi, -16(%rbp)
	movl	%edx, -20(%rbp)
.LBB9:
	.loc 5 229 34
	movq	-8(%rbp), %rax
	movl	-20(%rbp), %edx
	movq	-16(%rbp), %rcx
	movq	%rcx, %rsi
	movq	%rax, %rdi
	call	_ZNSt18_Bit_iterator_baseC2EPmj
.LBE9:
	.loc 5 229 38
	nop
	leave
	.cfi_def_cfa 7, 8
	ret
	.cfi_endproc
.LFE2064:
	.size	_ZNSt13_Bit_iteratorC2EPmj, .-_ZNSt13_Bit_iteratorC2EPmj
	.weak	_ZNSt13_Bit_iteratorC1EPmj
	.set	_ZNSt13_Bit_iteratorC1EPmj,_ZNSt13_Bit_iteratorC2EPmj
	.globl	__asan_stack_malloc_0
	.section	.rodata
.LC0:
	.string	"1 32 16 9 <unknown>"
	.section	.text._ZNKSt13_Bit_iteratordeEv,"axG",@progbits,_ZNKSt13_Bit_iteratordeEv,comdat
	.align 2
	.weak	_ZNKSt13_Bit_iteratordeEv
	.type	_ZNKSt13_Bit_iteratordeEv, @function
_ZNKSt13_Bit_iteratordeEv:
.LASANPC2067:
.LFB2067:
	.loc 5 236 5
	.cfi_startproc
	endbr64
	pushq	%rbp
	.cfi_def_cfa_offset 16
	.cfi_offset 6, -16
	movq	%rsp, %rbp
	.cfi_def_cfa_register 6
	pushq	%r14
	pushq	%r13
	pushq	%r12
	pushq	%rbx
	subq	$112, %rsp
	.cfi_offset 14, -24
	.cfi_offset 13, -32
	.cfi_offset 12, -40
	.cfi_offset 3, -48
	movq	%rdi, -136(%rbp)
	leaq	-128(%rbp), %rbx
	movq	%rbx, %r14
	cmpl	$0, __asan_option_detect_stack_use_after_return(%rip)
	je	.L56
	movl	$64, %edi
	call	__asan_stack_malloc_0@PLT
.LVL0:
	testq	%rax, %rax
	je	.L56
	movq	%rax, %rbx
.L56:
	leaq	96(%rbx), %rax
	movq	%rax, %r13
	movq	$1102416563, (%rbx)
	leaq	.LC0(%rip), %rax
	movq	%rax, 8(%rbx)
	leaq	.LASANPC2067(%rip), %rax
	movq	%rax, 16(%rbx)
	movq	%rbx, %r12
	shrq	$3, %r12
	movl	$-235802127, 2147450880(%r12)
	movl	$-202178560, 2147450884(%r12)
	.loc 5 236 5
	movq	%fs:40, %rax
	movq	%rax, -40(%rbp)
	xorl	%eax, %eax
	.loc 5 237 37
	movq	-136(%rbp), %rax
	addq	$8, %rax
	movq	%rax, %rdx
	movq	%rdx, %rax
	shrq	$3, %rax
	addq	$2147450880, %rax
	movzbl	(%rax), %eax
	testb	%al, %al
	setne	%cl
	cmpb	$3, %al
	setle	%al
	andl	%ecx, %eax
	testb	%al, %al
	je	.L60
	movq	%rdx, %rdi
	call	__asan_report_load4@PLT
.L60:
	movq	-136(%rbp), %rax
	movl	8(%rax), %eax
	.loc 5 237 14
	movl	$1, %edx
	movl	%eax, %ecx
	salq	%cl, %rdx
	.loc 5 237 24
	movq	-136(%rbp), %rax
	movq	%rax, %rcx
	shrq	$3, %rcx
	addq	$2147450880, %rcx
	movzbl	(%rcx), %ecx
	testb	%cl, %cl
	je	.L61
	movq	%rax, %rdi
	call	__asan_report_load8@PLT
.L61:
	movq	-136(%rbp), %rax
	movq	(%rax), %rcx
	.loc 5 237 14
	leaq	-64(%r13), %rax
	movq	%rcx, %rsi
	movq	%rax, %rdi
	call	_ZNSt14_Bit_referenceC1EPmm
	.loc 5 237 46
	leaq	-64(%r13), %rax
	movq	%rax, %rdx
	shrq	$3, %rdx
	addq	$2147450880, %rdx
	movzwl	(%rdx), %edx
	testw	%dx, %dx
	je	.L62
	movq	%rax, %rdi
	call	__asan_report_load16@PLT
.L62:
	movq	-64(%r13), %rax
	movq	-56(%r13), %rdx
	.loc 5 236 5
	cmpq	%rbx, %r14
	je	.L57
	movq	$1172321806, (%rbx)
	movabsq	$-723401728380766731, %rsi
	movq	%rsi, 2147450880(%r12)
	movq	56(%rbx), %rcx
	movb	$0, (%rcx)
	jmp	.L58
.L57:
	movq	$0, 2147450880(%r12)
.L58:
	.loc 5 237 49
	movq	-40(%rbp), %rsi
	xorq	%fs:40, %rsi
	je	.L64
	call	__stack_chk_fail@PLT
.L64:
	addq	$112, %rsp
	popq	%rbx
	popq	%r12
	popq	%r13
	popq	%r14
	popq	%rbp
	.cfi_def_cfa 7, 8
	ret
	.cfi_endproc
.LFE2067:
	.size	_ZNKSt13_Bit_iteratordeEv, .-_ZNKSt13_Bit_iteratordeEv
	.section	.text._ZNSt13_Bit_iteratorppEv,"axG",@progbits,_ZNSt13_Bit_iteratorppEv,comdat
	.align 2
	.weak	_ZNSt13_Bit_iteratorppEv
	.type	_ZNSt13_Bit_iteratorppEv, @function
_ZNSt13_Bit_iteratorppEv:
.LASANPC2068:
.LFB2068:
	.loc 5 240 5
	.cfi_startproc
	endbr64
	pushq	%rbp
	.cfi_def_cfa_offset 16
	.cfi_offset 6, -16
	movq	%rsp, %rbp
	.cfi_def_cfa_register 6
	subq	$16, %rsp
	movq	%rdi, -8(%rbp)
	.loc 5 242 17
	movq	-8(%rbp), %rax
	movq	%rax, %rdi
	call	_ZNSt18_Bit_iterator_base10_M_bump_upEv
	.loc 5 243 15
	movq	-8(%rbp), %rax
	.loc 5 244 5
	leave
	.cfi_def_cfa 7, 8
	ret
	.cfi_endproc
.LFE2068:
	.size	_ZNSt13_Bit_iteratorppEv, .-_ZNSt13_Bit_iteratorppEv
	.section	.text._ZNSt13_Bit_iteratorpLEl,"axG",@progbits,_ZNSt13_Bit_iteratorpLEl,comdat
	.align 2
	.weak	_ZNSt13_Bit_iteratorpLEl
	.type	_ZNSt13_Bit_iteratorpLEl, @function
_ZNSt13_Bit_iteratorpLEl:
.LASANPC2072:
.LFB2072:
	.loc 5 270 5
	.cfi_startproc
	endbr64
	pushq	%rbp
	.cfi_def_cfa_offset 16
	.cfi_offset 6, -16
	movq	%rsp, %rbp
	.cfi_def_cfa_register 6
	subq	$16, %rsp
	movq	%rdi, -8(%rbp)
	movq	%rsi, -16(%rbp)
	.loc 5 272 14
	movq	-8(%rbp), %rax
	movq	-16(%rbp), %rdx
	movq	%rdx, %rsi
	movq	%rax, %rdi
	call	_ZNSt18_Bit_iterator_base7_M_incrEl
	.loc 5 273 15
	movq	-8(%rbp), %rax
	.loc 5 274 5
	leave
	.cfi_def_cfa 7, 8
	ret
	.cfi_endproc
.LFE2072:
	.size	_ZNSt13_Bit_iteratorpLEl, .-_ZNSt13_Bit_iteratorpLEl
	.section	.rodata
.LC1:
	.string	"1 32 16 9 __tmp:286"
	.section	.text._ZNKSt13_Bit_iteratorplEl,"axG",@progbits,_ZNKSt13_Bit_iteratorplEl,comdat
	.align 2
	.weak	_ZNKSt13_Bit_iteratorplEl
	.type	_ZNKSt13_Bit_iteratorplEl, @function
_ZNKSt13_Bit_iteratorplEl:
.LASANPC2074:
.LFB2074:
	.loc 5 284 5
	.cfi_startproc
	endbr64
	pushq	%rbp
	.cfi_def_cfa_offset 16
	.cfi_offset 6, -16
	movq	%rsp, %rbp
	.cfi_def_cfa_register 6
	pushq	%r13
	pushq	%r12
	pushq	%rbx
	subq	$152, %rsp
	.cfi_offset 13, -24
	.cfi_offset 12, -32
	.cfi_offset 3, -40
	movq	%rdi, -152(%rbp)
	movq	%rsi, -160(%rbp)
	leaq	-128(%rbp), %rbx
	movq	%rbx, %r13
	cmpl	$0, __asan_option_detect_stack_use_after_return(%rip)
	je	.L69
	movl	$64, %edi
	call	__asan_stack_malloc_0@PLT
.LVL1:
	testq	%rax, %rax
	je	.L69
	movq	%rax, %rbx
.L69:
	leaq	96(%rbx), %rax
	movq	$1102416563, (%rbx)
	leaq	.LC1(%rip), %rdx
	movq	%rdx, 8(%rbx)
	leaq	.LASANPC2074(%rip), %rdx
	movq	%rdx, 16(%rbx)
	movq	%rbx, %r12
	shrq	$3, %r12
	movl	$-235802127, 2147450880(%r12)
	movl	$-202178560, 2147450884(%r12)
	.loc 5 284 5
	movq	%fs:40, %rsi
	movq	%rsi, -40(%rbp)
	xorl	%esi, %esi
	.loc 5 286 16
	leaq	-64(%rax), %rdx
	movq	%rdx, %rcx
	shrq	$3, %rcx
	addq	$2147450880, %rcx
	movzwl	(%rcx), %ecx
	testw	%cx, %cx
	je	.L73
	movq	%rdx, %rdi
	call	__asan_report_store16@PLT
.L73:
	movq	-152(%rbp), %rdx
	movq	%rdx, %rcx
	shrq	$3, %rcx
	addq	$2147450880, %rcx
	movzwl	(%rcx), %ecx
	testw	%cx, %cx
	je	.L74
	movq	%rdx, %rdi
	call	__asan_report_load16@PLT
.L74:
	movq	-152(%rbp), %rdx
	movq	(%rdx), %rsi
	movq	8(%rdx), %rdi
	movq	%rsi, -64(%rax)
	movq	%rdi, -56(%rax)
	.loc 5 287 23
	movq	-160(%rbp), %rdx
	subq	$64, %rax
	movq	%rdx, %rsi
	movq	%rax, %rdi
	call	_ZNSt13_Bit_iteratorpLEl
	movq	%rax, %rdx
	movq	%rdx, %rcx
	shrq	$3, %rcx
	addq	$2147450880, %rcx
	movzwl	(%rcx), %ecx
	testw	%cx, %cx
	je	.L75
	movq	%rdx, %rdi
	call	__asan_report_load16@PLT
.L75:
	movq	8(%rax), %rdx
	movq	(%rax), %rax
	movq	%rax, -144(%rbp)
	movq	%rdx, -136(%rbp)
	movq	-144(%rbp), %rax
	movq	-136(%rbp), %rdx
	.loc 5 284 5
	cmpq	%rbx, %r13
	je	.L70
	movq	$1172321806, (%rbx)
	movabsq	$-723401728380766731, %rsi
	movq	%rsi, 2147450880(%r12)
	movq	56(%rbx), %rcx
	movb	$0, (%rcx)
	jmp	.L71
.L70:
	movq	$0, 2147450880(%r12)
.L71:
	.loc 5 288 5
	movq	-40(%rbp), %rdi
	xorq	%fs:40, %rdi
	je	.L77
	call	__stack_chk_fail@PLT
.L77:
	addq	$152, %rsp
	popq	%rbx
	popq	%r12
	popq	%r13
	popq	%rbp
	.cfi_def_cfa 7, 8
	ret
	.cfi_endproc
.LFE2074:
	.size	_ZNKSt13_Bit_iteratorplEl, .-_ZNKSt13_Bit_iteratorplEl
	.section	.text._ZNSt19_Bit_const_iteratorC2EPmj,"axG",@progbits,_ZNSt19_Bit_const_iteratorC5EPmj,comdat
	.align 2
	.weak	_ZNSt19_Bit_const_iteratorC2EPmj
	.type	_ZNSt19_Bit_const_iteratorC2EPmj, @function
_ZNSt19_Bit_const_iteratorC2EPmj:
.LASANPC2082:
.LFB2082:
	.loc 5 315 5
	.cfi_startproc
	endbr64
	pushq	%rbp
	.cfi_def_cfa_offset 16
	.cfi_offset 6, -16
	movq	%rsp, %rbp
	.cfi_def_cfa_register 6
	subq	$32, %rsp
	movq	%rdi, -8(%rbp)
	movq	%rsi, -16(%rbp)
	movl	%edx, -20(%rbp)
.LBB10:
	.loc 5 316 34
	movq	-8(%rbp), %rax
	movl	-20(%rbp), %edx
	movq	-16(%rbp), %rcx
	movq	%rcx, %rsi
	movq	%rax, %rdi
	call	_ZNSt18_Bit_iterator_baseC2EPmj
.LBE10:
	.loc 5 316 38
	nop
	leave
	.cfi_def_cfa 7, 8
	ret
	.cfi_endproc
.LFE2082:
	.size	_ZNSt19_Bit_const_iteratorC2EPmj, .-_ZNSt19_Bit_const_iteratorC2EPmj
	.weak	_ZNSt19_Bit_const_iteratorC1EPmj
	.set	_ZNSt19_Bit_const_iteratorC1EPmj,_ZNSt19_Bit_const_iteratorC2EPmj
	.section	.text._ZNSt19_Bit_const_iteratorC2ERKSt13_Bit_iterator,"axG",@progbits,_ZNSt19_Bit_const_iteratorC5ERKSt13_Bit_iterator,comdat
	.align 2
	.weak	_ZNSt19_Bit_const_iteratorC2ERKSt13_Bit_iterator
	.type	_ZNSt19_Bit_const_iteratorC2ERKSt13_Bit_iterator, @function
_ZNSt19_Bit_const_iteratorC2ERKSt13_Bit_iterator:
.LASANPC2085:
.LFB2085:
	.loc 5 318 5
	.cfi_startproc
	endbr64
	pushq	%rbp
	.cfi_def_cfa_offset 16
	.cfi_offset 6, -16
	movq	%rsp, %rbp
	.cfi_def_cfa_register 6
	subq	$16, %rsp
	movq	%rdi, -8(%rbp)
	movq	%rsi, -16(%rbp)
.LBB11:
	.loc 5 319 49
	movq	-8(%rbp), %rcx
	.loc 5 319 40
	movq	-16(%rbp), %rax
	addq	$8, %rax
	movq	%rax, %rdx
	movq	%rdx, %rax
	shrq	$3, %rax
	addq	$2147450880, %rax
	movzbl	(%rax), %eax
	testb	%al, %al
	setne	%sil
	cmpb	$3, %al
	setle	%al
	andl	%esi, %eax
	testb	%al, %al
	je	.L80
	movq	%rdx, %rdi
	call	__asan_report_load4@PLT
.L80:
	movq	-16(%rbp), %rax
	movl	8(%rax), %edx
	.loc 5 319 30
	movq	-16(%rbp), %rax
	movq	%rax, %rsi
	shrq	$3, %rsi
	addq	$2147450880, %rsi
	movzbl	(%rsi), %esi
	testb	%sil, %sil
	je	.L81
	movq	%rax, %rdi
	call	__asan_report_load8@PLT
.L81:
	movq	-16(%rbp), %rax
	movq	(%rax), %rax
	.loc 5 319 49
	movq	%rax, %rsi
	movq	%rcx, %rdi
	call	_ZNSt18_Bit_iterator_baseC2EPmj
.LBE11:
	.loc 5 319 53
	nop
	leave
	.cfi_def_cfa 7, 8
	ret
	.cfi_endproc
.LFE2085:
	.size	_ZNSt19_Bit_const_iteratorC2ERKSt13_Bit_iterator, .-_ZNSt19_Bit_const_iteratorC2ERKSt13_Bit_iterator
	.weak	_ZNSt19_Bit_const_iteratorC1ERKSt13_Bit_iterator
	.set	_ZNSt19_Bit_const_iteratorC1ERKSt13_Bit_iterator,_ZNSt19_Bit_const_iteratorC2ERKSt13_Bit_iterator
	.section	.text._ZNKSt19_Bit_const_iteratordeEv,"axG",@progbits,_ZNKSt19_Bit_const_iteratordeEv,comdat
	.align 2
	.weak	_ZNKSt19_Bit_const_iteratordeEv
	.type	_ZNKSt19_Bit_const_iteratordeEv, @function
_ZNKSt19_Bit_const_iteratordeEv:
.LASANPC2088:
.LFB2088:
	.loc 5 326 5
	.cfi_startproc
	endbr64
	pushq	%rbp
	.cfi_def_cfa_offset 16
	.cfi_offset 6, -16
	movq	%rsp, %rbp
	.cfi_def_cfa_register 6
	pushq	%r14
	pushq	%r13
	pushq	%r12
	pushq	%rbx
	subq	$112, %rsp
	.cfi_offset 14, -24
	.cfi_offset 13, -32
	.cfi_offset 12, -40
	.cfi_offset 3, -48
	movq	%rdi, -136(%rbp)
	leaq	-128(%rbp), %rbx
	movq	%rbx, %r14
	cmpl	$0, __asan_option_detect_stack_use_after_return(%rip)
	je	.L82
	movl	$64, %edi
	call	__asan_stack_malloc_0@PLT
.LVL2:
	testq	%rax, %rax
	je	.L82
	movq	%rax, %rbx
.L82:
	leaq	96(%rbx), %rax
	movq	%rax, %r13
	movq	$1102416563, (%rbx)
	leaq	.LC0(%rip), %rax
	movq	%rax, 8(%rbx)
	leaq	.LASANPC2088(%rip), %rax
	movq	%rax, 16(%rbx)
	movq	%rbx, %r12
	shrq	$3, %r12
	movl	$-235802127, 2147450880(%r12)
	movl	$-202178560, 2147450884(%r12)
	.loc 5 326 5
	movq	%fs:40, %rax
	movq	%rax, -40(%rbp)
	xorl	%eax, %eax
	.loc 5 327 42
	movq	-136(%rbp), %rax
	addq	$8, %rax
	movq	%rax, %rdx
	movq	%rdx, %rax
	shrq	$3, %rax
	addq	$2147450880, %rax
	movzbl	(%rax), %eax
	testb	%al, %al
	setne	%cl
	cmpb	$3, %al
	setle	%al
	andl	%ecx, %eax
	testb	%al, %al
	je	.L86
	movq	%rdx, %rdi
	call	__asan_report_load4@PLT
.L86:
	movq	-136(%rbp), %rax
	movl	8(%rax), %eax
	.loc 5 327 14
	movl	$1, %edx
	movl	%eax, %ecx
	salq	%cl, %rdx
	.loc 5 327 29
	movq	-136(%rbp), %rax
	movq	%rax, %rcx
	shrq	$3, %rcx
	addq	$2147450880, %rcx
	movzbl	(%rcx), %ecx
	testb	%cl, %cl
	je	.L87
	movq	%rax, %rdi
	call	__asan_report_load8@PLT
.L87:
	movq	-136(%rbp), %rax
	movq	(%rax), %rcx
	.loc 5 327 14
	leaq	-64(%r13), %rax
	movq	%rcx, %rsi
	movq	%rax, %rdi
	call	_ZNSt14_Bit_referenceC1EPmm
	.loc 5 327 51
	leaq	-64(%r13), %rax
	movq	%rax, %rdi
	call	_ZNKSt14_Bit_referencecvbEv
	movl	%eax, %edx
	.loc 5 326 5
	cmpq	%rbx, %r14
	je	.L83
	movq	$1172321806, (%rbx)
	movabsq	$-723401728380766731, %rax
	movq	%rax, 2147450880(%r12)
	movq	56(%rbx), %rax
	movb	$0, (%rax)
	jmp	.L84
.L83:
	movq	$0, 2147450880(%r12)
.L84:
	.loc 5 327 54
	movq	-40(%rbp), %rax
	xorq	%fs:40, %rax
	je	.L89
	call	__stack_chk_fail@PLT
.L89:
	movl	%edx, %eax
	addq	$112, %rsp
	popq	%rbx
	popq	%r12
	popq	%r13
	popq	%r14
	popq	%rbp
	.cfi_def_cfa 7, 8
	ret
	.cfi_endproc
.LFE2088:
	.size	_ZNKSt19_Bit_const_iteratordeEv, .-_ZNKSt19_Bit_const_iteratordeEv
	.section	.text._ZNSt19_Bit_const_iteratorppEv,"axG",@progbits,_ZNSt19_Bit_const_iteratorppEv,comdat
	.align 2
	.weak	_ZNSt19_Bit_const_iteratorppEv
	.type	_ZNSt19_Bit_const_iteratorppEv, @function
_ZNSt19_Bit_const_iteratorppEv:
.LASANPC2089:
.LFB2089:
	.loc 5 330 5
	.cfi_startproc
	endbr64
	pushq	%rbp
	.cfi_def_cfa_offset 16
	.cfi_offset 6, -16
	movq	%rsp, %rbp
	.cfi_def_cfa_register 6
	subq	$16, %rsp
	movq	%rdi, -8(%rbp)
	.loc 5 332 17
	movq	-8(%rbp), %rax
	movq	%rax, %rdi
	call	_ZNSt18_Bit_iterator_base10_M_bump_upEv
	.loc 5 333 15
	movq	-8(%rbp), %rax
	.loc 5 334 5
	leave
	.cfi_def_cfa 7, 8
	ret
	.cfi_endproc
.LFE2089:
	.size	_ZNSt19_Bit_const_iteratorppEv, .-_ZNSt19_Bit_const_iteratorppEv
	.section	.text._ZSt16__deque_buf_sizem,"axG",@progbits,_ZSt16__deque_buf_sizem,comdat
	.weak	_ZSt16__deque_buf_sizem
	.type	_ZSt16__deque_buf_sizem, @function
_ZSt16__deque_buf_sizem:
.LASANPC2273:
.LFB2273:
	.file 6 "/usr/include/c++/9/bits/stl_deque.h"
	.loc 6 94 3
	.cfi_startproc
	endbr64
	pushq	%rbp
	.cfi_def_cfa_offset 16
	.cfi_offset 6, -16
	movq	%rsp, %rbp
	.cfi_def_cfa_register 6
	movq	%rdi, -8(%rbp)
	.loc 6 95 6
	cmpq	$511, -8(%rbp)
	ja	.L93
	.loc 6 95 6 is_stmt 0 discriminator 1
	movl	$512, %eax
	movl	$0, %edx
	divq	-8(%rbp)
	.loc 6 95 40 is_stmt 1 discriminator 1
	jmp	.L95
.L93:
	.loc 6 95 6 discriminator 2
	movl	$1, %eax
.L95:
	.loc 6 95 43 discriminator 5
	popq	%rbp
	.cfi_def_cfa 7, 8
	ret
	.cfi_endproc
.LFE2273:
	.size	_ZSt16__deque_buf_sizem, .-_ZSt16__deque_buf_sizem
	.section	.text._ZSt3minImERKT_S2_S2_,"axG",@progbits,_ZSt3minImERKT_S2_S2_,comdat
	.weak	_ZSt3minImERKT_S2_S2_
	.type	_ZSt3minImERKT_S2_S2_, @function
_ZSt3minImERKT_S2_S2_:
.LASANPC3132:
.LFB3132:
	.loc 2 198 5
	.cfi_startproc
	endbr64
	pushq	%rbp
	.cfi_def_cfa_offset 16
	.cfi_offset 6, -16
	movq	%rsp, %rbp
	.cfi_def_cfa_register 6
	subq	$16, %rsp
	movq	%rdi, -8(%rbp)
	movq	%rsi, -16(%rbp)
	.loc 2 203 15
	movq	-16(%rbp), %rax
	movq	%rax, %rdx
	shrq	$3, %rdx
	addq	$2147450880, %rdx
	movzbl	(%rdx), %edx
	testb	%dl, %dl
	je	.L97
	movq	%rax, %rdi
	call	__asan_report_load8@PLT
.L97:
	movq	-16(%rbp), %rax
	movq	(%rax), %rcx
	movq	-8(%rbp), %rax
	movq	%rax, %rdx
	shrq	$3, %rdx
	addq	$2147450880, %rdx
	movzbl	(%rdx), %edx
	testb	%dl, %dl
	je	.L98
	movq	%rax, %rdi
	call	__asan_report_load8@PLT
.L98:
	movq	-8(%rbp), %rax
	movq	(%rax), %rax
	.loc 2 203 7
	cmpq	%rax, %rcx
	jnb	.L99
	.loc 2 204 9
	movq	-16(%rbp), %rax
	jmp	.L100
.L99:
	.loc 2 205 14
	movq	-8(%rbp), %rax
.L100:
	.loc 2 206 5
	leave
	.cfi_def_cfa 7, 8
	ret
	.cfi_endproc
.LFE3132:
	.size	_ZSt3minImERKT_S2_S2_, .-_ZSt3minImERKT_S2_S2_
	.section	.rodata
	.align 32
	.type	_ZN6__pstl9execution2v1L3seqE, @object
	.size	_ZN6__pstl9execution2v1L3seqE, 1
_ZN6__pstl9execution2v1L3seqE:
	.zero	1
	.zero	63
	.align 32
	.type	_ZN6__pstl9execution2v1L3parE, @object
	.size	_ZN6__pstl9execution2v1L3parE, 1
_ZN6__pstl9execution2v1L3parE:
	.zero	1
	.zero	63
	.align 32
	.type	_ZN6__pstl9execution2v1L9par_unseqE, @object
	.size	_ZN6__pstl9execution2v1L9par_unseqE, 1
_ZN6__pstl9execution2v1L9par_unseqE:
	.zero	1
	.zero	63
	.align 32
	.type	_ZN6__pstl9execution2v1L5unseqE, @object
	.size	_ZN6__pstl9execution2v1L5unseqE, 1
_ZN6__pstl9execution2v1L5unseqE:
	.zero	1
	.zero	63
	.section	.text._ZNKSt6chrono8durationIlSt5ratioILl1ELl1000000000EEE5countEv,"axG",@progbits,_ZNKSt6chrono8durationIlSt5ratioILl1ELl1000000000EEE5countEv,comdat
	.align 2
	.weak	_ZNKSt6chrono8durationIlSt5ratioILl1ELl1000000000EEE5countEv
	.type	_ZNKSt6chrono8durationIlSt5ratioILl1ELl1000000000EEE5countEv, @function
_ZNKSt6chrono8durationIlSt5ratioILl1ELl1000000000EEE5countEv:
.LASANPC3801:
.LFB3801:
	.file 7 "/usr/include/c++/9/chrono"
	.loc 7 346 2
	.cfi_startproc
	endbr64
	pushq	%rbp
	.cfi_def_cfa_offset 16
	.cfi_offset 6, -16
	movq	%rsp, %rbp
	.cfi_def_cfa_register 6
	subq	$16, %rsp
	movq	%rdi, -8(%rbp)
	.loc 7 347 11
	movq	-8(%rbp), %rax
	movq	%rax, %rdx
	shrq	$3, %rdx
	addq	$2147450880, %rdx
	movzbl	(%rdx), %edx
	testb	%dl, %dl
	je	.L102
	movq	%rax, %rdi
	call	__asan_report_load8@PLT
.L102:
	movq	-8(%rbp), %rax
	movq	(%rax), %rax
	.loc 7 347 16
	leave
	.cfi_def_cfa 7, 8
	ret
	.cfi_endproc
.LFE3801:
	.size	_ZNKSt6chrono8durationIlSt5ratioILl1ELl1000000000EEE5countEv, .-_ZNKSt6chrono8durationIlSt5ratioILl1ELl1000000000EEE5countEv
	.globl	__asan_stack_malloc_1
	.section	.rodata
	.align 8
.LC2:
	.string	"2 32 8 9 <unknown> 64 8 9 <unknown>"
	.section	.text._ZNSt6chrono8durationIlSt5ratioILl1ELl1000000000EEE4zeroEv,"axG",@progbits,_ZNSt6chrono8durationIlSt5ratioILl1ELl1000000000EEE4zeroEv,comdat
	.weak	_ZNSt6chrono8durationIlSt5ratioILl1ELl1000000000EEE4zeroEv
	.type	_ZNSt6chrono8durationIlSt5ratioILl1ELl1000000000EEE4zeroEv, @function
_ZNSt6chrono8durationIlSt5ratioILl1ELl1000000000EEE4zeroEv:
.LASANPC3803:
.LFB3803:
	.loc 7 431 2
	.cfi_startproc
	endbr64
	pushq	%rbp
	.cfi_def_cfa_offset 16
	.cfi_offset 6, -16
	movq	%rsp, %rbp
	.cfi_def_cfa_register 6
	pushq	%r14
	pushq	%r13
	pushq	%r12
	pushq	%rbx
	addq	$-128, %rsp
	.cfi_offset 14, -24
	.cfi_offset 13, -32
	.cfi_offset 12, -40
	.cfi_offset 3, -48
	leaq	-160(%rbp), %rbx
	movq	%rbx, %r14
	cmpl	$0, __asan_option_detect_stack_use_after_return(%rip)
	je	.L104
	movl	$96, %edi
	call	__asan_stack_malloc_1@PLT
.LVL3:
	testq	%rax, %rax
	je	.L104
	movq	%rax, %rbx
.L104:
	leaq	128(%rbx), %rax
	movq	%rax, %r13
	movq	$1102416563, (%rbx)
	leaq	.LC2(%rip), %rax
	movq	%rax, 8(%rbx)
	leaq	.LASANPC3803(%rip), %rax
	movq	%rax, 16(%rbx)
	movq	%rbx, %r12
	shrq	$3, %r12
	movl	$-235802127, 2147450880(%r12)
	movl	$-218959360, 2147450884(%r12)
	movl	$-202116352, 2147450888(%r12)
	.loc 7 431 2
	movq	%fs:40, %rax
	movq	%rax, -40(%rbp)
	xorl	%eax, %eax
	.loc 7 432 46
	call	_ZNSt6chrono15duration_valuesIlE4zeroEv
	leaq	-96(%r13), %rdx
	movq	%rdx, %rcx
	shrq	$3, %rcx
	addq	$2147450880, %rcx
	movzbl	(%rcx), %ecx
	testb	%cl, %cl
	je	.L108
	movq	%rdx, %rdi
	call	__asan_report_store8@PLT
.L108:
	movq	%rax, -96(%r13)
	.loc 7 432 48
	leaq	-96(%r13), %rdx
	leaq	-64(%r13), %rax
	movq	%rdx, %rsi
	movq	%rax, %rdi
	call	_ZNSt6chrono8durationIlSt5ratioILl1ELl1000000000EEEC1IlvEERKT_
	leaq	-64(%r13), %rax
	movq	%rax, %rdx
	shrq	$3, %rdx
	addq	$2147450880, %rdx
	movzbl	(%rdx), %edx
	testb	%dl, %dl
	je	.L109
	movq	%rax, %rdi
	call	__asan_report_load8@PLT
.L109:
	movq	-64(%r13), %rax
	movq	%rax, %rdx
	.loc 7 431 2
	cmpq	%rbx, %r14
	je	.L105
	movq	$1172321806, (%rbx)
	movabsq	$-723401728380766731, %rax
	movq	%rax, 2147450880(%r12)
	movl	$-168430091, 2147450888(%r12)
	movq	120(%rbx), %rax
	movb	$0, (%rax)
	jmp	.L106
.L105:
	movq	$0, 2147450880(%r12)
	movl	$0, 2147450888(%r12)
.L106:
	.loc 7 432 51
	movq	-40(%rbp), %rax
	xorq	%fs:40, %rax
	je	.L111
	call	__stack_chk_fail@PLT
.L111:
	movq	%rdx, %rax
	subq	$-128, %rsp
	popq	%rbx
	popq	%r12
	popq	%r13
	popq	%r14
	popq	%rbp
	.cfi_def_cfa 7, 8
	ret
	.cfi_endproc
.LFE3803:
	.size	_ZNSt6chrono8durationIlSt5ratioILl1ELl1000000000EEE4zeroEv, .-_ZNSt6chrono8durationIlSt5ratioILl1ELl1000000000EEE4zeroEv
	.section	.text._ZNSt6chrono8durationIlSt5ratioILl1ELl1000000000EEEC1IlvEERKT_,"axG",@progbits,_ZNSt6chrono8durationIlSt5ratioILl1ELl1000000000EEEC1IlvEERKT_,comdat
	.align 2
	.weak	_ZNSt6chrono8durationIlSt5ratioILl1ELl1000000000EEEC1IlvEERKT_
	.type	_ZNSt6chrono8durationIlSt5ratioILl1ELl1000000000EEEC1IlvEERKT_, @function
_ZNSt6chrono8durationIlSt5ratioILl1ELl1000000000EEEC1IlvEERKT_:
.LASANPC3806:
.LFB3806:
	.loc 7 331 23
	.cfi_startproc
	endbr64
	pushq	%rbp
	.cfi_def_cfa_offset 16
	.cfi_offset 6, -16
	movq	%rsp, %rbp
	.cfi_def_cfa_register 6
	subq	$16, %rsp
	movq	%rdi, -8(%rbp)
	movq	%rsi, -16(%rbp)
.LBB12:
	.loc 7 332 33
	movq	-16(%rbp), %rax
	movq	%rax, %rdx
	shrq	$3, %rdx
	addq	$2147450880, %rdx
	movzbl	(%rdx), %edx
	testb	%dl, %dl
	je	.L113
	movq	%rax, %rdi
	call	__asan_report_load8@PLT
.L113:
	movq	-16(%rbp), %rax
	movq	(%rax), %rdx
	movq	-8(%rbp), %rax
	movq	%rax, %rcx
	shrq	$3, %rcx
	addq	$2147450880, %rcx
	movzbl	(%rcx), %ecx
	testb	%cl, %cl
	je	.L114
	movq	%rax, %rdi
	call	__asan_report_store8@PLT
.L114:
	movq	-8(%rbp), %rax
	movq	%rdx, (%rax)
.LBE12:
	.loc 7 332 37
	nop
	leave
	.cfi_def_cfa 7, 8
	ret
	.cfi_endproc
.LFE3806:
	.size	_ZNSt6chrono8durationIlSt5ratioILl1ELl1000000000EEEC1IlvEERKT_, .-_ZNSt6chrono8durationIlSt5ratioILl1ELl1000000000EEEC1IlvEERKT_
	.section	.text._ZNSt6chrono15duration_valuesIlE4zeroEv,"axG",@progbits,_ZNSt6chrono15duration_valuesIlE4zeroEv,comdat
	.weak	_ZNSt6chrono15duration_valuesIlE4zeroEv
	.type	_ZNSt6chrono15duration_valuesIlE4zeroEv, @function
_ZNSt6chrono15duration_valuesIlE4zeroEv:
.LASANPC3808:
.LFB3808:
	.loc 7 276 2
	.cfi_startproc
	endbr64
	pushq	%rbp
	.cfi_def_cfa_offset 16
	.cfi_offset 6, -16
	movq	%rsp, %rbp
	.cfi_def_cfa_register 6
	.loc 7 277 17
	movl	$0, %eax
	.loc 7 277 20
	popq	%rbp
	.cfi_def_cfa 7, 8
	ret
	.cfi_endproc
.LFE3808:
	.size	_ZNSt6chrono15duration_valuesIlE4zeroEv, .-_ZNSt6chrono15duration_valuesIlE4zeroEv
	.section	.text._ZN5TimerC2Ev,"axG",@progbits,_ZN5TimerC5Ev,comdat
	.align 2
	.weak	_ZN5TimerC2Ev
	.type	_ZN5TimerC2Ev, @function
_ZN5TimerC2Ev:
.LASANPC3825:
.LFB3825:
	.file 8 "/home/fengsc/Desktop/cpp/CppTest/class/src/timeCount.h"
	.loc 8 13 5
	.cfi_startproc
	endbr64
	pushq	%rbp
	.cfi_def_cfa_offset 16
	.cfi_offset 6, -16
	movq	%rsp, %rbp
	.cfi_def_cfa_register 6
	pushq	%rbx
	subq	$24, %rsp
	.cfi_offset 3, -24
	movq	%rdi, -24(%rbp)
.LBB13:
	.loc 8 14 5
	movq	-24(%rbp), %rax
	movq	%rax, %rdi
	call	_ZNSt6chrono10time_pointINS_3_V212system_clockENS_8durationIlSt5ratioILl1ELl1000000000EEEEEC1Ev
	movq	-24(%rbp), %rax
	addq	$8, %rax
	movq	%rax, %rdi
	call	_ZNSt6chrono10time_pointINS_3_V212system_clockENS_8durationIlSt5ratioILl1ELl1000000000EEEEEC1Ev
	.loc 8 15 57
	movq	-24(%rbp), %rax
	movq	%rax, %rdx
	shrq	$3, %rdx
	addq	$2147450880, %rdx
	movzbl	(%rdx), %edx
	testb	%dl, %dl
	je	.L118
	movq	%rax, %rdi
	call	__asan_report_store8@PLT
.L118:
	movq	-24(%rbp), %rbx
	call	_ZNSt6chrono3_V212system_clock3nowEv@PLT
	movq	%rax, (%rbx)
.LBE13:
	.loc 8 16 5
	nop
	addq	$24, %rsp
	popq	%rbx
	popq	%rbp
	.cfi_def_cfa 7, 8
	ret
	.cfi_endproc
.LFE3825:
	.size	_ZN5TimerC2Ev, .-_ZN5TimerC2Ev
	.weak	_ZN5TimerC1Ev
	.set	_ZN5TimerC1Ev,_ZN5TimerC2Ev
	.section	.rodata
	.align 8
.LC3:
	.string	"2 48 4 9 <unknown> 64 8 9 <unknown>"
	.align 32
.LC4:
	.string	"Timer took "
	.zero	52
	.align 32
.LC6:
	.string	"ms"
	.zero	61
	.section	.text._ZN5TimerD2Ev,"axG",@progbits,_ZN5TimerD5Ev,comdat
	.align 2
	.weak	_ZN5TimerD2Ev
	.type	_ZN5TimerD2Ev, @function
_ZN5TimerD2Ev:
.LASANPC3828:
.LFB3828:
	.loc 8 17 5
	.cfi_startproc
	.cfi_personality 0x9b,DW.ref.__gxx_personality_v0
	.cfi_lsda 0x1b,.LLSDA3828
	endbr64
	pushq	%rbp
	.cfi_def_cfa_offset 16
	.cfi_offset 6, -16
	movq	%rsp, %rbp
	.cfi_def_cfa_register 6
	pushq	%r15
	pushq	%r14
	pushq	%r13
	pushq	%r12
	pushq	%rbx
	subq	$152, %rsp
	.cfi_offset 15, -24
	.cfi_offset 14, -32
	.cfi_offset 13, -40
	.cfi_offset 12, -48
	.cfi_offset 3, -56
	movq	%rdi, -184(%rbp)
	leaq	-176(%rbp), %rbx
	movq	%rbx, %r15
	cmpl	$0, __asan_option_detect_stack_use_after_return(%rip)
	je	.L119
	movl	$96, %edi
	call	__asan_stack_malloc_1@PLT
.LVL4:
	testq	%rax, %rax
	je	.L119
	movq	%rax, %rbx
.L119:
	leaq	128(%rbx), %rax
	movq	%rax, %r12
	movq	$1102416563, (%rbx)
	leaq	.LC3(%rip), %rax
	movq	%rax, 8(%rbx)
	leaq	.LASANPC3828(%rip), %rax
	movq	%rax, 16(%rbx)
	movq	%rbx, %r13
	shrq	$3, %r13
	movl	$-235802127, 2147450880(%r13)
	movl	$-234556943, 2147450884(%r13)
	movl	$-202116352, 2147450888(%r13)
	.loc 8 17 5
	movq	%fs:40, %rax
	movq	%rax, -56(%rbp)
	xorl	%eax, %eax
.LBB14:
	.loc 8 19 55
	movq	-184(%rbp), %rax
	addq	$8, %rax
	movq	%rax, %rdx
	shrq	$3, %rdx
	addq	$2147450880, %rdx
	movzbl	(%rdx), %edx
	testb	%dl, %dl
	je	.L123
	movq	%rax, %rdi
	call	__asan_report_store8@PLT
.L123:
	movq	-184(%rbp), %r14
	call	_ZNSt6chrono3_V212system_clock3nowEv@PLT
	movq	%rax, 8(%r14)
	.loc 8 20 26
	movq	-184(%rbp), %rax
	.loc 8 20 20
	movq	-184(%rbp), %rdx
	leaq	8(%rdx), %rcx
	.loc 8 20 26
	leaq	-64(%r12), %rdx
	movq	%rdx, %rsi
	shrq	$3, %rsi
	addq	$2147450880, %rsi
	movzbl	(%rsi), %esi
	testb	%sil, %sil
	je	.L124
	movq	%rdx, %rdi
	call	__asan_report_store8@PLT
.L124:
	movq	%rax, %rsi
	movq	%rcx, %rdi
	call	_ZNSt6chronomiINS_3_V212system_clockENS_8durationIlSt5ratioILl1ELl1000000000EEEES6_EENSt11common_typeIJT0_T1_EE4typeERKNS_10time_pointIT_S8_EERKNSC_ISD_S9_EE
	movq	%rax, -64(%r12)
	.loc 8 20 18
	leaq	-64(%r12), %rdx
	leaq	-80(%r12), %rax
	movq	%rdx, %rsi
	movq	%rax, %rdi
	call	_ZNSt6chrono8durationIfSt5ratioILl1ELl1EEEC1IlS1_ILl1ELl1000000000EEvEERKNS0_IT_T0_EE
	movq	-184(%rbp), %rax
	addq	$16, %rax
	movq	%rax, %rdx
	movq	%rdx, %rax
	shrq	$3, %rax
	addq	$2147450880, %rax
	movzbl	(%rax), %eax
	testb	%al, %al
	setne	%cl
	cmpb	$3, %al
	setle	%al
	andl	%ecx, %eax
	testb	%al, %al
	je	.L125
	movq	%rdx, %rdi
	call	__asan_report_store4@PLT
.L125:
	leaq	-80(%r12), %rax
	movq	%rax, %rdx
	movq	%rdx, %rax
	shrq	$3, %rax
	addq	$2147450880, %rax
	movzbl	(%rax), %eax
	testb	%al, %al
	setne	%cl
	cmpb	$3, %al
	setle	%al
	andl	%ecx, %eax
	testb	%al, %al
	je	.L126
	movq	%rdx, %rdi
	call	__asan_report_load4@PLT
.L126:
	movq	-184(%rbp), %rax
	movss	-80(%r12), %xmm0
	movss	%xmm0, 16(%rax)
	leaq	-80(%r12), %rax
	shrq	$3, %rax
	addq	$2147450880, %rax
	movb	$-8, (%rax)
	.loc 8 20 24
	leaq	-64(%r12), %rax
	shrq	$3, %rax
	addq	$2147450880, %rax
	movb	$-8, (%rax)
	.loc 8 21 22
	leaq	.LC4(%rip), %rsi
	leaq	_ZSt4cout(%rip), %rdi
	call	_ZStlsISt11char_traitsIcEERSt13basic_ostreamIcT_ES5_PKc@PLT
	movq	%rax, %r12
	.loc 8 21 53
	movq	-184(%rbp), %rax
	addq	$16, %rax
	movq	%rax, %rdi
	call	_ZNKSt6chrono8durationIfSt5ratioILl1ELl1EEE5countEv
	.loc 8 21 56
	movss	.LC5(%rip), %xmm1
	mulss	%xmm1, %xmm0
	movq	%r12, %rdi
	call	_ZNSolsEf@PLT
	.loc 8 21 64
	leaq	.LC6(%rip), %rsi
	movq	%rax, %rdi
	call	_ZStlsISt11char_traitsIcEERSt13basic_ostreamIcT_ES5_PKc@PLT
	movq	%rax, %rdx
	.loc 8 21 77
	movq	_ZSt4endlIcSt11char_traitsIcEERSt13basic_ostreamIT_T0_ES6_@GOTPCREL(%rip), %rax
	movq	%rax, %rsi
	movq	%rdx, %rdi
	call	_ZNSolsEPFRSoS_E@PLT
.LBE14:
	.loc 8 22 5
	nop
	.loc 8 17 5
	cmpq	%rbx, %r15
	je	.L120
	movq	$1172321806, (%rbx)
	movabsq	$-723401728380766731, %rax
	movq	%rax, 2147450880(%r13)
	movl	$-168430091, 2147450888(%r13)
	movq	120(%rbx), %rax
	movb	$0, (%rax)
	jmp	.L121
.L120:
	movq	$0, 2147450880(%r13)
	movl	$0, 2147450888(%r13)
.L121:
	.loc 8 22 5
	movq	-56(%rbp), %rax
	xorq	%fs:40, %rax
	je	.L127
	call	__stack_chk_fail@PLT
.L127:
	addq	$152, %rsp
	popq	%rbx
	popq	%r12
	popq	%r13
	popq	%r14
	popq	%r15
	popq	%rbp
	.cfi_def_cfa 7, 8
	ret
	.cfi_endproc
.LFE3828:
	.globl	__gxx_personality_v0
	.section	.gcc_except_table._ZN5TimerD2Ev,"aG",@progbits,_ZN5TimerD5Ev,comdat
.LLSDA3828:
	.byte	0xff
	.byte	0xff
	.byte	0x1
	.uleb128 .LLSDACSE3828-.LLSDACSB3828
.LLSDACSB3828:
.LLSDACSE3828:
	.section	.text._ZN5TimerD2Ev,"axG",@progbits,_ZN5TimerD5Ev,comdat
	.size	_ZN5TimerD2Ev, .-_ZN5TimerD2Ev
	.weak	_ZN5TimerD1Ev
	.set	_ZN5TimerD1Ev,_ZN5TimerD2Ev
	.section	.text._ZSt11setiosflagsSt13_Ios_Fmtflags,"axG",@progbits,_ZSt11setiosflagsSt13_Ios_Fmtflags,comdat
	.weak	_ZSt11setiosflagsSt13_Ios_Fmtflags
	.type	_ZSt11setiosflagsSt13_Ios_Fmtflags, @function
_ZSt11setiosflagsSt13_Ios_Fmtflags:
.LASANPC4120:
.LFB4120:
	.file 9 "/usr/include/c++/9/iomanip"
	.loc 9 97 3
	.cfi_startproc
	endbr64
	pushq	%rbp
	.cfi_def_cfa_offset 16
	.cfi_offset 6, -16
	movq	%rsp, %rbp
	.cfi_def_cfa_register 6
	movl	%edi, -4(%rbp)
	.loc 9 97 21
	movl	-4(%rbp), %eax
	.loc 9 97 24
	popq	%rbp
	.cfi_def_cfa 7, 8
	ret
	.cfi_endproc
.LFE4120:
	.size	_ZSt11setiosflagsSt13_Ios_Fmtflags, .-_ZSt11setiosflagsSt13_Ios_Fmtflags
	.section	.text._ZSt4setwi,"axG",@progbits,_ZSt4setwi,comdat
	.weak	_ZSt4setwi
	.type	_ZSt4setwi, @function
_ZSt4setwi:
.LASANPC4132:
.LFB4132:
	.loc 9 226 3
	.cfi_startproc
	endbr64
	pushq	%rbp
	.cfi_def_cfa_offset 16
	.cfi_offset 6, -16
	movq	%rsp, %rbp
	.cfi_def_cfa_register 6
	movl	%edi, -4(%rbp)
	.loc 9 226 18
	movl	-4(%rbp), %eax
	.loc 9 226 21
	popq	%rbp
	.cfi_def_cfa 7, 8
	ret
	.cfi_endproc
.LFE4132:
	.size	_ZSt4setwi, .-_ZSt4setwi
	.section	.text._ZN6MatrixIbED2Ev,"axG",@progbits,_ZN6MatrixIbED5Ev,comdat
	.align 2
	.weak	_ZN6MatrixIbED2Ev
	.type	_ZN6MatrixIbED2Ev, @function
_ZN6MatrixIbED2Ev:
.LASANPC4204:
.LFB4204:
	.file 10 "../src/Matrix.h"
	.loc 10 16 8
	.cfi_startproc
	endbr64
	pushq	%rbp
	.cfi_def_cfa_offset 16
	.cfi_offset 6, -16
	movq	%rsp, %rbp
	.cfi_def_cfa_register 6
	subq	$16, %rsp
	movq	%rdi, -8(%rbp)
.LBB15:
	.loc 10 16 8
	movq	-8(%rbp), %rax
	movq	%rax, %rdi
	call	_ZNSt6vectorIS_IbSaIbEESaIS1_EED1Ev
.LBE15:
	nop
	leave
	.cfi_def_cfa 7, 8
	ret
	.cfi_endproc
.LFE4204:
	.size	_ZN6MatrixIbED2Ev, .-_ZN6MatrixIbED2Ev
	.weak	_ZN6MatrixIbED1Ev
	.set	_ZN6MatrixIbED1Ev,_ZN6MatrixIbED2Ev
	.section	.text._ZNSt12_Vector_baseIcSaIcEE12_Vector_implD2Ev,"axG",@progbits,_ZNSt12_Vector_baseIcSaIcEE12_Vector_implD5Ev,comdat
	.align 2
	.weak	_ZNSt12_Vector_baseIcSaIcEE12_Vector_implD2Ev
	.type	_ZNSt12_Vector_baseIcSaIcEE12_Vector_implD2Ev, @function
_ZNSt12_Vector_baseIcSaIcEE12_Vector_implD2Ev:
.LASANPC4209:
.LFB4209:
	.file 11 "/usr/include/c++/9/bits/stl_vector.h"
	.loc 11 125 14
	.cfi_startproc
	endbr64
	pushq	%rbp
	.cfi_def_cfa_offset 16
	.cfi_offset 6, -16
	movq	%rsp, %rbp
	.cfi_def_cfa_register 6
	subq	$16, %rsp
	movq	%rdi, -8(%rbp)
.LBB16:
	.loc 11 125 14
	movq	-8(%rbp), %rax
	movq	%rax, %rdi
	call	_ZNSaIcED2Ev@PLT
.LBE16:
	nop
	leave
	.cfi_def_cfa 7, 8
	ret
	.cfi_endproc
.LFE4209:
	.size	_ZNSt12_Vector_baseIcSaIcEE12_Vector_implD2Ev, .-_ZNSt12_Vector_baseIcSaIcEE12_Vector_implD2Ev
	.weak	_ZNSt12_Vector_baseIcSaIcEE12_Vector_implD1Ev
	.set	_ZNSt12_Vector_baseIcSaIcEE12_Vector_implD1Ev,_ZNSt12_Vector_baseIcSaIcEE12_Vector_implD2Ev
	.section	.text._ZNSt12_Vector_baseIcSaIcEEC2Ev,"axG",@progbits,_ZNSt12_Vector_baseIcSaIcEEC5Ev,comdat
	.align 2
	.weak	_ZNSt12_Vector_baseIcSaIcEEC2Ev
	.type	_ZNSt12_Vector_baseIcSaIcEEC2Ev, @function
_ZNSt12_Vector_baseIcSaIcEEC2Ev:
.LASANPC4211:
.LFB4211:
	.loc 11 285 7
	.cfi_startproc
	endbr64
	pushq	%rbp
	.cfi_def_cfa_offset 16
	.cfi_offset 6, -16
	movq	%rsp, %rbp
	.cfi_def_cfa_register 6
	subq	$16, %rsp
	movq	%rdi, -8(%rbp)
.LBB17:
	.loc 11 285 7
	movq	-8(%rbp), %rax
	movq	%rax, %rdi
	call	_ZNSt12_Vector_baseIcSaIcEE12_Vector_implC1Ev
.LBE17:
	nop
	leave
	.cfi_def_cfa 7, 8
	ret
	.cfi_endproc
.LFE4211:
	.size	_ZNSt12_Vector_baseIcSaIcEEC2Ev, .-_ZNSt12_Vector_baseIcSaIcEEC2Ev
	.weak	_ZNSt12_Vector_baseIcSaIcEEC1Ev
	.set	_ZNSt12_Vector_baseIcSaIcEEC1Ev,_ZNSt12_Vector_baseIcSaIcEEC2Ev
	.section	.text._ZNSt6vectorIcSaIcEEC2Ev,"axG",@progbits,_ZNSt6vectorIcSaIcEEC5Ev,comdat
	.align 2
	.weak	_ZNSt6vectorIcSaIcEEC2Ev
	.type	_ZNSt6vectorIcSaIcEEC2Ev, @function
_ZNSt6vectorIcSaIcEEC2Ev:
.LASANPC4213:
.LFB4213:
	.loc 11 484 7
	.cfi_startproc
	endbr64
	pushq	%rbp
	.cfi_def_cfa_offset 16
	.cfi_offset 6, -16
	movq	%rsp, %rbp
	.cfi_def_cfa_register 6
	subq	$16, %rsp
	movq	%rdi, -8(%rbp)
.LBB18:
	.loc 11 484 7
	movq	-8(%rbp), %rax
	movq	%rax, %rdi
	call	_ZNSt12_Vector_baseIcSaIcEEC2Ev
.LBE18:
	nop
	leave
	.cfi_def_cfa 7, 8
	ret
	.cfi_endproc
.LFE4213:
	.size	_ZNSt6vectorIcSaIcEEC2Ev, .-_ZNSt6vectorIcSaIcEEC2Ev
	.weak	_ZNSt6vectorIcSaIcEEC1Ev
	.set	_ZNSt6vectorIcSaIcEEC1Ev,_ZNSt6vectorIcSaIcEEC2Ev
	.section	.text._ZNSt12_Vector_baseIiSaIiEE12_Vector_implD2Ev,"axG",@progbits,_ZNSt12_Vector_baseIiSaIiEE12_Vector_implD5Ev,comdat
	.align 2
	.weak	_ZNSt12_Vector_baseIiSaIiEE12_Vector_implD2Ev
	.type	_ZNSt12_Vector_baseIiSaIiEE12_Vector_implD2Ev, @function
_ZNSt12_Vector_baseIiSaIiEE12_Vector_implD2Ev:
.LASANPC4218:
.LFB4218:
	.loc 11 125 14
	.cfi_startproc
	endbr64
	pushq	%rbp
	.cfi_def_cfa_offset 16
	.cfi_offset 6, -16
	movq	%rsp, %rbp
	.cfi_def_cfa_register 6
	subq	$16, %rsp
	movq	%rdi, -8(%rbp)
.LBB19:
	.loc 11 125 14
	movq	-8(%rbp), %rax
	movq	%rax, %rdi
	call	_ZNSaIiED2Ev
.LBE19:
	nop
	leave
	.cfi_def_cfa 7, 8
	ret
	.cfi_endproc
.LFE4218:
	.size	_ZNSt12_Vector_baseIiSaIiEE12_Vector_implD2Ev, .-_ZNSt12_Vector_baseIiSaIiEE12_Vector_implD2Ev
	.weak	_ZNSt12_Vector_baseIiSaIiEE12_Vector_implD1Ev
	.set	_ZNSt12_Vector_baseIiSaIiEE12_Vector_implD1Ev,_ZNSt12_Vector_baseIiSaIiEE12_Vector_implD2Ev
	.section	.text._ZNSt12_Vector_baseIiSaIiEEC2Ev,"axG",@progbits,_ZNSt12_Vector_baseIiSaIiEEC5Ev,comdat
	.align 2
	.weak	_ZNSt12_Vector_baseIiSaIiEEC2Ev
	.type	_ZNSt12_Vector_baseIiSaIiEEC2Ev, @function
_ZNSt12_Vector_baseIiSaIiEEC2Ev:
.LASANPC4220:
.LFB4220:
	.loc 11 285 7
	.cfi_startproc
	endbr64
	pushq	%rbp
	.cfi_def_cfa_offset 16
	.cfi_offset 6, -16
	movq	%rsp, %rbp
	.cfi_def_cfa_register 6
	subq	$16, %rsp
	movq	%rdi, -8(%rbp)
.LBB20:
	.loc 11 285 7
	movq	-8(%rbp), %rax
	movq	%rax, %rdi
	call	_ZNSt12_Vector_baseIiSaIiEE12_Vector_implC1Ev
.LBE20:
	nop
	leave
	.cfi_def_cfa 7, 8
	ret
	.cfi_endproc
.LFE4220:
	.size	_ZNSt12_Vector_baseIiSaIiEEC2Ev, .-_ZNSt12_Vector_baseIiSaIiEEC2Ev
	.weak	_ZNSt12_Vector_baseIiSaIiEEC1Ev
	.set	_ZNSt12_Vector_baseIiSaIiEEC1Ev,_ZNSt12_Vector_baseIiSaIiEEC2Ev
	.section	.text._ZNSt6vectorIiSaIiEEC2Ev,"axG",@progbits,_ZNSt6vectorIiSaIiEEC5Ev,comdat
	.align 2
	.weak	_ZNSt6vectorIiSaIiEEC2Ev
	.type	_ZNSt6vectorIiSaIiEEC2Ev, @function
_ZNSt6vectorIiSaIiEEC2Ev:
.LASANPC4222:
.LFB4222:
	.loc 11 484 7
	.cfi_startproc
	endbr64
	pushq	%rbp
	.cfi_def_cfa_offset 16
	.cfi_offset 6, -16
	movq	%rsp, %rbp
	.cfi_def_cfa_register 6
	subq	$16, %rsp
	movq	%rdi, -8(%rbp)
.LBB21:
	.loc 11 484 7
	movq	-8(%rbp), %rax
	movq	%rax, %rdi
	call	_ZNSt12_Vector_baseIiSaIiEEC2Ev
.LBE21:
	nop
	leave
	.cfi_def_cfa 7, 8
	ret
	.cfi_endproc
.LFE4222:
	.size	_ZNSt6vectorIiSaIiEEC2Ev, .-_ZNSt6vectorIiSaIiEEC2Ev
	.weak	_ZNSt6vectorIiSaIiEEC1Ev
	.set	_ZNSt6vectorIiSaIiEEC1Ev,_ZNSt6vectorIiSaIiEEC2Ev
	.globl	__asan_stack_malloc_6
	.section	.rodata
	.align 8
.LC7:
	.ascii	"58 32 1 9 <unknown> 48 1 9 <unknown> 64 1 9 <unknown> 80 1 9"
	.ascii	" <unknown> 96 1 9 <unknown> 112 1 9 <unknown> 128 1 9 <unkno"
	.ascii	"wn> 144 1 9 <unknown> 160 1 9 <unknown> 176 1 9 <unknown> 19"
	.ascii	"2 1 9 <unknown> 208 1 9 <unknown> 224 1 9 <unknown> 240 1 9 "
	.ascii	"<unknown> 256 1 9 <unknown> 272 1 9 <unknown> 288 4 9 <unkno"
	.ascii	"wn> 304 4 9 <unknown> 320 4 5 clock 336 4 9 <unknown> 352 4 "
	.ascii	"9 <unknown> 368 4 9 <unknown> 384 8 11 __for_begin 416 8 9 _"
	.ascii	"_for_end 448 8 11 __for_begin 480 8 9 __for_end 512 16 9 <un"
	.ascii	"known> 544 24 8 timer:10 608 24 12 vertexVec:11 672 24 9 <un"
	.ascii	"known> 736 24 4 path 800 24 10 vectexVec2 864 24 9 <unknown>"
	.ascii	" 928 24 5 path2 992 24 10 vertexVec3 1056 24 9 <unknown> 112"
	.ascii	"0 24 5 order 1184 40 9 <unknown> 1264 40 9 <unknown> 1344 40"
	.ascii	" 9 <unknown> 1424 40 4 m:21 1504 40 9 <unknown> 1584 40 9 <u"
	.ascii	"nknown> 1664 40 9 <unknown> 17"
	.string	"44 40 9 <unknown> 1824 40 9 <unknown> 1904 72 4 M:12 2016 72 2 M2 2128 72 2 M3 2240 32 9 <unknown> 2304 32 9 <unknown> 2368 32 9 <unknown> 2432 32 9 <unknown> 2496 32 9 <unknown> 2560 32 9 <unknown> 2624 32 9 <unknown> 2688 6 9 <unknown> 2720 6 9 <unknown>"
	.globl	__asan_stack_free_6
	.align 32
.LC8:
	.string	"(a,d)(a,b)(b,c)(a,c)(c,d)(d,e)(a,e)"
	.zero	60
	.align 32
.LC9:
	.string	"(1,2)(3,2)(2,7)(3,8)(4,5)(3,5)(3,4)(8,2)"
	.zero	55
	.align 32
.LC10:
	.string	"(A,C)(B,C)(A,D)(C,D)(C,F)(C,E)(E,F)"
	.zero	60
	.text
	.globl	main
	.type	main, @function
main:
.LASANPC4202:
.LFB4202:
	.file 12 "../mainMXGraph.cpp"
	.loc 12 9 1
	.cfi_startproc
	.cfi_personality 0x9b,DW.ref.__gxx_personality_v0
	.cfi_lsda 0x1b,.LLSDA4202
	endbr64
	pushq	%rbp
	.cfi_def_cfa_offset 16
	.cfi_offset 6, -16
	movq	%rsp, %rbp
	.cfi_def_cfa_register 6
	pushq	%r15
	pushq	%r14
	pushq	%r13
	pushq	%r12
	pushq	%rbx
	subq	$2888, %rsp
	.cfi_offset 15, -24
	.cfi_offset 14, -32
	.cfi_offset 13, -40
	.cfi_offset 12, -48
	.cfi_offset 3, -56
	leaq	-2832(%rbp), %r13
	movq	%r13, -2920(%rbp)
	cmpl	$0, __asan_option_detect_stack_use_after_return(%rip)
	je	.L139
	movl	$2752, %edi
	call	__asan_stack_malloc_6@PLT
.LVL5:
	testq	%rax, %rax
	je	.L139
	movq	%rax, %r13
.L139:
	leaq	2784(%r13), %rax
	movq	%rax, %rbx
	movq	$1102416563, 0(%r13)
	leaq	.LC7(%rip), %rax
	movq	%rax, 8(%r13)
	leaq	.LASANPC4202(%rip), %rax
	movq	%rax, 16(%r13)
	movq	%r13, %r12
	shrq	$3, %r12
	movl	$-235802127, 2147450880(%r12)
	movl	$-234753535, 2147450884(%r12)
	movl	$-234753535, 2147450888(%r12)
	movl	$-234753535, 2147450892(%r12)
	movl	$-234753535, 2147450896(%r12)
	movl	$-234753535, 2147450900(%r12)
	movl	$-234753535, 2147450904(%r12)
	movl	$-234753535, 2147450908(%r12)
	movl	$-234753535, 2147450912(%r12)
	movl	$-234556924, 2147450916(%r12)
	movl	$-234556924, 2147450920(%r12)
	movl	$-234556924, 2147450924(%r12)
	movl	$-218959360, 2147450928(%r12)
	movl	$-218959360, 2147450932(%r12)
	movl	$-218959360, 2147450936(%r12)
	movl	$-218959360, 2147450940(%r12)
	movl	$-219021312, 2147450944(%r12)
	movl	$-234881024, 2147450948(%r12)
	movl	$-218959118, 2147450952(%r12)
	movl	$-234881024, 2147450956(%r12)
	movl	$-218959118, 2147450960(%r12)
	movl	$-234881024, 2147450964(%r12)
	movl	$-218959118, 2147450968(%r12)
	movl	$-234881024, 2147450972(%r12)
	movl	$-218959118, 2147450976(%r12)
	movl	$-234881024, 2147450980(%r12)
	movl	$-218959118, 2147450984(%r12)
	movl	$-234881024, 2147450988(%r12)
	movl	$-218959118, 2147450992(%r12)
	movl	$-234881024, 2147450996(%r12)
	movl	$-218959118, 2147451000(%r12)
	movl	$-234881024, 2147451004(%r12)
	movl	$-218959118, 2147451008(%r12)
	movl	$-234881024, 2147451012(%r12)
	movl	$-218959118, 2147451016(%r12)
	movl	$-234881024, 2147451020(%r12)
	movl	$-218959118, 2147451024(%r12)
	movl	$-218959360, 2147451032(%r12)
	movl	$62194, 2147451036(%r12)
	movl	$-234881024, 2147451040(%r12)
	movl	$-218959118, 2147451044(%r12)
	movl	$-218959360, 2147451052(%r12)
	movl	$62194, 2147451056(%r12)
	movl	$-234881024, 2147451060(%r12)
	movl	$-218959118, 2147451064(%r12)
	movl	$-218959360, 2147451072(%r12)
	movl	$62194, 2147451076(%r12)
	movl	$-234881024, 2147451080(%r12)
	movl	$-218959118, 2147451084(%r12)
	movl	$-218959360, 2147451092(%r12)
	movl	$62194, 2147451096(%r12)
	movl	$-234881024, 2147451100(%r12)
	movl	$-218959118, 2147451104(%r12)
	movl	$-218959360, 2147451112(%r12)
	movl	$62194, 2147451116(%r12)
	movl	$-234881024, 2147451124(%r12)
	movl	$-218959118, 2147451128(%r12)
	movl	$-218959360, 2147451140(%r12)
	movl	$62194, 2147451144(%r12)
	movl	$-234881024, 2147451152(%r12)
	movl	$-218959118, 2147451156(%r12)
	movl	$-218959118, 2147451164(%r12)
	movl	$-218959118, 2147451172(%r12)
	movl	$-218959118, 2147451180(%r12)
	movl	$-218959118, 2147451188(%r12)
	movl	$-218959118, 2147451196(%r12)
	movl	$-218959118, 2147451204(%r12)
	movl	$-218959118, 2147451212(%r12)
	movl	$-218959354, 2147451216(%r12)
	movl	$-202116346, 2147451220(%r12)
	.loc 12 9 1
	movq	%fs:40, %rax
	movq	%rax, -56(%rbp)
	xorl	%eax, %eax
	.loc 12 10 11
	leaq	-2240(%rbx), %rax
	movq	%rax, %rdi
	call	_ZN5TimerC1Ev
	.loc 12 11 59
	leaq	-96(%rbx), %rax
	movq	%rax, %rdx
	movq	%rdx, %rax
	shrq	$3, %rax
	addq	$2147450880, %rax
	movzbl	(%rax), %eax
	testb	%al, %al
	setne	%cl
	testb	%al, %al
	setle	%al
	andl	%ecx, %eax
	testb	%al, %al
	je	.L143
	movq	%rdx, %rdi
	call	__asan_report_store1@PLT
.L143:
	movb	$97, -96(%rbx)
	leaq	-96(%rbx), %rax
	addq	$1, %rax
	movq	%rax, %rdx
	shrq	$3, %rdx
	addq	$2147450880, %rdx
	movzbl	(%rdx), %edx
	testb	%dl, %dl
	setne	%cl
	movq	%rax, %rsi
	andl	$7, %esi
	cmpb	%dl, %sil
	setge	%dl
	andl	%ecx, %edx
	testb	%dl, %dl
	je	.L144
	movq	%rax, %rdi
	call	__asan_report_store1@PLT
.L144:
	movb	$98, -95(%rbx)
	leaq	-96(%rbx), %rax
	addq	$2, %rax
	movq	%rax, %rdx
	shrq	$3, %rdx
	addq	$2147450880, %rdx
	movzbl	(%rdx), %edx
	testb	%dl, %dl
	setne	%cl
	movq	%rax, %rsi
	andl	$7, %esi
	cmpb	%dl, %sil
	setge	%dl
	andl	%ecx, %edx
	testb	%dl, %dl
	je	.L145
	movq	%rax, %rdi
	call	__asan_report_store1@PLT
.L145:
	movb	$99, -94(%rbx)
	leaq	-96(%rbx), %rax
	addq	$3, %rax
	movq	%rax, %rdx
	shrq	$3, %rdx
	addq	$2147450880, %rdx
	movzbl	(%rdx), %edx
	testb	%dl, %dl
	setne	%cl
	movq	%rax, %rsi
	andl	$7, %esi
	cmpb	%dl, %sil
	setge	%dl
	andl	%ecx, %edx
	testb	%dl, %dl
	je	.L146
	movq	%rax, %rdi
	call	__asan_report_store1@PLT
.L146:
	movb	$100, -93(%rbx)
	leaq	-96(%rbx), %rax
	addq	$4, %rax
	movq	%rax, %rdx
	shrq	$3, %rdx
	addq	$2147450880, %rdx
	movzbl	(%rdx), %edx
	testb	%dl, %dl
	setne	%cl
	movq	%rax, %rsi
	andl	$7, %esi
	cmpb	%dl, %sil
	setge	%dl
	andl	%ecx, %edx
	testb	%dl, %dl
	je	.L147
	movq	%rax, %rdi
	call	__asan_report_store1@PLT
.L147:
	movb	$101, -92(%rbx)
	leaq	-96(%rbx), %rax
	addq	$5, %rax
	movq	%rax, %rdx
	shrq	$3, %rdx
	addq	$2147450880, %rdx
	movzbl	(%rdx), %edx
	testb	%dl, %dl
	setne	%cl
	movq	%rax, %rsi
	andl	$7, %esi
	cmpb	%dl, %sil
	setge	%dl
	andl	%ecx, %edx
	testb	%dl, %dl
	je	.L148
	movq	%rax, %rdi
	call	__asan_report_store1@PLT
.L148:
	movb	$102, -91(%rbx)
	leaq	-96(%rbx), %rax
	movq	%rax, -2912(%rbp)
	movq	$6, -2904(%rbp)
	leaq	-2752(%rbx), %rax
	movq	%rax, %rdi
	call	_ZNSaIcEC1Ev@PLT
	leaq	-2752(%rbx), %rdx
	movq	-2912(%rbp), %rsi
	movq	-2904(%rbp), %rdi
	movq	%rsi, %r8
	movq	%rdi, %r9
	leaq	-2176(%rbx), %rax
	movq	%rdx, %rcx
	movq	%r8, %rsi
	movq	%rdi, %rdx
	movq	%rax, %rdi
.LEHB0:
	call	_ZNSt6vectorIcSaIcEEC1ESt16initializer_listIcERKS0_
.LEHE0:
	leaq	-2752(%rbx), %rax
	movq	%rax, %rdi
	call	_ZNSaIcED1Ev@PLT
	leaq	-2752(%rbx), %rax
	shrq	$3, %rax
	addq	$2147450880, %rax
	movb	$-8, (%rax)
	leaq	-96(%rbx), %rax
	shrq	$3, %rax
	addq	$2147450880, %rax
	movb	$-8, (%rax)
	.loc 12 12 17
	leaq	-880(%rbx), %rax
	shrq	$3, %rax
	addq	$2147450880, %rax
	movl	$0, (%rax)
	movl	$0, 4(%rax)
	movb	$0, 8(%rax)
	.loc 12 12 113
	leaq	-2112(%rbx), %rax
	shrq	$3, %rax
	addq	$2147450880, %rax
	movw	$0, (%rax)
	movb	$0, 2(%rax)
	.loc 12 12 62
	leaq	-544(%rbx), %rax
	shrq	$3, %rax
	addq	$2147450880, %rax
	movl	$0, (%rax)
	leaq	-2736(%rbx), %rax
	shrq	$3, %rax
	addq	$2147450880, %rax
	movb	$1, (%rax)
	leaq	-2736(%rbx), %rax
	movq	%rax, %rdi
	call	_ZNSaIcEC1Ev@PLT
	leaq	-2736(%rbx), %rdx
	leaq	-544(%rbx), %rax
	leaq	.LC8(%rip), %rsi
	movq	%rax, %rdi
.LEHB1:
	call	_ZNSt7__cxx1112basic_stringIcSt11char_traitsIcESaIcEEC1IS3_EEPKcRKS3_
.LEHE1:
	.loc 12 12 62 is_stmt 0 discriminator 1
	leaq	-2112(%rbx), %rax
	movq	%rax, %rdx
	shrq	$3, %rdx
	addq	$2147450880, %rdx
	movzbl	(%rdx), %edx
	testb	%dl, %dl
	setne	%cl
	testb	%dl, %dl
	setle	%dl
	andl	%edx, %ecx
	movl	%ecx, %edi
	movl	$24, %edx
	subq	$1, %rdx
	leaq	(%rax,%rdx), %rcx
	movq	%rcx, %rdx
	shrq	$3, %rdx
	addq	$2147450880, %rdx
	movzbl	(%rdx), %edx
	testb	%dl, %dl
	setne	%sil
	andl	$7, %ecx
	cmpb	%dl, %cl
	setge	%dl
	andl	%esi, %edx
	orl	%edi, %edx
	testb	%dl, %dl
	je	.L149
	.loc 12 12 62
	movl	$24, %esi
	movq	%rax, %rdi
	call	__asan_report_store_n@PLT
.L149:
	.loc 12 12 62 discriminator 1
	leaq	-2112(%rbx), %rax
	leaq	-544(%rbx), %rdx
	movq	%rdx, %rsi
	movq	%rax, %rdi
.LEHB2:
	call	_ZN11GraphMatrixIccE7getPairERKNSt7__cxx1112basic_stringIcSt11char_traitsIcESaIcEEE
.LEHE2:
	.loc 12 12 113 is_stmt 1 discriminator 2
	leaq	-2112(%rbx), %rdx
	leaq	-2176(%rbx), %rsi
	leaq	-880(%rbx), %rax
	movl	$0, %ecx
	movq	%rax, %rdi
.LEHB3:
	call	_ZN11GraphMatrixIccEC1ERKSt6vectorIcSaIcEERKS1_ISt4pairIccESaIS7_EE6Direct
.LEHE3:
	leaq	-2112(%rbx), %rax
	movq	%rax, %rdi
	call	_ZNSt6vectorISt4pairIccESaIS1_EED1Ev
	.loc 12 12 62
	leaq	-2112(%rbx), %rax
	shrq	$3, %rax
	addq	$2147450880, %rax
	movw	$-1800, (%rax)
	movb	$-8, 2(%rax)
	leaq	-544(%rbx), %rax
	movq	%rax, %rdi
	call	_ZNSt7__cxx1112basic_stringIcSt11char_traitsIcESaIcEED1Ev@PLT
	leaq	-544(%rbx), %rax
	shrq	$3, %rax
	addq	$2147450880, %rax
	movl	$-117901064, (%rax)
	leaq	-2736(%rbx), %rax
	movq	%rax, %rdi
	call	_ZNSaIcED1Ev@PLT
	leaq	-2736(%rbx), %rax
	shrq	$3, %rax
	addq	$2147450880, %rax
	movb	$-8, (%rax)
	.loc 12 14 13
	leaq	-2720(%rbx), %rax
	shrq	$3, %rax
	addq	$2147450880, %rax
	movb	$1, (%rax)
	.file 13 "../src/GraphMatrix.h"
	.loc 13 106 75
	leaq	-2720(%rbx), %rax
	movq	%rax, %rdx
	movq	%rdx, %rax
	shrq	$3, %rax
	addq	$2147450880, %rax
	movzbl	(%rax), %eax
	testb	%al, %al
	setne	%cl
	testb	%al, %al
	setle	%al
	andl	%ecx, %eax
	testb	%al, %al
	je	.L150
	movq	%rdx, %rdi
	call	__asan_report_store1@PLT
.L150:
	movb	$1, -2720(%rbx)
	.loc 12 14 13
	leaq	-2720(%rbx), %rdx
	leaq	-880(%rbx), %rax
	movq	%rdx, %r8
	movl	$1, %ecx
	movl	$3, %edx
	movl	$2, %esi
	movq	%rax, %rdi
.LEHB4:
	call	_ZN11GraphMatrixIccE6insertEiiiRKc
.LEHE4:
	.loc 13 106 75
	leaq	-2720(%rbx), %rax
	shrq	$3, %rax
	addq	$2147450880, %rax
	movb	$-8, (%rax)
	.loc 12 15 32
	leaq	-1600(%rbx), %rax
	shrq	$3, %rax
	addq	$2147450880, %rax
	movl	$0, (%rax)
	movb	$0, 4(%rax)
	.loc 12 15 29
	leaq	-1600(%rbx), %rax
	movq	%rax, %rdx
	shrq	$3, %rdx
	addq	$2147450880, %rdx
	movzbl	(%rdx), %edx
	testb	%dl, %dl
	setne	%cl
	testb	%dl, %dl
	setle	%dl
	andl	%edx, %ecx
	movl	%ecx, %edi
	movl	$40, %edx
	subq	$1, %rdx
	leaq	(%rax,%rdx), %rcx
	movq	%rcx, %rdx
	shrq	$3, %rdx
	addq	$2147450880, %rdx
	movzbl	(%rdx), %edx
	testb	%dl, %dl
	setne	%sil
	andl	$7, %ecx
	cmpb	%dl, %cl
	setge	%dl
	andl	%esi, %edx
	orl	%edi, %edx
	testb	%dl, %dl
	je	.L151
	movl	$40, %esi
	movq	%rax, %rdi
	call	__asan_report_store_n@PLT
.L151:
	leaq	-1600(%rbx), %rax
	leaq	-880(%rbx), %rdx
	movq	%rdx, %rsi
	movq	%rax, %rdi
.LEHB5:
	call	_ZN11GraphMatrixIccE14adjacentMatrixEv
.LEHE5:
	.loc 12 15 30 discriminator 1
	leaq	-1600(%rbx), %rax
	movq	%rax, %rsi
	leaq	_ZSt4cout(%rip), %rdi
.LEHB6:
	call	_ZlsIbERSoS0_RK6MatrixIT_E
	movq	%rax, %rdx
	.loc 12 15 35 discriminator 1
	movq	_ZSt4endlIcSt11char_traitsIcEERSt13basic_ostreamIT_T0_ES6_@GOTPCREL(%rip), %rax
	movq	%rax, %rsi
	movq	%rdx, %rdi
	call	_ZNSolsEPFRSoS_E@PLT
.LEHE6:
	.loc 12 15 29 discriminator 5
	leaq	-1600(%rbx), %rax
	movq	%rax, %rdi
	call	_ZN6MatrixIbED1Ev
	leaq	-1600(%rbx), %rax
	shrq	$3, %rax
	addq	$2147450880, %rax
	movl	$-117901064, (%rax)
	movb	$-8, 4(%rax)
	.loc 12 16 13 discriminator 5
	leaq	-2704(%rbx), %rax
	shrq	$3, %rax
	addq	$2147450880, %rax
	movb	$1, (%rax)
	.loc 13 106 75 discriminator 5
	leaq	-2704(%rbx), %rax
	movq	%rax, %rdx
	movq	%rdx, %rax
	shrq	$3, %rax
	addq	$2147450880, %rax
	movzbl	(%rax), %eax
	testb	%al, %al
	setne	%cl
	testb	%al, %al
	setle	%al
	andl	%ecx, %eax
	testb	%al, %al
	je	.L152
	.loc 13 106 75 is_stmt 0
	movq	%rdx, %rdi
	call	__asan_report_store1@PLT
.L152:
	.loc 13 106 75 discriminator 5
	movb	$1, -2704(%rbx)
	.loc 12 16 13 is_stmt 1 discriminator 5
	leaq	-2704(%rbx), %rdx
	leaq	-880(%rbx), %rax
	movq	%rdx, %r8
	movl	$1, %ecx
	movl	$49, %edx
	movl	$52, %esi
	movq	%rax, %rdi
.LEHB7:
	call	_ZN11GraphMatrixIccE6insertEiiiRKc
.LEHE7:
	.loc 13 106 75
	leaq	-2704(%rbx), %rax
	shrq	$3, %rax
	addq	$2147450880, %rax
	movb	$-8, (%rax)
	.loc 12 17 32
	leaq	-1520(%rbx), %rax
	shrq	$3, %rax
	addq	$2147450880, %rax
	movl	$0, (%rax)
	movb	$0, 4(%rax)
	.loc 12 17 29
	leaq	-1520(%rbx), %rax
	movq	%rax, %rdx
	shrq	$3, %rdx
	addq	$2147450880, %rdx
	movzbl	(%rdx), %edx
	testb	%dl, %dl
	setne	%cl
	testb	%dl, %dl
	setle	%dl
	andl	%edx, %ecx
	movl	%ecx, %edi
	movl	$40, %edx
	subq	$1, %rdx
	leaq	(%rax,%rdx), %rcx
	movq	%rcx, %rdx
	shrq	$3, %rdx
	addq	$2147450880, %rdx
	movzbl	(%rdx), %edx
	testb	%dl, %dl
	setne	%sil
	andl	$7, %ecx
	cmpb	%dl, %cl
	setge	%dl
	andl	%esi, %edx
	orl	%edi, %edx
	testb	%dl, %dl
	je	.L153
	movl	$40, %esi
	movq	%rax, %rdi
	call	__asan_report_store_n@PLT
.L153:
	leaq	-1520(%rbx), %rax
	leaq	-880(%rbx), %rdx
	movq	%rdx, %rsi
	movq	%rax, %rdi
.LEHB8:
	call	_ZN11GraphMatrixIccE14adjacentMatrixEv
.LEHE8:
	.loc 12 17 30 discriminator 1
	leaq	-1520(%rbx), %rax
	movq	%rax, %rsi
	leaq	_ZSt4cout(%rip), %rdi
.LEHB9:
	call	_ZlsIbERSoS0_RK6MatrixIT_E
	movq	%rax, %rdx
	.loc 12 17 35 discriminator 1
	movq	_ZSt4endlIcSt11char_traitsIcEERSt13basic_ostreamIT_T0_ES6_@GOTPCREL(%rip), %rax
	movq	%rax, %rsi
	movq	%rdx, %rdi
	call	_ZNSolsEPFRSoS_E@PLT
.LEHE9:
	.loc 12 17 29 discriminator 5
	leaq	-1520(%rbx), %rax
	movq	%rax, %rdi
	call	_ZN6MatrixIbED1Ev
	leaq	-1520(%rbx), %rax
	shrq	$3, %rax
	addq	$2147450880, %rax
	movl	$-117901064, (%rax)
	movb	$-8, 4(%rax)
	.loc 12 18 13 discriminator 5
	leaq	-880(%rbx), %rax
	movl	$50, %esi
	movq	%rax, %rdi
.LEHB10:
	call	_ZN11GraphMatrixIccE6removeEi
	.loc 12 19 32
	leaq	-1440(%rbx), %rax
	shrq	$3, %rax
	addq	$2147450880, %rax
	movl	$0, (%rax)
	movb	$0, 4(%rax)
	.loc 12 19 29
	leaq	-1440(%rbx), %rax
	movq	%rax, %rdx
	shrq	$3, %rdx
	addq	$2147450880, %rdx
	movzbl	(%rdx), %edx
	testb	%dl, %dl
	setne	%cl
	testb	%dl, %dl
	setle	%dl
	andl	%edx, %ecx
	movl	%ecx, %edi
	movl	$40, %edx
	subq	$1, %rdx
	leaq	(%rax,%rdx), %rcx
	movq	%rcx, %rdx
	shrq	$3, %rdx
	addq	$2147450880, %rdx
	movzbl	(%rdx), %edx
	testb	%dl, %dl
	setne	%sil
	andl	$7, %ecx
	cmpb	%dl, %cl
	setge	%dl
	andl	%esi, %edx
	orl	%edi, %edx
	testb	%dl, %dl
	je	.L154
	movl	$40, %esi
	movq	%rax, %rdi
	call	__asan_report_store_n@PLT
.L154:
	leaq	-1440(%rbx), %rax
	leaq	-880(%rbx), %rdx
	movq	%rdx, %rsi
	movq	%rax, %rdi
	call	_ZN11GraphMatrixIccE14adjacentMatrixEv
.LEHE10:
	.loc 12 19 30 discriminator 1
	leaq	-1440(%rbx), %rax
	movq	%rax, %rsi
	leaq	_ZSt4cout(%rip), %rdi
.LEHB11:
	call	_ZlsIbERSoS0_RK6MatrixIT_E
	movq	%rax, %rdx
	.loc 12 19 35 discriminator 1
	movq	_ZSt4endlIcSt11char_traitsIcEERSt13basic_ostreamIT_T0_ES6_@GOTPCREL(%rip), %rax
	movq	%rax, %rsi
	movq	%rdx, %rdi
	call	_ZNSolsEPFRSoS_E@PLT
.LEHE11:
	.loc 12 19 29 discriminator 5
	leaq	-1440(%rbx), %rax
	movq	%rax, %rdi
	call	_ZN6MatrixIbED1Ev
	leaq	-1440(%rbx), %rax
	shrq	$3, %rax
	addq	$2147450880, %rax
	movl	$-117901064, (%rax)
	movb	$-8, 4(%rax)
	.loc 12 20 13 discriminator 5
	leaq	-2688(%rbx), %rax
	shrq	$3, %rax
	addq	$2147450880, %rax
	movb	$1, (%rax)
	.loc 12 20 14 discriminator 5
	leaq	-2688(%rbx), %rax
	movq	%rax, %rdx
	movq	%rdx, %rax
	shrq	$3, %rax
	addq	$2147450880, %rax
	movzbl	(%rax), %eax
	testb	%al, %al
	setne	%cl
	testb	%al, %al
	setle	%al
	andl	%ecx, %eax
	testb	%al, %al
	je	.L155
	.loc 12 20 14 is_stmt 0
	movq	%rdx, %rdi
	call	__asan_report_store1@PLT
.L155:
	.loc 12 20 14 discriminator 5
	movb	$49, -2688(%rbx)
	.loc 12 20 13 is_stmt 1 discriminator 5
	leaq	-2688(%rbx), %rdx
	leaq	-880(%rbx), %rax
	movq	%rdx, %rsi
	movq	%rax, %rdi
.LEHB12:
	call	_ZN11GraphMatrixIccE6insertERKc
.LEHE12:
	.loc 12 20 14 discriminator 2
	leaq	-2688(%rbx), %rax
	shrq	$3, %rax
	addq	$2147450880, %rax
	movb	$-8, (%rax)
	.loc 12 21 18 discriminator 2
	leaq	-1360(%rbx), %rax
	shrq	$3, %rax
	addq	$2147450880, %rax
	movl	$0, (%rax)
	movb	$0, 4(%rax)
	.loc 12 21 39 discriminator 2
	leaq	-1360(%rbx), %rax
	movq	%rax, %rdx
	shrq	$3, %rdx
	addq	$2147450880, %rdx
	movzbl	(%rdx), %edx
	testb	%dl, %dl
	setne	%cl
	testb	%dl, %dl
	setle	%dl
	andl	%edx, %ecx
	movl	%ecx, %edi
	movl	$40, %edx
	subq	$1, %rdx
	leaq	(%rax,%rdx), %rcx
	movq	%rcx, %rdx
	shrq	$3, %rdx
	addq	$2147450880, %rdx
	movzbl	(%rdx), %edx
	testb	%dl, %dl
	setne	%sil
	andl	$7, %ecx
	cmpb	%dl, %cl
	setge	%dl
	andl	%esi, %edx
	orl	%edi, %edx
	testb	%dl, %dl
	je	.L156
	.loc 12 21 39 is_stmt 0
	movl	$40, %esi
	movq	%rax, %rdi
	call	__asan_report_store_n@PLT
.L156:
	.loc 12 21 39 discriminator 2
	leaq	-1360(%rbx), %rax
	leaq	-880(%rbx), %rdx
	movq	%rdx, %rsi
	movq	%rax, %rdi
.LEHB13:
	call	_ZN11GraphMatrixIccE14adjacentMatrixEv
.LEHE13:
	.loc 12 22 25 is_stmt 1
	leaq	-1280(%rbx), %rax
	shrq	$3, %rax
	addq	$2147450880, %rax
	movl	$0, (%rax)
	movb	$0, 4(%rax)
	.loc 12 22 20
	leaq	-1280(%rbx), %rax
	movq	%rax, %rdx
	shrq	$3, %rdx
	addq	$2147450880, %rdx
	movzbl	(%rdx), %edx
	testb	%dl, %dl
	setne	%cl
	testb	%dl, %dl
	setle	%dl
	andl	%edx, %ecx
	movl	%ecx, %edi
	movl	$40, %edx
	subq	$1, %rdx
	leaq	(%rax,%rdx), %rcx
	movq	%rcx, %rdx
	shrq	$3, %rdx
	addq	$2147450880, %rdx
	movzbl	(%rdx), %edx
	testb	%dl, %dl
	setne	%sil
	andl	$7, %ecx
	cmpb	%dl, %cl
	setge	%dl
	andl	%esi, %edx
	orl	%edi, %edx
	testb	%dl, %dl
	je	.L157
	movl	$40, %esi
	movq	%rax, %rdi
	call	__asan_report_store_n@PLT
.L157:
	leaq	-1280(%rbx), %rax
	leaq	-1360(%rbx), %rcx
	movl	$10, %edx
	movq	%rcx, %rsi
	movq	%rax, %rdi
.LEHB14:
	call	_ZN6MatrixIbE5powerEm
.LEHE14:
	.loc 12 22 23 discriminator 1
	leaq	-1280(%rbx), %rax
	movq	%rax, %rsi
	leaq	_ZSt4cout(%rip), %rdi
.LEHB15:
	call	_ZlsIbERSoS0_RK6MatrixIT_E
	movq	%rax, %rdx
	.loc 12 22 28 discriminator 1
	movq	_ZSt4endlIcSt11char_traitsIcEERSt13basic_ostreamIT_T0_ES6_@GOTPCREL(%rip), %rax
	movq	%rax, %rsi
	movq	%rdx, %rdi
	call	_ZNSolsEPFRSoS_E@PLT
.LEHE15:
	.loc 12 22 20 discriminator 5
	leaq	-1280(%rbx), %rax
	movq	%rax, %rdi
	call	_ZN6MatrixIbED1Ev
	leaq	-1280(%rbx), %rax
	shrq	$3, %rax
	addq	$2147450880, %rax
	movl	$-117901064, (%rax)
	movb	$-8, 4(%rax)
	.loc 12 23 21 discriminator 5
	leaq	-2272(%rbx), %rax
	shrq	$3, %rax
	addq	$2147450880, %rax
	movw	$0, (%rax)
	.loc 12 23 16 discriminator 5
	leaq	-1360(%rbx), %rax
	movl	$0, %esi
	movq	%rax, %rdi
	call	_ZN6MatrixIbEixEm
	movq	%rax, %rcx
	.loc 12 23 19 discriminator 5
	leaq	-2272(%rbx), %rax
	movq	%rax, %rdx
	shrq	$3, %rdx
	addq	$2147450880, %rdx
	movzwl	(%rdx), %edx
	testw	%dx, %dx
	je	.L158
	.loc 12 23 19 is_stmt 0
	movq	%rax, %rdi
	call	__asan_report_store16@PLT
.L158:
	.loc 12 23 19 discriminator 5
	movl	$2, %esi
	movq	%rcx, %rdi
	call	_ZNSt6vectorIbSaIbEEixEm
	movq	%rax, -2272(%rbx)
	movq	%rdx, -2264(%rbx)
	leaq	-2272(%rbx), %rax
	movq	%rax, %rdi
	call	_ZNKSt14_Bit_referencecvbEv
	movzbl	%al, %eax
	movl	%eax, %esi
	leaq	_ZSt4cout(%rip), %rdi
.LEHB16:
	call	_ZNSolsEb@PLT
	movq	%rax, %rdx
	.loc 12 23 24 is_stmt 1 discriminator 5
	movq	_ZSt4endlIcSt11char_traitsIcEERSt13basic_ostreamIT_T0_ES6_@GOTPCREL(%rip), %rax
	movq	%rax, %rsi
	movq	%rdx, %rdi
	call	_ZNSolsEPFRSoS_E@PLT
.LEHE16:
	.loc 12 23 19 discriminator 4
	leaq	-2272(%rbx), %rax
	shrq	$3, %rax
	addq	$2147450880, %rax
	movw	$-1800, (%rax)
	.loc 12 24 36 discriminator 4
	leaq	-1200(%rbx), %rax
	shrq	$3, %rax
	addq	$2147450880, %rax
	movl	$0, (%rax)
	movb	$0, 4(%rax)
	.loc 12 24 33 discriminator 4
	leaq	-1200(%rbx), %rax
	movq	%rax, %rdx
	shrq	$3, %rdx
	addq	$2147450880, %rdx
	movzbl	(%rdx), %edx
	testb	%dl, %dl
	setne	%cl
	testb	%dl, %dl
	setle	%dl
	andl	%edx, %ecx
	movl	%ecx, %edi
	movl	$40, %edx
	subq	$1, %rdx
	leaq	(%rax,%rdx), %rcx
	movq	%rcx, %rdx
	shrq	$3, %rdx
	addq	$2147450880, %rdx
	movzbl	(%rdx), %edx
	testb	%dl, %dl
	setne	%sil
	andl	$7, %ecx
	cmpb	%dl, %cl
	setge	%dl
	andl	%esi, %edx
	orl	%edi, %edx
	testb	%dl, %dl
	je	.L159
	.loc 12 24 33 is_stmt 0
	movl	$40, %esi
	movq	%rax, %rdi
	call	__asan_report_store_n@PLT
.L159:
	.loc 12 24 33 discriminator 4
	leaq	-1200(%rbx), %rax
	leaq	-880(%rbx), %rdx
	movq	%rdx, %rsi
	movq	%rax, %rdi
.LEHB17:
	call	_ZN11GraphMatrixIccE18reachabilityMatrixEv
.LEHE17:
	.loc 12 24 34 is_stmt 1 discriminator 1
	leaq	-1200(%rbx), %rax
	movq	%rax, %rsi
	leaq	_ZSt4cout(%rip), %rdi
.LEHB18:
	call	_ZlsIbERSoS0_RK6MatrixIT_E
	movq	%rax, %rdx
	.loc 12 24 39 discriminator 1
	movq	_ZSt4endlIcSt11char_traitsIcEERSt13basic_ostreamIT_T0_ES6_@GOTPCREL(%rip), %rax
	movq	%rax, %rsi
	movq	%rdx, %rdi
	call	_ZNSolsEPFRSoS_E@PLT
.LEHE18:
	.loc 12 24 33 discriminator 5
	leaq	-1200(%rbx), %rax
	movq	%rax, %rdi
	call	_ZN6MatrixIbED1Ev
	leaq	-1200(%rbx), %rax
	shrq	$3, %rax
	addq	$2147450880, %rax
	movl	$-117901064, (%rax)
	movb	$-8, 4(%rax)
	.loc 12 38 18 discriminator 5
	leaq	-2048(%rbx), %rax
	shrq	$3, %rax
	addq	$2147450880, %rax
	movw	$0, (%rax)
	movb	$0, 2(%rax)
	leaq	-2048(%rbx), %rax
	movq	%rax, %rdi
	call	_ZNSt6vectorIcSaIcEEC1Ev
	.loc 12 39 20 discriminator 5
	leaq	-880(%rbx), %rax
	addq	$8, %rax
	movq	%rax, %rdx
	movq	%rdx, %rax
	shrq	$3, %rax
	addq	$2147450880, %rax
	movzbl	(%rax), %eax
	testb	%al, %al
	setne	%cl
	cmpb	$3, %al
	setle	%al
	andl	%ecx, %eax
	testb	%al, %al
	je	.L160
	.loc 12 39 20 is_stmt 0
	movq	%rdx, %rdi
	call	__asan_report_load4@PLT
.L160:
	.loc 12 39 20 discriminator 5
	movl	-872(%rbx), %eax
	.loc 12 39 17 is_stmt 1 discriminator 5
	movslq	%eax, %rdx
	leaq	-2048(%rbx), %rax
	movq	%rdx, %rsi
	movq	%rax, %rdi
.LEHB19:
	call	_ZNSt6vectorIcSaIcEE7reserveEm
.LEHE19:
	.loc 12 40 10
	leaq	-2672(%rbx), %rax
	shrq	$3, %rax
	addq	$2147450880, %rax
	movb	$1, (%rax)
	.loc 12 40 17
	leaq	-2672(%rbx), %rax
	movq	%rax, %rdx
	movq	%rdx, %rax
	shrq	$3, %rax
	addq	$2147450880, %rax
	movzbl	(%rax), %eax
	testb	%al, %al
	setne	%cl
	testb	%al, %al
	setle	%al
	andl	%ecx, %eax
	testb	%al, %al
	je	.L161
	movq	%rdx, %rdi
	call	__asan_report_store1@PLT
.L161:
	movb	$101, -2672(%rbx)
	.loc 12 40 10
	leaq	-2672(%rbx), %rdx
	leaq	-880(%rbx), %rax
	movq	%rdx, %rsi
	movq	%rax, %rdi
	call	_ZN11GraphMatrixIccE3locERKc
	movl	%eax, %ecx
	leaq	-2048(%rbx), %rdx
	leaq	-880(%rbx), %rax
	movl	%ecx, %esi
	movq	%rax, %rdi
.LEHB20:
	call	_ZN5GraphIccE3bfsEiRSt6vectorIcSaIcEE
.LEHE20:
	.loc 12 40 17 discriminator 2
	leaq	-2672(%rbx), %rax
	shrq	$3, %rax
	addq	$2147450880, %rax
	movb	$-8, (%rax)
	.loc 12 41 46 discriminator 2
	leaq	-480(%rbx), %rax
	shrq	$3, %rax
	addq	$2147450880, %rax
	movl	$0, (%rax)
	.loc 12 41 13 discriminator 2
	leaq	-2656(%rbx), %rax
	shrq	$3, %rax
	addq	$2147450880, %rax
	movb	$1, (%rax)
	leaq	-2656(%rbx), %rax
	movq	%rax, %rdi
	call	_ZNSaIcEC1Ev@PLT
	leaq	-2048(%rbx), %rax
	movq	%rax, %rdi
	call	_ZNSt6vectorIcSaIcEE3endEv
	movq	%rax, -2912(%rbp)
	leaq	-2048(%rbx), %rax
	movq	%rax, %rdi
	call	_ZNSt6vectorIcSaIcEE5beginEv
	movq	%rax, %rsi
	leaq	-2656(%rbx), %rdx
	leaq	-480(%rbx), %rax
	movq	%rdx, %rcx
	movq	-2912(%rbp), %rdx
	movq	%rax, %rdi
.LEHB21:
	call	_ZNSt7__cxx1112basic_stringIcSt11char_traitsIcESaIcEEC1IN9__gnu_cxx17__normal_iteratorIPcSt6vectorIcS3_EEEvEET_SC_RKS3_
.LEHE21:
	.loc 12 41 44 discriminator 2
	leaq	-480(%rbx), %rax
	movq	%rax, %rsi
	leaq	_ZSt4cout(%rip), %rdi
.LEHB22:
	call	_ZStlsIcSt11char_traitsIcESaIcEERSt13basic_ostreamIT_T0_ES7_RKNSt7__cxx1112basic_stringIS4_S5_T1_EE@PLT
	movq	%rax, %rdx
	.loc 12 41 49 discriminator 2
	movq	_ZSt4endlIcSt11char_traitsIcEERSt13basic_ostreamIT_T0_ES6_@GOTPCREL(%rip), %rax
	movq	%rax, %rsi
	movq	%rdx, %rdi
	call	_ZNSolsEPFRSoS_E@PLT
.LEHE22:
	.loc 12 41 13 discriminator 6
	leaq	-480(%rbx), %rax
	movq	%rax, %rdi
	call	_ZNSt7__cxx1112basic_stringIcSt11char_traitsIcESaIcEED1Ev@PLT
	leaq	-480(%rbx), %rax
	shrq	$3, %rax
	addq	$2147450880, %rax
	movl	$-117901064, (%rax)
	leaq	-2656(%rbx), %rax
	movq	%rax, %rdi
	call	_ZNSaIcED1Ev@PLT
	leaq	-2656(%rbx), %rax
	shrq	$3, %rax
	addq	$2147450880, %rax
	movb	$-8, (%rax)
	.loc 12 42 17 discriminator 6
	leaq	-1984(%rbx), %rax
	shrq	$3, %rax
	addq	$2147450880, %rax
	movw	$0, (%rax)
	movb	$0, 2(%rax)
	.loc 12 42 53 discriminator 6
	leaq	-416(%rbx), %rax
	shrq	$3, %rax
	addq	$2147450880, %rax
	movl	$0, (%rax)
	leaq	-416(%rbx), %rax
	movq	%rax, %rdx
	movq	%rdx, %rax
	shrq	$3, %rax
	addq	$2147450880, %rax
	movzbl	(%rax), %eax
	testb	%al, %al
	setne	%cl
	cmpb	$3, %al
	setle	%al
	andl	%ecx, %eax
	testb	%al, %al
	je	.L162
	.loc 12 42 53 is_stmt 0
	movq	%rdx, %rdi
	call	__asan_report_store4@PLT
.L162:
	.loc 12 42 53 discriminator 6
	movl	$1, -416(%rbx)
	leaq	-416(%rbx), %rax
	addq	$4, %rax
	movq	%rax, %rdx
	shrq	$3, %rdx
	addq	$2147450880, %rdx
	movzbl	(%rdx), %edx
	testb	%dl, %dl
	setne	%cl
	movq	%rax, %rsi
	andl	$7, %esi
	addl	$3, %esi
	cmpb	%dl, %sil
	setge	%dl
	andl	%ecx, %edx
	testb	%dl, %dl
	je	.L163
	.loc 12 42 53
	movq	%rax, %rdi
	call	__asan_report_store4@PLT
.L163:
	.loc 12 42 53 discriminator 6
	movl	$2, -412(%rbx)
	leaq	-416(%rbx), %rax
	addq	$8, %rax
	movq	%rax, %rdx
	movq	%rdx, %rax
	shrq	$3, %rax
	addq	$2147450880, %rax
	movzbl	(%rax), %eax
	testb	%al, %al
	setne	%cl
	cmpb	$3, %al
	setle	%al
	andl	%ecx, %eax
	testb	%al, %al
	je	.L164
	.loc 12 42 53
	movq	%rdx, %rdi
	call	__asan_report_store4@PLT
.L164:
	.loc 12 42 53 discriminator 6
	movl	$3, -408(%rbx)
	leaq	-416(%rbx), %rax
	addq	$12, %rax
	movq	%rax, %rdx
	shrq	$3, %rdx
	addq	$2147450880, %rdx
	movzbl	(%rdx), %edx
	testb	%dl, %dl
	setne	%cl
	movq	%rax, %rsi
	andl	$7, %esi
	addl	$3, %esi
	cmpb	%dl, %sil
	setge	%dl
	andl	%ecx, %edx
	testb	%dl, %dl
	je	.L165
	.loc 12 42 53
	movq	%rax, %rdi
	call	__asan_report_store4@PLT
.L165:
	.loc 12 42 53 discriminator 6
	movl	$4, -404(%rbx)
	leaq	-416(%rbx), %rax
	addq	$16, %rax
	movq	%rax, %rdx
	movq	%rdx, %rax
	shrq	$3, %rax
	addq	$2147450880, %rax
	movzbl	(%rax), %eax
	testb	%al, %al
	setne	%cl
	cmpb	$3, %al
	setle	%al
	andl	%ecx, %eax
	testb	%al, %al
	je	.L166
	.loc 12 42 53
	movq	%rdx, %rdi
	call	__asan_report_store4@PLT
.L166:
	.loc 12 42 53 discriminator 6
	movl	$5, -400(%rbx)
	leaq	-416(%rbx), %rax
	addq	$20, %rax
	movq	%rax, %rdx
	shrq	$3, %rdx
	addq	$2147450880, %rdx
	movzbl	(%rdx), %edx
	testb	%dl, %dl
	setne	%cl
	movq	%rax, %rsi
	andl	$7, %esi
	addl	$3, %esi
	cmpb	%dl, %sil
	setge	%dl
	andl	%ecx, %edx
	testb	%dl, %dl
	je	.L167
	.loc 12 42 53
	movq	%rax, %rdi
	call	__asan_report_store4@PLT
.L167:
	.loc 12 42 53 discriminator 6
	movl	$6, -396(%rbx)
	leaq	-416(%rbx), %rax
	addq	$24, %rax
	movq	%rax, %rdx
	movq	%rdx, %rax
	shrq	$3, %rax
	addq	$2147450880, %rax
	movzbl	(%rax), %eax
	testb	%al, %al
	setne	%cl
	cmpb	$3, %al
	setle	%al
	andl	%ecx, %eax
	testb	%al, %al
	je	.L168
	.loc 12 42 53
	movq	%rdx, %rdi
	call	__asan_report_store4@PLT
.L168:
	.loc 12 42 53 discriminator 6
	movl	$7, -392(%rbx)
	leaq	-416(%rbx), %rax
	addq	$28, %rax
	movq	%rax, %rdx
	shrq	$3, %rdx
	addq	$2147450880, %rdx
	movzbl	(%rdx), %edx
	testb	%dl, %dl
	setne	%cl
	movq	%rax, %rsi
	andl	$7, %esi
	addl	$3, %esi
	cmpb	%dl, %sil
	setge	%dl
	andl	%ecx, %edx
	testb	%dl, %dl
	je	.L169
	.loc 12 42 53
	movq	%rax, %rdi
	call	__asan_report_store4@PLT
.L169:
	.loc 12 42 53 discriminator 6
	movl	$8, -388(%rbx)
	leaq	-416(%rbx), %rax
	movq	%rax, -2896(%rbp)
	movq	$8, -2888(%rbp)
	leaq	-2640(%rbx), %rax
	shrq	$3, %rax
	addq	$2147450880, %rax
	movb	$1, (%rax)
	leaq	-2640(%rbx), %rax
	movq	%rax, %rdi
	call	_ZNSaIiEC1Ev
	leaq	-2640(%rbx), %rdx
	movq	-2896(%rbp), %rsi
	movq	-2888(%rbp), %rdi
	movq	%rsi, %r8
	movq	%rdi, %r9
	leaq	-1984(%rbx), %rax
	movq	%rdx, %rcx
	movq	%r8, %rsi
	movq	%rdi, %rdx
	movq	%rax, %rdi
.LEHB23:
	call	_ZNSt6vectorIiSaIiEEC1ESt16initializer_listIiERKS0_
.LEHE23:
	leaq	-2640(%rbx), %rax
	movq	%rax, %rdi
	call	_ZNSaIiED1Ev
	.loc 12 42 53
	leaq	-2640(%rbx), %rax
	shrq	$3, %rax
	addq	$2147450880, %rax
	movb	$-8, (%rax)
	leaq	-416(%rbx), %rax
	shrq	$3, %rax
	addq	$2147450880, %rax
	movl	$-117901064, (%rax)
	.loc 12 43 22 is_stmt 1
	leaq	-768(%rbx), %rax
	shrq	$3, %rax
	addq	$2147450880, %rax
	movl	$0, (%rax)
	movl	$0, 4(%rax)
	movb	$0, 8(%rax)
	.loc 12 43 124
	leaq	-1920(%rbx), %rax
	shrq	$3, %rax
	addq	$2147450880, %rax
	movw	$0, (%rax)
	movb	$0, 2(%rax)
	.loc 12 43 68
	leaq	-352(%rbx), %rax
	shrq	$3, %rax
	addq	$2147450880, %rax
	movl	$0, (%rax)
	leaq	-2624(%rbx), %rax
	shrq	$3, %rax
	addq	$2147450880, %rax
	movb	$1, (%rax)
	leaq	-2624(%rbx), %rax
	movq	%rax, %rdi
	call	_ZNSaIcEC1Ev@PLT
	leaq	-2624(%rbx), %rdx
	leaq	-352(%rbx), %rax
	leaq	.LC9(%rip), %rsi
	movq	%rax, %rdi
.LEHB24:
	call	_ZNSt7__cxx1112basic_stringIcSt11char_traitsIcESaIcEEC1IS3_EEPKcRKS3_
.LEHE24:
	.loc 12 43 68 is_stmt 0 discriminator 1
	leaq	-1920(%rbx), %rax
	movq	%rax, %rdx
	shrq	$3, %rdx
	addq	$2147450880, %rdx
	movzbl	(%rdx), %edx
	testb	%dl, %dl
	setne	%cl
	testb	%dl, %dl
	setle	%dl
	andl	%edx, %ecx
	movl	%ecx, %edi
	movl	$24, %edx
	subq	$1, %rdx
	leaq	(%rax,%rdx), %rcx
	movq	%rcx, %rdx
	shrq	$3, %rdx
	addq	$2147450880, %rdx
	movzbl	(%rdx), %edx
	testb	%dl, %dl
	setne	%sil
	andl	$7, %ecx
	cmpb	%dl, %cl
	setge	%dl
	andl	%esi, %edx
	orl	%edi, %edx
	testb	%dl, %dl
	je	.L170
	.loc 12 43 68
	movl	$24, %esi
	movq	%rax, %rdi
	call	__asan_report_store_n@PLT
.L170:
	.loc 12 43 68 discriminator 1
	leaq	-1920(%rbx), %rax
	leaq	-352(%rbx), %rdx
	movq	%rdx, %rsi
	movq	%rax, %rdi
.LEHB25:
	call	_ZN11GraphMatrixIicE7getPairERKNSt7__cxx1112basic_stringIcSt11char_traitsIcESaIcEEE
.LEHE25:
	.loc 12 43 124 is_stmt 1 discriminator 2
	leaq	-1920(%rbx), %rdx
	leaq	-1984(%rbx), %rsi
	leaq	-768(%rbx), %rax
	movl	$0, %ecx
	movq	%rax, %rdi
.LEHB26:
	call	_ZN11GraphMatrixIicEC1ERKSt6vectorIiSaIiEERKS1_ISt4pairIiiESaIS7_EE6Direct
.LEHE26:
	leaq	-1920(%rbx), %rax
	movq	%rax, %rdi
	call	_ZNSt6vectorISt4pairIiiESaIS1_EED1Ev
	.loc 12 43 68
	leaq	-1920(%rbx), %rax
	shrq	$3, %rax
	addq	$2147450880, %rax
	movw	$-1800, (%rax)
	movb	$-8, 2(%rax)
	leaq	-352(%rbx), %rax
	movq	%rax, %rdi
	call	_ZNSt7__cxx1112basic_stringIcSt11char_traitsIcESaIcEED1Ev@PLT
	leaq	-352(%rbx), %rax
	shrq	$3, %rax
	addq	$2147450880, %rax
	movl	$-117901064, (%rax)
	leaq	-2624(%rbx), %rax
	movq	%rax, %rdi
	call	_ZNSaIcED1Ev@PLT
	leaq	-2624(%rbx), %rax
	shrq	$3, %rax
	addq	$2147450880, %rax
	movb	$-8, (%rax)
	.loc 12 44 17
	leaq	-1856(%rbx), %rax
	shrq	$3, %rax
	addq	$2147450880, %rax
	movw	$0, (%rax)
	movb	$0, 2(%rax)
	leaq	-1856(%rbx), %rax
	movq	%rax, %rdi
	call	_ZNSt6vectorIiSaIiEEC1Ev
	.loc 12 45 22
	leaq	-768(%rbx), %rax
	addq	$8, %rax
	movq	%rax, %rdx
	movq	%rdx, %rax
	shrq	$3, %rax
	addq	$2147450880, %rax
	movzbl	(%rax), %eax
	testb	%al, %al
	setne	%cl
	cmpb	$3, %al
	setle	%al
	andl	%ecx, %eax
	testb	%al, %al
	je	.L171
	movq	%rdx, %rdi
	call	__asan_report_load4@PLT
.L171:
	movl	-760(%rbx), %eax
	.loc 12 45 18
	movslq	%eax, %rdx
	leaq	-1856(%rbx), %rax
	movq	%rdx, %rsi
	movq	%rax, %rdi
.LEHB27:
	call	_ZNSt6vectorIiSaIiEE7reserveEm
.LEHE27:
	.loc 12 46 11
	leaq	-2496(%rbx), %rax
	shrq	$3, %rax
	addq	$2147450880, %rax
	movb	$4, (%rax)
	.loc 12 46 19
	leaq	-2496(%rbx), %rax
	movq	%rax, %rdx
	movq	%rdx, %rax
	shrq	$3, %rax
	addq	$2147450880, %rax
	movzbl	(%rax), %eax
	testb	%al, %al
	setne	%cl
	cmpb	$3, %al
	setle	%al
	andl	%ecx, %eax
	testb	%al, %al
	je	.L172
	movq	%rdx, %rdi
	call	__asan_report_store4@PLT
.L172:
	movl	$3, -2496(%rbx)
	.loc 12 46 11
	leaq	-2496(%rbx), %rdx
	leaq	-768(%rbx), %rax
	movq	%rdx, %rsi
	movq	%rax, %rdi
	call	_ZN11GraphMatrixIicE3locERKi
	movl	%eax, %ecx
	leaq	-1856(%rbx), %rdx
	leaq	-768(%rbx), %rax
	movl	%ecx, %esi
	movq	%rax, %rdi
.LEHB28:
	call	_ZN5GraphIicE3bfsEiRSt6vectorIiSaIiEE
.LEHE28:
	.loc 12 46 19 discriminator 2
	leaq	-2496(%rbx), %rax
	shrq	$3, %rax
	addq	$2147450880, %rax
	movb	$-8, (%rax)
.LBB22:
	.loc 12 47 19 discriminator 2
	leaq	-1856(%rbx), %rax
	movq	%rax, -2864(%rbp)
	leaq	-2400(%rbx), %rax
	shrq	$3, %rax
	addq	$2147450880, %rax
	movb	$0, (%rax)
	leaq	-2400(%rbx), %rax
	movq	%rax, %rdx
	shrq	$3, %rdx
	addq	$2147450880, %rdx
	movzbl	(%rdx), %edx
	testb	%dl, %dl
	je	.L173
	.loc 12 47 19 is_stmt 0
	movq	%rax, %rdi
	call	__asan_report_store8@PLT
.L173:
	.loc 12 47 19 discriminator 2
	movq	-2864(%rbp), %rax
	movq	%rax, %rdi
	call	_ZNSt6vectorIiSaIiEE5beginEv
	movq	%rax, -2400(%rbx)
	leaq	-2368(%rbx), %rax
	shrq	$3, %rax
	addq	$2147450880, %rax
	movb	$0, (%rax)
	leaq	-2368(%rbx), %rax
	movq	%rax, %rdx
	shrq	$3, %rdx
	addq	$2147450880, %rdx
	movzbl	(%rdx), %edx
	testb	%dl, %dl
	je	.L174
	.loc 12 47 19
	movq	%rax, %rdi
	call	__asan_report_store8@PLT
.L174:
	.loc 12 47 19 discriminator 2
	movq	-2864(%rbp), %rax
	movq	%rax, %rdi
	call	_ZNSt6vectorIiSaIiEE3endEv
	movq	%rax, -2368(%rbx)
.L177:
	.loc 12 47 19 discriminator 1
	leaq	-2368(%rbx), %rdx
	leaq	-2400(%rbx), %rax
	movq	%rdx, %rsi
	movq	%rax, %rdi
	call	_ZN9__gnu_cxxneIPiSt6vectorIiSaIiEEEEbRKNS_17__normal_iteratorIT_T0_EESA_
	testb	%al, %al
	je	.L175
	.loc 12 47 19 discriminator 2
	leaq	-2400(%rbx), %rax
	movq	%rax, %rdi
	call	_ZNK9__gnu_cxx17__normal_iteratorIPiSt6vectorIiSaIiEEEdeEv
	movq	%rax, -2840(%rbp)
	.loc 12 48 17 is_stmt 1 discriminator 2
	movq	-2840(%rbp), %rax
	movq	%rax, %rdx
	shrq	$3, %rdx
	addq	$2147450880, %rdx
	movzbl	(%rdx), %edx
	testb	%dl, %dl
	setne	%cl
	movq	%rax, %rsi
	andl	$7, %esi
	addl	$3, %esi
	cmpb	%dl, %sil
	setge	%dl
	andl	%ecx, %edx
	testb	%dl, %dl
	je	.L176
	.loc 12 48 17 is_stmt 0
	movq	%rax, %rdi
	call	__asan_report_load4@PLT
.L176:
	.loc 12 48 17 discriminator 2
	movq	-2840(%rbp), %rax
	movl	(%rax), %eax
	movl	%eax, %esi
	leaq	_ZSt4cout(%rip), %rdi
.LEHB29:
	call	_ZNSolsEi@PLT
.LEHE29:
	.loc 12 47 19 is_stmt 1 discriminator 3
	leaq	-2400(%rbx), %rax
	movq	%rax, %rdi
	call	_ZN9__gnu_cxx17__normal_iteratorIPiSt6vectorIiSaIiEEEppEv
	.loc 12 47 5 discriminator 3
	jmp	.L177
.L175:
	leaq	-2400(%rbx), %rax
	shrq	$3, %rax
	addq	$2147450880, %rax
	movb	$-8, (%rax)
	leaq	-2368(%rbx), %rax
	shrq	$3, %rax
	addq	$2147450880, %rax
	movb	$-8, (%rax)
.LBE22:
	.loc 12 49 13
	movq	_ZSt4endlIcSt11char_traitsIcEERSt13basic_ostreamIT_T0_ES6_@GOTPCREL(%rip), %rax
	movq	%rax, %rsi
	leaq	_ZSt4cout(%rip), %rdi
.LEHB30:
	call	_ZNSolsEPFRSoS_E@PLT
	.loc 12 50 16
	leaq	-1856(%rbx), %rax
	movq	%rax, %rdi
	call	_ZNSt6vectorIiSaIiEE5clearEv
	.loc 12 51 13
	leaq	-768(%rbx), %rax
	movq	%rax, %rdi
	call	_ZN5GraphIicE5resetEv
.LEHE30:
	.loc 12 52 11
	leaq	-2480(%rbx), %rax
	shrq	$3, %rax
	addq	$2147450880, %rax
	movb	$4, (%rax)
	.loc 12 52 19
	leaq	-2480(%rbx), %rax
	movq	%rax, %rdx
	movq	%rdx, %rax
	shrq	$3, %rax
	addq	$2147450880, %rax
	movzbl	(%rax), %eax
	testb	%al, %al
	setne	%cl
	cmpb	$3, %al
	setle	%al
	andl	%ecx, %eax
	testb	%al, %al
	je	.L178
	movq	%rdx, %rdi
	call	__asan_report_store4@PLT
.L178:
	movl	$3, -2480(%rbx)
	.loc 12 52 11
	leaq	-2480(%rbx), %rdx
	leaq	-768(%rbx), %rax
	movq	%rdx, %rsi
	movq	%rax, %rdi
	call	_ZN11GraphMatrixIicE3locERKi
	movl	%eax, %ecx
	leaq	-1856(%rbx), %rdx
	leaq	-768(%rbx), %rax
	movl	%ecx, %esi
	movq	%rax, %rdi
.LEHB31:
	call	_ZN5GraphIicE3dfsEiRSt6vectorIiSaIiEE
.LEHE31:
	.loc 12 52 19 discriminator 2
	leaq	-2480(%rbx), %rax
	shrq	$3, %rax
	addq	$2147450880, %rax
	movb	$-8, (%rax)
.LBB23:
	.loc 12 53 19 discriminator 2
	leaq	-1856(%rbx), %rax
	movq	%rax, -2856(%rbp)
	leaq	-2336(%rbx), %rax
	shrq	$3, %rax
	addq	$2147450880, %rax
	movb	$0, (%rax)
	leaq	-2336(%rbx), %rax
	movq	%rax, %rdx
	shrq	$3, %rdx
	addq	$2147450880, %rdx
	movzbl	(%rdx), %edx
	testb	%dl, %dl
	je	.L179
	.loc 12 53 19 is_stmt 0
	movq	%rax, %rdi
	call	__asan_report_store8@PLT
.L179:
	.loc 12 53 19 discriminator 2
	movq	-2856(%rbp), %rax
	movq	%rax, %rdi
	call	_ZNSt6vectorIiSaIiEE5beginEv
	movq	%rax, -2336(%rbx)
	leaq	-2304(%rbx), %rax
	shrq	$3, %rax
	addq	$2147450880, %rax
	movb	$0, (%rax)
	leaq	-2304(%rbx), %rax
	movq	%rax, %rdx
	shrq	$3, %rdx
	addq	$2147450880, %rdx
	movzbl	(%rdx), %edx
	testb	%dl, %dl
	je	.L180
	.loc 12 53 19
	movq	%rax, %rdi
	call	__asan_report_store8@PLT
.L180:
	.loc 12 53 19 discriminator 2
	movq	-2856(%rbp), %rax
	movq	%rax, %rdi
	call	_ZNSt6vectorIiSaIiEE3endEv
	movq	%rax, -2304(%rbx)
.L183:
	.loc 12 53 19 discriminator 1
	leaq	-2304(%rbx), %rdx
	leaq	-2336(%rbx), %rax
	movq	%rdx, %rsi
	movq	%rax, %rdi
	call	_ZN9__gnu_cxxneIPiSt6vectorIiSaIiEEEEbRKNS_17__normal_iteratorIT_T0_EESA_
	testb	%al, %al
	je	.L181
	.loc 12 53 19 discriminator 2
	leaq	-2336(%rbx), %rax
	movq	%rax, %rdi
	call	_ZNK9__gnu_cxx17__normal_iteratorIPiSt6vectorIiSaIiEEEdeEv
	movq	%rax, -2848(%rbp)
	.loc 12 54 17 is_stmt 1 discriminator 2
	movq	-2848(%rbp), %rax
	movq	%rax, %rdx
	shrq	$3, %rdx
	addq	$2147450880, %rdx
	movzbl	(%rdx), %edx
	testb	%dl, %dl
	setne	%cl
	movq	%rax, %rsi
	andl	$7, %esi
	addl	$3, %esi
	cmpb	%dl, %sil
	setge	%dl
	andl	%ecx, %edx
	testb	%dl, %dl
	je	.L182
	.loc 12 54 17 is_stmt 0
	movq	%rax, %rdi
	call	__asan_report_load4@PLT
.L182:
	.loc 12 54 17 discriminator 2
	movq	-2848(%rbp), %rax
	movl	(%rax), %eax
	movl	%eax, %esi
	leaq	_ZSt4cout(%rip), %rdi
.LEHB32:
	call	_ZNSolsEi@PLT
.LEHE32:
	.loc 12 53 19 is_stmt 1 discriminator 3
	leaq	-2336(%rbx), %rax
	movq	%rax, %rdi
	call	_ZN9__gnu_cxx17__normal_iteratorIPiSt6vectorIiSaIiEEEppEv
	.loc 12 53 5 discriminator 3
	jmp	.L183
.L181:
	leaq	-2336(%rbx), %rax
	shrq	$3, %rax
	addq	$2147450880, %rax
	movb	$-8, (%rax)
	leaq	-2304(%rbx), %rax
	shrq	$3, %rax
	addq	$2147450880, %rax
	movb	$-8, (%rax)
.LBE23:
	.loc 12 55 13
	movq	_ZSt4endlIcSt11char_traitsIcEERSt13basic_ostreamIT_T0_ES6_@GOTPCREL(%rip), %rax
	movq	%rax, %rsi
	leaq	_ZSt4cout(%rip), %rdi
.LEHB33:
	call	_ZNSolsEPFRSoS_E@PLT
	.loc 12 56 9
	leaq	-2464(%rbx), %rax
	shrq	$3, %rax
	addq	$2147450880, %rax
	movb	$4, (%rax)
	leaq	-2464(%rbx), %rax
	movq	%rax, %rdx
	movq	%rdx, %rax
	shrq	$3, %rax
	addq	$2147450880, %rax
	movzbl	(%rax), %eax
	testb	%al, %al
	setne	%cl
	cmpb	$3, %al
	setle	%al
	andl	%ecx, %eax
	testb	%al, %al
	je	.L184
	movq	%rdx, %rdi
	call	__asan_report_store4@PLT
.L184:
	movl	$0, -2464(%rbx)
	.loc 12 57 13
	leaq	-768(%rbx), %rax
	movq	%rax, %rdi
	call	_ZN5GraphIicE5resetEv
.LEHE33:
	.loc 12 58 16
	leaq	-1856(%rbx), %rax
	movq	%rax, %rdi
	call	_ZNSt6vectorIiSaIiEE5clearEv
	.loc 12 59 11
	leaq	-2448(%rbx), %rax
	shrq	$3, %rax
	addq	$2147450880, %rax
	movb	$4, (%rax)
	.loc 12 59 19
	leaq	-2448(%rbx), %rax
	movq	%rax, %rdx
	movq	%rdx, %rax
	shrq	$3, %rax
	addq	$2147450880, %rax
	movzbl	(%rax), %eax
	testb	%al, %al
	setne	%cl
	cmpb	$3, %al
	setle	%al
	andl	%ecx, %eax
	testb	%al, %al
	je	.L185
	movq	%rdx, %rdi
	call	__asan_report_store4@PLT
.L185:
	movl	$3, -2448(%rbx)
	.loc 12 59 11
	leaq	-2448(%rbx), %rdx
	leaq	-768(%rbx), %rax
	movq	%rdx, %rsi
	movq	%rax, %rdi
	call	_ZN11GraphMatrixIicE3locERKi
	movl	%eax, %esi
	leaq	-1856(%rbx), %rcx
	leaq	-2464(%rbx), %rdx
	leaq	-768(%rbx), %rax
	movq	%rax, %rdi
.LEHB34:
	call	_ZN5GraphIicE3DFSEiRiRSt6vectorIiSaIiEE
.LEHE34:
	.loc 12 59 19 discriminator 2
	leaq	-2448(%rbx), %rax
	shrq	$3, %rax
	addq	$2147450880, %rax
	movb	$-8, (%rax)
.LBB24:
	.loc 12 60 14 discriminator 2
	movl	$0, -2868(%rbp)
.L191:
	.loc 12 60 28 discriminator 1
	leaq	-768(%rbx), %rax
	addq	$8, %rax
	movq	%rax, %rdx
	movq	%rdx, %rax
	shrq	$3, %rax
	addq	$2147450880, %rax
	movzbl	(%rax), %eax
	testb	%al, %al
	setne	%cl
	cmpb	$3, %al
	setle	%al
	andl	%ecx, %eax
	testb	%al, %al
	je	.L186
	.loc 12 60 28 is_stmt 0
	movq	%rdx, %rdi
	call	__asan_report_load4@PLT
.L186:
	.loc 12 60 28 discriminator 1
	movl	-760(%rbx), %eax
	.loc 12 60 23 is_stmt 1 discriminator 1
	cmpl	%eax, -2868(%rbp)
	jge	.L187
	.loc 12 61 28
	movl	-2868(%rbp), %edx
	leaq	-768(%rbx), %rax
	movl	%edx, %esi
	movq	%rax, %rdi
	call	_ZN11GraphMatrixIicE6vertexEi
	movq	%rax, %rdx
	.loc 12 61 33
	movq	%rdx, %rax
	movq	%rax, %rcx
	shrq	$3, %rcx
	addq	$2147450880, %rcx
	movzbl	(%rcx), %ecx
	testb	%cl, %cl
	setne	%sil
	movq	%rax, %rdi
	andl	$7, %edi
	addl	$3, %edi
	cmpb	%cl, %dil
	setge	%cl
	andl	%esi, %ecx
	testb	%cl, %cl
	je	.L188
	movq	%rax, %rdi
	call	__asan_report_load4@PLT
.L188:
	movl	(%rdx), %eax
	movl	%eax, %esi
	leaq	_ZSt4cout(%rip), %rdi
.LEHB35:
	call	_ZNSolsEi@PLT
	movl	$32, %esi
	movq	%rax, %rdi
	call	_ZStlsISt11char_traitsIcEERSt13basic_ostreamIcT_ES5_c@PLT
	.loc 12 61 33 is_stmt 0 discriminator 1
	movq	%rax, -2896(%rbp)
	.loc 12 61 50 is_stmt 1 discriminator 1
	movl	-2868(%rbp), %edx
	leaq	-768(%rbx), %rax
	movl	%edx, %esi
	movq	%rax, %rdi
	call	_ZN11GraphMatrixIicE5dTimeEi
	movq	%rax, %rdx
	.loc 12 61 55 discriminator 1
	movq	%rdx, %rax
	movq	%rax, %rcx
	shrq	$3, %rcx
	addq	$2147450880, %rcx
	movzbl	(%rcx), %ecx
	testb	%cl, %cl
	setne	%sil
	movq	%rax, %rdi
	andl	$7, %edi
	addl	$3, %edi
	cmpb	%cl, %dil
	setge	%cl
	andl	%esi, %ecx
	testb	%cl, %cl
	je	.L189
	.loc 12 61 55 is_stmt 0
	movq	%rax, %rdi
	call	__asan_report_load4@PLT
.L189:
	.loc 12 61 55 discriminator 2
	movl	(%rdx), %eax
	movl	%eax, %esi
	movq	-2896(%rbp), %rdi
	call	_ZNSolsEi@PLT
	movl	$32, %esi
	movq	%rax, %rdi
	call	_ZStlsISt11char_traitsIcEERSt13basic_ostreamIcT_ES5_c@PLT
	.loc 12 61 55 discriminator 3
	movq	%rax, -2896(%rbp)
	.loc 12 61 72 is_stmt 1 discriminator 3
	movl	-2868(%rbp), %edx
	leaq	-768(%rbx), %rax
	movl	%edx, %esi
	movq	%rax, %rdi
	call	_ZN11GraphMatrixIicE5fTimeEi
	movq	%rax, %rdx
	movq	%rdx, %rax
	movq	%rax, %rcx
	shrq	$3, %rcx
	addq	$2147450880, %rcx
	movzbl	(%rcx), %ecx
	testb	%cl, %cl
	setne	%sil
	movq	%rax, %rdi
	andl	$7, %edi
	addl	$3, %edi
	cmpb	%cl, %dil
	setge	%cl
	andl	%esi, %ecx
	testb	%cl, %cl
	je	.L190
	.loc 12 61 72 is_stmt 0
	movq	%rax, %rdi
	call	__asan_report_load4@PLT
.L190:
	.loc 12 61 72 discriminator 4
	movl	(%rdx), %eax
	movl	%eax, %esi
	movq	-2896(%rbp), %rdi
	call	_ZNSolsEi@PLT
	movq	%rax, %rdx
	.loc 12 61 77 is_stmt 1 discriminator 4
	movq	_ZSt4endlIcSt11char_traitsIcEERSt13basic_ostreamIT_T0_ES6_@GOTPCREL(%rip), %rax
	movq	%rax, %rsi
	movq	%rdx, %rdi
	call	_ZNSolsEPFRSoS_E@PLT
.LEHE35:
	.loc 12 60 5 discriminator 2
	addl	$1, -2868(%rbp)
	jmp	.L191
.L187:
.LBE24:
	.loc 12 62 55
	leaq	-2416(%rbx), %rax
	shrq	$3, %rax
	addq	$2147450880, %rax
	movb	$4, (%rax)
	.loc 12 62 51
	leaq	-2416(%rbx), %rax
	movq	%rax, %rdx
	movq	%rdx, %rax
	shrq	$3, %rax
	addq	$2147450880, %rax
	movzbl	(%rax), %eax
	testb	%al, %al
	setne	%cl
	cmpb	$3, %al
	setle	%al
	andl	%ecx, %eax
	testb	%al, %al
	je	.L192
	movq	%rdx, %rdi
	call	__asan_report_store4@PLT
.L192:
	movl	$8, -2416(%rbx)
	.loc 12 62 32
	leaq	-2416(%rbx), %rdx
	leaq	-768(%rbx), %rax
	movq	%rdx, %rsi
	movq	%rax, %rdi
	call	_ZN11GraphMatrixIicE3locERKi
	movl	%eax, -2896(%rbp)
	.loc 12 62 55
	leaq	-2432(%rbx), %rax
	shrq	$3, %rax
	addq	$2147450880, %rax
	movb	$4, (%rax)
	.loc 12 62 40
	leaq	-2432(%rbx), %rax
	movq	%rax, %rdx
	movq	%rdx, %rax
	shrq	$3, %rax
	addq	$2147450880, %rax
	movzbl	(%rax), %eax
	testb	%al, %al
	setne	%cl
	cmpb	$3, %al
	setle	%al
	andl	%ecx, %eax
	testb	%al, %al
	je	.L193
	movq	%rdx, %rdi
	call	__asan_report_store4@PLT
.L193:
	movl	$4, -2432(%rbx)
	.loc 12 62 32
	leaq	-2432(%rbx), %rdx
	leaq	-768(%rbx), %rax
	movq	%rdx, %rsi
	movq	%rax, %rdi
	call	_ZN11GraphMatrixIicE3locERKi
	movl	%eax, %ecx
	leaq	-768(%rbx), %rax
	movl	-2896(%rbp), %edx
	movl	%ecx, %esi
	movq	%rax, %rdi
.LEHB36:
	call	_ZN5GraphIicE16isDirectRelativeEii
	.loc 12 62 53
	movzbl	%al, %eax
	movl	%eax, %esi
	leaq	_ZSt4cout(%rip), %rdi
	call	_ZNSolsEb@PLT
	.loc 12 62 53 is_stmt 0 discriminator 2
	movq	%rax, %rdx
	.loc 12 62 58 is_stmt 1 discriminator 2
	movq	_ZSt4endlIcSt11char_traitsIcEERSt13basic_ostreamIT_T0_ES6_@GOTPCREL(%rip), %rax
	movq	%rax, %rsi
	movq	%rdx, %rdi
	call	_ZNSolsEPFRSoS_E@PLT
.LEHE36:
	.loc 12 62 40 discriminator 6
	leaq	-2432(%rbx), %rax
	shrq	$3, %rax
	addq	$2147450880, %rax
	movb	$-8, (%rax)
	.loc 12 62 51 discriminator 6
	leaq	-2416(%rbx), %rax
	shrq	$3, %rax
	addq	$2147450880, %rax
	movb	$-8, (%rax)
	.loc 12 63 18 discriminator 6
	leaq	-1792(%rbx), %rax
	shrq	$3, %rax
	addq	$2147450880, %rax
	movw	$0, (%rax)
	movb	$0, 2(%rax)
	.loc 12 63 60 discriminator 6
	leaq	-64(%rbx), %rax
	shrq	$3, %rax
	addq	$2147450880, %rax
	movb	$6, (%rax)
	leaq	-64(%rbx), %rax
	movq	%rax, %rdx
	movq	%rdx, %rax
	shrq	$3, %rax
	addq	$2147450880, %rax
	movzbl	(%rax), %eax
	testb	%al, %al
	setne	%cl
	testb	%al, %al
	setle	%al
	andl	%ecx, %eax
	testb	%al, %al
	je	.L194
	.loc 12 63 60 is_stmt 0
	movq	%rdx, %rdi
	call	__asan_report_store1@PLT
.L194:
	.loc 12 63 60 discriminator 6
	movb	$65, -64(%rbx)
	leaq	-64(%rbx), %rax
	addq	$1, %rax
	movq	%rax, %rdx
	shrq	$3, %rdx
	addq	$2147450880, %rdx
	movzbl	(%rdx), %edx
	testb	%dl, %dl
	setne	%cl
	movq	%rax, %rsi
	andl	$7, %esi
	cmpb	%dl, %sil
	setge	%dl
	andl	%ecx, %edx
	testb	%dl, %dl
	je	.L195
	.loc 12 63 60
	movq	%rax, %rdi
	call	__asan_report_store1@PLT
.L195:
	.loc 12 63 60 discriminator 6
	movb	$66, -63(%rbx)
	leaq	-64(%rbx), %rax
	addq	$2, %rax
	movq	%rax, %rdx
	shrq	$3, %rdx
	addq	$2147450880, %rdx
	movzbl	(%rdx), %edx
	testb	%dl, %dl
	setne	%cl
	movq	%rax, %rsi
	andl	$7, %esi
	cmpb	%dl, %sil
	setge	%dl
	andl	%ecx, %edx
	testb	%dl, %dl
	je	.L196
	.loc 12 63 60
	movq	%rax, %rdi
	call	__asan_report_store1@PLT
.L196:
	.loc 12 63 60 discriminator 6
	movb	$67, -62(%rbx)
	leaq	-64(%rbx), %rax
	addq	$3, %rax
	movq	%rax, %rdx
	shrq	$3, %rdx
	addq	$2147450880, %rdx
	movzbl	(%rdx), %edx
	testb	%dl, %dl
	setne	%cl
	movq	%rax, %rsi
	andl	$7, %esi
	cmpb	%dl, %sil
	setge	%dl
	andl	%ecx, %edx
	testb	%dl, %dl
	je	.L197
	.loc 12 63 60
	movq	%rax, %rdi
	call	__asan_report_store1@PLT
.L197:
	.loc 12 63 60 discriminator 6
	movb	$68, -61(%rbx)
	leaq	-64(%rbx), %rax
	addq	$4, %rax
	movq	%rax, %rdx
	shrq	$3, %rdx
	addq	$2147450880, %rdx
	movzbl	(%rdx), %edx
	testb	%dl, %dl
	setne	%cl
	movq	%rax, %rsi
	andl	$7, %esi
	cmpb	%dl, %sil
	setge	%dl
	andl	%ecx, %edx
	testb	%dl, %dl
	je	.L198
	.loc 12 63 60
	movq	%rax, %rdi
	call	__asan_report_store1@PLT
.L198:
	.loc 12 63 60 discriminator 6
	movb	$69, -60(%rbx)
	leaq	-64(%rbx), %rax
	addq	$5, %rax
	movq	%rax, %rdx
	shrq	$3, %rdx
	addq	$2147450880, %rdx
	movzbl	(%rdx), %edx
	testb	%dl, %dl
	setne	%cl
	movq	%rax, %rsi
	andl	$7, %esi
	cmpb	%dl, %sil
	setge	%dl
	andl	%ecx, %edx
	testb	%dl, %dl
	je	.L199
	.loc 12 63 60
	movq	%rax, %rdi
	call	__asan_report_store1@PLT
.L199:
	.loc 12 63 60 discriminator 6
	movb	$70, -59(%rbx)
	leaq	-64(%rbx), %rax
	movq	%rax, %r14
	movl	$6, %r15d
	leaq	-2608(%rbx), %rax
	shrq	$3, %rax
	addq	$2147450880, %rax
	movb	$1, (%rax)
	leaq	-2608(%rbx), %rax
	movq	%rax, %rdi
	call	_ZNSaIcEC1Ev@PLT
	leaq	-2608(%rbx), %rdx
	movq	%r14, %r8
	movq	%r15, %r9
	movq	%r14, %rsi
	movq	%r15, %rdi
	leaq	-1792(%rbx), %rax
	movq	%rdx, %rcx
	movq	%r8, %rsi
	movq	%rdi, %rdx
	movq	%rax, %rdi
.LEHB37:
	call	_ZNSt6vectorIcSaIcEEC1ESt16initializer_listIcERKS0_
.LEHE37:
	leaq	-2608(%rbx), %rax
	movq	%rax, %rdi
	call	_ZNSaIcED1Ev@PLT
	.loc 12 63 60
	leaq	-2608(%rbx), %rax
	shrq	$3, %rax
	addq	$2147450880, %rax
	movb	$-8, (%rax)
	leaq	-64(%rbx), %rax
	shrq	$3, %rax
	addq	$2147450880, %rax
	movb	$-8, (%rax)
	.loc 12 64 23 is_stmt 1
	leaq	-656(%rbx), %rax
	shrq	$3, %rax
	addq	$2147450880, %rax
	movl	$0, (%rax)
	movl	$0, 4(%rax)
	movb	$0, 8(%rax)
	.loc 12 64 109
	leaq	-1728(%rbx), %rax
	shrq	$3, %rax
	addq	$2147450880, %rax
	movw	$0, (%rax)
	movb	$0, 2(%rax)
	.loc 12 64 70
	leaq	-288(%rbx), %rax
	shrq	$3, %rax
	addq	$2147450880, %rax
	movl	$0, (%rax)
	leaq	-2592(%rbx), %rax
	shrq	$3, %rax
	addq	$2147450880, %rax
	movb	$1, (%rax)
	leaq	-2592(%rbx), %rax
	movq	%rax, %rdi
	call	_ZNSaIcEC1Ev@PLT
	leaq	-2592(%rbx), %rdx
	leaq	-288(%rbx), %rax
	leaq	.LC10(%rip), %rsi
	movq	%rax, %rdi
.LEHB38:
	call	_ZNSt7__cxx1112basic_stringIcSt11char_traitsIcESaIcEEC1IS3_EEPKcRKS3_
.LEHE38:
	.loc 12 64 70 is_stmt 0 discriminator 1
	leaq	-1728(%rbx), %rax
	movq	%rax, %rdx
	shrq	$3, %rdx
	addq	$2147450880, %rdx
	movzbl	(%rdx), %edx
	testb	%dl, %dl
	setne	%cl
	testb	%dl, %dl
	setle	%dl
	andl	%edx, %ecx
	movl	%ecx, %edi
	movl	$24, %edx
	subq	$1, %rdx
	leaq	(%rax,%rdx), %rcx
	movq	%rcx, %rdx
	shrq	$3, %rdx
	addq	$2147450880, %rdx
	movzbl	(%rdx), %edx
	testb	%dl, %dl
	setne	%sil
	andl	$7, %ecx
	cmpb	%dl, %cl
	setge	%dl
	andl	%esi, %edx
	orl	%edi, %edx
	testb	%dl, %dl
	je	.L200
	.loc 12 64 70
	movl	$24, %esi
	movq	%rax, %rdi
	call	__asan_report_store_n@PLT
.L200:
	.loc 12 64 70 discriminator 1
	leaq	-1728(%rbx), %rax
	leaq	-288(%rbx), %rdx
	movq	%rdx, %rsi
	movq	%rax, %rdi
.LEHB39:
	call	_ZN11GraphMatrixIccE7getPairERKNSt7__cxx1112basic_stringIcSt11char_traitsIcESaIcEEE
.LEHE39:
	.loc 12 64 109 is_stmt 1 discriminator 2
	leaq	-1728(%rbx), %rdx
	leaq	-1792(%rbx), %rsi
	leaq	-656(%rbx), %rax
	movl	$1, %ecx
	movq	%rax, %rdi
.LEHB40:
	call	_ZN11GraphMatrixIccEC1ERKSt6vectorIcSaIcEERKS1_ISt4pairIccESaIS7_EE6Direct
.LEHE40:
	leaq	-1728(%rbx), %rax
	movq	%rax, %rdi
	call	_ZNSt6vectorISt4pairIccESaIS1_EED1Ev
	.loc 12 64 70
	leaq	-1728(%rbx), %rax
	shrq	$3, %rax
	addq	$2147450880, %rax
	movw	$-1800, (%rax)
	movb	$-8, 2(%rax)
	leaq	-288(%rbx), %rax
	movq	%rax, %rdi
	call	_ZNSt7__cxx1112basic_stringIcSt11char_traitsIcESaIcEED1Ev@PLT
	leaq	-288(%rbx), %rax
	shrq	$3, %rax
	addq	$2147450880, %rax
	movl	$-117901064, (%rax)
	leaq	-2592(%rbx), %rax
	movq	%rax, %rdi
	call	_ZNSaIcED1Ev@PLT
	leaq	-2592(%rbx), %rax
	shrq	$3, %rax
	addq	$2147450880, %rax
	movb	$-8, (%rax)
	.loc 12 65 18
	leaq	-1664(%rbx), %rax
	shrq	$3, %rax
	addq	$2147450880, %rax
	movw	$0, (%rax)
	movb	$0, 2(%rax)
	leaq	-1664(%rbx), %rax
	movq	%rax, %rdi
	call	_ZNSt6vectorIcSaIcEEC1Ev
	.loc 12 66 22
	leaq	-656(%rbx), %rax
	addq	$8, %rax
	movq	%rax, %rdx
	movq	%rdx, %rax
	shrq	$3, %rax
	addq	$2147450880, %rax
	movzbl	(%rax), %eax
	testb	%al, %al
	setne	%cl
	cmpb	$3, %al
	setle	%al
	andl	%ecx, %eax
	testb	%al, %al
	je	.L201
	movq	%rdx, %rdi
	call	__asan_report_load4@PLT
.L201:
	movl	-648(%rbx), %eax
	.loc 12 66 18
	movslq	%eax, %rdx
	leaq	-1664(%rbx), %rax
	movq	%rdx, %rsi
	movq	%rax, %rdi
.LEHB41:
	call	_ZNSt6vectorIcSaIcEE7reserveEm
.LEHE41:
	.loc 12 67 11
	leaq	-2576(%rbx), %rax
	shrq	$3, %rax
	addq	$2147450880, %rax
	movb	$1, (%rax)
	.loc 12 67 19
	leaq	-2576(%rbx), %rax
	movq	%rax, %rdx
	movq	%rdx, %rax
	shrq	$3, %rax
	addq	$2147450880, %rax
	movzbl	(%rax), %eax
	testb	%al, %al
	setne	%cl
	testb	%al, %al
	setle	%al
	andl	%ecx, %eax
	testb	%al, %al
	je	.L202
	movq	%rdx, %rdi
	call	__asan_report_store1@PLT
.L202:
	movb	$65, -2576(%rbx)
	.loc 12 67 11
	leaq	-2576(%rbx), %rdx
	leaq	-656(%rbx), %rax
	movq	%rdx, %rsi
	movq	%rax, %rdi
	call	_ZN11GraphMatrixIccE3locERKc
	movl	%eax, %ecx
	leaq	-1664(%rbx), %rdx
	leaq	-656(%rbx), %rax
	movl	%ecx, %esi
	movq	%rax, %rdi
.LEHB42:
	call	_ZN5GraphIccE3dfsEiRSt6vectorIcSaIcEE
.LEHE42:
	.loc 12 67 19 discriminator 2
	leaq	-2576(%rbx), %rax
	shrq	$3, %rax
	addq	$2147450880, %rax
	movb	$-8, (%rax)
	.loc 12 68 48 discriminator 2
	leaq	-224(%rbx), %rax
	shrq	$3, %rax
	addq	$2147450880, %rax
	movl	$0, (%rax)
	.loc 12 68 13 discriminator 2
	leaq	-2560(%rbx), %rax
	shrq	$3, %rax
	addq	$2147450880, %rax
	movb	$1, (%rax)
	leaq	-2560(%rbx), %rax
	movq	%rax, %rdi
	call	_ZNSaIcEC1Ev@PLT
	leaq	-1664(%rbx), %rax
	movq	%rax, %rdi
	call	_ZNSt6vectorIcSaIcEE3endEv
	movq	%rax, %r14
	leaq	-1664(%rbx), %rax
	movq	%rax, %rdi
	call	_ZNSt6vectorIcSaIcEE5beginEv
	movq	%rax, %rsi
	leaq	-2560(%rbx), %rdx
	leaq	-224(%rbx), %rax
	movq	%rdx, %rcx
	movq	%r14, %rdx
	movq	%rax, %rdi
.LEHB43:
	call	_ZNSt7__cxx1112basic_stringIcSt11char_traitsIcESaIcEEC1IN9__gnu_cxx17__normal_iteratorIPcSt6vectorIcS3_EEEvEET_SC_RKS3_
.LEHE43:
	.loc 12 68 46 discriminator 2
	leaq	-224(%rbx), %rax
	movq	%rax, %rsi
	leaq	_ZSt4cout(%rip), %rdi
.LEHB44:
	call	_ZStlsIcSt11char_traitsIcESaIcEERSt13basic_ostreamIT_T0_ES7_RKNSt7__cxx1112basic_stringIS4_S5_T1_EE@PLT
	movq	%rax, %rdx
	.loc 12 68 51 discriminator 2
	movq	_ZSt4endlIcSt11char_traitsIcEERSt13basic_ostreamIT_T0_ES6_@GOTPCREL(%rip), %rax
	movq	%rax, %rsi
	movq	%rdx, %rdi
	call	_ZNSolsEPFRSoS_E@PLT
.LEHE44:
	.loc 12 68 13 discriminator 6
	leaq	-224(%rbx), %rax
	movq	%rax, %rdi
	call	_ZNSt7__cxx1112basic_stringIcSt11char_traitsIcESaIcEED1Ev@PLT
	leaq	-224(%rbx), %rax
	shrq	$3, %rax
	addq	$2147450880, %rax
	movl	$-117901064, (%rax)
	leaq	-2560(%rbx), %rax
	movq	%rax, %rdi
	call	_ZNSaIcED1Ev@PLT
	leaq	-2560(%rbx), %rax
	shrq	$3, %rax
	addq	$2147450880, %rax
	movb	$-8, (%rax)
	.loc 12 69 23 discriminator 6
	leaq	-1664(%rbx), %rdx
	leaq	-656(%rbx), %rax
	movq	%rdx, %rsi
	movq	%rax, %rdi
.LEHB45:
	call	_ZN5GraphIccE15TopologicalSortERSt6vectorIcSaIcEE
.LEHE45:
	.loc 12 70 48
	leaq	-160(%rbx), %rax
	shrq	$3, %rax
	addq	$2147450880, %rax
	movl	$0, (%rax)
	.loc 12 70 13
	leaq	-2544(%rbx), %rax
	shrq	$3, %rax
	addq	$2147450880, %rax
	movb	$1, (%rax)
	leaq	-2544(%rbx), %rax
	movq	%rax, %rdi
	call	_ZNSaIcEC1Ev@PLT
	leaq	-1664(%rbx), %rax
	movq	%rax, %rdi
	call	_ZNSt6vectorIcSaIcEE3endEv
	movq	%rax, %r14
	leaq	-1664(%rbx), %rax
	movq	%rax, %rdi
	call	_ZNSt6vectorIcSaIcEE5beginEv
	movq	%rax, %rsi
	leaq	-2544(%rbx), %rdx
	leaq	-160(%rbx), %rax
	movq	%rdx, %rcx
	movq	%r14, %rdx
	movq	%rax, %rdi
.LEHB46:
	call	_ZNSt7__cxx1112basic_stringIcSt11char_traitsIcESaIcEEC1IN9__gnu_cxx17__normal_iteratorIPcSt6vectorIcS3_EEEvEET_SC_RKS3_
.LEHE46:
	.loc 12 70 46 discriminator 2
	leaq	-160(%rbx), %rax
	movq	%rax, %rsi
	leaq	_ZSt4cout(%rip), %rdi
.LEHB47:
	call	_ZStlsIcSt11char_traitsIcESaIcEERSt13basic_ostreamIT_T0_ES7_RKNSt7__cxx1112basic_stringIS4_S5_T1_EE@PLT
	movq	%rax, %rdx
	.loc 12 70 51 discriminator 2
	movq	_ZSt4endlIcSt11char_traitsIcEERSt13basic_ostreamIT_T0_ES6_@GOTPCREL(%rip), %rax
	movq	%rax, %rsi
	movq	%rdx, %rdi
	call	_ZNSolsEPFRSoS_E@PLT
.LEHE47:
	.loc 12 70 13 discriminator 6
	leaq	-160(%rbx), %rax
	movq	%rax, %rdi
	call	_ZNSt7__cxx1112basic_stringIcSt11char_traitsIcESaIcEED1Ev@PLT
	leaq	-160(%rbx), %rax
	shrq	$3, %rax
	addq	$2147450880, %rax
	movl	$-117901064, (%rax)
	leaq	-2544(%rbx), %rax
	movq	%rax, %rdi
	call	_ZNSaIcED1Ev@PLT
	leaq	-2544(%rbx), %rax
	shrq	$3, %rax
	addq	$2147450880, %rax
	movb	$-8, (%rax)
	.loc 12 71 33 discriminator 6
	leaq	-1120(%rbx), %rax
	shrq	$3, %rax
	addq	$2147450880, %rax
	movl	$0, (%rax)
	movb	$0, 4(%rax)
	.loc 12 71 30 discriminator 6
	leaq	-1120(%rbx), %rax
	movq	%rax, %rdx
	shrq	$3, %rdx
	addq	$2147450880, %rdx
	movzbl	(%rdx), %edx
	testb	%dl, %dl
	setne	%cl
	testb	%dl, %dl
	setle	%dl
	andl	%edx, %ecx
	movl	%ecx, %edi
	movl	$40, %edx
	subq	$1, %rdx
	leaq	(%rax,%rdx), %rcx
	movq	%rcx, %rdx
	shrq	$3, %rdx
	addq	$2147450880, %rdx
	movzbl	(%rdx), %edx
	testb	%dl, %dl
	setne	%sil
	andl	$7, %ecx
	cmpb	%dl, %cl
	setge	%dl
	andl	%esi, %edx
	orl	%edi, %edx
	testb	%dl, %dl
	je	.L203
	.loc 12 71 30 is_stmt 0
	movl	$40, %esi
	movq	%rax, %rdi
	call	__asan_report_store_n@PLT
.L203:
	.loc 12 71 30 discriminator 6
	leaq	-1120(%rbx), %rax
	leaq	-656(%rbx), %rdx
	movq	%rdx, %rsi
	movq	%rax, %rdi
.LEHB48:
	call	_ZN11GraphMatrixIccE14adjacentMatrixEv
.LEHE48:
	.loc 12 71 31 is_stmt 1 discriminator 1
	leaq	-1120(%rbx), %rax
	movq	%rax, %rsi
	leaq	_ZSt4cout(%rip), %rdi
.LEHB49:
	call	_ZlsIbERSoS0_RK6MatrixIT_E
	movq	%rax, %rdx
	.loc 12 71 36 discriminator 1
	movq	_ZSt4endlIcSt11char_traitsIcEERSt13basic_ostreamIT_T0_ES6_@GOTPCREL(%rip), %rax
	movq	%rax, %rsi
	movq	%rdx, %rdi
	call	_ZNSolsEPFRSoS_E@PLT
.LEHE49:
	.loc 12 71 30 discriminator 5
	leaq	-1120(%rbx), %rax
	movq	%rax, %rdi
	call	_ZN6MatrixIbED1Ev
	leaq	-1120(%rbx), %rax
	shrq	$3, %rax
	addq	$2147450880, %rax
	movl	$-117901064, (%rax)
	movb	$-8, 4(%rax)
	.loc 12 72 14 discriminator 5
	leaq	-2528(%rbx), %rax
	shrq	$3, %rax
	addq	$2147450880, %rax
	movb	$1, (%rax)
	.loc 12 72 22 discriminator 5
	leaq	-2528(%rbx), %rax
	movq	%rax, %rdx
	movq	%rdx, %rax
	shrq	$3, %rax
	addq	$2147450880, %rax
	movzbl	(%rax), %eax
	testb	%al, %al
	setne	%cl
	testb	%al, %al
	setle	%al
	andl	%ecx, %eax
	testb	%al, %al
	je	.L204
	.loc 12 72 22 is_stmt 0
	movq	%rdx, %rdi
	call	__asan_report_store1@PLT
.L204:
	.loc 12 72 22 discriminator 5
	movb	$65, -2528(%rbx)
	.loc 12 72 14 is_stmt 1 discriminator 5
	leaq	-2528(%rbx), %rdx
	leaq	-656(%rbx), %rax
	movq	%rdx, %rsi
	movq	%rax, %rdi
	call	_ZN11GraphMatrixIccE3locERKc
	movl	%eax, %edx
	leaq	-656(%rbx), %rax
	movl	%edx, %esi
	movq	%rax, %rdi
.LEHB50:
	call	_ZN11GraphMatrixIccE6removeEi
.LEHE50:
	.loc 12 72 22 discriminator 2
	leaq	-2528(%rbx), %rax
	shrq	$3, %rax
	addq	$2147450880, %rax
	movb	$-8, (%rax)
	.loc 12 73 33 discriminator 2
	leaq	-1040(%rbx), %rax
	shrq	$3, %rax
	addq	$2147450880, %rax
	movl	$0, (%rax)
	movb	$0, 4(%rax)
	.loc 12 73 30 discriminator 2
	leaq	-1040(%rbx), %rax
	movq	%rax, %rdx
	shrq	$3, %rdx
	addq	$2147450880, %rdx
	movzbl	(%rdx), %edx
	testb	%dl, %dl
	setne	%cl
	testb	%dl, %dl
	setle	%dl
	andl	%edx, %ecx
	movl	%ecx, %edi
	movl	$40, %edx
	subq	$1, %rdx
	leaq	(%rax,%rdx), %rcx
	movq	%rcx, %rdx
	shrq	$3, %rdx
	addq	$2147450880, %rdx
	movzbl	(%rdx), %edx
	testb	%dl, %dl
	setne	%sil
	andl	$7, %ecx
	cmpb	%dl, %cl
	setge	%dl
	andl	%esi, %edx
	orl	%edi, %edx
	testb	%dl, %dl
	je	.L205
	.loc 12 73 30 is_stmt 0
	movl	$40, %esi
	movq	%rax, %rdi
	call	__asan_report_store_n@PLT
.L205:
	.loc 12 73 30 discriminator 2
	leaq	-1040(%rbx), %rax
	leaq	-656(%rbx), %rdx
	movq	%rdx, %rsi
	movq	%rax, %rdi
.LEHB51:
	call	_ZN11GraphMatrixIccE14adjacentMatrixEv
.LEHE51:
	.loc 12 73 31 is_stmt 1 discriminator 1
	leaq	-1040(%rbx), %rax
	movq	%rax, %rsi
	leaq	_ZSt4cout(%rip), %rdi
.LEHB52:
	call	_ZlsIbERSoS0_RK6MatrixIT_E
	movq	%rax, %rdx
	.loc 12 73 36 discriminator 1
	movq	_ZSt4endlIcSt11char_traitsIcEERSt13basic_ostreamIT_T0_ES6_@GOTPCREL(%rip), %rax
	movq	%rax, %rsi
	movq	%rdx, %rdi
	call	_ZNSolsEPFRSoS_E@PLT
.LEHE52:
	.loc 12 73 30 discriminator 5
	leaq	-1040(%rbx), %rax
	movq	%rax, %rdi
	call	_ZN6MatrixIbED1Ev
	leaq	-1040(%rbx), %rax
	shrq	$3, %rax
	addq	$2147450880, %rax
	movl	$-117901064, (%rax)
	movb	$-8, 4(%rax)
	.loc 12 74 14 discriminator 5
	leaq	-2512(%rbx), %rax
	shrq	$3, %rax
	addq	$2147450880, %rax
	movb	$1, (%rax)
	.loc 12 74 15 discriminator 5
	leaq	-2512(%rbx), %rax
	movq	%rax, %rdx
	movq	%rdx, %rax
	shrq	$3, %rax
	addq	$2147450880, %rax
	movzbl	(%rax), %eax
	testb	%al, %al
	setne	%cl
	testb	%al, %al
	setle	%al
	andl	%ecx, %eax
	testb	%al, %al
	je	.L206
	.loc 12 74 15 is_stmt 0
	movq	%rdx, %rdi
	call	__asan_report_store1@PLT
.L206:
	.loc 12 74 15 discriminator 5
	movb	$71, -2512(%rbx)
	.loc 12 74 14 is_stmt 1 discriminator 5
	leaq	-2512(%rbx), %rdx
	leaq	-656(%rbx), %rax
	movq	%rdx, %rsi
	movq	%rax, %rdi
.LEHB53:
	call	_ZN11GraphMatrixIccE6insertERKc
.LEHE53:
	.loc 12 74 15 discriminator 2
	leaq	-2512(%rbx), %rax
	shrq	$3, %rax
	addq	$2147450880, %rax
	movb	$-8, (%rax)
	.loc 12 75 33 discriminator 2
	leaq	-960(%rbx), %rax
	shrq	$3, %rax
	addq	$2147450880, %rax
	movl	$0, (%rax)
	movb	$0, 4(%rax)
	.loc 12 75 30 discriminator 2
	leaq	-960(%rbx), %rax
	movq	%rax, %rdx
	shrq	$3, %rdx
	addq	$2147450880, %rdx
	movzbl	(%rdx), %edx
	testb	%dl, %dl
	setne	%cl
	testb	%dl, %dl
	setle	%dl
	andl	%edx, %ecx
	movl	%ecx, %edi
	movl	$40, %edx
	subq	$1, %rdx
	leaq	(%rax,%rdx), %rcx
	movq	%rcx, %rdx
	shrq	$3, %rdx
	addq	$2147450880, %rdx
	movzbl	(%rdx), %edx
	testb	%dl, %dl
	setne	%sil
	andl	$7, %ecx
	cmpb	%dl, %cl
	setge	%dl
	andl	%esi, %edx
	orl	%edi, %edx
	testb	%dl, %dl
	je	.L207
	.loc 12 75 30 is_stmt 0
	movl	$40, %esi
	movq	%rax, %rdi
	call	__asan_report_store_n@PLT
.L207:
	.loc 12 75 30 discriminator 2
	leaq	-960(%rbx), %rax
	leaq	-656(%rbx), %rdx
	movq	%rdx, %rsi
	movq	%rax, %rdi
.LEHB54:
	call	_ZN11GraphMatrixIccE14adjacentMatrixEv
.LEHE54:
	.loc 12 75 31 is_stmt 1 discriminator 1
	leaq	-960(%rbx), %rax
	movq	%rax, %rsi
	leaq	_ZSt4cout(%rip), %rdi
.LEHB55:
	call	_ZlsIbERSoS0_RK6MatrixIT_E
	movq	%rax, %rdx
	.loc 12 75 36 discriminator 1
	movq	_ZSt4endlIcSt11char_traitsIcEERSt13basic_ostreamIT_T0_ES6_@GOTPCREL(%rip), %rax
	movq	%rax, %rsi
	movq	%rdx, %rdi
	call	_ZNSolsEPFRSoS_E@PLT
.LEHE55:
	.loc 12 75 30 discriminator 5
	leaq	-960(%rbx), %rax
	movq	%rax, %rdi
	call	_ZN6MatrixIbED1Ev
	leaq	-960(%rbx), %rax
	shrq	$3, %rax
	addq	$2147450880, %rax
	movl	$-117901064, (%rax)
	movb	$-8, 4(%rax)
	.loc 12 65 18 discriminator 5
	leaq	-1664(%rbx), %rax
	movq	%rax, %rdi
	call	_ZNSt6vectorIcSaIcEED1Ev
	.loc 12 64 109 discriminator 5
	leaq	-656(%rbx), %rax
	movq	%rax, %rdi
	call	_ZN11GraphMatrixIccED1Ev
	.loc 12 63 60 discriminator 5
	leaq	-1792(%rbx), %rax
	movq	%rax, %rdi
	call	_ZNSt6vectorIcSaIcEED1Ev
	.loc 12 44 17 discriminator 5
	leaq	-1856(%rbx), %rax
	movq	%rax, %rdi
	call	_ZNSt6vectorIiSaIiEED1Ev
	.loc 12 43 124 discriminator 5
	leaq	-768(%rbx), %rax
	movq	%rax, %rdi
	call	_ZN11GraphMatrixIicED1Ev
	.loc 12 42 53 discriminator 5
	leaq	-1984(%rbx), %rax
	movq	%rax, %rdi
	call	_ZNSt6vectorIiSaIiEED1Ev
	.loc 12 38 18 discriminator 5
	leaq	-2048(%rbx), %rax
	movq	%rax, %rdi
	call	_ZNSt6vectorIcSaIcEED1Ev
	.loc 12 21 39 discriminator 5
	leaq	-1360(%rbx), %rax
	movq	%rax, %rdi
	call	_ZN6MatrixIbED1Ev
	.loc 12 12 113 discriminator 5
	leaq	-880(%rbx), %rax
	movq	%rax, %rdi
	call	_ZN11GraphMatrixIccED1Ev
	.loc 12 11 59 discriminator 5
	leaq	-2176(%rbx), %rax
	movq	%rax, %rdi
	call	_ZNSt6vectorIcSaIcEED1Ev
	.loc 12 10 11 discriminator 5
	leaq	-2240(%rbx), %rax
	movq	%rax, %rdi
	call	_ZN5TimerD1Ev
	.loc 12 76 1 discriminator 5
	movl	$0, %eax
	movl	%eax, %ebx
	.loc 12 9 1 discriminator 5
	cmpq	%r13, -2920(%rbp)
	je	.L140
	jmp	.L304
.L259:
	endbr64
	movq	%rax, %r12
	leaq	-2752(%rbx), %rax
	movq	%rax, %rdi
	call	_ZNSaIcED1Ev@PLT
	movq	%r12, %rdx
	.loc 12 11 59
	leaq	-2752(%rbx), %rax
	shrq	$3, %rax
	addq	$2147450880, %rax
	movb	$-8, (%rax)
	leaq	-96(%rbx), %rax
	shrq	$3, %rax
	addq	$2147450880, %rax
	movb	$-8, (%rax)
	movq	%rdx, %r12
	jmp	.L210
.L262:
	endbr64
	movq	%rax, %r12
	leaq	-2112(%rbx), %rax
	movq	%rax, %rdi
	call	_ZNSt6vectorISt4pairIccESaIS1_EED1Ev
	movq	%r12, %rdx
	.loc 12 12 62
	leaq	-2112(%rbx), %rax
	shrq	$3, %rax
	addq	$2147450880, %rax
	movw	$-1800, (%rax)
	movb	$-8, 2(%rax)
	movq	%rdx, %r12
	jmp	.L212
.L261:
	endbr64
	movq	%rax, %r12
.L212:
	leaq	-544(%rbx), %rax
	movq	%rax, %rdi
	call	_ZNSt7__cxx1112basic_stringIcSt11char_traitsIcESaIcEED1Ev@PLT
	movq	%r12, %rdx
	leaq	-544(%rbx), %rax
	shrq	$3, %rax
	addq	$2147450880, %rax
	movl	$-117901064, (%rax)
	movq	%rdx, %r12
	jmp	.L213
.L260:
	endbr64
	movq	%rax, %r12
.L213:
	leaq	-2736(%rbx), %rax
	movq	%rax, %rdi
	call	_ZNSaIcED1Ev@PLT
	movq	%r12, %rdx
	leaq	-2736(%rbx), %rax
	shrq	$3, %rax
	addq	$2147450880, %rax
	movb	$-8, (%rax)
	movq	%rdx, %r12
	jmp	.L214
.L263:
	endbr64
	.loc 13 106 75
	leaq	-2720(%rbx), %rdx
	shrq	$3, %rdx
	addq	$2147450880, %rdx
	movb	$-8, (%rdx)
	movq	%rax, %r12
	jmp	.L216
.L265:
	endbr64
	movq	%rax, %r12
	.loc 12 15 29
	leaq	-1600(%rbx), %rax
	movq	%rax, %rdi
	call	_ZN6MatrixIbED1Ev
	movq	%r12, %rdx
	leaq	-1600(%rbx), %rax
	shrq	$3, %rax
	addq	$2147450880, %rax
	movl	$-117901064, (%rax)
	movb	$-8, 4(%rax)
	movq	%rdx, %r12
	jmp	.L216
.L266:
	endbr64
	.loc 13 106 75
	leaq	-2704(%rbx), %rdx
	shrq	$3, %rdx
	addq	$2147450880, %rdx
	movb	$-8, (%rdx)
	movq	%rax, %r12
	jmp	.L216
.L267:
	endbr64
	movq	%rax, %r12
	.loc 12 17 29
	leaq	-1520(%rbx), %rax
	movq	%rax, %rdi
	call	_ZN6MatrixIbED1Ev
	movq	%r12, %rdx
	leaq	-1520(%rbx), %rax
	shrq	$3, %rax
	addq	$2147450880, %rax
	movl	$-117901064, (%rax)
	movb	$-8, 4(%rax)
	movq	%rdx, %r12
	jmp	.L216
.L268:
	endbr64
	movq	%rax, %r12
	.loc 12 19 29
	leaq	-1440(%rbx), %rax
	movq	%rax, %rdi
	call	_ZN6MatrixIbED1Ev
	movq	%r12, %rdx
	leaq	-1440(%rbx), %rax
	shrq	$3, %rax
	addq	$2147450880, %rax
	movl	$-117901064, (%rax)
	movb	$-8, 4(%rax)
	movq	%rdx, %r12
	jmp	.L216
.L269:
	endbr64
	.loc 12 20 14
	leaq	-2688(%rbx), %rdx
	shrq	$3, %rdx
	addq	$2147450880, %rdx
	movb	$-8, (%rdx)
	movq	%rax, %r12
	jmp	.L216
.L271:
	endbr64
	movq	%rax, %r12
	.loc 12 22 20
	leaq	-1280(%rbx), %rax
	movq	%rax, %rdi
	call	_ZN6MatrixIbED1Ev
	movq	%r12, %rdx
	leaq	-1280(%rbx), %rax
	shrq	$3, %rax
	addq	$2147450880, %rax
	movl	$-117901064, (%rax)
	movb	$-8, 4(%rax)
	movq	%rdx, %r12
	jmp	.L223
.L272:
	endbr64
	.loc 12 23 19
	leaq	-2272(%rbx), %rdx
	shrq	$3, %rdx
	addq	$2147450880, %rdx
	movw	$-1800, (%rdx)
	movq	%rax, %r12
	jmp	.L223
.L273:
	endbr64
	movq	%rax, %r12
	.loc 12 24 33
	leaq	-1200(%rbx), %rax
	movq	%rax, %rdi
	call	_ZN6MatrixIbED1Ev
	movq	%r12, %rdx
	leaq	-1200(%rbx), %rax
	shrq	$3, %rax
	addq	$2147450880, %rax
	movl	$-117901064, (%rax)
	movb	$-8, 4(%rax)
	movq	%rdx, %r12
	jmp	.L223
.L275:
	endbr64
	.loc 12 40 17
	leaq	-2672(%rbx), %rdx
	shrq	$3, %rdx
	addq	$2147450880, %rdx
	movb	$-8, (%rdx)
	movq	%rax, %r12
	jmp	.L227
.L277:
	endbr64
	movq	%rax, %r12
	.loc 12 41 13
	leaq	-480(%rbx), %rax
	movq	%rax, %rdi
	call	_ZNSt7__cxx1112basic_stringIcSt11char_traitsIcESaIcEED1Ev@PLT
	movq	%r12, %rdx
	leaq	-480(%rbx), %rax
	shrq	$3, %rax
	addq	$2147450880, %rax
	movl	$-117901064, (%rax)
	movq	%rdx, %r12
	jmp	.L229
.L276:
	endbr64
	movq	%rax, %r12
.L229:
	.loc 12 41 13 is_stmt 0 discriminator 1
	leaq	-2656(%rbx), %rax
	movq	%rax, %rdi
	call	_ZNSaIcED1Ev@PLT
	movq	%r12, %rdx
	leaq	-2656(%rbx), %rax
	shrq	$3, %rax
	addq	$2147450880, %rax
	movb	$-8, (%rax)
	movq	%rdx, %r12
	jmp	.L227
.L278:
	endbr64
	movq	%rax, %r12
	leaq	-2640(%rbx), %rax
	movq	%rax, %rdi
	call	_ZNSaIiED1Ev
	movq	%r12, %rdx
	.loc 12 42 53 is_stmt 1
	leaq	-2640(%rbx), %rax
	shrq	$3, %rax
	addq	$2147450880, %rax
	movb	$-8, (%rax)
	leaq	-416(%rbx), %rax
	shrq	$3, %rax
	addq	$2147450880, %rax
	movl	$-117901064, (%rax)
	movq	%rdx, %r12
	jmp	.L227
.L281:
	endbr64
	movq	%rax, %r12
	leaq	-1920(%rbx), %rax
	movq	%rax, %rdi
	call	_ZNSt6vectorISt4pairIiiESaIS1_EED1Ev
	movq	%r12, %rdx
	.loc 12 43 68
	leaq	-1920(%rbx), %rax
	shrq	$3, %rax
	addq	$2147450880, %rax
	movw	$-1800, (%rax)
	movb	$-8, 2(%rax)
	movq	%rdx, %r12
	jmp	.L232
.L280:
	endbr64
	movq	%rax, %r12
.L232:
	leaq	-352(%rbx), %rax
	movq	%rax, %rdi
	call	_ZNSt7__cxx1112basic_stringIcSt11char_traitsIcESaIcEED1Ev@PLT
	movq	%r12, %rdx
	leaq	-352(%rbx), %rax
	shrq	$3, %rax
	addq	$2147450880, %rax
	movl	$-117901064, (%rax)
	movq	%rdx, %r12
	jmp	.L233
.L279:
	endbr64
	movq	%rax, %r12
.L233:
	leaq	-2624(%rbx), %rax
	movq	%rax, %rdi
	call	_ZNSaIcED1Ev@PLT
	movq	%r12, %rdx
	leaq	-2624(%rbx), %rax
	shrq	$3, %rax
	addq	$2147450880, %rax
	movb	$-8, (%rax)
	movq	%rdx, %r12
	jmp	.L234
.L283:
	endbr64
	.loc 12 46 19
	leaq	-2496(%rbx), %rdx
	shrq	$3, %rdx
	addq	$2147450880, %rdx
	movb	$-8, (%rdx)
	movq	%rax, %r12
	jmp	.L236
.L284:
	endbr64
.LBB25:
	leaq	-2400(%rbx), %rdx
	shrq	$3, %rdx
	addq	$2147450880, %rdx
	movb	$-8, (%rdx)
	leaq	-2368(%rbx), %rdx
	shrq	$3, %rdx
	addq	$2147450880, %rdx
	movb	$-8, (%rdx)
	movq	%rax, %r12
	jmp	.L236
.L285:
	endbr64
.LBE25:
	.loc 12 52 19
	leaq	-2480(%rbx), %rdx
	shrq	$3, %rdx
	addq	$2147450880, %rdx
	movb	$-8, (%rdx)
	movq	%rax, %r12
	jmp	.L236
.L286:
	endbr64
.LBB26:
	leaq	-2336(%rbx), %rdx
	shrq	$3, %rdx
	addq	$2147450880, %rdx
	movb	$-8, (%rdx)
	leaq	-2304(%rbx), %rdx
	shrq	$3, %rdx
	addq	$2147450880, %rdx
	movb	$-8, (%rdx)
	movq	%rax, %r12
	jmp	.L236
.L287:
	endbr64
.LBE26:
	.loc 12 59 19
	leaq	-2448(%rbx), %rdx
	shrq	$3, %rdx
	addq	$2147450880, %rdx
	movb	$-8, (%rdx)
	movq	%rax, %r12
	jmp	.L236
.L288:
	endbr64
	.loc 12 62 40
	leaq	-2432(%rbx), %rdx
	shrq	$3, %rdx
	addq	$2147450880, %rdx
	movb	$-8, (%rdx)
	movq	%rax, %rdx
	.loc 12 62 51
	leaq	-2416(%rbx), %rax
	shrq	$3, %rax
	addq	$2147450880, %rax
	movb	$-8, (%rax)
	movq	%rdx, %r12
	jmp	.L236
.L289:
	endbr64
	movq	%rax, %r12
	leaq	-2608(%rbx), %rax
	movq	%rax, %rdi
	call	_ZNSaIcED1Ev@PLT
	movq	%r12, %rdx
	.loc 12 63 60
	leaq	-2608(%rbx), %rax
	shrq	$3, %rax
	addq	$2147450880, %rax
	movb	$-8, (%rax)
	leaq	-64(%rbx), %rax
	shrq	$3, %rax
	addq	$2147450880, %rax
	movb	$-8, (%rax)
	movq	%rdx, %r12
	jmp	.L236
.L292:
	endbr64
	movq	%rax, %r12
	leaq	-1728(%rbx), %rax
	movq	%rax, %rdi
	call	_ZNSt6vectorISt4pairIccESaIS1_EED1Ev
	movq	%r12, %rdx
	.loc 12 64 70
	leaq	-1728(%rbx), %rax
	shrq	$3, %rax
	addq	$2147450880, %rax
	movw	$-1800, (%rax)
	movb	$-8, 2(%rax)
	movq	%rdx, %r12
	jmp	.L244
.L291:
	endbr64
	movq	%rax, %r12
.L244:
	leaq	-288(%rbx), %rax
	movq	%rax, %rdi
	call	_ZNSt7__cxx1112basic_stringIcSt11char_traitsIcESaIcEED1Ev@PLT
	movq	%r12, %rdx
	leaq	-288(%rbx), %rax
	shrq	$3, %rax
	addq	$2147450880, %rax
	movl	$-117901064, (%rax)
	movq	%rdx, %r12
	jmp	.L245
.L290:
	endbr64
	movq	%rax, %r12
.L245:
	leaq	-2592(%rbx), %rax
	movq	%rax, %rdi
	call	_ZNSaIcED1Ev@PLT
	movq	%r12, %rdx
	leaq	-2592(%rbx), %rax
	shrq	$3, %rax
	addq	$2147450880, %rax
	movb	$-8, (%rax)
	movq	%rdx, %r12
	jmp	.L246
.L294:
	endbr64
	.loc 12 67 19
	leaq	-2576(%rbx), %rdx
	shrq	$3, %rdx
	addq	$2147450880, %rdx
	movb	$-8, (%rdx)
	movq	%rax, %r12
	jmp	.L248
.L296:
	endbr64
	movq	%rax, %r12
	.loc 12 68 13
	leaq	-224(%rbx), %rax
	movq	%rax, %rdi
	call	_ZNSt7__cxx1112basic_stringIcSt11char_traitsIcESaIcEED1Ev@PLT
	movq	%r12, %rdx
	leaq	-224(%rbx), %rax
	shrq	$3, %rax
	addq	$2147450880, %rax
	movl	$-117901064, (%rax)
	movq	%rdx, %r12
	jmp	.L250
.L295:
	endbr64
	movq	%rax, %r12
.L250:
	.loc 12 68 13 is_stmt 0 discriminator 1
	leaq	-2560(%rbx), %rax
	movq	%rax, %rdi
	call	_ZNSaIcED1Ev@PLT
	movq	%r12, %rdx
	leaq	-2560(%rbx), %rax
	shrq	$3, %rax
	addq	$2147450880, %rax
	movb	$-8, (%rax)
	movq	%rdx, %r12
	jmp	.L248
.L298:
	endbr64
	movq	%rax, %r12
	.loc 12 70 13 is_stmt 1
	leaq	-160(%rbx), %rax
	movq	%rax, %rdi
	call	_ZNSt7__cxx1112basic_stringIcSt11char_traitsIcESaIcEED1Ev@PLT
	movq	%r12, %rdx
	leaq	-160(%rbx), %rax
	shrq	$3, %rax
	addq	$2147450880, %rax
	movl	$-117901064, (%rax)
	movq	%rdx, %r12
	jmp	.L252
.L297:
	endbr64
	movq	%rax, %r12
.L252:
	.loc 12 70 13 is_stmt 0 discriminator 1
	leaq	-2544(%rbx), %rax
	movq	%rax, %rdi
	call	_ZNSaIcED1Ev@PLT
	movq	%r12, %rdx
	leaq	-2544(%rbx), %rax
	shrq	$3, %rax
	addq	$2147450880, %rax
	movb	$-8, (%rax)
	movq	%rdx, %r12
	jmp	.L248
.L299:
	endbr64
	movq	%rax, %r12
	.loc 12 71 30 is_stmt 1
	leaq	-1120(%rbx), %rax
	movq	%rax, %rdi
	call	_ZN6MatrixIbED1Ev
	movq	%r12, %rdx
	leaq	-1120(%rbx), %rax
	shrq	$3, %rax
	addq	$2147450880, %rax
	movl	$-117901064, (%rax)
	movb	$-8, 4(%rax)
	movq	%rdx, %r12
	jmp	.L248
.L300:
	endbr64
	.loc 12 72 22
	leaq	-2528(%rbx), %rdx
	shrq	$3, %rdx
	addq	$2147450880, %rdx
	movb	$-8, (%rdx)
	movq	%rax, %r12
	jmp	.L248
.L301:
	endbr64
	movq	%rax, %r12
	.loc 12 73 30
	leaq	-1040(%rbx), %rax
	movq	%rax, %rdi
	call	_ZN6MatrixIbED1Ev
	movq	%r12, %rdx
	leaq	-1040(%rbx), %rax
	shrq	$3, %rax
	addq	$2147450880, %rax
	movl	$-117901064, (%rax)
	movb	$-8, 4(%rax)
	movq	%rdx, %r12
	jmp	.L248
.L302:
	endbr64
	.loc 12 74 15
	leaq	-2512(%rbx), %rdx
	shrq	$3, %rdx
	addq	$2147450880, %rdx
	movb	$-8, (%rdx)
	movq	%rax, %r12
	jmp	.L248
.L303:
	endbr64
	movq	%rax, %r12
	.loc 12 75 30
	leaq	-960(%rbx), %rax
	movq	%rax, %rdi
	call	_ZN6MatrixIbED1Ev
	movq	%r12, %rdx
	leaq	-960(%rbx), %rax
	shrq	$3, %rax
	addq	$2147450880, %rax
	movl	$-117901064, (%rax)
	movb	$-8, 4(%rax)
	movq	%rdx, %r12
	jmp	.L248
.L293:
	endbr64
	movq	%rax, %r12
.L248:
	.loc 12 65 18
	leaq	-1664(%rbx), %rax
	movq	%rax, %rdi
	call	_ZNSt6vectorIcSaIcEED1Ev
	.loc 12 64 109
	leaq	-656(%rbx), %rax
	movq	%rax, %rdi
	call	_ZN11GraphMatrixIccED1Ev
.L246:
	.loc 12 63 60
	leaq	-1792(%rbx), %rax
	movq	%rax, %rdi
	call	_ZNSt6vectorIcSaIcEED1Ev
	jmp	.L236
.L282:
	endbr64
	movq	%rax, %r12
.L236:
	.loc 12 44 17
	leaq	-1856(%rbx), %rax
	movq	%rax, %rdi
	call	_ZNSt6vectorIiSaIiEED1Ev
	.loc 12 43 124
	leaq	-768(%rbx), %rax
	movq	%rax, %rdi
	call	_ZN11GraphMatrixIicED1Ev
.L234:
	.loc 12 42 53
	leaq	-1984(%rbx), %rax
	movq	%rax, %rdi
	call	_ZNSt6vectorIiSaIiEED1Ev
	jmp	.L227
.L274:
	endbr64
	movq	%rax, %r12
.L227:
	.loc 12 38 18
	leaq	-2048(%rbx), %rax
	movq	%rax, %rdi
	call	_ZNSt6vectorIcSaIcEED1Ev
	jmp	.L223
.L270:
	endbr64
	movq	%rax, %r12
.L223:
	.loc 12 21 39
	leaq	-1360(%rbx), %rax
	movq	%rax, %rdi
	call	_ZN6MatrixIbED1Ev
	jmp	.L216
.L264:
	endbr64
	movq	%rax, %r12
.L216:
	.loc 12 12 113
	leaq	-880(%rbx), %rax
	movq	%rax, %rdi
	call	_ZN11GraphMatrixIccED1Ev
.L214:
	.loc 12 11 59
	leaq	-2176(%rbx), %rax
	movq	%rax, %rdi
	call	_ZNSt6vectorIcSaIcEED1Ev
.L210:
	.loc 12 10 11
	leaq	-2240(%rbx), %rax
	movq	%rax, %rdi
	call	_ZN5TimerD1Ev
	movq	%r12, %rbx
	call	__asan_handle_no_return@PLT
	movq	%rbx, %rdi
.LEHB56:
	call	_Unwind_Resume@PLT
.LEHE56:
.L304:
	.loc 12 9 1
	movq	$1172321806, 0(%r13)
	movq	-2920(%rbp), %rdx
	movl	$2752, %esi
	movq	%r13, %rdi
	call	__asan_stack_free_6@PLT
.LVL6:
	jmp	.L141
.L140:
	leaq	2147450880(%r12), %rax
	movl	$240, %ecx
	movl	$0, %esi
	movq	%rsi, (%rax)
	movl	%ecx, %edx
	addq	%rax, %rdx
	addq	$8, %rdx
	movq	%rsi, -16(%rdx)
	leaq	8(%rax), %rdx
	andq	$-8, %rdx
	subq	%rdx, %rax
	addl	%eax, %ecx
	andl	$-8, %ecx
	movl	%ecx, %eax
	shrl	$3, %eax
	movl	%eax, %ecx
	movq	%rdx, %rdi
	movq	%rsi, %rax
	rep stosq
	movq	$0, 2147451124(%r12)
	movq	$0, 2147451140(%r12)
	movq	$0, 2147451152(%r12)
	movq	$0, 2147451160(%r12)
	movq	$0, 2147451168(%r12)
	movq	$0, 2147451176(%r12)
	movq	$0, 2147451184(%r12)
	movq	$0, 2147451192(%r12)
	movq	$0, 2147451200(%r12)
	movq	$0, 2147451208(%r12)
	movq	$0, 2147451216(%r12)
.L141:
	.loc 12 76 1
	movq	-56(%rbp), %rax
	xorq	%fs:40, %rax
	je	.L258
	call	__stack_chk_fail@PLT
.L258:
	movl	%ebx, %eax
	addq	$2888, %rsp
	popq	%rbx
	popq	%r12
	popq	%r13
	popq	%r14
	popq	%r15
	popq	%rbp
	.cfi_def_cfa 7, 8
	ret
	.cfi_endproc
.LFE4202:
	.section	.gcc_except_table,"a",@progbits
.LLSDA4202:
	.byte	0xff
	.byte	0xff
	.byte	0x1
	.uleb128 .LLSDACSE4202-.LLSDACSB4202
.LLSDACSB4202:
	.uleb128 .LEHB0-.LFB4202
	.uleb128 .LEHE0-.LEHB0
	.uleb128 .L259-.LFB4202
	.uleb128 0
	.uleb128 .LEHB1-.LFB4202
	.uleb128 .LEHE1-.LEHB1
	.uleb128 .L260-.LFB4202
	.uleb128 0
	.uleb128 .LEHB2-.LFB4202
	.uleb128 .LEHE2-.LEHB2
	.uleb128 .L261-.LFB4202
	.uleb128 0
	.uleb128 .LEHB3-.LFB4202
	.uleb128 .LEHE3-.LEHB3
	.uleb128 .L262-.LFB4202
	.uleb128 0
	.uleb128 .LEHB4-.LFB4202
	.uleb128 .LEHE4-.LEHB4
	.uleb128 .L263-.LFB4202
	.uleb128 0
	.uleb128 .LEHB5-.LFB4202
	.uleb128 .LEHE5-.LEHB5
	.uleb128 .L264-.LFB4202
	.uleb128 0
	.uleb128 .LEHB6-.LFB4202
	.uleb128 .LEHE6-.LEHB6
	.uleb128 .L265-.LFB4202
	.uleb128 0
	.uleb128 .LEHB7-.LFB4202
	.uleb128 .LEHE7-.LEHB7
	.uleb128 .L266-.LFB4202
	.uleb128 0
	.uleb128 .LEHB8-.LFB4202
	.uleb128 .LEHE8-.LEHB8
	.uleb128 .L264-.LFB4202
	.uleb128 0
	.uleb128 .LEHB9-.LFB4202
	.uleb128 .LEHE9-.LEHB9
	.uleb128 .L267-.LFB4202
	.uleb128 0
	.uleb128 .LEHB10-.LFB4202
	.uleb128 .LEHE10-.LEHB10
	.uleb128 .L264-.LFB4202
	.uleb128 0
	.uleb128 .LEHB11-.LFB4202
	.uleb128 .LEHE11-.LEHB11
	.uleb128 .L268-.LFB4202
	.uleb128 0
	.uleb128 .LEHB12-.LFB4202
	.uleb128 .LEHE12-.LEHB12
	.uleb128 .L269-.LFB4202
	.uleb128 0
	.uleb128 .LEHB13-.LFB4202
	.uleb128 .LEHE13-.LEHB13
	.uleb128 .L264-.LFB4202
	.uleb128 0
	.uleb128 .LEHB14-.LFB4202
	.uleb128 .LEHE14-.LEHB14
	.uleb128 .L270-.LFB4202
	.uleb128 0
	.uleb128 .LEHB15-.LFB4202
	.uleb128 .LEHE15-.LEHB15
	.uleb128 .L271-.LFB4202
	.uleb128 0
	.uleb128 .LEHB16-.LFB4202
	.uleb128 .LEHE16-.LEHB16
	.uleb128 .L272-.LFB4202
	.uleb128 0
	.uleb128 .LEHB17-.LFB4202
	.uleb128 .LEHE17-.LEHB17
	.uleb128 .L270-.LFB4202
	.uleb128 0
	.uleb128 .LEHB18-.LFB4202
	.uleb128 .LEHE18-.LEHB18
	.uleb128 .L273-.LFB4202
	.uleb128 0
	.uleb128 .LEHB19-.LFB4202
	.uleb128 .LEHE19-.LEHB19
	.uleb128 .L274-.LFB4202
	.uleb128 0
	.uleb128 .LEHB20-.LFB4202
	.uleb128 .LEHE20-.LEHB20
	.uleb128 .L275-.LFB4202
	.uleb128 0
	.uleb128 .LEHB21-.LFB4202
	.uleb128 .LEHE21-.LEHB21
	.uleb128 .L276-.LFB4202
	.uleb128 0
	.uleb128 .LEHB22-.LFB4202
	.uleb128 .LEHE22-.LEHB22
	.uleb128 .L277-.LFB4202
	.uleb128 0
	.uleb128 .LEHB23-.LFB4202
	.uleb128 .LEHE23-.LEHB23
	.uleb128 .L278-.LFB4202
	.uleb128 0
	.uleb128 .LEHB24-.LFB4202
	.uleb128 .LEHE24-.LEHB24
	.uleb128 .L279-.LFB4202
	.uleb128 0
	.uleb128 .LEHB25-.LFB4202
	.uleb128 .LEHE25-.LEHB25
	.uleb128 .L280-.LFB4202
	.uleb128 0
	.uleb128 .LEHB26-.LFB4202
	.uleb128 .LEHE26-.LEHB26
	.uleb128 .L281-.LFB4202
	.uleb128 0
	.uleb128 .LEHB27-.LFB4202
	.uleb128 .LEHE27-.LEHB27
	.uleb128 .L282-.LFB4202
	.uleb128 0
	.uleb128 .LEHB28-.LFB4202
	.uleb128 .LEHE28-.LEHB28
	.uleb128 .L283-.LFB4202
	.uleb128 0
	.uleb128 .LEHB29-.LFB4202
	.uleb128 .LEHE29-.LEHB29
	.uleb128 .L284-.LFB4202
	.uleb128 0
	.uleb128 .LEHB30-.LFB4202
	.uleb128 .LEHE30-.LEHB30
	.uleb128 .L282-.LFB4202
	.uleb128 0
	.uleb128 .LEHB31-.LFB4202
	.uleb128 .LEHE31-.LEHB31
	.uleb128 .L285-.LFB4202
	.uleb128 0
	.uleb128 .LEHB32-.LFB4202
	.uleb128 .LEHE32-.LEHB32
	.uleb128 .L286-.LFB4202
	.uleb128 0
	.uleb128 .LEHB33-.LFB4202
	.uleb128 .LEHE33-.LEHB33
	.uleb128 .L282-.LFB4202
	.uleb128 0
	.uleb128 .LEHB34-.LFB4202
	.uleb128 .LEHE34-.LEHB34
	.uleb128 .L287-.LFB4202
	.uleb128 0
	.uleb128 .LEHB35-.LFB4202
	.uleb128 .LEHE35-.LEHB35
	.uleb128 .L282-.LFB4202
	.uleb128 0
	.uleb128 .LEHB36-.LFB4202
	.uleb128 .LEHE36-.LEHB36
	.uleb128 .L288-.LFB4202
	.uleb128 0
	.uleb128 .LEHB37-.LFB4202
	.uleb128 .LEHE37-.LEHB37
	.uleb128 .L289-.LFB4202
	.uleb128 0
	.uleb128 .LEHB38-.LFB4202
	.uleb128 .LEHE38-.LEHB38
	.uleb128 .L290-.LFB4202
	.uleb128 0
	.uleb128 .LEHB39-.LFB4202
	.uleb128 .LEHE39-.LEHB39
	.uleb128 .L291-.LFB4202
	.uleb128 0
	.uleb128 .LEHB40-.LFB4202
	.uleb128 .LEHE40-.LEHB40
	.uleb128 .L292-.LFB4202
	.uleb128 0
	.uleb128 .LEHB41-.LFB4202
	.uleb128 .LEHE41-.LEHB41
	.uleb128 .L293-.LFB4202
	.uleb128 0
	.uleb128 .LEHB42-.LFB4202
	.uleb128 .LEHE42-.LEHB42
	.uleb128 .L294-.LFB4202
	.uleb128 0
	.uleb128 .LEHB43-.LFB4202
	.uleb128 .LEHE43-.LEHB43
	.uleb128 .L295-.LFB4202
	.uleb128 0
	.uleb128 .LEHB44-.LFB4202
	.uleb128 .LEHE44-.LEHB44
	.uleb128 .L296-.LFB4202
	.uleb128 0
	.uleb128 .LEHB45-.LFB4202
	.uleb128 .LEHE45-.LEHB45
	.uleb128 .L293-.LFB4202
	.uleb128 0
	.uleb128 .LEHB46-.LFB4202
	.uleb128 .LEHE46-.LEHB46
	.uleb128 .L297-.LFB4202
	.uleb128 0
	.uleb128 .LEHB47-.LFB4202
	.uleb128 .LEHE47-.LEHB47
	.uleb128 .L298-.LFB4202
	.uleb128 0
	.uleb128 .LEHB48-.LFB4202
	.uleb128 .LEHE48-.LEHB48
	.uleb128 .L293-.LFB4202
	.uleb128 0
	.uleb128 .LEHB49-.LFB4202
	.uleb128 .LEHE49-.LEHB49
	.uleb128 .L299-.LFB4202
	.uleb128 0
	.uleb128 .LEHB50-.LFB4202
	.uleb128 .LEHE50-.LEHB50
	.uleb128 .L300-.LFB4202
	.uleb128 0
	.uleb128 .LEHB51-.LFB4202
	.uleb128 .LEHE51-.LEHB51
	.uleb128 .L293-.LFB4202
	.uleb128 0
	.uleb128 .LEHB52-.LFB4202
	.uleb128 .LEHE52-.LEHB52
	.uleb128 .L301-.LFB4202
	.uleb128 0
	.uleb128 .LEHB53-.LFB4202
	.uleb128 .LEHE53-.LEHB53
	.uleb128 .L302-.LFB4202
	.uleb128 0
	.uleb128 .LEHB54-.LFB4202
	.uleb128 .LEHE54-.LEHB54
	.uleb128 .L293-.LFB4202
	.uleb128 0
	.uleb128 .LEHB55-.LFB4202
	.uleb128 .LEHE55-.LEHB55
	.uleb128 .L303-.LFB4202
	.uleb128 0
	.uleb128 .LEHB56-.LFB4202
	.uleb128 .LEHE56-.LEHB56
	.uleb128 0
	.uleb128 0
.LLSDACSE4202:
	.text
	.size	main, .-main
	.section	.text._ZN9__gnu_cxx11char_traitsIcE2eqERKcS3_,"axG",@progbits,_ZN9__gnu_cxx11char_traitsIcE2eqERKcS3_,comdat
	.weak	_ZN9__gnu_cxx11char_traitsIcE2eqERKcS3_
	.type	_ZN9__gnu_cxx11char_traitsIcE2eqERKcS3_, @function
_ZN9__gnu_cxx11char_traitsIcE2eqERKcS3_:
.LASANPC4227:
.LFB4227:
	.loc 3 100 7
	.cfi_startproc
	endbr64
	pushq	%rbp
	.cfi_def_cfa_offset 16
	.cfi_offset 6, -16
	movq	%rsp, %rbp
	.cfi_def_cfa_register 6
	subq	$16, %rsp
	movq	%rdi, -8(%rbp)
	movq	%rsi, -16(%rbp)
	.loc 3 101 21
	movq	-8(%rbp), %rax
	movq	%rax, %rdx
	shrq	$3, %rdx
	addq	$2147450880, %rdx
	movzbl	(%rdx), %edx
	testb	%dl, %dl
	setne	%cl
	movq	%rax, %rsi
	andl	$7, %esi
	cmpb	%dl, %sil
	setge	%dl
	andl	%ecx, %edx
	testb	%dl, %dl
	je	.L306
	movq	%rax, %rdi
	call	__asan_report_load1@PLT
.L306:
	movq	-8(%rbp), %rax
	movzbl	(%rax), %ecx
	movq	-16(%rbp), %rax
	movq	%rax, %rdx
	shrq	$3, %rdx
	addq	$2147450880, %rdx
	movzbl	(%rdx), %edx
	testb	%dl, %dl
	setne	%sil
	movq	%rax, %rdi
	andl	$7, %edi
	cmpb	%dl, %dil
	setge	%dl
	andl	%esi, %edx
	testb	%dl, %dl
	je	.L307
	movq	%rax, %rdi
	call	__asan_report_load1@PLT
.L307:
	movq	-16(%rbp), %rax
	movzbl	(%rax), %eax
	.loc 3 101 24
	cmpb	%al, %cl
	sete	%al
	.loc 3 101 30
	leave
	.cfi_def_cfa 7, 8
	ret
	.cfi_endproc
.LFE4227:
	.size	_ZN9__gnu_cxx11char_traitsIcE2eqERKcS3_, .-_ZN9__gnu_cxx11char_traitsIcE2eqERKcS3_
	.section	.rodata
.LC11:
	.string	"1 32 1 9 <unknown>"
	.section	.text._ZN9__gnu_cxx11char_traitsIcE6lengthEPKc,"axG",@progbits,_ZN9__gnu_cxx11char_traitsIcE6lengthEPKc,comdat
	.align 2
	.weak	_ZN9__gnu_cxx11char_traitsIcE6lengthEPKc
	.type	_ZN9__gnu_cxx11char_traitsIcE6lengthEPKc, @function
_ZN9__gnu_cxx11char_traitsIcE6lengthEPKc:
.LASANPC4226:
.LFB4226:
	.loc 3 161 5
	.cfi_startproc
	endbr64
	pushq	%rbp
	.cfi_def_cfa_offset 16
	.cfi_offset 6, -16
	movq	%rsp, %rbp
	.cfi_def_cfa_register 6
	pushq	%r14
	pushq	%r13
	pushq	%r12
	pushq	%rbx
	addq	$-128, %rsp
	.cfi_offset 14, -24
	.cfi_offset 13, -32
	.cfi_offset 12, -40
	.cfi_offset 3, -48
	movq	%rdi, -152(%rbp)
	leaq	-128(%rbp), %rbx
	movq	%rbx, %r14
	cmpl	$0, __asan_option_detect_stack_use_after_return(%rip)
	je	.L309
	movl	$64, %edi
	call	__asan_stack_malloc_0@PLT
.LVL7:
	testq	%rax, %rax
	je	.L309
	movq	%rax, %rbx
.L309:
	leaq	96(%rbx), %rax
	movq	%rax, %r12
	movq	$1102416563, (%rbx)
	leaq	.LC11(%rip), %rax
	movq	%rax, 8(%rbx)
	leaq	.LASANPC4226(%rip), %rax
	movq	%rax, 16(%rbx)
	movq	%rbx, %r13
	shrq	$3, %r13
	movl	$-235802127, 2147450880(%r13)
	movl	$-202116351, 2147450884(%r13)
	.loc 3 161 5
	movq	%fs:40, %rax
	movq	%rax, -40(%rbp)
	xorl	%eax, %eax
	.loc 3 164 19
	movq	$0, -136(%rbp)
.L315:
	.loc 3 165 14
	leaq	-64(%r12), %rax
	shrq	$3, %rax
	addq	$2147450880, %rax
	movb	$1, (%rax)
	.loc 3 165 17
	leaq	-64(%r12), %rax
	movq	%rax, %rdx
	movq	%rdx, %rax
	shrq	$3, %rax
	addq	$2147450880, %rax
	movzbl	(%rax), %eax
	testb	%al, %al
	setne	%cl
	testb	%al, %al
	setle	%al
	andl	%ecx, %eax
	testb	%al, %al
	je	.L313
	movq	%rdx, %rdi
	call	__asan_report_store1@PLT
.L313:
	movb	$0, -64(%r12)
	.loc 3 165 21
	movq	-152(%rbp), %rdx
	movq	-136(%rbp), %rax
	addq	%rax, %rdx
	.loc 3 165 17
	leaq	-64(%r12), %rax
	movq	%rax, %rsi
	movq	%rdx, %rdi
	call	_ZN9__gnu_cxx11char_traitsIcE2eqERKcS3_
	.loc 3 165 14
	xorl	$1, %eax
	movl	%eax, %edx
	.loc 3 165 17
	leaq	-64(%r12), %rax
	shrq	$3, %rax
	addq	$2147450880, %rax
	movb	$-8, (%rax)
	.loc 3 165 14
	testb	%dl, %dl
	je	.L314
	.loc 3 166 9
	addq	$1, -136(%rbp)
	.loc 3 165 7
	jmp	.L315
.L314:
	.loc 3 167 14
	movq	-136(%rbp), %rax
	movq	%rax, %rdx
	.loc 3 161 5
	cmpq	%rbx, %r14
	je	.L310
	movq	$1172321806, (%rbx)
	movabsq	$-723401728380766731, %rax
	movq	%rax, 2147450880(%r13)
	movq	56(%rbx), %rax
	movb	$0, (%rax)
	jmp	.L311
.L310:
	movq	$0, 2147450880(%r13)
.L311:
	.loc 3 168 5
	movq	-40(%rbp), %rax
	xorq	%fs:40, %rax
	je	.L317
	call	__stack_chk_fail@PLT
.L317:
	movq	%rdx, %rax
	subq	$-128, %rsp
	popq	%rbx
	popq	%r12
	popq	%r13
	popq	%r14
	popq	%rbp
	.cfi_def_cfa 7, 8
	ret
	.cfi_endproc
.LFE4226:
	.size	_ZN9__gnu_cxx11char_traitsIcE6lengthEPKc, .-_ZN9__gnu_cxx11char_traitsIcE6lengthEPKc
	.section	.text._ZNSt7__cxx1112basic_stringIcSt11char_traitsIcESaIcEE12_Alloc_hiderD2Ev,"axG",@progbits,_ZNSt7__cxx1112basic_stringIcSt11char_traitsIcESaIcEE12_Alloc_hiderD5Ev,comdat
	.align 2
	.weak	_ZNSt7__cxx1112basic_stringIcSt11char_traitsIcESaIcEE12_Alloc_hiderD2Ev
	.type	_ZNSt7__cxx1112basic_stringIcSt11char_traitsIcESaIcEE12_Alloc_hiderD2Ev, @function
_ZNSt7__cxx1112basic_stringIcSt11char_traitsIcESaIcEE12_Alloc_hiderD2Ev:
.LASANPC4329:
.LFB4329:
	.file 14 "/usr/include/c++/9/bits/basic_string.h"
	.loc 14 150 14
	.cfi_startproc
	endbr64
	pushq	%rbp
	.cfi_def_cfa_offset 16
	.cfi_offset 6, -16
	movq	%rsp, %rbp
	.cfi_def_cfa_register 6
	subq	$16, %rsp
	movq	%rdi, -8(%rbp)
.LBB27:
	.loc 14 150 14
	movq	-8(%rbp), %rax
	movq	%rax, %rdi
	call	_ZNSaIcED2Ev@PLT
.LBE27:
	nop
	leave
	.cfi_def_cfa 7, 8
	ret
	.cfi_endproc
.LFE4329:
	.size	_ZNSt7__cxx1112basic_stringIcSt11char_traitsIcESaIcEE12_Alloc_hiderD2Ev, .-_ZNSt7__cxx1112basic_stringIcSt11char_traitsIcESaIcEE12_Alloc_hiderD2Ev
	.weak	_ZNSt7__cxx1112basic_stringIcSt11char_traitsIcESaIcEE12_Alloc_hiderD1Ev
	.set	_ZNSt7__cxx1112basic_stringIcSt11char_traitsIcESaIcEE12_Alloc_hiderD1Ev,_ZNSt7__cxx1112basic_stringIcSt11char_traitsIcESaIcEE12_Alloc_hiderD2Ev
	.section	.text._ZSt3maxImERKT_S2_S2_,"axG",@progbits,_ZSt3maxImERKT_S2_S2_,comdat
	.weak	_ZSt3maxImERKT_S2_S2_
	.type	_ZSt3maxImERKT_S2_S2_, @function
_ZSt3maxImERKT_S2_S2_:
.LASANPC4476:
.LFB4476:
	.loc 2 222 5
	.cfi_startproc
	endbr64
	pushq	%rbp
	.cfi_def_cfa_offset 16
	.cfi_offset 6, -16
	movq	%rsp, %rbp
	.cfi_def_cfa_register 6
	subq	$16, %rsp
	movq	%rdi, -8(%rbp)
	movq	%rsi, -16(%rbp)
	.loc 2 227 15
	movq	-8(%rbp), %rax
	movq	%rax, %rdx
	shrq	$3, %rdx
	addq	$2147450880, %rdx
	movzbl	(%rdx), %edx
	testb	%dl, %dl
	je	.L320
	movq	%rax, %rdi
	call	__asan_report_load8@PLT
.L320:
	movq	-8(%rbp), %rax
	movq	(%rax), %rcx
	movq	-16(%rbp), %rax
	movq	%rax, %rdx
	shrq	$3, %rdx
	addq	$2147450880, %rdx
	movzbl	(%rdx), %edx
	testb	%dl, %dl
	je	.L321
	movq	%rax, %rdi
	call	__asan_report_load8@PLT
.L321:
	movq	-16(%rbp), %rax
	movq	(%rax), %rax
	.loc 2 227 7
	cmpq	%rax, %rcx
	jnb	.L322
	.loc 2 228 9
	movq	-16(%rbp), %rax
	jmp	.L323
.L322:
	.loc 2 229 14
	movq	-8(%rbp), %rax
.L323:
	.loc 2 230 5
	leave
	.cfi_def_cfa 7, 8
	ret
	.cfi_endproc
.LFE4476:
	.size	_ZSt3maxImERKT_S2_S2_, .-_ZSt3maxImERKT_S2_S2_
	.section	.text._ZNKSt6chrono10time_pointINS_3_V212system_clockENS_8durationIlSt5ratioILl1ELl1000000000EEEEE16time_since_epochEv,"axG",@progbits,_ZNKSt6chrono10time_pointINS_3_V212system_clockENS_8durationIlSt5ratioILl1ELl1000000000EEEEE16time_since_epochEv,comdat
	.align 2
	.weak	_ZNKSt6chrono10time_pointINS_3_V212system_clockENS_8durationIlSt5ratioILl1ELl1000000000EEEEE16time_since_epochEv
	.type	_ZNKSt6chrono10time_pointINS_3_V212system_clockENS_8durationIlSt5ratioILl1ELl1000000000EEEEE16time_since_epochEv, @function
_ZNKSt6chrono10time_pointINS_3_V212system_clockENS_8durationIlSt5ratioILl1ELl1000000000EEEEE16time_since_epochEv:
.LASANPC4499:
.LFB4499:
	.loc 7 649 2
	.cfi_startproc
	endbr64
	pushq	%rbp
	.cfi_def_cfa_offset 16
	.cfi_offset 6, -16
	movq	%rsp, %rbp
	.cfi_def_cfa_register 6
	subq	$16, %rsp
	movq	%rdi, -8(%rbp)
	.loc 7 650 11
	movq	-8(%rbp), %rax
	movq	%rax, %rdx
	shrq	$3, %rdx
	addq	$2147450880, %rdx
	movzbl	(%rdx), %edx
	testb	%dl, %dl
	je	.L325
	movq	%rax, %rdi
	call	__asan_report_load8@PLT
.L325:
	movq	-8(%rbp), %rax
	movq	(%rax), %rax
	.loc 7 650 16
	leave
	.cfi_def_cfa 7, 8
	ret
	.cfi_endproc
.LFE4499:
	.size	_ZNKSt6chrono10time_pointINS_3_V212system_clockENS_8durationIlSt5ratioILl1ELl1000000000EEEEE16time_since_epochEv, .-_ZNKSt6chrono10time_pointINS_3_V212system_clockENS_8durationIlSt5ratioILl1ELl1000000000EEEEE16time_since_epochEv
	.section	.text._ZNSt6chrono10time_pointINS_3_V212system_clockENS_8durationIlSt5ratioILl1ELl1000000000EEEEEC2Ev,"axG",@progbits,_ZNSt6chrono10time_pointINS_3_V212system_clockENS_8durationIlSt5ratioILl1ELl1000000000EEEEEC5Ev,comdat
	.align 2
	.weak	_ZNSt6chrono10time_pointINS_3_V212system_clockENS_8durationIlSt5ratioILl1ELl1000000000EEEEEC2Ev
	.type	_ZNSt6chrono10time_pointINS_3_V212system_clockENS_8durationIlSt5ratioILl1ELl1000000000EEEEEC2Ev, @function
_ZNSt6chrono10time_pointINS_3_V212system_clockENS_8durationIlSt5ratioILl1ELl1000000000EEEEEC2Ev:
.LASANPC4528:
.LFB4528:
	.loc 7 633 12
	.cfi_startproc
	endbr64
	pushq	%rbp
	.cfi_def_cfa_offset 16
	.cfi_offset 6, -16
	movq	%rsp, %rbp
	.cfi_def_cfa_register 6
	pushq	%rbx
	subq	$24, %rsp
	.cfi_offset 3, -24
	movq	%rdi, -24(%rbp)
.LBB28:
	.loc 7 633 45
	movq	-24(%rbp), %rax
	movq	%rax, %rdx
	shrq	$3, %rdx
	addq	$2147450880, %rdx
	movzbl	(%rdx), %edx
	testb	%dl, %dl
	je	.L328
	movq	%rax, %rdi
	call	__asan_report_store8@PLT
.L328:
	movq	-24(%rbp), %rbx
	call	_ZNSt6chrono8durationIlSt5ratioILl1ELl1000000000EEE4zeroEv
	movq	%rax, (%rbx)
.LBE28:
	.loc 7 634 4
	nop
	addq	$24, %rsp
	popq	%rbx
	popq	%rbp
	.cfi_def_cfa 7, 8
	ret
	.cfi_endproc
.LFE4528:
	.size	_ZNSt6chrono10time_pointINS_3_V212system_clockENS_8durationIlSt5ratioILl1ELl1000000000EEEEEC2Ev, .-_ZNSt6chrono10time_pointINS_3_V212system_clockENS_8durationIlSt5ratioILl1ELl1000000000EEEEEC2Ev
	.weak	_ZNSt6chrono10time_pointINS_3_V212system_clockENS_8durationIlSt5ratioILl1ELl1000000000EEEEEC1Ev
	.set	_ZNSt6chrono10time_pointINS_3_V212system_clockENS_8durationIlSt5ratioILl1ELl1000000000EEEEEC1Ev,_ZNSt6chrono10time_pointINS_3_V212system_clockENS_8durationIlSt5ratioILl1ELl1000000000EEEEEC2Ev
	.section	.text._ZNSt6chronomiINS_3_V212system_clockENS_8durationIlSt5ratioILl1ELl1000000000EEEES6_EENSt11common_typeIJT0_T1_EE4typeERKNS_10time_pointIT_S8_EERKNSC_ISD_S9_EE,"axG",@progbits,_ZNSt6chronomiINS_3_V212system_clockENS_8durationIlSt5ratioILl1ELl1000000000EEEES6_EENSt11common_typeIJT0_T1_EE4typeERKNS_10time_pointIT_S8_EERKNSC_ISD_S9_EE,comdat
	.weak	_ZNSt6chronomiINS_3_V212system_clockENS_8durationIlSt5ratioILl1ELl1000000000EEEES6_EENSt11common_typeIJT0_T1_EE4typeERKNS_10time_pointIT_S8_EERKNSC_ISD_S9_EE
	.type	_ZNSt6chronomiINS_3_V212system_clockENS_8durationIlSt5ratioILl1ELl1000000000EEEES6_EENSt11common_typeIJT0_T1_EE4typeERKNS_10time_pointIT_S8_EERKNSC_ISD_S9_EE, @function
_ZNSt6chronomiINS_3_V212system_clockENS_8durationIlSt5ratioILl1ELl1000000000EEEES6_EENSt11common_typeIJT0_T1_EE4typeERKNS_10time_pointIT_S8_EERKNSC_ISD_S9_EE:
.LASANPC4530:
.LFB4530:
	.loc 7 762 7
	.cfi_startproc
	endbr64
	pushq	%rbp
	.cfi_def_cfa_offset 16
	.cfi_offset 6, -16
	movq	%rsp, %rbp
	.cfi_def_cfa_register 6
	pushq	%r14
	pushq	%r13
	pushq	%r12
	pushq	%rbx
	subq	$144, %rsp
	.cfi_offset 14, -24
	.cfi_offset 13, -32
	.cfi_offset 12, -40
	.cfi_offset 3, -48
	movq	%rdi, -168(%rbp)
	movq	%rsi, -176(%rbp)
	leaq	-160(%rbp), %rbx
	movq	%rbx, %r14
	cmpl	$0, __asan_option_detect_stack_use_after_return(%rip)
	je	.L329
	movl	$96, %edi
	call	__asan_stack_malloc_1@PLT
.LVL8:
	testq	%rax, %rax
	je	.L329
	movq	%rax, %rbx
.L329:
	leaq	128(%rbx), %rax
	movq	%rax, %r13
	movq	$1102416563, (%rbx)
	leaq	.LC2(%rip), %rax
	movq	%rax, 8(%rbx)
	leaq	.LASANPC4530(%rip), %rax
	movq	%rax, 16(%rbx)
	movq	%rbx, %r12
	shrq	$3, %r12
	movl	$-235802127, 2147450880(%r12)
	movl	$-218959360, 2147450884(%r12)
	movl	$-202116352, 2147450888(%r12)
	.loc 7 762 7
	movq	%fs:40, %rax
	movq	%rax, -40(%rbp)
	xorl	%eax, %eax
	.loc 7 764 41
	leaq	-64(%r13), %rax
	movq	%rax, %rdx
	shrq	$3, %rdx
	addq	$2147450880, %rdx
	movzbl	(%rdx), %edx
	testb	%dl, %dl
	je	.L333
	movq	%rax, %rdi
	call	__asan_report_store8@PLT
.L333:
	movq	-176(%rbp), %rax
	movq	%rax, %rdi
	call	_ZNKSt6chrono10time_pointINS_3_V212system_clockENS_8durationIlSt5ratioILl1ELl1000000000EEEEE16time_since_epochEv
	movq	%rax, -64(%r13)
	leaq	-96(%r13), %rax
	movq	%rax, %rdx
	shrq	$3, %rdx
	addq	$2147450880, %rdx
	movzbl	(%rdx), %edx
	testb	%dl, %dl
	je	.L334
	movq	%rax, %rdi
	call	__asan_report_store8@PLT
.L334:
	movq	-168(%rbp), %rax
	movq	%rax, %rdi
	call	_ZNKSt6chrono10time_pointINS_3_V212system_clockENS_8durationIlSt5ratioILl1ELl1000000000EEEEE16time_since_epochEv
	movq	%rax, -96(%r13)
	leaq	-64(%r13), %rax
	leaq	-96(%r13), %rdx
	movq	%rax, %rsi
	movq	%rdx, %rdi
	call	_ZNSt6chronomiIlSt5ratioILl1ELl1000000000EElS2_EENSt11common_typeIJNS_8durationIT_T0_EENS4_IT1_T2_EEEE4typeERKS7_RKSA_
	.loc 7 764 66
	movq	%rax, %rdx
	.loc 7 762 7
	cmpq	%rbx, %r14
	je	.L330
	movq	$1172321806, (%rbx)
	movabsq	$-723401728380766731, %rax
	movq	%rax, 2147450880(%r12)
	movl	$-168430091, 2147450888(%r12)
	movq	120(%rbx), %rax
	movb	$0, (%rax)
	jmp	.L331
.L330:
	movq	$0, 2147450880(%r12)
	movl	$0, 2147450888(%r12)
.L331:
	.loc 7 764 69
	movq	-40(%rbp), %rax
	xorq	%fs:40, %rax
	je	.L336
	call	__stack_chk_fail@PLT
.L336:
	movq	%rdx, %rax
	addq	$144, %rsp
	popq	%rbx
	popq	%r12
	popq	%r13
	popq	%r14
	popq	%rbp
	.cfi_def_cfa 7, 8
	ret
	.cfi_endproc
.LFE4530:
	.size	_ZNSt6chronomiINS_3_V212system_clockENS_8durationIlSt5ratioILl1ELl1000000000EEEES6_EENSt11common_typeIJT0_T1_EE4typeERKNS_10time_pointIT_S8_EERKNSC_ISD_S9_EE, .-_ZNSt6chronomiINS_3_V212system_clockENS_8durationIlSt5ratioILl1ELl1000000000EEEES6_EENSt11common_typeIJT0_T1_EE4typeERKNS_10time_pointIT_S8_EERKNSC_ISD_S9_EE
	.section	.rodata
.LC12:
	.string	"1 32 4 9 <unknown>"
	.section	.text._ZNSt6chrono8durationIfSt5ratioILl1ELl1EEEC2IlS1_ILl1ELl1000000000EEvEERKNS0_IT_T0_EE,"axG",@progbits,_ZNSt6chrono8durationIfSt5ratioILl1ELl1EEEC5IlS1_ILl1ELl1000000000EEvEERKNS0_IT_T0_EE,comdat
	.align 2
	.weak	_ZNSt6chrono8durationIfSt5ratioILl1ELl1EEEC2IlS1_ILl1ELl1000000000EEvEERKNS0_IT_T0_EE
	.type	_ZNSt6chrono8durationIfSt5ratioILl1ELl1EEEC2IlS1_ILl1ELl1000000000EEvEERKNS0_IT_T0_EE, @function
_ZNSt6chrono8durationIfSt5ratioILl1ELl1EEEC2IlS1_ILl1ELl1000000000EEvEERKNS0_IT_T0_EE:
.LASANPC4532:
.LFB4532:
	.loc 7 338 14
	.cfi_startproc
	endbr64
	pushq	%rbp
	.cfi_def_cfa_offset 16
	.cfi_offset 6, -16
	movq	%rsp, %rbp
	.cfi_def_cfa_register 6
	pushq	%r14
	pushq	%r13
	pushq	%r12
	pushq	%rbx
	subq	$112, %rsp
	.cfi_offset 14, -24
	.cfi_offset 13, -32
	.cfi_offset 12, -40
	.cfi_offset 3, -48
	movq	%rdi, -136(%rbp)
	movq	%rsi, -144(%rbp)
	leaq	-128(%rbp), %rbx
	movq	%rbx, %r14
	cmpl	$0, __asan_option_detect_stack_use_after_return(%rip)
	je	.L337
	movl	$64, %edi
	call	__asan_stack_malloc_0@PLT
.LVL9:
	testq	%rax, %rax
	je	.L337
	movq	%rax, %rbx
.L337:
	leaq	96(%rbx), %rax
	movq	%rax, %r13
	movq	$1102416563, (%rbx)
	leaq	.LC12(%rip), %rax
	movq	%rax, 8(%rbx)
	leaq	.LASANPC4532(%rip), %rax
	movq	%rax, 16(%rbx)
	movq	%rbx, %r12
	shrq	$3, %r12
	movl	$-235802127, 2147450880(%r12)
	movl	$-202116348, 2147450884(%r12)
	.loc 7 338 14
	movq	%fs:40, %rax
	movq	%rax, -40(%rbp)
	xorl	%eax, %eax
.LBB29:
	.loc 7 339 33
	leaq	-64(%r13), %rax
	movq	%rax, %rdx
	movq	%rdx, %rax
	shrq	$3, %rax
	addq	$2147450880, %rax
	movzbl	(%rax), %eax
	testb	%al, %al
	setne	%cl
	cmpb	$3, %al
	setle	%al
	andl	%ecx, %eax
	testb	%al, %al
	je	.L341
	movq	%rdx, %rdi
	call	__asan_report_store4@PLT
.L341:
	movq	-144(%rbp), %rax
	movq	%rax, %rdi
	call	_ZNSt6chrono13duration_castINS_8durationIfSt5ratioILl1ELl1EEEElS2_ILl1ELl1000000000EEEENSt9enable_ifIXsrNS_13__is_durationIT_EE5valueES8_E4typeERKNS1_IT0_T1_EE
	movss	%xmm0, -64(%r13)
	.loc 7 339 46
	leaq	-64(%r13), %rax
	movq	%rax, %rdi
	call	_ZNKSt6chrono8durationIfSt5ratioILl1ELl1EEE5countEv
	movd	%xmm0, %ecx
	movq	-136(%rbp), %rax
	movq	%rax, %rdx
	shrq	$3, %rdx
	addq	$2147450880, %rdx
	movzbl	(%rdx), %edx
	testb	%dl, %dl
	setne	%sil
	movq	%rax, %rdi
	andl	$7, %edi
	addl	$3, %edi
	cmpb	%dl, %dil
	setge	%dl
	andl	%esi, %edx
	testb	%dl, %dl
	je	.L342
	movq	%rax, %rdi
	call	__asan_report_store4@PLT
.L342:
	movq	-136(%rbp), %rax
	movl	%ecx, (%rax)
.LBE29:
	.loc 7 339 50
	nop
	.loc 7 338 14
	cmpq	%rbx, %r14
	je	.L338
	movq	$1172321806, (%rbx)
	movabsq	$-723401728380766731, %rax
	movq	%rax, 2147450880(%r12)
	movq	56(%rbx), %rax
	movb	$0, (%rax)
	jmp	.L339
.L338:
	movq	$0, 2147450880(%r12)
.L339:
	.loc 7 339 50
	movq	-40(%rbp), %rax
	xorq	%fs:40, %rax
	je	.L343
	call	__stack_chk_fail@PLT
.L343:
	addq	$112, %rsp
	popq	%rbx
	popq	%r12
	popq	%r13
	popq	%r14
	popq	%rbp
	.cfi_def_cfa 7, 8
	ret
	.cfi_endproc
.LFE4532:
	.size	_ZNSt6chrono8durationIfSt5ratioILl1ELl1EEEC2IlS1_ILl1ELl1000000000EEvEERKNS0_IT_T0_EE, .-_ZNSt6chrono8durationIfSt5ratioILl1ELl1EEEC2IlS1_ILl1ELl1000000000EEvEERKNS0_IT_T0_EE
	.weak	_ZNSt6chrono8durationIfSt5ratioILl1ELl1EEEC1IlS1_ILl1ELl1000000000EEvEERKNS0_IT_T0_EE
	.set	_ZNSt6chrono8durationIfSt5ratioILl1ELl1EEEC1IlS1_ILl1ELl1000000000EEvEERKNS0_IT_T0_EE,_ZNSt6chrono8durationIfSt5ratioILl1ELl1EEEC2IlS1_ILl1ELl1000000000EEvEERKNS0_IT_T0_EE
	.section	.text._ZNKSt6chrono8durationIfSt5ratioILl1ELl1EEE5countEv,"axG",@progbits,_ZNKSt6chrono8durationIfSt5ratioILl1ELl1EEE5countEv,comdat
	.align 2
	.weak	_ZNKSt6chrono8durationIfSt5ratioILl1ELl1EEE5countEv
	.type	_ZNKSt6chrono8durationIfSt5ratioILl1ELl1EEE5countEv, @function
_ZNKSt6chrono8durationIfSt5ratioILl1ELl1EEE5countEv:
.LASANPC4535:
.LFB4535:
	.loc 7 346 2
	.cfi_startproc
	endbr64
	pushq	%rbp
	.cfi_def_cfa_offset 16
	.cfi_offset 6, -16
	movq	%rsp, %rbp
	.cfi_def_cfa_register 6
	subq	$16, %rsp
	movq	%rdi, -8(%rbp)
	.loc 7 347 11
	movq	-8(%rbp), %rax
	movq	%rax, %rdx
	shrq	$3, %rdx
	addq	$2147450880, %rdx
	movzbl	(%rdx), %edx
	testb	%dl, %dl
	setne	%cl
	movq	%rax, %rsi
	andl	$7, %esi
	addl	$3, %esi
	cmpb	%dl, %sil
	setge	%dl
	andl	%ecx, %edx
	testb	%dl, %dl
	je	.L345
	movq	%rax, %rdi
	call	__asan_report_load4@PLT
.L345:
	movq	-8(%rbp), %rax
	movss	(%rax), %xmm0
	.loc 7 347 16
	leave
	.cfi_def_cfa 7, 8
	ret
	.cfi_endproc
.LFE4535:
	.size	_ZNKSt6chrono8durationIfSt5ratioILl1ELl1EEE5countEv, .-_ZNKSt6chrono8durationIfSt5ratioILl1ELl1EEE5countEv
	.section	.rodata
	.align 8
.LC13:
	.string	"2 48 1 9 <unknown> 64 16 7 __l:622"
	.section	.text._ZNSt6vectorIcSaIcEEC2ESt16initializer_listIcERKS0_,"axG",@progbits,_ZNSt6vectorIcSaIcEEC5ESt16initializer_listIcERKS0_,comdat
	.align 2
	.weak	_ZNSt6vectorIcSaIcEEC2ESt16initializer_listIcERKS0_
	.type	_ZNSt6vectorIcSaIcEEC2ESt16initializer_listIcERKS0_, @function
_ZNSt6vectorIcSaIcEEC2ESt16initializer_listIcERKS0_:
.LASANPC4554:
.LFB4554:
	.loc 11 622 7
	.cfi_startproc
	.cfi_personality 0x9b,DW.ref.__gxx_personality_v0
	.cfi_lsda 0x1b,.LLSDA4554
	endbr64
	pushq	%rbp
	.cfi_def_cfa_offset 16
	.cfi_offset 6, -16
	movq	%rsp, %rbp
	.cfi_def_cfa_register 6
	pushq	%r15
	pushq	%r14
	pushq	%r13
	pushq	%r12
	pushq	%rbx
	subq	$168, %rsp
	.cfi_offset 15, -24
	.cfi_offset 14, -32
	.cfi_offset 13, -40
	.cfi_offset 12, -48
	.cfi_offset 3, -56
	movq	%rdi, -184(%rbp)
	movq	%rsi, %rax
	movq	%rdx, %rsi
	movq	%rsi, %rdx
	movq	%rax, -208(%rbp)
	movq	%rdx, -200(%rbp)
	movq	%rcx, -192(%rbp)
	leaq	-176(%rbp), %rbx
	movq	%rbx, %r15
	cmpl	$0, __asan_option_detect_stack_use_after_return(%rip)
	je	.L347
	movl	$96, %edi
	call	__asan_stack_malloc_1@PLT
.LVL10:
	testq	%rax, %rax
	je	.L347
	movq	%rax, %rbx
.L347:
	leaq	128(%rbx), %rax
	movq	%rax, %r13
	movq	$1102416563, (%rbx)
	leaq	.LC13(%rip), %rax
	movq	%rax, 8(%rbx)
	leaq	.LASANPC4554(%rip), %rax
	movq	%rax, 16(%rbx)
	movq	%rbx, %r12
	shrq	$3, %r12
	movl	$-235802127, 2147450880(%r12)
	movl	$-234753551, 2147450884(%r12)
	movl	$-202178560, 2147450888(%r12)
	.loc 11 622 7
	movq	%fs:40, %rax
	movq	%rax, -56(%rbp)
	xorl	%eax, %eax
	.loc 11 622 43
	movq	-208(%rbp), %rax
	movq	-200(%rbp), %rdx
	movq	%rax, -64(%r13)
	movq	%rdx, -56(%r13)
.LBB30:
	.loc 11 624 18
	movq	-184(%rbp), %rax
	movq	-192(%rbp), %rdx
	movq	%rdx, %rsi
	movq	%rax, %rdi
	call	_ZNSt12_Vector_baseIcSaIcEEC2ERKS0_
	.loc 11 626 2
	leaq	-64(%r13), %rax
	movq	%rax, %rdi
	call	_ZNKSt16initializer_listIcE3endEv
	movq	%rax, %r14
	leaq	-64(%r13), %rax
	movq	%rax, %rdi
	call	_ZNKSt16initializer_listIcE5beginEv
	movq	%rax, %rcx
	movq	-184(%rbp), %rax
	movq	%r14, %rdx
	movq	%rcx, %rsi
	movq	%rax, %rdi
.LEHB57:
	call	_ZNSt6vectorIcSaIcEE19_M_range_initializeIPKcEEvT_S5_St20forward_iterator_tag
.LEHE57:
.LBE30:
	.loc 11 628 7
	jmp	.L354
.L353:
	endbr64
.LBB31:
	.loc 11 626 2
	leaq	-80(%r13), %rdx
	shrq	$3, %rdx
	addq	$2147450880, %rdx
	movb	$-8, (%rdx)
	movq	%rax, %rbx
	.loc 11 624 18
	movq	-184(%rbp), %rax
	movq	%rax, %rdi
	call	_ZNSt12_Vector_baseIcSaIcEED2Ev
	call	__asan_handle_no_return@PLT
	movq	%rbx, %rdi
.LEHB58:
	call	_Unwind_Resume@PLT
.LEHE58:
.L354:
.LBE31:
	.loc 11 622 7
	cmpq	%rbx, %r15
	je	.L348
	movq	$1172321806, (%rbx)
	movabsq	$-723401728380766731, %rax
	movq	%rax, 2147450880(%r12)
	movl	$-168430091, 2147450888(%r12)
	movq	120(%rbx), %rax
	movb	$0, (%rax)
	jmp	.L349
.L348:
	movq	$0, 2147450880(%r12)
	movl	$0, 2147450888(%r12)
.L349:
	.loc 11 628 7
	movq	-56(%rbp), %rax
	xorq	%fs:40, %rax
	je	.L352
	call	__stack_chk_fail@PLT
.L352:
	addq	$168, %rsp
	popq	%rbx
	popq	%r12
	popq	%r13
	popq	%r14
	popq	%r15
	popq	%rbp
	.cfi_def_cfa 7, 8
	ret
	.cfi_endproc
.LFE4554:
	.section	.gcc_except_table
.LLSDA4554:
	.byte	0xff
	.byte	0xff
	.byte	0x1
	.uleb128 .LLSDACSE4554-.LLSDACSB4554
.LLSDACSB4554:
	.uleb128 .LEHB57-.LFB4554
	.uleb128 .LEHE57-.LEHB57
	.uleb128 .L353-.LFB4554
	.uleb128 0
	.uleb128 .LEHB58-.LFB4554
	.uleb128 .LEHE58-.LEHB58
	.uleb128 0
	.uleb128 0
.LLSDACSE4554:
	.section	.text._ZNSt6vectorIcSaIcEEC2ESt16initializer_listIcERKS0_,"axG",@progbits,_ZNSt6vectorIcSaIcEEC5ESt16initializer_listIcERKS0_,comdat
	.size	_ZNSt6vectorIcSaIcEEC2ESt16initializer_listIcERKS0_, .-_ZNSt6vectorIcSaIcEEC2ESt16initializer_listIcERKS0_
	.weak	_ZNSt6vectorIcSaIcEEC1ESt16initializer_listIcERKS0_
	.set	_ZNSt6vectorIcSaIcEEC1ESt16initializer_listIcERKS0_,_ZNSt6vectorIcSaIcEEC2ESt16initializer_listIcERKS0_
	.section	.text._ZNSt6vectorIcSaIcEED2Ev,"axG",@progbits,_ZNSt6vectorIcSaIcEED5Ev,comdat
	.align 2
	.weak	_ZNSt6vectorIcSaIcEED2Ev
	.type	_ZNSt6vectorIcSaIcEED2Ev, @function
_ZNSt6vectorIcSaIcEED2Ev:
.LASANPC4557:
.LFB4557:
	.loc 11 675 7
	.cfi_startproc
	.cfi_personality 0x9b,DW.ref.__gxx_personality_v0
	.cfi_lsda 0x1b,.LLSDA4557
	endbr64
	pushq	%rbp
	.cfi_def_cfa_offset 16
	.cfi_offset 6, -16
	movq	%rsp, %rbp
	.cfi_def_cfa_register 6
	subq	$16, %rsp
	movq	%rdi, -8(%rbp)
.LBB32:
	.loc 11 678 28
	movq	-8(%rbp), %rax
	movq	%rax, %rdi
	call	_ZNSt12_Vector_baseIcSaIcEE19_M_get_Tp_allocatorEv
	movq	%rax, %rsi
	.loc 11 677 15
	movq	-8(%rbp), %rax
	addq	$8, %rax
	movq	%rax, %rdx
	shrq	$3, %rdx
	addq	$2147450880, %rdx
	movzbl	(%rdx), %edx
	testb	%dl, %dl
	je	.L356
	movq	%rax, %rdi
	call	__asan_report_load8@PLT
.L356:
	movq	-8(%rbp), %rax
	movq	8(%rax), %rcx
	movq	-8(%rbp), %rax
	movq	%rax, %rdx
	shrq	$3, %rdx
	addq	$2147450880, %rdx
	movzbl	(%rdx), %edx
	testb	%dl, %dl
	je	.L357
	movq	%rax, %rdi
	call	__asan_report_load8@PLT
.L357:
	movq	-8(%rbp), %rax
	movq	(%rax), %rax
	movq	%rsi, %rdx
	movq	%rcx, %rsi
	movq	%rax, %rdi
	call	_ZSt8_DestroyIPccEvT_S1_RSaIT0_E
	.loc 11 680 7
	movq	-8(%rbp), %rax
	movq	%rax, %rdi
	call	_ZNSt12_Vector_baseIcSaIcEED2Ev
.LBE32:
	nop
	leave
	.cfi_def_cfa 7, 8
	ret
	.cfi_endproc
.LFE4557:
	.section	.gcc_except_table
.LLSDA4557:
	.byte	0xff
	.byte	0xff
	.byte	0x1
	.uleb128 .LLSDACSE4557-.LLSDACSB4557
.LLSDACSB4557:
.LLSDACSE4557:
	.section	.text._ZNSt6vectorIcSaIcEED2Ev,"axG",@progbits,_ZNSt6vectorIcSaIcEED5Ev,comdat
	.size	_ZNSt6vectorIcSaIcEED2Ev, .-_ZNSt6vectorIcSaIcEED2Ev
	.weak	_ZNSt6vectorIcSaIcEED1Ev
	.set	_ZNSt6vectorIcSaIcEED1Ev,_ZNSt6vectorIcSaIcEED2Ev
	.section	.text._ZN11GraphMatrixIccE7getPairERKNSt7__cxx1112basic_stringIcSt11char_traitsIcESaIcEEE,"axG",@progbits,_ZN11GraphMatrixIccE7getPairERKNSt7__cxx1112basic_stringIcSt11char_traitsIcESaIcEEE,comdat
	.weak	_ZN11GraphMatrixIccE7getPairERKNSt7__cxx1112basic_stringIcSt11char_traitsIcESaIcEEE
	.type	_ZN11GraphMatrixIccE7getPairERKNSt7__cxx1112basic_stringIcSt11char_traitsIcESaIcEEE, @function
_ZN11GraphMatrixIccE7getPairERKNSt7__cxx1112basic_stringIcSt11char_traitsIcESaIcEEE:
.LASANPC4559:
.LFB4559:
	.loc 13 115 33
	.cfi_startproc
	endbr64
	pushq	%rbp
	.cfi_def_cfa_offset 16
	.cfi_offset 6, -16
	movq	%rsp, %rbp
	.cfi_def_cfa_register 6
	subq	$32, %rsp
	movq	%rdi, -24(%rbp)
	movq	%rsi, -32(%rbp)
	.loc 13 115 33
	movq	%fs:40, %rax
	movq	%rax, -8(%rbp)
	xorl	%eax, %eax
	.loc 13 117 43
	movq	-24(%rbp), %rax
	movq	%rax, %rdx
	shrq	$3, %rdx
	addq	$2147450880, %rdx
	movzbl	(%rdx), %edx
	testb	%dl, %dl
	setne	%cl
	testb	%dl, %dl
	setle	%dl
	movl	%ecx, %edi
	andl	%edx, %edi
	movl	$24, %edx
	subq	$1, %rdx
	leaq	(%rax,%rdx), %rcx
	movq	%rcx, %rdx
	shrq	$3, %rdx
	addq	$2147450880, %rdx
	movzbl	(%rdx), %edx
	testb	%dl, %dl
	setne	%sil
	andl	$7, %ecx
	cmpb	%dl, %cl
	setge	%dl
	andl	%esi, %edx
	orl	%edi, %edx
	testb	%dl, %dl
	je	.L359
	movl	$24, %esi
	movq	%rax, %rdi
	call	__asan_report_store_n@PLT
.L359:
	movq	-24(%rbp), %rax
	movq	-32(%rbp), %rdx
	movq	%rdx, %rsi
	movq	%rax, %rdi
	call	_ZN6MatrixIbE7getPairIcEESt6vectorISt4pairIT_S4_ESaIS5_EERKNSt7__cxx1112basic_stringIcSt11char_traitsIcESaIcEEE
	.loc 13 118 5
	movq	-8(%rbp), %rax
	xorq	%fs:40, %rax
	je	.L361
	call	__stack_chk_fail@PLT
.L361:
	movq	-24(%rbp), %rax
	leave
	.cfi_def_cfa 7, 8
	ret
	.cfi_endproc
.LFE4559:
	.size	_ZN11GraphMatrixIccE7getPairERKNSt7__cxx1112basic_stringIcSt11char_traitsIcESaIcEEE, .-_ZN11GraphMatrixIccE7getPairERKNSt7__cxx1112basic_stringIcSt11char_traitsIcESaIcEEE
	.section	.text._ZNSt7__cxx1112basic_stringIcSt11char_traitsIcESaIcEEC2IS3_EEPKcRKS3_,"axG",@progbits,_ZNSt7__cxx1112basic_stringIcSt11char_traitsIcESaIcEEC5IS3_EEPKcRKS3_,comdat
	.align 2
	.weak	_ZNSt7__cxx1112basic_stringIcSt11char_traitsIcESaIcEEC2IS3_EEPKcRKS3_
	.type	_ZNSt7__cxx1112basic_stringIcSt11char_traitsIcESaIcEEC2IS3_EEPKcRKS3_, @function
_ZNSt7__cxx1112basic_stringIcSt11char_traitsIcESaIcEEC2IS3_EEPKcRKS3_:
.LASANPC4561:
.LFB4561:
	.loc 14 525 7
	.cfi_startproc
	.cfi_personality 0x9b,DW.ref.__gxx_personality_v0
	.cfi_lsda 0x1b,.LLSDA4561
	endbr64
	pushq	%rbp
	.cfi_def_cfa_offset 16
	.cfi_offset 6, -16
	movq	%rsp, %rbp
	.cfi_def_cfa_register 6
	pushq	%rbx
	subq	$40, %rsp
	.cfi_offset 3, -24
	movq	%rdi, -24(%rbp)
	movq	%rsi, -32(%rbp)
	movq	%rdx, -40(%rbp)
.LBB33:
	.loc 14 526 41
	movq	-24(%rbp), %rbx
	movq	-24(%rbp), %rax
	movq	%rax, %rdi
.LEHB59:
	call	_ZNSt7__cxx1112basic_stringIcSt11char_traitsIcESaIcEE13_M_local_dataEv@PLT
	movq	%rax, %rcx
	movq	-40(%rbp), %rax
	movq	%rax, %rdx
	movq	%rcx, %rsi
	movq	%rbx, %rdi
	call	_ZNSt7__cxx1112basic_stringIcSt11char_traitsIcESaIcEE12_Alloc_hiderC1EPcRKS3_@PLT
.LEHE59:
	.loc 14 527 9
	cmpq	$0, -32(%rbp)
	je	.L363
	.loc 14 527 58 discriminator 1
	movq	-32(%rbp), %rax
	movq	%rax, %rdi
.LEHB60:
	call	_ZNSt11char_traitsIcE6lengthEPKc
	.loc 14 527 9 discriminator 1
	movq	-32(%rbp), %rdx
	addq	%rdx, %rax
	jmp	.L364
.L363:
	.loc 14 527 9 is_stmt 0 discriminator 2
	movq	-32(%rbp), %rax
	subq	$1, %rax
.L364:
	.loc 14 527 9 discriminator 5
	movq	-32(%rbp), %rsi
	movq	-24(%rbp), %rcx
	movq	%rax, %rdx
	movq	%rcx, %rdi
	call	_ZNSt7__cxx1112basic_stringIcSt11char_traitsIcESaIcEE12_M_constructIPKcEEvT_S8_
.LEHE60:
.LBE33:
	.loc 14 527 77 is_stmt 1
	jmp	.L367
.L366:
	endbr64
	movq	%rax, %rbx
.LBB34:
	.loc 14 526 41
	movq	-24(%rbp), %rax
	movq	%rax, %rdi
	call	_ZNSt7__cxx1112basic_stringIcSt11char_traitsIcESaIcEE12_Alloc_hiderD1Ev
	call	__asan_handle_no_return@PLT
	movq	%rbx, %rdi
.LEHB61:
	call	_Unwind_Resume@PLT
.LEHE61:
.L367:
.LBE34:
	.loc 14 527 77
	addq	$40, %rsp
	popq	%rbx
	popq	%rbp
	.cfi_def_cfa 7, 8
	ret
	.cfi_endproc
.LFE4561:
	.section	.gcc_except_table
.LLSDA4561:
	.byte	0xff
	.byte	0xff
	.byte	0x1
	.uleb128 .LLSDACSE4561-.LLSDACSB4561
.LLSDACSB4561:
	.uleb128 .LEHB59-.LFB4561
	.uleb128 .LEHE59-.LEHB59
	.uleb128 0
	.uleb128 0
	.uleb128 .LEHB60-.LFB4561
	.uleb128 .LEHE60-.LEHB60
	.uleb128 .L366-.LFB4561
	.uleb128 0
	.uleb128 .LEHB61-.LFB4561
	.uleb128 .LEHE61-.LEHB61
	.uleb128 0
	.uleb128 0
.LLSDACSE4561:
	.section	.text._ZNSt7__cxx1112basic_stringIcSt11char_traitsIcESaIcEEC2IS3_EEPKcRKS3_,"axG",@progbits,_ZNSt7__cxx1112basic_stringIcSt11char_traitsIcESaIcEEC5IS3_EEPKcRKS3_,comdat
	.size	_ZNSt7__cxx1112basic_stringIcSt11char_traitsIcESaIcEEC2IS3_EEPKcRKS3_, .-_ZNSt7__cxx1112basic_stringIcSt11char_traitsIcESaIcEEC2IS3_EEPKcRKS3_
	.weak	_ZNSt7__cxx1112basic_stringIcSt11char_traitsIcESaIcEEC1IS3_EEPKcRKS3_
	.set	_ZNSt7__cxx1112basic_stringIcSt11char_traitsIcESaIcEEC1IS3_EEPKcRKS3_,_ZNSt7__cxx1112basic_stringIcSt11char_traitsIcESaIcEEC2IS3_EEPKcRKS3_
	.section	.text._ZNSt6vectorISt4pairIccESaIS1_EED2Ev,"axG",@progbits,_ZNSt6vectorISt4pairIccESaIS1_EED5Ev,comdat
	.align 2
	.weak	_ZNSt6vectorISt4pairIccESaIS1_EED2Ev
	.type	_ZNSt6vectorISt4pairIccESaIS1_EED2Ev, @function
_ZNSt6vectorISt4pairIccESaIS1_EED2Ev:
.LASANPC4564:
.LFB4564:
	.loc 11 675 7
	.cfi_startproc
	.cfi_personality 0x9b,DW.ref.__gxx_personality_v0
	.cfi_lsda 0x1b,.LLSDA4564
	endbr64
	pushq	%rbp
	.cfi_def_cfa_offset 16
	.cfi_offset 6, -16
	movq	%rsp, %rbp
	.cfi_def_cfa_register 6
	subq	$16, %rsp
	movq	%rdi, -8(%rbp)
.LBB35:
	.loc 11 678 28
	movq	-8(%rbp), %rax
	movq	%rax, %rdi
	call	_ZNSt12_Vector_baseISt4pairIccESaIS1_EE19_M_get_Tp_allocatorEv
	movq	%rax, %rsi
	.loc 11 677 15
	movq	-8(%rbp), %rax
	addq	$8, %rax
	movq	%rax, %rdx
	shrq	$3, %rdx
	addq	$2147450880, %rdx
	movzbl	(%rdx), %edx
	testb	%dl, %dl
	je	.L369
	movq	%rax, %rdi
	call	__asan_report_load8@PLT
.L369:
	movq	-8(%rbp), %rax
	movq	8(%rax), %rcx
	movq	-8(%rbp), %rax
	movq	%rax, %rdx
	shrq	$3, %rdx
	addq	$2147450880, %rdx
	movzbl	(%rdx), %edx
	testb	%dl, %dl
	je	.L370
	movq	%rax, %rdi
	call	__asan_report_load8@PLT
.L370:
	movq	-8(%rbp), %rax
	movq	(%rax), %rax
	movq	%rsi, %rdx
	movq	%rcx, %rsi
	movq	%rax, %rdi
	call	_ZSt8_DestroyIPSt4pairIccES1_EvT_S3_RSaIT0_E
	.loc 11 680 7
	movq	-8(%rbp), %rax
	movq	%rax, %rdi
	call	_ZNSt12_Vector_baseISt4pairIccESaIS1_EED2Ev
.LBE35:
	nop
	leave
	.cfi_def_cfa 7, 8
	ret
	.cfi_endproc
.LFE4564:
	.section	.gcc_except_table
.LLSDA4564:
	.byte	0xff
	.byte	0xff
	.byte	0x1
	.uleb128 .LLSDACSE4564-.LLSDACSB4564
.LLSDACSB4564:
.LLSDACSE4564:
	.section	.text._ZNSt6vectorISt4pairIccESaIS1_EED2Ev,"axG",@progbits,_ZNSt6vectorISt4pairIccESaIS1_EED5Ev,comdat
	.size	_ZNSt6vectorISt4pairIccESaIS1_EED2Ev, .-_ZNSt6vectorISt4pairIccESaIS1_EED2Ev
	.weak	_ZNSt6vectorISt4pairIccESaIS1_EED1Ev
	.set	_ZNSt6vectorISt4pairIccESaIS1_EED1Ev,_ZNSt6vectorISt4pairIccESaIS1_EED2Ev
	.globl	__asan_stack_malloc_2
	.section	.rodata
	.align 8
.LC14:
	.string	"8 48 1 9 <unknown> 64 1 9 <unknown> 80 1 9 <unknown> 96 1 9 <unknown> 112 1 9 <unknown> 128 8 9 <unknown> 160 8 9 <unknown> 192 24 9 <unknown>"
	.section	.text._ZN11GraphMatrixIccEC2ERKSt6vectorIcSaIcEERKS1_ISt4pairIccESaIS7_EE6Direct,"axG",@progbits,_ZN11GraphMatrixIccEC5ERKSt6vectorIcSaIcEERKS1_ISt4pairIccESaIS7_EE6Direct,comdat
	.align 2
	.weak	_ZN11GraphMatrixIccEC2ERKSt6vectorIcSaIcEERKS1_ISt4pairIccESaIS7_EE6Direct
	.type	_ZN11GraphMatrixIccEC2ERKSt6vectorIcSaIcEERKS1_ISt4pairIccESaIS7_EE6Direct, @function
_ZN11GraphMatrixIccEC2ERKSt6vectorIcSaIcEERKS1_ISt4pairIccESaIS7_EE6Direct:
.LASANPC4567:
.LFB4567:
	.loc 13 30 5
	.cfi_startproc
	.cfi_personality 0x9b,DW.ref.__gxx_personality_v0
	.cfi_lsda 0x1b,.LLSDA4567
	endbr64
	pushq	%rbp
	.cfi_def_cfa_offset 16
	.cfi_offset 6, -16
	movq	%rsp, %rbp
	.cfi_def_cfa_register 6
	pushq	%r15
	pushq	%r14
	pushq	%r13
	pushq	%r12
	pushq	%rbx
	subq	$376, %rsp
	.cfi_offset 15, -24
	.cfi_offset 14, -32
	.cfi_offset 13, -40
	.cfi_offset 12, -48
	.cfi_offset 3, -56
	movq	%rdi, -376(%rbp)
	movq	%rsi, -384(%rbp)
	movq	%rdx, -392(%rbp)
	movl	%ecx, -396(%rbp)
	leaq	-336(%rbp), %r13
	movq	%r13, -408(%rbp)
	cmpl	$0, __asan_option_detect_stack_use_after_return(%rip)
	je	.L371
	movl	$256, %edi
	call	__asan_stack_malloc_2@PLT
.LVL11:
	testq	%rax, %rax
	je	.L371
	movq	%rax, %r13
.L371:
	leaq	288(%r13), %rax
	movq	%rax, %rbx
	movq	$1102416563, 0(%r13)
	leaq	.LC14(%rip), %rax
	movq	%rax, 8(%r13)
	leaq	.LASANPC4567(%rip), %rax
	movq	%rax, 16(%r13)
	movq	%r13, %r12
	shrq	$3, %r12
	movl	$-235802127, 2147450880(%r12)
	movl	$-234753551, 2147450884(%r12)
	movl	$-234753535, 2147450888(%r12)
	movl	$-234753535, 2147450892(%r12)
	movl	$-218959360, 2147450896(%r12)
	movl	$-218959360, 2147450900(%r12)
	movl	$-218103808, 2147450904(%r12)
	movl	$-202116109, 2147450908(%r12)
	.loc 13 30 5
	movq	%fs:40, %rax
	movq	%rax, -56(%rbp)
	xorl	%eax, %eax
.LBB36:
	.loc 13 31 172
	movq	-376(%rbp), %r14
	movq	-392(%rbp), %rax
	movq	%rax, %rdi
	call	_ZNKSt6vectorISt4pairIccESaIS1_EE4sizeEv
	movl	%eax, %r15d
	movq	-384(%rbp), %rax
	movq	%rax, %rdi
	call	_ZNKSt6vectorIcSaIcEE4sizeEv
	movl	%eax, %esi
	movl	-396(%rbp), %eax
	movl	%eax, %ecx
	movl	%r15d, %edx
	movq	%r14, %rdi
	call	_ZN5GraphIccEC2Eii6Direct
	leaq	16+_ZTV11GraphMatrixIccE(%rip), %rcx
	movq	-376(%rbp), %rax
	movq	%rax, %rdx
	shrq	$3, %rdx
	addq	$2147450880, %rdx
	movzbl	(%rdx), %edx
	testb	%dl, %dl
	je	.L375
	movq	%rax, %rdi
	call	__asan_report_store8@PLT
.L375:
	movq	-376(%rbp), %rax
	movq	%rcx, (%rax)
	movq	-376(%rbp), %rax
	leaq	24(%rax), %r14
	leaq	-240(%rbx), %rax
	movq	%rax, %rdi
	call	_ZNSaIP6VertexIcEEC1Ev
	leaq	-160(%rbx), %rax
	movq	%rax, %rdx
	shrq	$3, %rdx
	addq	$2147450880, %rdx
	movzbl	(%rdx), %edx
	testb	%dl, %dl
	je	.L376
	movq	%rax, %rdi
	call	__asan_report_store8@PLT
.L376:
	movq	$0, -160(%rbx)
	movq	-384(%rbp), %rax
	movq	%rax, %rdi
	call	_ZNKSt6vectorIcSaIcEE4sizeEv
	movq	%rax, %rsi
	leaq	-240(%rbx), %rdx
	leaq	-160(%rbx), %rax
	movq	%rdx, %rcx
	movq	%rax, %rdx
	movq	%r14, %rdi
.LEHB62:
	call	_ZNSt6vectorIP6VertexIcESaIS2_EEC1EmRKS2_RKS3_
.LEHE62:
	.loc 13 31 172 is_stmt 0 discriminator 2
	leaq	-160(%rbx), %rax
	shrq	$3, %rax
	addq	$2147450880, %rax
	movb	$-8, (%rax)
	leaq	-240(%rbx), %rax
	movq	%rax, %rdi
	call	_ZNSaIP6VertexIcEED1Ev
	leaq	-240(%rbx), %rax
	shrq	$3, %rax
	addq	$2147450880, %rax
	movb	$-8, (%rax)
	movq	-376(%rbp), %rax
	leaq	48(%rax), %r14
	leaq	-208(%rbx), %rax
	shrq	$3, %rax
	addq	$2147450880, %rax
	movb	$1, (%rax)
	leaq	-208(%rbx), %rax
	movq	%rax, %rdi
	call	_ZNSaISt6vectorIP4EdgeIcESaIS2_EEEC1Ev
	leaq	-96(%rbx), %rax
	shrq	$3, %rax
	addq	$2147450880, %rax
	movw	$0, (%rax)
	movb	$0, 2(%rax)
	leaq	-224(%rbx), %rax
	shrq	$3, %rax
	addq	$2147450880, %rax
	movb	$1, (%rax)
	leaq	-224(%rbx), %rax
	movq	%rax, %rdi
	call	_ZNSaIP4EdgeIcEEC1Ev
	leaq	-128(%rbx), %rax
	shrq	$3, %rax
	addq	$2147450880, %rax
	movb	$0, (%rax)
	leaq	-128(%rbx), %rax
	movq	%rax, %rdx
	shrq	$3, %rdx
	addq	$2147450880, %rdx
	movzbl	(%rdx), %edx
	testb	%dl, %dl
	je	.L377
	.loc 13 31 172
	movq	%rax, %rdi
	call	__asan_report_store8@PLT
.L377:
	.loc 13 31 172 discriminator 2
	movq	$0, -128(%rbx)
	movq	-384(%rbp), %rax
	movq	%rax, %rdi
	call	_ZNKSt6vectorIcSaIcEE4sizeEv
	movq	%rax, %rsi
	leaq	-224(%rbx), %rcx
	leaq	-128(%rbx), %rdx
	leaq	-96(%rbx), %rax
	movq	%rax, %rdi
.LEHB63:
	call	_ZNSt6vectorIP4EdgeIcESaIS2_EEC1EmRKS2_RKS3_
.LEHE63:
	.loc 13 31 172 discriminator 4
	movq	-384(%rbp), %rax
	movq	%rax, %rdi
	call	_ZNKSt6vectorIcSaIcEE4sizeEv
	movq	%rax, %rsi
	leaq	-208(%rbx), %rdx
	leaq	-96(%rbx), %rax
	movq	%rdx, %rcx
	movq	%rax, %rdx
	movq	%r14, %rdi
.LEHB64:
	call	_ZNSt6vectorIS_IP4EdgeIcESaIS2_EESaIS4_EEC1EmRKS4_RKS5_
.LEHE64:
	.loc 13 31 172 discriminator 6
	leaq	-96(%rbx), %rax
	movq	%rax, %rdi
	call	_ZNSt6vectorIP4EdgeIcESaIS2_EED1Ev
	leaq	-96(%rbx), %rax
	shrq	$3, %rax
	addq	$2147450880, %rax
	movw	$-1800, (%rax)
	movb	$-8, 2(%rax)
	leaq	-128(%rbx), %rax
	shrq	$3, %rax
	addq	$2147450880, %rax
	movb	$-8, (%rax)
	leaq	-224(%rbx), %rax
	movq	%rax, %rdi
	call	_ZNSaIP4EdgeIcEED1Ev
	leaq	-224(%rbx), %rax
	shrq	$3, %rax
	addq	$2147450880, %rax
	movb	$-8, (%rax)
	leaq	-208(%rbx), %rax
	movq	%rax, %rdi
	call	_ZNSaISt6vectorIP4EdgeIcESaIS2_EEED1Ev
	leaq	-208(%rbx), %rax
	shrq	$3, %rax
	addq	$2147450880, %rax
	movb	$-8, (%rax)
.LBB37:
	.loc 13 34 28 is_stmt 1 discriminator 6
	movq	-384(%rbp), %rax
	movl	$0, %esi
	movq	%rax, %rdi
	call	_ZNKSt6vectorIcSaIcEEixEm
	movq	%rax, %rdx
	.loc 13 34 12 discriminator 6
	movq	%rdx, %rax
	movq	%rax, %rcx
	shrq	$3, %rcx
	addq	$2147450880, %rcx
	movzbl	(%rcx), %ecx
	testb	%cl, %cl
	setne	%sil
	movq	%rax, %rdi
	andl	$7, %edi
	cmpb	%cl, %dil
	setge	%cl
	andl	%esi, %ecx
	testb	%cl, %cl
	je	.L378
	.loc 13 34 12 is_stmt 0
	movq	%rax, %rdi
	call	__asan_report_load1@PLT
.L378:
	.loc 13 34 12 discriminator 6
	movzbl	(%rdx), %eax
	movb	%al, -353(%rbp)
.LBB38:
	.loc 13 35 18 is_stmt 1 discriminator 6
	movl	$0, -352(%rbp)
.L382:
	.loc 13 35 35 discriminator 2
	movq	-376(%rbp), %rax
	addq	$8, %rax
	movq	%rax, %rdx
	movq	%rdx, %rax
	shrq	$3, %rax
	addq	$2147450880, %rax
	movzbl	(%rax), %eax
	testb	%al, %al
	setne	%cl
	cmpb	$3, %al
	setle	%al
	andl	%ecx, %eax
	testb	%al, %al
	je	.L379
	.loc 13 35 35 is_stmt 0
	movq	%rdx, %rdi
	call	__asan_report_load4@PLT
.L379:
	.loc 13 35 35 discriminator 2
	movq	-376(%rbp), %rax
	movl	8(%rax), %eax
	.loc 13 35 27 is_stmt 1 discriminator 2
	cmpl	%eax, -352(%rbp)
	jge	.L380
	.loc 13 36 44
	movl	-352(%rbp), %eax
	movslq	%eax, %rdx
	movq	-384(%rbp), %rax
	movq	%rdx, %rsi
	movq	%rax, %rdi
	call	_ZNKSt6vectorIcSaIcEEixEm
	movq	%rax, %r15
	.loc 13 36 20
	movl	$32, %edi
.LEHB65:
	call	_Znwm@PLT
.LEHE65:
	movq	%rax, %r14
	movq	%r15, %rsi
	movq	%r14, %rdi
	call	_ZN6VertexIcEC1ERKc
	.loc 13 36 14
	movq	-376(%rbp), %rax
	leaq	24(%rax), %rdx
	movl	-352(%rbp), %eax
	cltq
	movq	%rax, %rsi
	movq	%rdx, %rdi
	call	_ZNSt6vectorIP6VertexIcESaIS2_EEixEm
	.loc 13 36 13
	movq	%rax, %rdx
	movq	%rdx, %rcx
	shrq	$3, %rcx
	addq	$2147450880, %rcx
	movzbl	(%rcx), %ecx
	testb	%cl, %cl
	je	.L381
	movq	%rdx, %rdi
	call	__asan_report_store8@PLT
.L381:
	.loc 13 36 13 is_stmt 0 discriminator 1
	movq	%r14, (%rax)
	.loc 13 35 9 is_stmt 1 discriminator 1
	addl	$1, -352(%rbp)
	jmp	.L382
.L380:
.LBE38:
.LBB39:
	.loc 13 37 18
	movl	$0, -348(%rbp)
.L400:
	.loc 13 37 41 discriminator 1
	movq	-376(%rbp), %rax
	addq	$12, %rax
	movq	%rax, %rdx
	shrq	$3, %rdx
	addq	$2147450880, %rdx
	movzbl	(%rdx), %edx
	testb	%dl, %dl
	setne	%cl
	movq	%rax, %rsi
	andl	$7, %esi
	addl	$3, %esi
	cmpb	%dl, %sil
	setge	%dl
	andl	%ecx, %edx
	testb	%dl, %dl
	je	.L383
	.loc 13 37 41 is_stmt 0
	movq	%rax, %rdi
	call	__asan_report_load4@PLT
.L383:
	.loc 13 37 41 discriminator 1
	movq	-376(%rbp), %rax
	movl	12(%rax), %eax
	.loc 13 37 33 is_stmt 1 discriminator 1
	cmpl	%eax, -348(%rbp)
	jge	.L415
	.loc 13 38 28
	movl	-348(%rbp), %eax
	movslq	%eax, %rdx
	movq	-392(%rbp), %rax
	movq	%rdx, %rsi
	movq	%rax, %rdi
	call	_ZNKSt6vectorISt4pairIccESaIS1_EEixEm
	movq	%rax, %rdx
	.loc 13 38 32
	movq	%rdx, %rax
	movq	%rax, %rcx
	shrq	$3, %rcx
	addq	$2147450880, %rcx
	movzbl	(%rcx), %ecx
	testb	%cl, %cl
	setne	%sil
	movq	%rax, %rdi
	andl	$7, %edi
	cmpb	%cl, %dil
	setge	%cl
	andl	%esi, %ecx
	testb	%cl, %cl
	je	.L385
	movq	%rax, %rdi
	call	__asan_report_load1@PLT
.L385:
	movzbl	(%rdx), %eax
	movsbl	%al, %edx
	.loc 13 38 40
	movsbl	-353(%rbp), %eax
	.loc 13 38 79
	subl	%eax, %edx
	movl	%edx, %eax
	movl	%eax, -344(%rbp)
	.loc 13 38 60
	movl	-348(%rbp), %eax
	movslq	%eax, %rdx
	movq	-392(%rbp), %rax
	movq	%rdx, %rsi
	movq	%rax, %rdi
	call	_ZNKSt6vectorISt4pairIccESaIS1_EEixEm
	movq	%rax, %rdx
	.loc 13 38 64
	leaq	1(%rdx), %rax
	movq	%rax, %rcx
	shrq	$3, %rcx
	addq	$2147450880, %rcx
	movzbl	(%rcx), %ecx
	testb	%cl, %cl
	setne	%sil
	movq	%rax, %rdi
	andl	$7, %edi
	cmpb	%cl, %dil
	setge	%cl
	andl	%esi, %ecx
	testb	%cl, %cl
	je	.L386
	movq	%rax, %rdi
	call	__asan_report_load1@PLT
.L386:
	movzbl	1(%rdx), %eax
	movsbl	%al, %edx
	.loc 13 38 73
	movsbl	-353(%rbp), %eax
	.loc 13 38 79
	subl	%eax, %edx
	movl	%edx, %eax
	movl	%eax, -340(%rbp)
	movl	-344(%rbp), %eax
	cmpl	-340(%rbp), %eax
	je	.L387
	.loc 13 38 84 discriminator 1
	movq	-376(%rbp), %rax
	leaq	48(%rax), %rdx
	movl	-344(%rbp), %eax
	cltq
	movq	%rax, %rsi
	movq	%rdx, %rdi
	call	_ZNSt6vectorIS_IP4EdgeIcESaIS2_EESaIS4_EEixEm
	movq	%rax, %rdx
	.loc 13 38 87 discriminator 1
	movl	-340(%rbp), %eax
	cltq
	movq	%rax, %rsi
	movq	%rdx, %rdi
	call	_ZNSt6vectorIP4EdgeIcESaIS2_EEixEm
	.loc 13 38 82 discriminator 1
	movq	%rax, %rdx
	movq	%rdx, %rcx
	shrq	$3, %rcx
	addq	$2147450880, %rcx
	movzbl	(%rcx), %ecx
	testb	%cl, %cl
	je	.L388
	.loc 13 38 82 is_stmt 0
	movq	%rdx, %rdi
	call	__asan_report_load8@PLT
.L388:
	.loc 13 38 82 discriminator 1
	movq	(%rax), %rax
	.loc 13 38 79 is_stmt 1 discriminator 1
	testq	%rax, %rax
	jne	.L387
	.loc 13 38 79 is_stmt 0 discriminator 3
	movl	$1, %eax
	jmp	.L389
.L387:
	.loc 13 38 79 discriminator 4
	movl	$0, %eax
.L389:
	.loc 13 38 13 is_stmt 1 discriminator 6
	testb	%al, %al
	je	.L390
	.file 15 "../src/Graph.h"
	.loc 15 64 28
	leaq	-192(%rbx), %rax
	shrq	$3, %rax
	addq	$2147450880, %rax
	movb	$1, (%rax)
	leaq	-192(%rbx), %rax
	movq	%rax, %rdx
	movq	%rdx, %rax
	shrq	$3, %rax
	addq	$2147450880, %rax
	movzbl	(%rax), %eax
	testb	%al, %al
	setne	%cl
	testb	%al, %al
	setle	%al
	andl	%ecx, %eax
	testb	%al, %al
	je	.L391
	movq	%rdx, %rdi
	call	__asan_report_store1@PLT
.L391:
	movb	$1, -192(%rbx)
	leaq	-192(%rbx), %r14
	.loc 13 40 27
	movl	$12, %edi
.LEHB66:
	call	_Znwm@PLT
.LEHE66:
	movq	%rax, %r15
	movl	$1, %edx
	movq	%r14, %rsi
	movq	%r15, %rdi
	call	_ZN4EdgeIcEC1ERKci
	.loc 13 40 18
	movq	-376(%rbp), %rax
	leaq	48(%rax), %rdx
	movl	-344(%rbp), %eax
	cltq
	movq	%rax, %rsi
	movq	%rdx, %rdi
	call	_ZNSt6vectorIS_IP4EdgeIcESaIS2_EESaIS4_EEixEm
	movq	%rax, %rdx
	.loc 13 40 21
	movl	-340(%rbp), %eax
	cltq
	movq	%rax, %rsi
	movq	%rdx, %rdi
	call	_ZNSt6vectorIP4EdgeIcESaIS2_EEixEm
	.loc 13 40 17
	movq	%rax, %rdx
	movq	%rdx, %rcx
	shrq	$3, %rcx
	addq	$2147450880, %rcx
	movzbl	(%rcx), %ecx
	testb	%cl, %cl
	je	.L392
	movq	%rdx, %rdi
	call	__asan_report_store8@PLT
.L392:
	.loc 13 40 17 is_stmt 0 discriminator 1
	movq	%r15, (%rax)
	.loc 15 64 28 is_stmt 1 discriminator 1
	leaq	-192(%rbx), %rax
	shrq	$3, %rax
	addq	$2147450880, %rax
	movb	$-8, (%rax)
	.loc 13 41 18 discriminator 1
	movq	-376(%rbp), %rax
	leaq	24(%rax), %rdx
	movl	-344(%rbp), %eax
	cltq
	movq	%rax, %rsi
	movq	%rdx, %rdi
	call	_ZNSt6vectorIP6VertexIcESaIS2_EEixEm
	.loc 13 41 23 discriminator 1
	movq	%rax, %rdx
	movq	%rdx, %rcx
	shrq	$3, %rcx
	addq	$2147450880, %rcx
	movzbl	(%rcx), %ecx
	testb	%cl, %cl
	je	.L393
	.loc 13 41 23 is_stmt 0
	movq	%rdx, %rdi
	call	__asan_report_load8@PLT
.L393:
	.loc 13 41 23 discriminator 1
	movq	(%rax), %rax
	leaq	8(%rax), %rdx
	movq	%rdx, %rcx
	shrq	$3, %rcx
	addq	$2147450880, %rcx
	movzbl	(%rcx), %ecx
	testb	%cl, %cl
	setne	%sil
	movq	%rdx, %rdi
	andl	$7, %edi
	addl	$3, %edi
	cmpb	%cl, %dil
	setge	%cl
	andl	%esi, %ecx
	testb	%cl, %cl
	je	.L394
	.loc 13 41 23
	movq	%rdx, %rdi
	call	__asan_report_load4@PLT
.L394:
	.loc 13 41 23 discriminator 1
	movl	8(%rax), %edx
	.loc 13 41 17 is_stmt 1 discriminator 1
	addl	$1, %edx
	movl	%edx, 8(%rax)
	.loc 13 42 18 discriminator 1
	movq	-376(%rbp), %rax
	leaq	24(%rax), %rdx
	movl	-340(%rbp), %eax
	cltq
	movq	%rax, %rsi
	movq	%rdx, %rdi
	call	_ZNSt6vectorIP6VertexIcESaIS2_EEixEm
	.loc 13 42 23 discriminator 1
	movq	%rax, %rdx
	movq	%rdx, %rcx
	shrq	$3, %rcx
	addq	$2147450880, %rcx
	movzbl	(%rcx), %ecx
	testb	%cl, %cl
	je	.L395
	.loc 13 42 23 is_stmt 0
	movq	%rdx, %rdi
	call	__asan_report_load8@PLT
.L395:
	.loc 13 42 23 discriminator 1
	movq	(%rax), %rax
	leaq	4(%rax), %rdx
	movq	%rdx, %rcx
	shrq	$3, %rcx
	addq	$2147450880, %rcx
	movzbl	(%rcx), %ecx
	testb	%cl, %cl
	setne	%sil
	movq	%rdx, %rdi
	andl	$7, %edi
	addl	$3, %edi
	cmpb	%cl, %dil
	setge	%cl
	andl	%esi, %ecx
	testb	%cl, %cl
	je	.L396
	.loc 13 42 23
	movq	%rdx, %rdi
	call	__asan_report_load4@PLT
.L396:
	.loc 13 42 23 discriminator 1
	movl	4(%rax), %edx
	.loc 13 42 17 is_stmt 1 discriminator 1
	addl	$1, %edx
	movl	%edx, 4(%rax)
	.loc 13 43 27 discriminator 1
	movq	-376(%rbp), %rax
	addq	$16, %rax
	movq	%rax, %rdx
	movq	%rdx, %rax
	shrq	$3, %rax
	addq	$2147450880, %rax
	movzbl	(%rax), %eax
	testb	%al, %al
	setne	%cl
	cmpb	$3, %al
	setle	%al
	andl	%ecx, %eax
	testb	%al, %al
	je	.L397
	.loc 13 43 27 is_stmt 0
	movq	%rdx, %rdi
	call	__asan_report_load4@PLT
.L397:
	.loc 13 43 27 discriminator 1
	movq	-376(%rbp), %rax
	movl	16(%rax), %eax
	.loc 13 43 17 is_stmt 1 discriminator 1
	testl	%eax, %eax
	jne	.L390
	.loc 15 64 28
	leaq	-176(%rbx), %rax
	shrq	$3, %rax
	addq	$2147450880, %rax
	movb	$1, (%rax)
	leaq	-176(%rbx), %rax
	movq	%rax, %rdx
	movq	%rdx, %rax
	shrq	$3, %rax
	addq	$2147450880, %rax
	movzbl	(%rax), %eax
	testb	%al, %al
	setne	%cl
	testb	%al, %al
	setle	%al
	andl	%ecx, %eax
	testb	%al, %al
	je	.L398
	movq	%rdx, %rdi
	call	__asan_report_store1@PLT
.L398:
	movb	$1, -176(%rbx)
	leaq	-176(%rbx), %r14
	.loc 13 44 31
	movl	$12, %edi
.LEHB67:
	call	_Znwm@PLT
.LEHE67:
	movq	%rax, %r15
	movl	$1, %edx
	movq	%r14, %rsi
	movq	%r15, %rdi
	call	_ZN4EdgeIcEC1ERKci
	.loc 13 44 22
	movq	-376(%rbp), %rax
	leaq	48(%rax), %rdx
	movl	-340(%rbp), %eax
	cltq
	movq	%rax, %rsi
	movq	%rdx, %rdi
	call	_ZNSt6vectorIS_IP4EdgeIcESaIS2_EESaIS4_EEixEm
	movq	%rax, %rdx
	.loc 13 44 25
	movl	-344(%rbp), %eax
	cltq
	movq	%rax, %rsi
	movq	%rdx, %rdi
	call	_ZNSt6vectorIP4EdgeIcESaIS2_EEixEm
	.loc 13 44 21
	movq	%rax, %rdx
	movq	%rdx, %rcx
	shrq	$3, %rcx
	addq	$2147450880, %rcx
	movzbl	(%rcx), %ecx
	testb	%cl, %cl
	je	.L399
	movq	%rdx, %rdi
	call	__asan_report_store8@PLT
.L399:
	.loc 13 44 21 is_stmt 0 discriminator 1
	movq	%r15, (%rax)
	.loc 15 64 28 is_stmt 1 discriminator 1
	leaq	-176(%rbx), %rax
	shrq	$3, %rax
	addq	$2147450880, %rax
	movb	$-8, (%rax)
.L390:
	.loc 13 37 9 discriminator 2
	addl	$1, -348(%rbp)
	jmp	.L400
.L409:
	endbr64
.LBE39:
.LBE37:
	.loc 13 31 172
	leaq	-160(%rbx), %rdx
	shrq	$3, %rdx
	addq	$2147450880, %rdx
	movb	$-8, (%rdx)
	movq	%rax, %r12
	leaq	-240(%rbx), %rax
	movq	%rax, %rdi
	call	_ZNSaIP6VertexIcEED1Ev
	movq	%r12, %rbx
	call	__asan_handle_no_return@PLT
	movq	%rbx, %rdi
.LEHB68:
	call	_Unwind_Resume@PLT
.L411:
	endbr64
	movq	%rax, %r12
	leaq	-96(%rbx), %rax
	movq	%rax, %rdi
	call	_ZNSt6vectorIP4EdgeIcESaIS2_EED1Ev
	movq	%r12, %rdx
	leaq	-96(%rbx), %rax
	shrq	$3, %rax
	addq	$2147450880, %rax
	movw	$-1800, (%rax)
	movb	$-8, 2(%rax)
	movq	%rdx, %rax
	jmp	.L403
.L410:
	endbr64
.L403:
	.loc 13 31 172 is_stmt 0 discriminator 3
	leaq	-128(%rbx), %rdx
	shrq	$3, %rdx
	addq	$2147450880, %rdx
	movb	$-8, (%rdx)
	movq	%rax, %r12
	leaq	-224(%rbx), %rax
	movq	%rax, %rdi
	call	_ZNSaIP4EdgeIcEED1Ev
	movq	%r12, %rdx
	leaq	-224(%rbx), %rax
	shrq	$3, %rax
	addq	$2147450880, %rax
	movb	$-8, (%rax)
	movq	%rdx, %r12
	leaq	-208(%rbx), %rax
	movq	%rax, %rdi
	call	_ZNSaISt6vectorIP4EdgeIcESaIS2_EEED1Ev
	movq	%r12, %rdx
	leaq	-208(%rbx), %rax
	shrq	$3, %rax
	addq	$2147450880, %rax
	movb	$-8, (%rax)
	movq	%rdx, %rbx
	jmp	.L404
.L413:
	endbr64
.LBB41:
.LBB40:
	.loc 15 64 28 is_stmt 1
	leaq	-192(%rbx), %rdx
	shrq	$3, %rdx
	addq	$2147450880, %rdx
	movb	$-8, (%rdx)
	movq	%rax, %rbx
	jmp	.L406
.L414:
	endbr64
	leaq	-176(%rbx), %rdx
	shrq	$3, %rdx
	addq	$2147450880, %rdx
	movb	$-8, (%rdx)
	movq	%rax, %rbx
	jmp	.L406
.L412:
	endbr64
	movq	%rax, %rbx
.L406:
.LBE40:
.LBE41:
	.loc 13 31 172
	movq	-376(%rbp), %rax
	addq	$48, %rax
	movq	%rax, %rdi
	call	_ZNSt6vectorIS_IP4EdgeIcESaIS2_EESaIS4_EED1Ev
.L404:
	movq	-376(%rbp), %rax
	addq	$24, %rax
	movq	%rax, %rdi
	call	_ZNSt6vectorIP6VertexIcESaIS2_EED1Ev
	call	__asan_handle_no_return@PLT
	movq	%rbx, %rdi
	call	_Unwind_Resume@PLT
.LEHE68:
.L415:
.LBE36:
	.loc 13 46 5
	nop
	.loc 13 30 5
	cmpq	%r13, -408(%rbp)
	je	.L372
	movq	$1172321806, 0(%r13)
	movabsq	$-723401728380766731, %rax
	movabsq	$-723401728380766731, %rdx
	movq	%rax, 2147450880(%r12)
	movq	%rdx, 2147450888(%r12)
	movq	%rax, 2147450896(%r12)
	movq	%rdx, 2147450904(%r12)
	movq	248(%r13), %rax
	movb	$0, (%rax)
	jmp	.L373
.L372:
	movq	$0, 2147450880(%r12)
	movq	$0, 2147450888(%r12)
	movq	$0, 2147450896(%r12)
	movq	$0, 2147450904(%r12)
.L373:
	.loc 13 46 5
	movq	-56(%rbp), %rax
	xorq	%fs:40, %rax
	je	.L408
	call	__stack_chk_fail@PLT
.L408:
	addq	$376, %rsp
	popq	%rbx
	popq	%r12
	popq	%r13
	popq	%r14
	popq	%r15
	popq	%rbp
	.cfi_def_cfa 7, 8
	ret
	.cfi_endproc
.LFE4567:
	.section	.gcc_except_table
.LLSDA4567:
	.byte	0xff
	.byte	0xff
	.byte	0x1
	.uleb128 .LLSDACSE4567-.LLSDACSB4567
.LLSDACSB4567:
	.uleb128 .LEHB62-.LFB4567
	.uleb128 .LEHE62-.LEHB62
	.uleb128 .L409-.LFB4567
	.uleb128 0
	.uleb128 .LEHB63-.LFB4567
	.uleb128 .LEHE63-.LEHB63
	.uleb128 .L410-.LFB4567
	.uleb128 0
	.uleb128 .LEHB64-.LFB4567
	.uleb128 .LEHE64-.LEHB64
	.uleb128 .L411-.LFB4567
	.uleb128 0
	.uleb128 .LEHB65-.LFB4567
	.uleb128 .LEHE65-.LEHB65
	.uleb128 .L412-.LFB4567
	.uleb128 0
	.uleb128 .LEHB66-.LFB4567
	.uleb128 .LEHE66-.LEHB66
	.uleb128 .L413-.LFB4567
	.uleb128 0
	.uleb128 .LEHB67-.LFB4567
	.uleb128 .LEHE67-.LEHB67
	.uleb128 .L414-.LFB4567
	.uleb128 0
	.uleb128 .LEHB68-.LFB4567
	.uleb128 .LEHE68-.LEHB68
	.uleb128 0
	.uleb128 0
.LLSDACSE4567:
	.section	.text._ZN11GraphMatrixIccEC2ERKSt6vectorIcSaIcEERKS1_ISt4pairIccESaIS7_EE6Direct,"axG",@progbits,_ZN11GraphMatrixIccEC5ERKSt6vectorIcSaIcEERKS1_ISt4pairIccESaIS7_EE6Direct,comdat
	.size	_ZN11GraphMatrixIccEC2ERKSt6vectorIcSaIcEERKS1_ISt4pairIccESaIS7_EE6Direct, .-_ZN11GraphMatrixIccEC2ERKSt6vectorIcSaIcEERKS1_ISt4pairIccESaIS7_EE6Direct
	.weak	_ZN11GraphMatrixIccEC1ERKSt6vectorIcSaIcEERKS1_ISt4pairIccESaIS7_EE6Direct
	.set	_ZN11GraphMatrixIccEC1ERKSt6vectorIcSaIcEERKS1_ISt4pairIccESaIS7_EE6Direct,_ZN11GraphMatrixIccEC2ERKSt6vectorIcSaIcEERKS1_ISt4pairIccESaIS7_EE6Direct
	.section	.text._ZN11GraphMatrixIccED2Ev,"axG",@progbits,_ZN11GraphMatrixIccED5Ev,comdat
	.align 2
	.weak	_ZN11GraphMatrixIccED2Ev
	.type	_ZN11GraphMatrixIccED2Ev, @function
_ZN11GraphMatrixIccED2Ev:
.LASANPC4570:
.LFB4570:
	.loc 13 64 5
	.cfi_startproc
	endbr64
	pushq	%rbp
	.cfi_def_cfa_offset 16
	.cfi_offset 6, -16
	movq	%rsp, %rbp
	.cfi_def_cfa_register 6
	subq	$32, %rsp
	movq	%rdi, -24(%rbp)
.LBB42:
	.loc 13 72 5
	leaq	16+_ZTV11GraphMatrixIccE(%rip), %rcx
	movq	-24(%rbp), %rax
	movq	%rax, %rdx
	shrq	$3, %rdx
	addq	$2147450880, %rdx
	movzbl	(%rdx), %edx
	testb	%dl, %dl
	je	.L417
	movq	%rax, %rdi
	call	__asan_report_store8@PLT
.L417:
	movq	-24(%rbp), %rax
	movq	%rcx, (%rax)
.LBB43:
.LBB44:
	.loc 13 66 18
	movl	$0, -8(%rbp)
.L427:
	.loc 13 66 35 discriminator 1
	movq	-24(%rbp), %rax
	addq	$8, %rax
	movq	%rax, %rdx
	movq	%rdx, %rax
	shrq	$3, %rax
	addq	$2147450880, %rax
	movzbl	(%rax), %eax
	testb	%al, %al
	setne	%cl
	cmpb	$3, %al
	setle	%al
	andl	%ecx, %eax
	testb	%al, %al
	je	.L418
	.loc 13 66 35 is_stmt 0
	movq	%rdx, %rdi
	call	__asan_report_load4@PLT
.L418:
	.loc 13 66 35 discriminator 1
	movq	-24(%rbp), %rax
	movl	8(%rax), %eax
	.loc 13 66 27 is_stmt 1 discriminator 1
	cmpl	%eax, -8(%rbp)
	jge	.L419
.LBB45:
	.loc 13 68 21
	movq	-24(%rbp), %rax
	leaq	24(%rax), %rdx
	movl	-8(%rbp), %eax
	cltq
	movq	%rax, %rsi
	movq	%rdx, %rdi
	call	_ZNSt6vectorIP6VertexIcESaIS2_EEixEm
	.loc 13 68 13
	movq	%rax, %rdx
	movq	%rdx, %rcx
	shrq	$3, %rcx
	addq	$2147450880, %rcx
	movzbl	(%rcx), %ecx
	testb	%cl, %cl
	je	.L420
	movq	%rdx, %rdi
	call	__asan_report_load8@PLT
.L420:
	movq	(%rax), %rax
	testq	%rax, %rax
	je	.L421
	.loc 13 68 13 is_stmt 0 discriminator 1
	movl	$32, %esi
	movq	%rax, %rdi
	call	_ZdlPvm@PLT
.L421:
.LBB46:
	.loc 13 69 22 is_stmt 1
	movl	$0, -4(%rbp)
.L426:
	.loc 13 69 39 discriminator 1
	movq	-24(%rbp), %rax
	addq	$8, %rax
	movq	%rax, %rdx
	movq	%rdx, %rax
	shrq	$3, %rax
	addq	$2147450880, %rax
	movzbl	(%rax), %eax
	testb	%al, %al
	setne	%cl
	cmpb	$3, %al
	setle	%al
	andl	%ecx, %eax
	testb	%al, %al
	je	.L422
	.loc 13 69 39 is_stmt 0
	movq	%rdx, %rdi
	call	__asan_report_load4@PLT
.L422:
	.loc 13 69 39 discriminator 1
	movq	-24(%rbp), %rax
	movl	8(%rax), %eax
	.loc 13 69 31 is_stmt 1 discriminator 1
	cmpl	%eax, -4(%rbp)
	jge	.L423
	.loc 13 70 25
	movq	-24(%rbp), %rax
	leaq	48(%rax), %rdx
	movl	-8(%rbp), %eax
	cltq
	movq	%rax, %rsi
	movq	%rdx, %rdi
	call	_ZNSt6vectorIS_IP4EdgeIcESaIS2_EESaIS4_EEixEm
	movq	%rax, %rdx
	.loc 13 70 28
	movl	-4(%rbp), %eax
	cltq
	movq	%rax, %rsi
	movq	%rdx, %rdi
	call	_ZNSt6vectorIP4EdgeIcESaIS2_EEixEm
	.loc 13 70 17
	movq	%rax, %rdx
	movq	%rdx, %rcx
	shrq	$3, %rcx
	addq	$2147450880, %rcx
	movzbl	(%rcx), %ecx
	testb	%cl, %cl
	je	.L424
	movq	%rdx, %rdi
	call	__asan_report_load8@PLT
.L424:
	movq	(%rax), %rax
	testq	%rax, %rax
	je	.L425
	.loc 13 70 17 is_stmt 0 discriminator 1
	movl	$12, %esi
	movq	%rax, %rdi
	call	_ZdlPvm@PLT
.L425:
	.loc 13 69 13 is_stmt 1 discriminator 2
	addl	$1, -4(%rbp)
	jmp	.L426
.L423:
.LBE46:
.LBE45:
	.loc 13 66 9 discriminator 2
	addl	$1, -8(%rbp)
	jmp	.L427
.L419:
.LBE44:
.LBE43:
	.loc 13 72 5
	movq	-24(%rbp), %rax
	addq	$48, %rax
	movq	%rax, %rdi
	call	_ZNSt6vectorIS_IP4EdgeIcESaIS2_EESaIS4_EED1Ev
	movq	-24(%rbp), %rax
	addq	$24, %rax
	movq	%rax, %rdi
	call	_ZNSt6vectorIP6VertexIcESaIS2_EED1Ev
.LBE42:
	nop
	leave
	.cfi_def_cfa 7, 8
	ret
	.cfi_endproc
.LFE4570:
	.size	_ZN11GraphMatrixIccED2Ev, .-_ZN11GraphMatrixIccED2Ev
	.weak	_ZN11GraphMatrixIccED1Ev
	.set	_ZN11GraphMatrixIccED1Ev,_ZN11GraphMatrixIccED2Ev
	.section	.rodata
	.align 32
.LC15:
	.string	"insert"
	.zero	57
	.align 32
.LC16:
	.string	"../src/GraphMatrix.h"
	.zero	43
	.align 32
.LC17:
	.string	"\033[1;35m  LOG(%s:%s:%d):\t\033[32merror loc to insert edge from index %d to %d\n"
	.zero	53
	.section	.text._ZN11GraphMatrixIccE6insertEiiiRKc,"axG",@progbits,_ZN11GraphMatrixIccE6insertEiiiRKc,comdat
	.align 2
	.weak	_ZN11GraphMatrixIccE6insertEiiiRKc
	.type	_ZN11GraphMatrixIccE6insertEiiiRKc, @function
_ZN11GraphMatrixIccE6insertEiiiRKc:
.LASANPC4572:
.LFB4572:
	.loc 13 156 6
	.cfi_startproc
	endbr64
	pushq	%rbp
	.cfi_def_cfa_offset 16
	.cfi_offset 6, -16
	movq	%rsp, %rbp
	.cfi_def_cfa_register 6
	pushq	%rbx
	subq	$40, %rsp
	.cfi_offset 3, -24
	movq	%rdi, -24(%rbp)
	movl	%esi, -28(%rbp)
	movl	%edx, -32(%rbp)
	movl	%ecx, -36(%rbp)
	movq	%r8, -48(%rbp)
	.loc 13 158 22
	movq	-24(%rbp), %rax
	movq	%rax, %rdx
	shrq	$3, %rdx
	addq	$2147450880, %rdx
	movzbl	(%rdx), %edx
	testb	%dl, %dl
	je	.L429
	movq	%rax, %rdi
	call	__asan_report_load8@PLT
.L429:
	movq	-24(%rbp), %rax
	movq	(%rax), %rax
	addq	$112, %rax
	movq	%rax, %rdx
	movq	%rdx, %rcx
	shrq	$3, %rcx
	addq	$2147450880, %rcx
	movzbl	(%rcx), %ecx
	testb	%cl, %cl
	je	.L430
	movq	%rdx, %rdi
	call	__asan_report_load8@PLT
.L430:
	movq	(%rax), %r8
	movl	-32(%rbp), %edx
	movl	-28(%rbp), %ecx
	movq	-24(%rbp), %rax
	movl	%ecx, %esi
	movq	%rax, %rdi
	call	*%r8
.LVL12:
	.loc 13 158 36
	testb	%al, %al
	jne	.L431
	.loc 13 158 25 discriminator 2
	movq	-24(%rbp), %rax
	movq	%rax, %rdx
	shrq	$3, %rdx
	addq	$2147450880, %rdx
	movzbl	(%rdx), %edx
	testb	%dl, %dl
	je	.L432
	.loc 13 158 25 is_stmt 0
	movq	%rax, %rdi
	call	__asan_report_load8@PLT
.L432:
	.loc 13 158 25 discriminator 2
	movq	-24(%rbp), %rax
	movq	(%rax), %rax
	addq	$104, %rax
	movq	%rax, %rdx
	movq	%rdx, %rcx
	shrq	$3, %rcx
	addq	$2147450880, %rcx
	movzbl	(%rcx), %ecx
	testb	%cl, %cl
	je	.L433
	.loc 13 158 25
	movq	%rdx, %rdi
	call	__asan_report_load8@PLT
.L433:
	.loc 13 158 25 discriminator 2
	movq	(%rax), %rcx
	movl	-28(%rbp), %edx
	movq	-24(%rbp), %rax
	movl	%edx, %esi
	movq	%rax, %rdi
	call	*%rcx
.LVL13:
	xorl	$1, %eax
	.loc 13 158 22 is_stmt 1 discriminator 2
	testb	%al, %al
	jne	.L431
	.loc 13 158 39 discriminator 4
	movq	-24(%rbp), %rax
	movq	%rax, %rdx
	shrq	$3, %rdx
	addq	$2147450880, %rdx
	movzbl	(%rdx), %edx
	testb	%dl, %dl
	je	.L434
	.loc 13 158 39 is_stmt 0
	movq	%rax, %rdi
	call	__asan_report_load8@PLT
.L434:
	.loc 13 158 39 discriminator 4
	movq	-24(%rbp), %rax
	movq	(%rax), %rax
	addq	$104, %rax
	movq	%rax, %rdx
	movq	%rdx, %rcx
	shrq	$3, %rcx
	addq	$2147450880, %rcx
	movzbl	(%rcx), %ecx
	testb	%cl, %cl
	je	.L435
	.loc 13 158 39
	movq	%rdx, %rdi
	call	__asan_report_load8@PLT
.L435:
	.loc 13 158 39 discriminator 4
	movq	(%rax), %rcx
	movl	-32(%rbp), %edx
	movq	-24(%rbp), %rax
	movl	%edx, %esi
	movq	%rax, %rdi
	call	*%rcx
.LVL14:
	xorl	$1, %eax
	.loc 13 158 36 is_stmt 1 discriminator 4
	testb	%al, %al
	je	.L436
.L431:
	.loc 13 158 36 is_stmt 0 discriminator 5
	movl	$1, %eax
	jmp	.L437
.L436:
	.loc 13 158 36 discriminator 6
	movl	$0, %eax
.L437:
	.loc 13 158 5 is_stmt 1 discriminator 8
	testb	%al, %al
	je	.L438
	.loc 13 160 16
	leaq	stderr(%rip), %rax
	movq	%rax, %rdx
	shrq	$3, %rdx
	addq	$2147450880, %rdx
	movzbl	(%rdx), %edx
	testb	%dl, %dl
	je	.L439
	movq	%rax, %rdi
	call	__asan_report_load8@PLT
.L439:
	movq	stderr(%rip), %rax
	movl	-28(%rbp), %ecx
	subq	$8, %rsp
	movl	-32(%rbp), %edx
	pushq	%rdx
	movl	%ecx, %r9d
	movl	$160, %r8d
	leaq	.LC15(%rip), %rcx
	leaq	.LC16(%rip), %rdx
	leaq	.LC17(%rip), %rsi
	movq	%rax, %rdi
	movl	$0, %eax
	call	fprintf@PLT
	addq	$16, %rsp
	.loc 13 161 9
	jmp	.L428
.L438:
	.loc 13 163 15
	movl	$12, %edi
	call	_Znwm@PLT
	movq	%rax, %rbx
	movl	-36(%rbp), %edx
	movq	-48(%rbp), %rax
	movq	%rax, %rsi
	movq	%rbx, %rdi
	call	_ZN4EdgeIcEC1ERKci
	.loc 13 163 6
	movq	-24(%rbp), %rax
	leaq	48(%rax), %rdx
	movl	-28(%rbp), %eax
	cltq
	movq	%rax, %rsi
	movq	%rdx, %rdi
	call	_ZNSt6vectorIS_IP4EdgeIcESaIS2_EESaIS4_EEixEm
	movq	%rax, %rdx
	.loc 13 163 9
	movl	-32(%rbp), %eax
	cltq
	movq	%rax, %rsi
	movq	%rdx, %rdi
	call	_ZNSt6vectorIP4EdgeIcESaIS2_EEixEm
	.loc 13 163 5
	movq	%rax, %rdx
	movq	%rdx, %rcx
	shrq	$3, %rcx
	addq	$2147450880, %rcx
	movzbl	(%rcx), %ecx
	testb	%cl, %cl
	je	.L441
	movq	%rdx, %rdi
	call	__asan_report_store8@PLT
.L441:
	movq	%rbx, (%rax)
	.loc 13 164 11
	movq	-24(%rbp), %rax
	addq	$12, %rax
	movq	%rax, %rdx
	shrq	$3, %rdx
	addq	$2147450880, %rdx
	movzbl	(%rdx), %edx
	testb	%dl, %dl
	setne	%cl
	movq	%rax, %rsi
	andl	$7, %esi
	addl	$3, %esi
	cmpb	%dl, %sil
	setge	%dl
	andl	%ecx, %edx
	testb	%dl, %dl
	je	.L442
	movq	%rax, %rdi
	call	__asan_report_load4@PLT
.L442:
	movq	-24(%rbp), %rax
	movl	12(%rax), %eax
	.loc 13 164 5
	leal	1(%rax), %edx
	movq	-24(%rbp), %rax
	movl	%edx, 12(%rax)
	.loc 13 165 6
	movq	-24(%rbp), %rax
	leaq	24(%rax), %rdx
	movl	-32(%rbp), %eax
	cltq
	movq	%rax, %rsi
	movq	%rdx, %rdi
	call	_ZNSt6vectorIP6VertexIcESaIS2_EEixEm
	.loc 13 165 11
	movq	%rax, %rdx
	movq	%rdx, %rcx
	shrq	$3, %rcx
	addq	$2147450880, %rcx
	movzbl	(%rcx), %ecx
	testb	%cl, %cl
	je	.L443
	movq	%rdx, %rdi
	call	__asan_report_load8@PLT
.L443:
	movq	(%rax), %rax
	leaq	4(%rax), %rdx
	movq	%rdx, %rcx
	shrq	$3, %rcx
	addq	$2147450880, %rcx
	movzbl	(%rcx), %ecx
	testb	%cl, %cl
	setne	%sil
	movq	%rdx, %rdi
	andl	$7, %edi
	addl	$3, %edi
	cmpb	%cl, %dil
	setge	%cl
	andl	%esi, %ecx
	testb	%cl, %cl
	je	.L444
	movq	%rdx, %rdi
	call	__asan_report_load4@PLT
.L444:
	movl	4(%rax), %edx
	.loc 13 165 5
	addl	$1, %edx
	movl	%edx, 4(%rax)
	.loc 13 166 6
	movq	-24(%rbp), %rax
	leaq	24(%rax), %rdx
	movl	-28(%rbp), %eax
	cltq
	movq	%rax, %rsi
	movq	%rdx, %rdi
	call	_ZNSt6vectorIP6VertexIcESaIS2_EEixEm
	.loc 13 166 11
	movq	%rax, %rdx
	movq	%rdx, %rcx
	shrq	$3, %rcx
	addq	$2147450880, %rcx
	movzbl	(%rcx), %ecx
	testb	%cl, %cl
	je	.L445
	movq	%rdx, %rdi
	call	__asan_report_load8@PLT
.L445:
	movq	(%rax), %rax
	leaq	8(%rax), %rdx
	movq	%rdx, %rcx
	shrq	$3, %rcx
	addq	$2147450880, %rcx
	movzbl	(%rcx), %ecx
	testb	%cl, %cl
	setne	%sil
	movq	%rdx, %rdi
	andl	$7, %edi
	addl	$3, %edi
	cmpb	%cl, %dil
	setge	%cl
	andl	%esi, %ecx
	testb	%cl, %cl
	je	.L446
	movq	%rdx, %rdi
	call	__asan_report_load4@PLT
.L446:
	movl	8(%rax), %edx
	.loc 13 166 5
	addl	$1, %edx
	movl	%edx, 8(%rax)
	.loc 13 167 15
	movq	-24(%rbp), %rax
	addq	$16, %rax
	movq	%rax, %rdx
	movq	%rdx, %rax
	shrq	$3, %rax
	addq	$2147450880, %rax
	movzbl	(%rax), %eax
	testb	%al, %al
	setne	%cl
	cmpb	$3, %al
	setle	%al
	andl	%ecx, %eax
	testb	%al, %al
	je	.L447
	movq	%rdx, %rdi
	call	__asan_report_load4@PLT
.L447:
	movq	-24(%rbp), %rax
	movl	16(%rax), %eax
	.loc 13 167 5
	testl	%eax, %eax
	jne	.L428
	.loc 13 168 19
	movl	$12, %edi
	call	_Znwm@PLT
	movq	%rax, %rbx
	movl	-36(%rbp), %edx
	movq	-48(%rbp), %rax
	movq	%rax, %rsi
	movq	%rbx, %rdi
	call	_ZN4EdgeIcEC1ERKci
	.loc 13 168 10
	movq	-24(%rbp), %rax
	leaq	48(%rax), %rdx
	movl	-32(%rbp), %eax
	cltq
	movq	%rax, %rsi
	movq	%rdx, %rdi
	call	_ZNSt6vectorIS_IP4EdgeIcESaIS2_EESaIS4_EEixEm
	movq	%rax, %rdx
	.loc 13 168 13
	movl	-28(%rbp), %eax
	cltq
	movq	%rax, %rsi
	movq	%rdx, %rdi
	call	_ZNSt6vectorIP4EdgeIcESaIS2_EEixEm
	.loc 13 168 9
	movq	%rax, %rdx
	movq	%rdx, %rcx
	shrq	$3, %rcx
	addq	$2147450880, %rcx
	movzbl	(%rcx), %ecx
	testb	%cl, %cl
	je	.L448
	movq	%rdx, %rdi
	call	__asan_report_store8@PLT
.L448:
	movq	%rbx, (%rax)
.L428:
	.loc 13 169 1
	movq	-8(%rbp), %rbx
	leave
	.cfi_def_cfa 7, 8
	ret
	.cfi_endproc
.LFE4572:
	.size	_ZN11GraphMatrixIccE6insertEiiiRKc, .-_ZN11GraphMatrixIccE6insertEiiiRKc
	.section	.text._ZNSt12_Vector_baseISt6vectorIbSaIbEESaIS2_EE12_Vector_implD2Ev,"axG",@progbits,_ZNSt12_Vector_baseISt6vectorIbSaIbEESaIS2_EE12_Vector_implD5Ev,comdat
	.align 2
	.weak	_ZNSt12_Vector_baseISt6vectorIbSaIbEESaIS2_EE12_Vector_implD2Ev
	.type	_ZNSt12_Vector_baseISt6vectorIbSaIbEESaIS2_EE12_Vector_implD2Ev, @function
_ZNSt12_Vector_baseISt6vectorIbSaIbEESaIS2_EE12_Vector_implD2Ev:
.LASANPC4578:
.LFB4578:
	.loc 11 125 14
	.cfi_startproc
	endbr64
	pushq	%rbp
	.cfi_def_cfa_offset 16
	.cfi_offset 6, -16
	movq	%rsp, %rbp
	.cfi_def_cfa_register 6
	subq	$16, %rsp
	movq	%rdi, -8(%rbp)
.LBB47:
	.loc 11 125 14
	movq	-8(%rbp), %rax
	movq	%rax, %rdi
	call	_ZNSaISt6vectorIbSaIbEEED2Ev
.LBE47:
	nop
	leave
	.cfi_def_cfa 7, 8
	ret
	.cfi_endproc
.LFE4578:
	.size	_ZNSt12_Vector_baseISt6vectorIbSaIbEESaIS2_EE12_Vector_implD2Ev, .-_ZNSt12_Vector_baseISt6vectorIbSaIbEESaIS2_EE12_Vector_implD2Ev
	.weak	_ZNSt12_Vector_baseISt6vectorIbSaIbEESaIS2_EE12_Vector_implD1Ev
	.set	_ZNSt12_Vector_baseISt6vectorIbSaIbEESaIS2_EE12_Vector_implD1Ev,_ZNSt12_Vector_baseISt6vectorIbSaIbEESaIS2_EE12_Vector_implD2Ev
	.section	.text._ZNSt12_Vector_baseISt6vectorIbSaIbEESaIS2_EEC2EOS4_,"axG",@progbits,_ZNSt12_Vector_baseISt6vectorIbSaIbEESaIS2_EEC5EOS4_,comdat
	.align 2
	.weak	_ZNSt12_Vector_baseISt6vectorIbSaIbEESaIS2_EEC2EOS4_
	.type	_ZNSt12_Vector_baseISt6vectorIbSaIbEESaIS2_EEC2EOS4_, @function
_ZNSt12_Vector_baseISt6vectorIbSaIbEESaIS2_EEC2EOS4_:
.LASANPC4580:
.LFB4580:
	.loc 11 305 7
	.cfi_startproc
	endbr64
	pushq	%rbp
	.cfi_def_cfa_offset 16
	.cfi_offset 6, -16
	movq	%rsp, %rbp
	.cfi_def_cfa_register 6
	subq	$16, %rsp
	movq	%rdi, -8(%rbp)
	movq	%rsi, -16(%rbp)
.LBB48:
	.loc 11 305 7
	movq	-8(%rbp), %rax
	movq	-16(%rbp), %rdx
	movq	%rdx, %rsi
	movq	%rax, %rdi
	call	_ZNSt12_Vector_baseISt6vectorIbSaIbEESaIS2_EE12_Vector_implC1EOS5_
.LBE48:
	nop
	leave
	.cfi_def_cfa 7, 8
	ret
	.cfi_endproc
.LFE4580:
	.size	_ZNSt12_Vector_baseISt6vectorIbSaIbEESaIS2_EEC2EOS4_, .-_ZNSt12_Vector_baseISt6vectorIbSaIbEESaIS2_EEC2EOS4_
	.weak	_ZNSt12_Vector_baseISt6vectorIbSaIbEESaIS2_EEC1EOS4_
	.set	_ZNSt12_Vector_baseISt6vectorIbSaIbEESaIS2_EEC1EOS4_,_ZNSt12_Vector_baseISt6vectorIbSaIbEESaIS2_EEC2EOS4_
	.section	.text._ZNSt6vectorIS_IbSaIbEESaIS1_EEC2EOS3_,"axG",@progbits,_ZNSt6vectorIS_IbSaIbEESaIS1_EEC5EOS3_,comdat
	.align 2
	.weak	_ZNSt6vectorIS_IbSaIbEESaIS1_EEC2EOS3_
	.type	_ZNSt6vectorIS_IbSaIbEESaIS1_EEC2EOS3_, @function
_ZNSt6vectorIS_IbSaIbEESaIS1_EEC2EOS3_:
.LASANPC4582:
.LFB4582:
	.loc 11 569 7
	.cfi_startproc
	endbr64
	pushq	%rbp
	.cfi_def_cfa_offset 16
	.cfi_offset 6, -16
	movq	%rsp, %rbp
	.cfi_def_cfa_register 6
	subq	$16, %rsp
	movq	%rdi, -8(%rbp)
	movq	%rsi, -16(%rbp)
.LBB49:
	.loc 11 569 7
	movq	-8(%rbp), %rax
	movq	-16(%rbp), %rdx
	movq	%rdx, %rsi
	movq	%rax, %rdi
	call	_ZNSt12_Vector_baseISt6vectorIbSaIbEESaIS2_EEC2EOS4_
.LBE49:
	nop
	leave
	.cfi_def_cfa 7, 8
	ret
	.cfi_endproc
.LFE4582:
	.size	_ZNSt6vectorIS_IbSaIbEESaIS1_EEC2EOS3_, .-_ZNSt6vectorIS_IbSaIbEESaIS1_EEC2EOS3_
	.weak	_ZNSt6vectorIS_IbSaIbEESaIS1_EEC1EOS3_
	.set	_ZNSt6vectorIS_IbSaIbEESaIS1_EEC1EOS3_,_ZNSt6vectorIS_IbSaIbEESaIS1_EEC2EOS3_
	.section	.text._ZN6MatrixIbEC2EOS0_,"axG",@progbits,_ZN6MatrixIbEC5EOS0_,comdat
	.align 2
	.weak	_ZN6MatrixIbEC2EOS0_
	.type	_ZN6MatrixIbEC2EOS0_, @function
_ZN6MatrixIbEC2EOS0_:
.LASANPC4584:
.LFB4584:
	.loc 10 16 8
	.cfi_startproc
	endbr64
	pushq	%rbp
	.cfi_def_cfa_offset 16
	.cfi_offset 6, -16
	movq	%rsp, %rbp
	.cfi_def_cfa_register 6
	subq	$16, %rsp
	movq	%rdi, -8(%rbp)
	movq	%rsi, -16(%rbp)
.LBB50:
	.loc 10 16 8
	movq	-8(%rbp), %rax
	movq	-16(%rbp), %rdx
	movq	%rdx, %rsi
	movq	%rax, %rdi
	call	_ZNSt6vectorIS_IbSaIbEESaIS1_EEC1EOS3_
	movq	-16(%rbp), %rax
	addq	$24, %rax
	movq	%rax, %rdx
	shrq	$3, %rdx
	addq	$2147450880, %rdx
	movzbl	(%rdx), %edx
	testb	%dl, %dl
	je	.L453
	movq	%rax, %rdi
	call	__asan_report_load8@PLT
.L453:
	movq	-16(%rbp), %rax
	movq	24(%rax), %rdx
	movq	-8(%rbp), %rax
	addq	$24, %rax
	movq	%rax, %rcx
	shrq	$3, %rcx
	addq	$2147450880, %rcx
	movzbl	(%rcx), %ecx
	testb	%cl, %cl
	je	.L454
	movq	%rax, %rdi
	call	__asan_report_store8@PLT
.L454:
	movq	-8(%rbp), %rax
	movq	%rdx, 24(%rax)
	movq	-16(%rbp), %rax
	addq	$32, %rax
	movq	%rax, %rdx
	shrq	$3, %rdx
	addq	$2147450880, %rdx
	movzbl	(%rdx), %edx
	testb	%dl, %dl
	je	.L455
	movq	%rax, %rdi
	call	__asan_report_load8@PLT
.L455:
	movq	-16(%rbp), %rax
	movq	32(%rax), %rdx
	movq	-8(%rbp), %rax
	addq	$32, %rax
	movq	%rax, %rcx
	shrq	$3, %rcx
	addq	$2147450880, %rcx
	movzbl	(%rcx), %ecx
	testb	%cl, %cl
	je	.L456
	movq	%rax, %rdi
	call	__asan_report_store8@PLT
.L456:
	movq	-8(%rbp), %rax
	movq	%rdx, 32(%rax)
.LBE50:
	nop
	leave
	.cfi_def_cfa 7, 8
	ret
	.cfi_endproc
.LFE4584:
	.size	_ZN6MatrixIbEC2EOS0_, .-_ZN6MatrixIbEC2EOS0_
	.weak	_ZN6MatrixIbEC1EOS0_
	.set	_ZN6MatrixIbEC1EOS0_,_ZN6MatrixIbEC2EOS0_
	.section	.text._ZN11GraphMatrixIccE14adjacentMatrixEv,"axG",@progbits,_ZN11GraphMatrixIccE14adjacentMatrixEv,comdat
	.align 2
	.weak	_ZN11GraphMatrixIccE14adjacentMatrixEv
	.type	_ZN11GraphMatrixIccE14adjacentMatrixEv, @function
_ZN11GraphMatrixIccE14adjacentMatrixEv:
.LASANPC4573:
.LFB4573:
	.loc 13 189 14
	.cfi_startproc
	endbr64
	pushq	%rbp
	.cfi_def_cfa_offset 16
	.cfi_offset 6, -16
	movq	%rsp, %rbp
	.cfi_def_cfa_register 6
	pushq	%r14
	pushq	%r13
	pushq	%r12
	pushq	%rbx
	addq	$-128, %rsp
	.cfi_offset 14, -24
	.cfi_offset 13, -32
	.cfi_offset 12, -40
	.cfi_offset 3, -48
	movq	%rdi, -152(%rbp)
	movq	%rsi, -160(%rbp)
	leaq	-128(%rbp), %rbx
	movq	%rbx, %r14
	cmpl	$0, __asan_option_detect_stack_use_after_return(%rip)
	je	.L457
	movl	$64, %edi
	call	__asan_stack_malloc_0@PLT
.LVL15:
	testq	%rax, %rax
	je	.L457
	movq	%rax, %rbx
.L457:
	leaq	96(%rbx), %rax
	movq	%rax, %r12
	movq	$1102416563, (%rbx)
	leaq	.LC0(%rip), %rax
	movq	%rax, 8(%rbx)
	leaq	.LASANPC4573(%rip), %rax
	movq	%rax, 16(%rbx)
	movq	%rbx, %r13
	shrq	$3, %r13
	movl	$-235802127, 2147450880(%r13)
	movl	$-202178560, 2147450884(%r13)
	.loc 13 189 14
	movq	%fs:40, %rax
	movq	%rax, -40(%rbp)
	xorl	%eax, %eax
	.loc 13 191 37
	movq	-160(%rbp), %rax
	addq	$8, %rax
	movq	%rax, %rdx
	movq	%rdx, %rax
	shrq	$3, %rax
	addq	$2147450880, %rax
	movzbl	(%rax), %eax
	testb	%al, %al
	setne	%cl
	cmpb	$3, %al
	setle	%al
	andl	%ecx, %eax
	testb	%al, %al
	je	.L461
	movq	%rdx, %rdi
	call	__asan_report_load4@PLT
.L461:
	movq	-160(%rbp), %rax
	movl	8(%rax), %eax
	.loc 13 191 18
	movslq	%eax, %rdx
	.loc 13 191 28
	movq	-160(%rbp), %rax
	movl	8(%rax), %eax
	.loc 13 191 18
	movslq	%eax, %rcx
	movq	-152(%rbp), %rax
	movq	%rcx, %rsi
	movq	%rax, %rdi
	call	_ZN6MatrixIbEC1Emm
.LBB51:
	.loc 13 192 14
	movl	$0, -136(%rbp)
.L470:
	.loc 13 192 31 discriminator 1
	movq	-160(%rbp), %rax
	addq	$8, %rax
	movq	%rax, %rdx
	movq	%rdx, %rax
	shrq	$3, %rax
	addq	$2147450880, %rax
	movzbl	(%rax), %eax
	testb	%al, %al
	setne	%cl
	cmpb	$3, %al
	setle	%al
	andl	%ecx, %eax
	testb	%al, %al
	je	.L462
	.loc 13 192 31 is_stmt 0
	movq	%rdx, %rdi
	call	__asan_report_load4@PLT
.L462:
	.loc 13 192 31 discriminator 1
	movq	-160(%rbp), %rax
	movl	8(%rax), %eax
	.loc 13 192 23 is_stmt 1 discriminator 1
	cmpl	%eax, -136(%rbp)
	jge	.L473
.LBB52:
.LBB53:
	.loc 13 193 18
	movl	$0, -132(%rbp)
.L469:
	.loc 13 193 35 discriminator 1
	movq	-160(%rbp), %rax
	addq	$8, %rax
	movq	%rax, %rdx
	movq	%rdx, %rax
	shrq	$3, %rax
	addq	$2147450880, %rax
	movzbl	(%rax), %eax
	testb	%al, %al
	setne	%cl
	cmpb	$3, %al
	setle	%al
	andl	%ecx, %eax
	testb	%al, %al
	je	.L464
	.loc 13 193 35 is_stmt 0
	movq	%rdx, %rdi
	call	__asan_report_load4@PLT
.L464:
	.loc 13 193 35 discriminator 1
	movq	-160(%rbp), %rax
	movl	8(%rax), %eax
	.loc 13 193 27 is_stmt 1 discriminator 1
	cmpl	%eax, -132(%rbp)
	jge	.L465
	.loc 13 194 18
	movq	-160(%rbp), %rax
	leaq	48(%rax), %rdx
	movl	-136(%rbp), %eax
	cltq
	movq	%rax, %rsi
	movq	%rdx, %rdi
	call	_ZNSt6vectorIS_IP4EdgeIcESaIS2_EESaIS4_EEixEm
	movq	%rax, %rdx
	.loc 13 194 21
	movl	-132(%rbp), %eax
	cltq
	movq	%rax, %rsi
	movq	%rdx, %rdi
	call	_ZNSt6vectorIP4EdgeIcESaIS2_EEixEm
	.loc 13 194 13
	movq	%rax, %rdx
	movq	%rdx, %rcx
	shrq	$3, %rcx
	addq	$2147450880, %rcx
	movzbl	(%rcx), %ecx
	testb	%cl, %cl
	je	.L466
	movq	%rdx, %rdi
	call	__asan_report_load8@PLT
.L466:
	movq	(%rax), %rax
	testq	%rax, %rax
	setne	%al
	testb	%al, %al
	je	.L467
	.loc 13 195 17
	leaq	-64(%r12), %rax
	shrq	$3, %rax
	addq	$2147450880, %rax
	movw	$0, (%rax)
	.loc 13 195 27
	movl	-136(%rbp), %eax
	movslq	%eax, %rdx
	movq	-152(%rbp), %rax
	movq	%rdx, %rsi
	movq	%rax, %rdi
	call	_ZN6MatrixIbEixEm
	movq	%rax, %rdi
	movl	-132(%rbp), %eax
	cltq
	leaq	-64(%r12), %rdx
	movq	%rdx, %rcx
	shrq	$3, %rcx
	addq	$2147450880, %rcx
	movzwl	(%rcx), %ecx
	testw	%cx, %cx
	je	.L468
	movq	%rdx, %rdi
	call	__asan_report_store16@PLT
.L468:
	movq	%rax, %rsi
	call	_ZNSt6vectorIbSaIbEEixEm
	movq	%rax, -64(%r12)
	movq	%rdx, -56(%r12)
	leaq	-64(%r12), %rax
	movl	$1, %esi
	movq	%rax, %rdi
	call	_ZNSt14_Bit_referenceaSEb
	leaq	-64(%r12), %rax
	shrq	$3, %rax
	addq	$2147450880, %rax
	movw	$-1800, (%rax)
.L467:
	.loc 13 193 9 discriminator 2
	addl	$1, -132(%rbp)
	jmp	.L469
.L465:
.LBE53:
.LBE52:
	.loc 13 192 5 discriminator 2
	addl	$1, -136(%rbp)
	jmp	.L470
.L473:
.LBE51:
	.loc 13 196 12
	nop
	.loc 13 189 14
	cmpq	%rbx, %r14
	je	.L458
	movq	$1172321806, (%rbx)
	movabsq	$-723401728380766731, %rax
	movq	%rax, 2147450880(%r13)
	movq	56(%rbx), %rax
	movb	$0, (%rax)
	jmp	.L459
.L458:
	movq	$0, 2147450880(%r13)
.L459:
	.loc 13 197 1
	movq	-40(%rbp), %rax
	xorq	%fs:40, %rax
	je	.L472
	call	__stack_chk_fail@PLT
.L472:
	movq	-152(%rbp), %rax
	subq	$-128, %rsp
	popq	%rbx
	popq	%r12
	popq	%r13
	popq	%r14
	popq	%rbp
	.cfi_def_cfa 7, 8
	ret
	.cfi_endproc
.LFE4573:
	.size	_ZN11GraphMatrixIccE14adjacentMatrixEv, .-_ZN11GraphMatrixIccE14adjacentMatrixEv
	.section	.text._ZNSt6vectorIS_IbSaIbEESaIS1_EED2Ev,"axG",@progbits,_ZNSt6vectorIS_IbSaIbEESaIS1_EED5Ev,comdat
	.align 2
	.weak	_ZNSt6vectorIS_IbSaIbEESaIS1_EED2Ev
	.type	_ZNSt6vectorIS_IbSaIbEESaIS1_EED2Ev, @function
_ZNSt6vectorIS_IbSaIbEESaIS1_EED2Ev:
.LASANPC4587:
.LFB4587:
	.loc 11 675 7
	.cfi_startproc
	.cfi_personality 0x9b,DW.ref.__gxx_personality_v0
	.cfi_lsda 0x1b,.LLSDA4587
	endbr64
	pushq	%rbp
	.cfi_def_cfa_offset 16
	.cfi_offset 6, -16
	movq	%rsp, %rbp
	.cfi_def_cfa_register 6
	subq	$16, %rsp
	movq	%rdi, -8(%rbp)
.LBB54:
	.loc 11 678 28
	movq	-8(%rbp), %rax
	movq	%rax, %rdi
	call	_ZNSt12_Vector_baseISt6vectorIbSaIbEESaIS2_EE19_M_get_Tp_allocatorEv
	movq	%rax, %rsi
	.loc 11 677 15
	movq	-8(%rbp), %rax
	addq	$8, %rax
	movq	%rax, %rdx
	shrq	$3, %rdx
	addq	$2147450880, %rdx
	movzbl	(%rdx), %edx
	testb	%dl, %dl
	je	.L475
	movq	%rax, %rdi
	call	__asan_report_load8@PLT
.L475:
	movq	-8(%rbp), %rax
	movq	8(%rax), %rcx
	movq	-8(%rbp), %rax
	movq	%rax, %rdx
	shrq	$3, %rdx
	addq	$2147450880, %rdx
	movzbl	(%rdx), %edx
	testb	%dl, %dl
	je	.L476
	movq	%rax, %rdi
	call	__asan_report_load8@PLT
.L476:
	movq	-8(%rbp), %rax
	movq	(%rax), %rax
	movq	%rsi, %rdx
	movq	%rcx, %rsi
	movq	%rax, %rdi
	call	_ZSt8_DestroyIPSt6vectorIbSaIbEES2_EvT_S4_RSaIT0_E
	.loc 11 680 7
	movq	-8(%rbp), %rax
	movq	%rax, %rdi
	call	_ZNSt12_Vector_baseISt6vectorIbSaIbEESaIS2_EED2Ev
.LBE54:
	nop
	leave
	.cfi_def_cfa 7, 8
	ret
	.cfi_endproc
.LFE4587:
	.section	.gcc_except_table
.LLSDA4587:
	.byte	0xff
	.byte	0xff
	.byte	0x1
	.uleb128 .LLSDACSE4587-.LLSDACSB4587
.LLSDACSB4587:
.LLSDACSE4587:
	.section	.text._ZNSt6vectorIS_IbSaIbEESaIS1_EED2Ev,"axG",@progbits,_ZNSt6vectorIS_IbSaIbEESaIS1_EED5Ev,comdat
	.size	_ZNSt6vectorIS_IbSaIbEESaIS1_EED2Ev, .-_ZNSt6vectorIS_IbSaIbEESaIS1_EED2Ev
	.weak	_ZNSt6vectorIS_IbSaIbEESaIS1_EED1Ev
	.set	_ZNSt6vectorIS_IbSaIbEESaIS1_EED1Ev,_ZNSt6vectorIS_IbSaIbEESaIS1_EED2Ev
	.section	.text._ZlsIbERSoS0_RK6MatrixIT_E,"axG",@progbits,_ZlsIbERSoS0_RK6MatrixIT_E,comdat
	.weak	_ZlsIbERSoS0_RK6MatrixIT_E
	.type	_ZlsIbERSoS0_RK6MatrixIT_E, @function
_ZlsIbERSoS0_RK6MatrixIT_E:
.LASANPC4589:
.LFB4589:
	.loc 10 213 15
	.cfi_startproc
	endbr64
	pushq	%rbp
	.cfi_def_cfa_offset 16
	.cfi_offset 6, -16
	movq	%rsp, %rbp
	.cfi_def_cfa_register 6
	pushq	%rbx
	subq	$40, %rsp
	.cfi_offset 3, -24
	movq	%rdi, -40(%rbp)
	movq	%rsi, -48(%rbp)
.LBB55:
	.loc 10 215 17
	movq	$0, -32(%rbp)
.L483:
	.loc 10 215 30 discriminator 1
	movq	-48(%rbp), %rax
	addq	$24, %rax
	movq	%rax, %rdx
	shrq	$3, %rdx
	addq	$2147450880, %rdx
	movzbl	(%rdx), %edx
	testb	%dl, %dl
	je	.L478
	.loc 10 215 30 is_stmt 0
	movq	%rax, %rdi
	call	__asan_report_load8@PLT
.L478:
	.loc 10 215 30 discriminator 1
	movq	-48(%rbp), %rax
	movq	24(%rax), %rax
	.loc 10 215 26 is_stmt 1 discriminator 1
	cmpq	%rax, -32(%rbp)
	jnb	.L479
.LBB56:
.LBB57:
	.loc 10 217 21
	movq	$0, -24(%rbp)
.L482:
	.loc 10 217 34 discriminator 3
	movq	-48(%rbp), %rax
	addq	$32, %rax
	movq	%rax, %rdx
	shrq	$3, %rdx
	addq	$2147450880, %rdx
	movzbl	(%rdx), %edx
	testb	%dl, %dl
	je	.L480
	.loc 10 217 34 is_stmt 0
	movq	%rax, %rdi
	call	__asan_report_load8@PLT
.L480:
	.loc 10 217 34 discriminator 3
	movq	-48(%rbp), %rax
	movq	32(%rax), %rax
	.loc 10 217 30 is_stmt 1 discriminator 3
	cmpq	%rax, -24(%rbp)
	jnb	.L481
	.loc 10 218 33 discriminator 2
	movl	$2, %edi
	call	_ZSt4setwi
	movl	%eax, %edx
	movq	-40(%rbp), %rax
	movl	%edx, %esi
	movq	%rax, %rdi
	call	_ZStlsIcSt11char_traitsIcEERSt13basic_ostreamIT_T0_ES6_St5_Setw@PLT
	movq	%rax, %rbx
	movl	$32, %edi
	call	_ZSt11setiosflagsSt13_Ios_Fmtflags
	movl	%eax, %esi
	movq	%rbx, %rdi
	call	_ZStlsIcSt11char_traitsIcEERSt13basic_ostreamIT_T0_ES6_St12_Setiosflags@PLT
	movq	%rax, %rbx
	.loc 10 218 80 discriminator 2
	movq	-48(%rbp), %rax
	movq	-32(%rbp), %rdx
	movq	%rdx, %rsi
	movq	%rax, %rdi
	call	_ZNKSt6vectorIS_IbSaIbEESaIS1_EEixEm
	movq	%rax, %rdx
	.loc 10 218 83 discriminator 2
	movq	-24(%rbp), %rax
	movq	%rax, %rsi
	movq	%rdx, %rdi
	call	_ZNKSt6vectorIbSaIbEEixEm
	.loc 10 218 69 discriminator 2
	movzbl	%al, %eax
	movl	%eax, %esi
	movq	%rbx, %rdi
	call	_ZNSolsEb@PLT
	.loc 10 218 87 discriminator 2
	movl	$32, %esi
	movq	%rax, %rdi
	call	_ZStlsISt11char_traitsIcEERSt13basic_ostreamIcT_ES5_c@PLT
	.loc 10 217 9 discriminator 2
	addq	$1, -24(%rbp)
	jmp	.L482
.L481:
.LBE57:
	.loc 10 219 13 discriminator 2
	movq	-40(%rbp), %rax
	movq	_ZSt4endlIcSt11char_traitsIcEERSt13basic_ostreamIT_T0_ES6_@GOTPCREL(%rip), %rdx
	movq	%rdx, %rsi
	movq	%rax, %rdi
	call	_ZNSolsEPFRSoS_E@PLT
.LBE56:
	.loc 10 215 5 discriminator 2
	addq	$1, -32(%rbp)
	jmp	.L483
.L479:
.LBE55:
	.loc 10 221 12
	movq	-40(%rbp), %rax
	.loc 10 222 1
	addq	$40, %rsp
	popq	%rbx
	popq	%rbp
	.cfi_def_cfa 7, 8
	ret
	.cfi_endproc
.LFE4589:
	.size	_ZlsIbERSoS0_RK6MatrixIT_E, .-_ZlsIbERSoS0_RK6MatrixIT_E
	.globl	__asan_stack_malloc_3
	.section	.rodata
	.align 8
.LC18:
	.string	"9 32 8 9 <unknown> 64 8 9 <unknown> 96 8 9 <unknown> 128 8 9 <unknown> 160 8 9 <unknown> 192 8 9 <unknown> 224 8 9 <unknown> 256 8 9 <unknown> 288 8 9 <unknown>"
	.align 32
.LC19:
	.string	"remove"
	.zero	57
	.align 32
.LC20:
	.string	"\033[1;35m  LOG(%s:%s:%d):\t\033[32merror loc to remove vertex at index %d"
	.zero	60
	.section	.text._ZN11GraphMatrixIccE6removeEi,"axG",@progbits,_ZN11GraphMatrixIccE6removeEi,comdat
	.align 2
	.weak	_ZN11GraphMatrixIccE6removeEi
	.type	_ZN11GraphMatrixIccE6removeEi, @function
_ZN11GraphMatrixIccE6removeEi:
.LASANPC4590:
.LFB4590:
	.loc 13 133 6
	.cfi_startproc
	endbr64
	pushq	%rbp
	.cfi_def_cfa_offset 16
	.cfi_offset 6, -16
	movq	%rsp, %rbp
	.cfi_def_cfa_register 6
	pushq	%r15
	pushq	%r14
	pushq	%r13
	pushq	%r12
	pushq	%rbx
	subq	$408, %rsp
	.cfi_offset 15, -24
	.cfi_offset 14, -32
	.cfi_offset 13, -40
	.cfi_offset 12, -48
	.cfi_offset 3, -56
	movq	%rdi, -424(%rbp)
	movl	%esi, -428(%rbp)
	leaq	-400(%rbp), %r13
	movq	%r13, -440(%rbp)
	cmpl	$0, __asan_option_detect_stack_use_after_return(%rip)
	je	.L485
	movl	$320, %edi
	call	__asan_stack_malloc_3@PLT
.LVL16:
	testq	%rax, %rax
	je	.L485
	movq	%rax, %r13
.L485:
	leaq	352(%r13), %rax
	movq	%rax, %rbx
	movq	$1102416563, 0(%r13)
	leaq	.LC18(%rip), %rax
	movq	%rax, 8(%r13)
	leaq	.LASANPC4590(%rip), %rax
	movq	%rax, 16(%r13)
	movq	%r13, %r12
	shrq	$3, %r12
	movl	$-235802127, 2147450880(%r12)
	movl	$-218959360, 2147450884(%r12)
	movl	$-218959360, 2147450888(%r12)
	movl	$-218959360, 2147450892(%r12)
	movl	$-218959360, 2147450896(%r12)
	movl	$-218959360, 2147450900(%r12)
	movl	$-218959360, 2147450904(%r12)
	movl	$-218959360, 2147450908(%r12)
	movl	$-218959360, 2147450912(%r12)
	movl	$-202116352, 2147450916(%r12)
	.loc 13 133 6
	movq	%fs:40, %rax
	movq	%rax, -56(%rbp)
	xorl	%eax, %eax
	.loc 13 135 9
	movq	-424(%rbp), %rax
	movq	%rax, %rdx
	shrq	$3, %rdx
	addq	$2147450880, %rdx
	movzbl	(%rdx), %edx
	testb	%dl, %dl
	je	.L489
	movq	%rax, %rdi
	call	__asan_report_load8@PLT
.L489:
	movq	-424(%rbp), %rax
	movq	(%rax), %rax
	addq	$104, %rax
	movq	%rax, %rdx
	movq	%rdx, %rcx
	shrq	$3, %rcx
	addq	$2147450880, %rcx
	movzbl	(%rcx), %ecx
	testb	%cl, %cl
	je	.L490
	movq	%rdx, %rdi
	call	__asan_report_load8@PLT
.L490:
	movq	(%rax), %rcx
	movl	-428(%rbp), %edx
	movq	-424(%rbp), %rax
	movl	%edx, %esi
	movq	%rax, %rdi
	call	*%rcx
.LVL17:
	xorl	$1, %eax
	.loc 13 135 5
	testb	%al, %al
	je	.L491
	.loc 13 137 16
	leaq	stderr(%rip), %rax
	movq	%rax, %rdx
	shrq	$3, %rdx
	addq	$2147450880, %rdx
	movzbl	(%rdx), %edx
	testb	%dl, %dl
	je	.L492
	movq	%rax, %rdi
	call	__asan_report_load8@PLT
.L492:
	movq	stderr(%rip), %rax
	movl	-428(%rbp), %edx
	movl	%edx, %r9d
	movl	$137, %r8d
	leaq	.LC19(%rip), %rcx
	leaq	.LC16(%rip), %rdx
	leaq	.LC20(%rip), %rsi
	movq	%rax, %rdi
	movl	$0, %eax
	call	fprintf@PLT
	.loc 13 138 9
	jmp	.L488
.L491:
.LBB58:
	.loc 13 141 14
	movl	$0, -404(%rbp)
.L505:
	.loc 13 141 31 discriminator 1
	movq	-424(%rbp), %rax
	addq	$8, %rax
	movq	%rax, %rdx
	movq	%rdx, %rax
	shrq	$3, %rax
	addq	$2147450880, %rax
	movzbl	(%rax), %eax
	testb	%al, %al
	setne	%cl
	cmpb	$3, %al
	setle	%al
	andl	%ecx, %eax
	testb	%al, %al
	je	.L494
	.loc 13 141 31 is_stmt 0
	movq	%rdx, %rdi
	call	__asan_report_load4@PLT
.L494:
	.loc 13 141 31 discriminator 1
	movq	-424(%rbp), %rax
	movl	8(%rax), %eax
	.loc 13 141 23 is_stmt 1 discriminator 1
	cmpl	%eax, -404(%rbp)
	jge	.L495
	.loc 13 143 9
	movq	-424(%rbp), %rax
	movq	%rax, %rdx
	shrq	$3, %rdx
	addq	$2147450880, %rdx
	movzbl	(%rdx), %edx
	testb	%dl, %dl
	je	.L496
	movq	%rax, %rdi
	call	__asan_report_load8@PLT
.L496:
	movq	-424(%rbp), %rax
	movq	(%rax), %rax
	subq	$-128, %rax
	movq	%rax, %rdx
	movq	%rdx, %rcx
	shrq	$3, %rcx
	addq	$2147450880, %rcx
	movzbl	(%rcx), %ecx
	testb	%cl, %cl
	je	.L497
	movq	%rdx, %rdi
	call	__asan_report_load8@PLT
.L497:
	movq	(%rax), %r8
	movl	-404(%rbp), %edx
	movl	-428(%rbp), %ecx
	movq	-424(%rbp), %rax
	movl	%ecx, %esi
	movq	%rax, %rdi
	call	*%r8
.LVL18:
	.loc 13 144 19
	movq	-424(%rbp), %rax
	addq	$16, %rax
	movq	%rax, %rdx
	movq	%rdx, %rax
	shrq	$3, %rax
	addq	$2147450880, %rax
	movzbl	(%rax), %eax
	testb	%al, %al
	setne	%cl
	cmpb	$3, %al
	setle	%al
	andl	%ecx, %eax
	testb	%al, %al
	je	.L498
	movq	%rdx, %rdi
	call	__asan_report_load4@PLT
.L498:
	movq	-424(%rbp), %rax
	movl	16(%rax), %eax
	.loc 13 144 9
	cmpl	$1, %eax
	jne	.L499
	.loc 13 146 13
	movq	-424(%rbp), %rax
	movq	%rax, %rdx
	shrq	$3, %rdx
	addq	$2147450880, %rdx
	movzbl	(%rdx), %edx
	testb	%dl, %dl
	je	.L500
	movq	%rax, %rdi
	call	__asan_report_load8@PLT
.L500:
	movq	-424(%rbp), %rax
	movq	(%rax), %rax
	subq	$-128, %rax
	movq	%rax, %rdx
	movq	%rdx, %rcx
	shrq	$3, %rcx
	addq	$2147450880, %rcx
	movzbl	(%rcx), %ecx
	testb	%cl, %cl
	je	.L501
	movq	%rdx, %rdi
	call	__asan_report_load8@PLT
.L501:
	movq	(%rax), %r8
	movl	-428(%rbp), %edx
	movl	-404(%rbp), %ecx
	movq	-424(%rbp), %rax
	movl	%ecx, %esi
	movq	%rax, %rdi
	call	*%r8
.LVL19:
	.loc 13 147 14
	movq	-424(%rbp), %rax
	leaq	48(%rax), %rdx
	movl	-404(%rbp), %eax
	cltq
	movq	%rax, %rsi
	movq	%rdx, %rdi
	call	_ZNSt6vectorIS_IP4EdgeIcESaIS2_EESaIS4_EEixEm
	movq	%rax, %r15
	.loc 13 147 13
	leaq	-256(%rbx), %rax
	shrq	$3, %rax
	addq	$2147450880, %rax
	movb	$0, (%rax)
	leaq	-288(%rbx), %rax
	shrq	$3, %rax
	addq	$2147450880, %rax
	movb	$0, (%rax)
	.loc 13 147 37
	movl	-428(%rbp), %eax
	movslq	%eax, %r14
	leaq	-320(%rbx), %rax
	shrq	$3, %rax
	addq	$2147450880, %rax
	movb	$0, (%rax)
	.loc 13 147 25
	movq	-424(%rbp), %rax
	leaq	48(%rax), %rdx
	movl	-404(%rbp), %eax
	cltq
	movq	%rax, %rsi
	movq	%rdx, %rdi
	call	_ZNSt6vectorIS_IP4EdgeIcESaIS2_EESaIS4_EEixEm
	movq	%rax, %rcx
	.loc 13 147 37
	leaq	-320(%rbx), %rax
	movq	%rax, %rdx
	shrq	$3, %rdx
	addq	$2147450880, %rdx
	movzbl	(%rdx), %edx
	testb	%dl, %dl
	je	.L502
	movq	%rax, %rdi
	call	__asan_report_store8@PLT
.L502:
	movq	%rcx, %rdi
	call	_ZNSt6vectorIP4EdgeIcESaIS2_EE5beginEv
	movq	%rax, -320(%rbx)
	leaq	-288(%rbx), %rax
	movq	%rax, %rdx
	shrq	$3, %rdx
	addq	$2147450880, %rdx
	movzbl	(%rdx), %edx
	testb	%dl, %dl
	je	.L503
	movq	%rax, %rdi
	call	__asan_report_store8@PLT
.L503:
	leaq	-320(%rbx), %rax
	movq	%r14, %rsi
	movq	%rax, %rdi
	call	_ZNK9__gnu_cxx17__normal_iteratorIPP4EdgeIcESt6vectorIS3_SaIS3_EEEplEl
	movq	%rax, -288(%rbx)
	.loc 13 147 13
	leaq	-288(%rbx), %rdx
	leaq	-256(%rbx), %rax
	movq	%rdx, %rsi
	movq	%rax, %rdi
	call	_ZN9__gnu_cxx17__normal_iteratorIPKP4EdgeIcESt6vectorIS3_SaIS3_EEEC1IPS3_EERKNS0_IT_NS_11__enable_ifIXsrSt10__are_sameISC_SB_E7__valueES8_E6__typeEEE
	leaq	-256(%rbx), %rax
	movq	%rax, %rdx
	shrq	$3, %rdx
	addq	$2147450880, %rdx
	movzbl	(%rdx), %edx
	testb	%dl, %dl
	je	.L504
	movq	%rax, %rdi
	call	__asan_report_load8@PLT
.L504:
	movq	-256(%rbx), %rax
	movq	%rax, %rsi
	movq	%r15, %rdi
	call	_ZNSt6vectorIP4EdgeIcESaIS2_EE5eraseEN9__gnu_cxx17__normal_iteratorIPKS2_S4_EE
	leaq	-256(%rbx), %rax
	shrq	$3, %rax
	addq	$2147450880, %rax
	movb	$-8, (%rax)
	.loc 13 147 37
	leaq	-288(%rbx), %rax
	shrq	$3, %rax
	addq	$2147450880, %rax
	movb	$-8, (%rax)
	leaq	-320(%rbx), %rax
	shrq	$3, %rax
	addq	$2147450880, %rax
	movb	$-8, (%rax)
.L499:
	.loc 13 141 5 discriminator 2
	addl	$1, -404(%rbp)
	jmp	.L505
.L495:
.LBE58:
	.loc 13 150 5
	movq	-424(%rbp), %rax
	leaq	48(%rax), %r15
	leaq	-160(%rbx), %rax
	shrq	$3, %rax
	addq	$2147450880, %rax
	movb	$0, (%rax)
	leaq	-192(%rbx), %rax
	shrq	$3, %rax
	addq	$2147450880, %rax
	movb	$0, (%rax)
	.loc 13 150 23
	movl	-428(%rbp), %eax
	movslq	%eax, %r14
	leaq	-224(%rbx), %rax
	shrq	$3, %rax
	addq	$2147450880, %rax
	movb	$0, (%rax)
	movq	-424(%rbp), %rax
	leaq	48(%rax), %rdx
	leaq	-224(%rbx), %rax
	movq	%rax, %rcx
	shrq	$3, %rcx
	addq	$2147450880, %rcx
	movzbl	(%rcx), %ecx
	testb	%cl, %cl
	je	.L506
	movq	%rax, %rdi
	call	__asan_report_store8@PLT
.L506:
	movq	%rdx, %rdi
	call	_ZNSt6vectorIS_IP4EdgeIcESaIS2_EESaIS4_EE5beginEv
	movq	%rax, -224(%rbx)
	leaq	-192(%rbx), %rax
	movq	%rax, %rdx
	shrq	$3, %rdx
	addq	$2147450880, %rdx
	movzbl	(%rdx), %edx
	testb	%dl, %dl
	je	.L507
	movq	%rax, %rdi
	call	__asan_report_store8@PLT
.L507:
	leaq	-224(%rbx), %rax
	movq	%r14, %rsi
	movq	%rax, %rdi
	call	_ZNK9__gnu_cxx17__normal_iteratorIPSt6vectorIP4EdgeIcESaIS4_EES1_IS6_SaIS6_EEEplEl
	movq	%rax, -192(%rbx)
	.loc 13 150 5
	leaq	-192(%rbx), %rdx
	leaq	-160(%rbx), %rax
	movq	%rdx, %rsi
	movq	%rax, %rdi
	call	_ZN9__gnu_cxx17__normal_iteratorIPKSt6vectorIP4EdgeIcESaIS4_EES1_IS6_SaIS6_EEEC1IPS6_EERKNS0_IT_NS_11__enable_ifIXsrSt10__are_sameISE_SD_E7__valueESA_E6__typeEEE
	leaq	-160(%rbx), %rax
	movq	%rax, %rdx
	shrq	$3, %rdx
	addq	$2147450880, %rdx
	movzbl	(%rdx), %edx
	testb	%dl, %dl
	je	.L508
	movq	%rax, %rdi
	call	__asan_report_load8@PLT
.L508:
	movq	-160(%rbx), %rax
	movq	%rax, %rsi
	movq	%r15, %rdi
	call	_ZNSt6vectorIS_IP4EdgeIcESaIS2_EESaIS4_EE5eraseEN9__gnu_cxx17__normal_iteratorIPKS4_S6_EE
	leaq	-160(%rbx), %rax
	shrq	$3, %rax
	addq	$2147450880, %rax
	movb	$-8, (%rax)
	.loc 13 150 23
	leaq	-192(%rbx), %rax
	shrq	$3, %rax
	addq	$2147450880, %rax
	movb	$-8, (%rax)
	leaq	-224(%rbx), %rax
	shrq	$3, %rax
	addq	$2147450880, %rax
	movb	$-8, (%rax)
	.loc 13 151 11
	movq	-424(%rbp), %rax
	addq	$8, %rax
	movq	%rax, %rdx
	movq	%rdx, %rax
	shrq	$3, %rax
	addq	$2147450880, %rax
	movzbl	(%rax), %eax
	testb	%al, %al
	setne	%cl
	cmpb	$3, %al
	setle	%al
	andl	%ecx, %eax
	testb	%al, %al
	je	.L509
	movq	%rdx, %rdi
	call	__asan_report_load4@PLT
.L509:
	.loc 13 151 11 is_stmt 0 discriminator 2
	movq	-424(%rbp), %rax
	movl	8(%rax), %eax
	.loc 13 151 5 is_stmt 1 discriminator 2
	leal	-1(%rax), %edx
	movq	-424(%rbp), %rax
	movl	%edx, 8(%rax)
	.loc 13 152 13 discriminator 2
	movq	-424(%rbp), %rax
	leaq	24(%rax), %rdx
	movl	-428(%rbp), %eax
	cltq
	movq	%rax, %rsi
	movq	%rdx, %rdi
	call	_ZNSt6vectorIP6VertexIcESaIS2_EEixEm
	.loc 13 152 5 discriminator 2
	movq	%rax, %rdx
	movq	%rdx, %rcx
	shrq	$3, %rcx
	addq	$2147450880, %rcx
	movzbl	(%rcx), %ecx
	testb	%cl, %cl
	je	.L510
	.loc 13 152 5 is_stmt 0
	movq	%rdx, %rdi
	call	__asan_report_load8@PLT
.L510:
	.loc 13 152 5 discriminator 2
	movq	(%rax), %rax
	testq	%rax, %rax
	je	.L511
	.loc 13 152 5 discriminator 1
	movl	$32, %esi
	movq	%rax, %rdi
	call	_ZdlPvm@PLT
.L511:
	.loc 13 153 5 is_stmt 1
	movq	-424(%rbp), %rax
	leaq	24(%rax), %r15
	leaq	-64(%rbx), %rax
	shrq	$3, %rax
	addq	$2147450880, %rax
	movb	$0, (%rax)
	leaq	-96(%rbx), %rax
	shrq	$3, %rax
	addq	$2147450880, %rax
	movb	$0, (%rax)
	.loc 13 153 23
	movl	-428(%rbp), %eax
	movslq	%eax, %r14
	leaq	-128(%rbx), %rax
	shrq	$3, %rax
	addq	$2147450880, %rax
	movb	$0, (%rax)
	movq	-424(%rbp), %rax
	leaq	24(%rax), %rdx
	leaq	-128(%rbx), %rax
	movq	%rax, %rcx
	shrq	$3, %rcx
	addq	$2147450880, %rcx
	movzbl	(%rcx), %ecx
	testb	%cl, %cl
	je	.L512
	movq	%rax, %rdi
	call	__asan_report_store8@PLT
.L512:
	movq	%rdx, %rdi
	call	_ZNSt6vectorIP6VertexIcESaIS2_EE5beginEv
	movq	%rax, -128(%rbx)
	leaq	-96(%rbx), %rax
	movq	%rax, %rdx
	shrq	$3, %rdx
	addq	$2147450880, %rdx
	movzbl	(%rdx), %edx
	testb	%dl, %dl
	je	.L513
	movq	%rax, %rdi
	call	__asan_report_store8@PLT
.L513:
	leaq	-128(%rbx), %rax
	movq	%r14, %rsi
	movq	%rax, %rdi
	call	_ZNK9__gnu_cxx17__normal_iteratorIPP6VertexIcESt6vectorIS3_SaIS3_EEEplEl
	movq	%rax, -96(%rbx)
	.loc 13 153 5
	leaq	-96(%rbx), %rdx
	leaq	-64(%rbx), %rax
	movq	%rdx, %rsi
	movq	%rax, %rdi
	call	_ZN9__gnu_cxx17__normal_iteratorIPKP6VertexIcESt6vectorIS3_SaIS3_EEEC1IPS3_EERKNS0_IT_NS_11__enable_ifIXsrSt10__are_sameISC_SB_E7__valueES8_E6__typeEEE
	leaq	-64(%rbx), %rax
	movq	%rax, %rdx
	shrq	$3, %rdx
	addq	$2147450880, %rdx
	movzbl	(%rdx), %edx
	testb	%dl, %dl
	je	.L514
	movq	%rax, %rdi
	call	__asan_report_load8@PLT
.L514:
	movq	-64(%rbx), %rax
	movq	%rax, %rsi
	movq	%r15, %rdi
	call	_ZNSt6vectorIP6VertexIcESaIS2_EE5eraseEN9__gnu_cxx17__normal_iteratorIPKS2_S4_EE
.L488:
	.loc 13 133 6
	cmpq	%r13, -440(%rbp)
	je	.L486
	movq	$1172321806, 0(%r13)
	movabsq	$-723401728380766731, %rax
	movabsq	$-723401728380766731, %rdx
	movq	%rax, 2147450880(%r12)
	movq	%rdx, 2147450888(%r12)
	movq	%rax, 2147450896(%r12)
	movq	%rdx, 2147450904(%r12)
	movabsq	$-723401728380766731, %rax
	movq	%rax, 2147450912(%r12)
	movq	504(%r13), %rax
	movb	$0, (%rax)
	jmp	.L487
.L486:
	movq	$0, 2147450880(%r12)
	movq	$0, 2147450888(%r12)
	movq	$0, 2147450896(%r12)
	movq	$0, 2147450904(%r12)
	movq	$0, 2147450912(%r12)
.L487:
	.loc 13 154 1
	movq	-56(%rbp), %rax
	xorq	%fs:40, %rax
	je	.L515
	call	__stack_chk_fail@PLT
.L515:
	addq	$408, %rsp
	popq	%rbx
	popq	%r12
	popq	%r13
	popq	%r14
	popq	%r15
	popq	%rbp
	.cfi_def_cfa 7, 8
	ret
	.cfi_endproc
.LFE4590:
	.size	_ZN11GraphMatrixIccE6removeEi, .-_ZN11GraphMatrixIccE6removeEi
	.section	.rodata
	.align 8
.LC21:
	.string	"5 48 1 9 <unknown> 64 8 9 <unknown> 96 8 9 <unknown> 128 8 9 <unknown> 160 24 9 <unknown>"
	.section	.text._ZN11GraphMatrixIccE6insertERKc,"axG",@progbits,_ZN11GraphMatrixIccE6insertERKc,comdat
	.align 2
	.weak	_ZN11GraphMatrixIccE6insertERKc
	.type	_ZN11GraphMatrixIccE6insertERKc, @function
_ZN11GraphMatrixIccE6insertERKc:
.LASANPC4591:
.LFB4591:
	.loc 13 121 5
	.cfi_startproc
	.cfi_personality 0x9b,DW.ref.__gxx_personality_v0
	.cfi_lsda 0x1b,.LLSDA4591
	endbr64
	pushq	%rbp
	.cfi_def_cfa_offset 16
	.cfi_offset 6, -16
	movq	%rsp, %rbp
	.cfi_def_cfa_register 6
	pushq	%r15
	pushq	%r14
	pushq	%r13
	pushq	%r12
	pushq	%rbx
	subq	$312, %rsp
	.cfi_offset 15, -24
	.cfi_offset 14, -32
	.cfi_offset 13, -40
	.cfi_offset 12, -48
	.cfi_offset 3, -56
	movq	%rdi, -328(%rbp)
	movq	%rsi, -336(%rbp)
	leaq	-304(%rbp), %r13
	movq	%r13, -344(%rbp)
	cmpl	$0, __asan_option_detect_stack_use_after_return(%rip)
	je	.L516
	movl	$224, %edi
	call	__asan_stack_malloc_2@PLT
.LVL20:
	testq	%rax, %rax
	je	.L516
	movq	%rax, %r13
.L516:
	leaq	256(%r13), %rax
	movq	%rax, %rbx
	movq	$1102416563, 0(%r13)
	leaq	.LC21(%rip), %rax
	movq	%rax, 8(%r13)
	leaq	.LASANPC4591(%rip), %rax
	movq	%rax, 16(%r13)
	movq	%r13, %r12
	shrq	$3, %r12
	movl	$-235802127, 2147450880(%r12)
	movl	$-234753551, 2147450884(%r12)
	movl	$-218959360, 2147450888(%r12)
	movl	$-218959360, 2147450892(%r12)
	movl	$-218959360, 2147450896(%r12)
	movl	$-218103808, 2147450900(%r12)
	movl	$-202116109, 2147450904(%r12)
	.loc 13 121 5
	movq	%fs:40, %rax
	movq	%rax, -56(%rbp)
	xorl	%eax, %eax
	.loc 13 123 5
	movq	-328(%rbp), %rax
	movq	%rax, %rdx
	shrq	$3, %rdx
	addq	$2147450880, %rdx
	movzbl	(%rdx), %edx
	testb	%dl, %dl
	je	.L520
	movq	%rax, %rdi
	call	__asan_report_load8@PLT
.L520:
	movq	-328(%rbp), %rax
	movq	(%rax), %rax
	addq	$104, %rax
	movq	%rax, %rdx
	movq	%rdx, %rcx
	shrq	$3, %rcx
	addq	$2147450880, %rcx
	movzbl	(%rcx), %ecx
	testb	%cl, %cl
	je	.L521
	movq	%rdx, %rdi
	call	__asan_report_load8@PLT
.L521:
	movq	(%rax), %r14
	movq	-328(%rbp), %rax
	movq	(%rax), %rax
	addq	$8, %rax
	movq	%rax, %rdx
	movq	%rdx, %rcx
	shrq	$3, %rcx
	addq	$2147450880, %rcx
	movzbl	(%rcx), %ecx
	testb	%cl, %cl
	je	.L522
	movq	%rdx, %rdi
	call	__asan_report_load8@PLT
.L522:
	movq	(%rax), %rcx
	movq	-336(%rbp), %rdx
	movq	-328(%rbp), %rax
	movq	%rdx, %rsi
	movq	%rax, %rdi
.LEHB69:
	call	*%rcx
.LVL21:
	movl	%eax, %edx
	movq	-328(%rbp), %rax
	movl	%edx, %esi
	movq	%rax, %rdi
	call	*%r14
.LVL22:
	testb	%al, %al
	je	.L523
	.loc 13 124 17
	movl	$-1, %eax
	jmp	.L524
.L523:
.LBB59:
	.loc 13 125 14
	movl	$0, -308(%rbp)
.L528:
	.loc 13 125 31 discriminator 2
	movq	-328(%rbp), %rax
	addq	$8, %rax
	movq	%rax, %rdx
	movq	%rdx, %rax
	shrq	$3, %rax
	addq	$2147450880, %rax
	movzbl	(%rax), %eax
	testb	%al, %al
	setne	%cl
	cmpb	$3, %al
	setle	%al
	andl	%ecx, %eax
	testb	%al, %al
	je	.L525
	.loc 13 125 31 is_stmt 0
	movq	%rdx, %rdi
	call	__asan_report_load4@PLT
.L525:
	.loc 13 125 31 discriminator 2
	movq	-328(%rbp), %rax
	movl	8(%rax), %eax
	.loc 13 125 23 is_stmt 1 discriminator 2
	cmpl	%eax, -308(%rbp)
	jge	.L526
	.loc 13 126 10
	movq	-328(%rbp), %rax
	leaq	48(%rax), %rdx
	movl	-308(%rbp), %eax
	cltq
	movq	%rax, %rsi
	movq	%rdx, %rdi
	call	_ZNSt6vectorIS_IP4EdgeIcESaIS2_EESaIS4_EEixEm
	movq	%rax, %rcx
	.loc 13 126 9
	leaq	-192(%rbx), %rax
	shrq	$3, %rax
	addq	$2147450880, %rax
	movb	$0, (%rax)
	.loc 13 126 27
	leaq	-192(%rbx), %rax
	movq	%rax, %rdx
	shrq	$3, %rdx
	addq	$2147450880, %rdx
	movzbl	(%rdx), %edx
	testb	%dl, %dl
	je	.L527
	movq	%rax, %rdi
	call	__asan_report_store8@PLT
.L527:
	movq	$0, -192(%rbx)
	.loc 13 126 9
	leaq	-192(%rbx), %rax
	movq	%rax, %rsi
	movq	%rcx, %rdi
	call	_ZNSt6vectorIP4EdgeIcESaIS2_EE12emplace_backIJDnEEERS2_DpOT_
.LEHE69:
	.loc 13 126 27
	leaq	-192(%rbx), %rax
	shrq	$3, %rax
	addq	$2147450880, %rax
	movb	$-8, (%rax)
	.loc 13 125 5
	addl	$1, -308(%rbp)
	jmp	.L528
.L526:
.LBE59:
	.loc 13 127 11
	movq	-328(%rbp), %rax
	addq	$8, %rax
	movq	%rax, %rdx
	movq	%rdx, %rax
	shrq	$3, %rax
	addq	$2147450880, %rax
	movzbl	(%rax), %eax
	testb	%al, %al
	setne	%cl
	cmpb	$3, %al
	setle	%al
	andl	%ecx, %eax
	testb	%al, %al
	je	.L529
	movq	%rdx, %rdi
	call	__asan_report_load4@PLT
.L529:
	movq	-328(%rbp), %rax
	movl	8(%rax), %eax
	.loc 13 127 5
	leal	1(%rax), %edx
	movq	-328(%rbp), %rax
	movl	%edx, 8(%rax)
	.loc 13 128 5
	movq	-328(%rbp), %rax
	leaq	48(%rax), %r14
	leaq	-96(%rbx), %rax
	shrq	$3, %rax
	addq	$2147450880, %rax
	movw	$0, (%rax)
	movb	$0, 2(%rax)
	leaq	-208(%rbx), %rax
	shrq	$3, %rax
	addq	$2147450880, %rax
	movb	$1, (%rax)
	leaq	-208(%rbx), %rax
	movq	%rax, %rdi
	call	_ZNSaIP4EdgeIcEEC1Ev
	leaq	-160(%rbx), %rax
	shrq	$3, %rax
	addq	$2147450880, %rax
	movb	$0, (%rax)
	leaq	-160(%rbx), %rax
	movq	%rax, %rdx
	shrq	$3, %rdx
	addq	$2147450880, %rdx
	movzbl	(%rdx), %edx
	testb	%dl, %dl
	je	.L530
	movq	%rax, %rdi
	call	__asan_report_store8@PLT
.L530:
	movq	$0, -160(%rbx)
	.loc 13 128 46
	movq	-328(%rbp), %rax
	addq	$8, %rax
	movq	%rax, %rdx
	movq	%rdx, %rax
	shrq	$3, %rax
	addq	$2147450880, %rax
	movzbl	(%rax), %eax
	testb	%al, %al
	setne	%cl
	cmpb	$3, %al
	setle	%al
	andl	%ecx, %eax
	testb	%al, %al
	je	.L531
	movq	%rdx, %rdi
	call	__asan_report_load4@PLT
.L531:
	movq	-328(%rbp), %rax
	movl	8(%rax), %eax
	.loc 13 128 5
	movslq	%eax, %rsi
	leaq	-208(%rbx), %rcx
	leaq	-160(%rbx), %rdx
	leaq	-96(%rbx), %rax
	movq	%rax, %rdi
.LEHB70:
	call	_ZNSt6vectorIP4EdgeIcESaIS2_EEC1EmRKS2_RKS3_
.LEHE70:
	.loc 13 128 5 is_stmt 0 discriminator 2
	leaq	-96(%rbx), %rax
	movq	%rax, %rsi
	movq	%r14, %rdi
.LEHB71:
	call	_ZNSt6vectorIS_IP4EdgeIcESaIS2_EESaIS4_EE12emplace_backIJS4_EEERS4_DpOT_
.LEHE71:
	.loc 13 128 5 discriminator 4
	leaq	-96(%rbx), %rax
	movq	%rax, %rdi
	call	_ZNSt6vectorIP4EdgeIcESaIS2_EED1Ev
	leaq	-96(%rbx), %rax
	shrq	$3, %rax
	addq	$2147450880, %rax
	movw	$-1800, (%rax)
	movb	$-8, 2(%rax)
	leaq	-160(%rbx), %rax
	shrq	$3, %rax
	addq	$2147450880, %rax
	movb	$-8, (%rax)
	leaq	-208(%rbx), %rax
	movq	%rax, %rdi
	call	_ZNSaIP4EdgeIcEED1Ev
	leaq	-208(%rbx), %rax
	shrq	$3, %rax
	addq	$2147450880, %rax
	movb	$-8, (%rax)
	.loc 13 129 5 is_stmt 1 discriminator 4
	movq	-328(%rbp), %rax
	leaq	24(%rax), %r14
	leaq	-128(%rbx), %rax
	shrq	$3, %rax
	addq	$2147450880, %rax
	movb	$0, (%rax)
	.loc 13 129 20 discriminator 4
	movl	$32, %edi
.LEHB72:
	call	_Znwm@PLT
	movq	%rax, %r15
	movq	-336(%rbp), %rax
	movq	%rax, %rsi
	movq	%r15, %rdi
	call	_ZN6VertexIcEC1ERKc
	.loc 13 129 5 discriminator 4
	leaq	-128(%rbx), %rax
	movq	%rax, %rdx
	shrq	$3, %rdx
	addq	$2147450880, %rdx
	movzbl	(%rdx), %edx
	testb	%dl, %dl
	je	.L532
	.loc 13 129 5 is_stmt 0
	movq	%rax, %rdi
	call	__asan_report_store8@PLT
.L532:
	.loc 13 129 5 discriminator 4
	movq	%r15, -128(%rbx)
	leaq	-128(%rbx), %rax
	movq	%rax, %rsi
	movq	%r14, %rdi
	call	_ZNSt6vectorIP6VertexIcESaIS2_EE12emplace_backIJS2_EEERS2_DpOT_
	leaq	-128(%rbx), %rax
	shrq	$3, %rax
	addq	$2147450880, %rax
	movb	$-8, (%rax)
	.loc 13 130 18 is_stmt 1 discriminator 4
	movq	-328(%rbp), %rax
	addq	$8, %rax
	movq	%rax, %rdx
	movq	%rdx, %rax
	shrq	$3, %rax
	addq	$2147450880, %rax
	movzbl	(%rax), %eax
	testb	%al, %al
	setne	%cl
	cmpb	$3, %al
	setle	%al
	andl	%ecx, %eax
	testb	%al, %al
	je	.L533
	.loc 13 130 18 is_stmt 0
	movq	%rdx, %rdi
	call	__asan_report_load4@PLT
.L533:
	.loc 13 130 18 discriminator 2
	movq	-328(%rbp), %rax
	movl	8(%rax), %eax
	.loc 13 130 22 is_stmt 1 discriminator 2
	subl	$1, %eax
.L524:
	movl	%eax, %edx
	.loc 13 121 5
	cmpq	%r13, -344(%rbp)
	je	.L517
	jmp	.L539
.L538:
	endbr64
	movq	%rax, %r12
	.loc 13 128 5
	leaq	-96(%rbx), %rax
	movq	%rax, %rdi
	call	_ZNSt6vectorIP4EdgeIcESaIS2_EED1Ev
	movq	%r12, %rdx
	leaq	-96(%rbx), %rax
	shrq	$3, %rax
	addq	$2147450880, %rax
	movw	$-1800, (%rax)
	movb	$-8, 2(%rax)
	movq	%rdx, %rax
	jmp	.L535
.L537:
	endbr64
.L535:
	.loc 13 128 5 is_stmt 0 discriminator 1
	leaq	-160(%rbx), %rdx
	shrq	$3, %rdx
	addq	$2147450880, %rdx
	movb	$-8, (%rdx)
	movq	%rax, %r12
	leaq	-208(%rbx), %rax
	movq	%rax, %rdi
	call	_ZNSaIP4EdgeIcEED1Ev
	movq	%r12, %rbx
	call	__asan_handle_no_return@PLT
	movq	%rbx, %rdi
	call	_Unwind_Resume@PLT
.LEHE72:
.L539:
	.loc 13 121 5 is_stmt 1
	movq	$1172321806, 0(%r13)
	movabsq	$-723401728380766731, %rsi
	movabsq	$-723401728380766731, %rdi
	movq	%rsi, 2147450880(%r12)
	movq	%rdi, 2147450888(%r12)
	movabsq	$-723401728380766731, %rax
	movq	%rax, 2147450896(%r12)
	movl	$-168430091, 2147450904(%r12)
	movq	248(%r13), %rax
	movb	$0, (%rax)
	jmp	.L518
.L517:
	movq	$0, 2147450880(%r12)
	movq	$0, 2147450888(%r12)
	movq	$0, 2147450896(%r12)
	movl	$0, 2147450904(%r12)
.L518:
	.loc 13 131 1
	movq	-56(%rbp), %rax
	xorq	%fs:40, %rax
	je	.L536
	call	__stack_chk_fail@PLT
.L536:
	movl	%edx, %eax
	addq	$312, %rsp
	popq	%rbx
	popq	%r12
	popq	%r13
	popq	%r14
	popq	%r15
	popq	%rbp
	.cfi_def_cfa 7, 8
	ret
	.cfi_endproc
.LFE4591:
	.section	.gcc_except_table
.LLSDA4591:
	.byte	0xff
	.byte	0xff
	.byte	0x1
	.uleb128 .LLSDACSE4591-.LLSDACSB4591
.LLSDACSB4591:
	.uleb128 .LEHB69-.LFB4591
	.uleb128 .LEHE69-.LEHB69
	.uleb128 0
	.uleb128 0
	.uleb128 .LEHB70-.LFB4591
	.uleb128 .LEHE70-.LEHB70
	.uleb128 .L537-.LFB4591
	.uleb128 0
	.uleb128 .LEHB71-.LFB4591
	.uleb128 .LEHE71-.LEHB71
	.uleb128 .L538-.LFB4591
	.uleb128 0
	.uleb128 .LEHB72-.LFB4591
	.uleb128 .LEHE72-.LEHB72
	.uleb128 0
	.uleb128 0
.LLSDACSE4591:
	.section	.text._ZN11GraphMatrixIccE6insertERKc,"axG",@progbits,_ZN11GraphMatrixIccE6insertERKc,comdat
	.size	_ZN11GraphMatrixIccE6insertERKc, .-_ZN11GraphMatrixIccE6insertERKc
	.section	.text._ZN6MatrixIbEC2ERKS0_,"axG",@progbits,_ZN6MatrixIbEC5ERKS0_,comdat
	.align 2
	.weak	_ZN6MatrixIbEC2ERKS0_
	.type	_ZN6MatrixIbEC2ERKS0_, @function
_ZN6MatrixIbEC2ERKS0_:
.LASANPC4594:
.LFB4594:
	.loc 10 16 8
	.cfi_startproc
	endbr64
	pushq	%rbp
	.cfi_def_cfa_offset 16
	.cfi_offset 6, -16
	movq	%rsp, %rbp
	.cfi_def_cfa_register 6
	subq	$16, %rsp
	movq	%rdi, -8(%rbp)
	movq	%rsi, -16(%rbp)
.LBB60:
	.loc 10 16 8
	movq	-8(%rbp), %rax
	movq	-16(%rbp), %rdx
	movq	%rdx, %rsi
	movq	%rax, %rdi
	call	_ZNSt6vectorIS_IbSaIbEESaIS1_EEC1ERKS3_
	movq	-16(%rbp), %rax
	addq	$24, %rax
	movq	%rax, %rdx
	shrq	$3, %rdx
	addq	$2147450880, %rdx
	movzbl	(%rdx), %edx
	testb	%dl, %dl
	je	.L541
	movq	%rax, %rdi
	call	__asan_report_load8@PLT
.L541:
	movq	-16(%rbp), %rax
	movq	24(%rax), %rdx
	movq	-8(%rbp), %rax
	addq	$24, %rax
	movq	%rax, %rcx
	shrq	$3, %rcx
	addq	$2147450880, %rcx
	movzbl	(%rcx), %ecx
	testb	%cl, %cl
	je	.L542
	movq	%rax, %rdi
	call	__asan_report_store8@PLT
.L542:
	movq	-8(%rbp), %rax
	movq	%rdx, 24(%rax)
	movq	-16(%rbp), %rax
	addq	$32, %rax
	movq	%rax, %rdx
	shrq	$3, %rdx
	addq	$2147450880, %rdx
	movzbl	(%rdx), %edx
	testb	%dl, %dl
	je	.L543
	movq	%rax, %rdi
	call	__asan_report_load8@PLT
.L543:
	movq	-16(%rbp), %rax
	movq	32(%rax), %rdx
	movq	-8(%rbp), %rax
	addq	$32, %rax
	movq	%rax, %rcx
	shrq	$3, %rcx
	addq	$2147450880, %rcx
	movzbl	(%rcx), %ecx
	testb	%cl, %cl
	je	.L544
	movq	%rax, %rdi
	call	__asan_report_store8@PLT
.L544:
	movq	-8(%rbp), %rax
	movq	%rdx, 32(%rax)
.LBE60:
	nop
	leave
	.cfi_def_cfa 7, 8
	ret
	.cfi_endproc
.LFE4594:
	.size	_ZN6MatrixIbEC2ERKS0_, .-_ZN6MatrixIbEC2ERKS0_
	.weak	_ZN6MatrixIbEC1ERKS0_
	.set	_ZN6MatrixIbEC1ERKS0_,_ZN6MatrixIbEC2ERKS0_
	.section	.rodata
	.align 8
.LC22:
	.string	"2 32 40 7 ans:122 112 40 9 <unknown>"
	.align 32
.LC23:
	.string	"can not do power"
	.zero	47
	.section	.text._ZN6MatrixIbE5powerEm,"axG",@progbits,_ZN6MatrixIbE5powerEm,comdat
	.align 2
	.weak	_ZN6MatrixIbE5powerEm
	.type	_ZN6MatrixIbE5powerEm, @function
_ZN6MatrixIbE5powerEm:
.LASANPC4592:
.LFB4592:
	.loc 10 115 11
	.cfi_startproc
	.cfi_personality 0x9b,DW.ref.__gxx_personality_v0
	.cfi_lsda 0x1b,.LLSDA4592
	endbr64
	pushq	%rbp
	.cfi_def_cfa_offset 16
	.cfi_offset 6, -16
	movq	%rsp, %rbp
	.cfi_def_cfa_register 6
	pushq	%r14
	pushq	%r13
	pushq	%r12
	pushq	%rbx
	subq	$256, %rsp
	.cfi_offset 14, -24
	.cfi_offset 13, -32
	.cfi_offset 12, -40
	.cfi_offset 3, -48
	movq	%rdi, -264(%rbp)
	movq	%rsi, -272(%rbp)
	movq	%rdx, -280(%rbp)
	leaq	-256(%rbp), %rbx
	movq	%rbx, %r14
	cmpl	$0, __asan_option_detect_stack_use_after_return(%rip)
	je	.L545
	movl	$192, %edi
	call	__asan_stack_malloc_2@PLT
.LVL23:
	testq	%rax, %rax
	je	.L545
	movq	%rax, %rbx
.L545:
	leaq	224(%rbx), %rax
	movq	%rax, %r13
	movq	$1102416563, (%rbx)
	leaq	.LC22(%rip), %rax
	movq	%rax, 8(%rbx)
	leaq	.LASANPC4592(%rip), %rax
	movq	%rax, 16(%rbx)
	movq	%rbx, %r12
	shrq	$3, %r12
	movl	$-235802127, 2147450880(%r12)
	movl	$-218959360, 2147450888(%r12)
	movl	$62194, 2147450892(%r12)
	movl	$-218103808, 2147450896(%r12)
	movl	$-202116109, 2147450900(%r12)
	.loc 10 115 11
	movq	%fs:40, %rax
	movq	%rax, -40(%rbp)
	xorl	%eax, %eax
	.loc 10 117 9
	movq	-272(%rbp), %rax
	addq	$24, %rax
	movq	%rax, %rdx
	shrq	$3, %rdx
	addq	$2147450880, %rdx
	movzbl	(%rdx), %edx
	testb	%dl, %dl
	je	.L549
	movq	%rax, %rdi
	call	__asan_report_load8@PLT
.L549:
	movq	-272(%rbp), %rax
	movq	24(%rax), %rcx
	.loc 10 117 16
	movq	-272(%rbp), %rax
	addq	$32, %rax
	movq	%rax, %rdx
	shrq	$3, %rdx
	addq	$2147450880, %rdx
	movzbl	(%rdx), %edx
	testb	%dl, %dl
	je	.L550
	movq	%rax, %rdi
	call	__asan_report_load8@PLT
.L550:
	movq	-272(%rbp), %rax
	movq	32(%rax), %rax
	.loc 10 117 5
	cmpq	%rax, %rcx
	je	.L551
	.loc 10 119 19
	leaq	.LC23(%rip), %rsi
	leaq	_ZSt4cerr(%rip), %rdi
.LEHB73:
	call	_ZStlsISt11char_traitsIcEERSt13basic_ostreamIcT_ES5_PKc@PLT
	movq	%rax, %rdx
	.loc 10 119 41
	movq	_ZSt4endlIcSt11char_traitsIcEERSt13basic_ostreamIT_T0_ES6_@GOTPCREL(%rip), %rax
	movq	%rax, %rsi
	movq	%rdx, %rdi
	call	_ZNSolsEPFRSoS_E@PLT
	.loc 10 120 13
	call	__asan_handle_no_return@PLT
	movl	$1, %edi
	call	exit@PLT
.L551:
	.loc 10 122 12
	movq	-272(%rbp), %rdx
	leaq	-192(%r13), %rax
	movq	%rdx, %rsi
	movq	%rax, %rdi
	call	_ZN6MatrixIbEC1ERKS0_
.LEHE73:
	.loc 10 123 5
	cmpq	$0, -280(%rbp)
	jne	.L552
	.loc 10 124 26
	movq	-272(%rbp), %rax
	addq	$24, %rax
	movq	%rax, %rdx
	shrq	$3, %rdx
	addq	$2147450880, %rdx
	movzbl	(%rdx), %edx
	testb	%dl, %dl
	je	.L553
	movq	%rax, %rdi
	call	__asan_report_load8@PLT
.L553:
	movq	-272(%rbp), %rax
	movq	24(%rax), %rdx
	movq	-264(%rbp), %rax
	movq	%rdx, %rsi
	movq	%rax, %rdi
.LEHB74:
	call	_ZN6MatrixIbEC1Em
	jmp	.L554
.L552:
	.loc 10 127 9
	subq	$1, -280(%rbp)
.L557:
	.loc 10 128 9
	movq	-280(%rbp), %rax
	leaq	-1(%rax), %rdx
	movq	%rdx, -280(%rbp)
	testq	%rax, %rax
	setne	%al
	testb	%al, %al
	je	.L555
	.loc 10 129 13
	leaq	-112(%r13), %rax
	shrq	$3, %rax
	addq	$2147450880, %rax
	movl	$0, (%rax)
	movb	$0, 4(%rax)
	leaq	-112(%r13), %rax
	movq	%rax, %rdx
	shrq	$3, %rdx
	addq	$2147450880, %rdx
	movzbl	(%rdx), %edx
	testb	%dl, %dl
	setne	%cl
	testb	%dl, %dl
	setle	%dl
	andl	%edx, %ecx
	movl	%ecx, %edi
	movl	$40, %edx
	subq	$1, %rdx
	leaq	(%rax,%rdx), %rcx
	movq	%rcx, %rdx
	shrq	$3, %rdx
	addq	$2147450880, %rdx
	movzbl	(%rdx), %edx
	testb	%dl, %dl
	setne	%sil
	andl	$7, %ecx
	cmpb	%dl, %cl
	setge	%dl
	andl	%esi, %edx
	orl	%edi, %edx
	testb	%dl, %dl
	je	.L556
	movl	$40, %esi
	movq	%rax, %rdi
	call	__asan_report_store_n@PLT
.L556:
	leaq	-112(%r13), %rax
	movq	-272(%rbp), %rdx
	leaq	-192(%r13), %rcx
	movq	%rcx, %rsi
	movq	%rax, %rdi
	call	_ZN6MatrixIbEmLERKS0_
.LEHE74:
	.loc 10 129 13 is_stmt 0 discriminator 1
	leaq	-112(%r13), %rax
	movq	%rax, %rdi
	call	_ZN6MatrixIbED1Ev
	leaq	-112(%r13), %rax
	shrq	$3, %rax
	addq	$2147450880, %rax
	movl	$-117901064, (%rax)
	movb	$-8, 4(%rax)
	.loc 10 128 9 is_stmt 1 discriminator 1
	jmp	.L557
.L555:
	.loc 10 131 12
	leaq	-192(%r13), %rdx
	movq	-264(%rbp), %rax
	movq	%rdx, %rsi
	movq	%rax, %rdi
	call	_ZN6MatrixIbEC1EOS0_
.L554:
	.loc 10 122 12
	leaq	-192(%r13), %rax
	movq	%rax, %rdi
	call	_ZN6MatrixIbED1Ev
	.loc 10 115 11
	cmpq	%rbx, %r14
	je	.L546
	jmp	.L562
.L561:
	endbr64
	movq	%rax, %rbx
	.loc 10 122 12
	leaq	-192(%r13), %rax
	movq	%rax, %rdi
	call	_ZN6MatrixIbED1Ev
	call	__asan_handle_no_return@PLT
	movq	%rbx, %rdi
.LEHB75:
	call	_Unwind_Resume@PLT
.LEHE75:
.L562:
	.loc 10 115 11
	movq	$1172321806, (%rbx)
	movabsq	$-723401728380766731, %rax
	movabsq	$-723401728380766731, %rdx
	movq	%rax, 2147450880(%r12)
	movq	%rdx, 2147450888(%r12)
	movabsq	$-723401728380766731, %rax
	movq	%rax, 2147450896(%r12)
	movq	248(%rbx), %rax
	movb	$0, (%rax)
	jmp	.L547
.L546:
	movl	$0, 2147450880(%r12)
	movq	$0, 2147450888(%r12)
	movq	$0, 2147450896(%r12)
.L547:
	.loc 10 132 1
	movq	-40(%rbp), %rax
	xorq	%fs:40, %rax
	je	.L560
	call	__stack_chk_fail@PLT
.L560:
	movq	-264(%rbp), %rax
	addq	$256, %rsp
	popq	%rbx
	popq	%r12
	popq	%r13
	popq	%r14
	popq	%rbp
	.cfi_def_cfa 7, 8
	ret
	.cfi_endproc
.LFE4592:
	.section	.gcc_except_table
.LLSDA4592:
	.byte	0xff
	.byte	0xff
	.byte	0x1
	.uleb128 .LLSDACSE4592-.LLSDACSB4592
.LLSDACSB4592:
	.uleb128 .LEHB73-.LFB4592
	.uleb128 .LEHE73-.LEHB73
	.uleb128 0
	.uleb128 0
	.uleb128 .LEHB74-.LFB4592
	.uleb128 .LEHE74-.LEHB74
	.uleb128 .L561-.LFB4592
	.uleb128 0
	.uleb128 .LEHB75-.LFB4592
	.uleb128 .LEHE75-.LEHB75
	.uleb128 0
	.uleb128 0
.LLSDACSE4592:
	.section	.text._ZN6MatrixIbE5powerEm,"axG",@progbits,_ZN6MatrixIbE5powerEm,comdat
	.size	_ZN6MatrixIbE5powerEm, .-_ZN6MatrixIbE5powerEm
	.section	.text._ZN6MatrixIbEixEm,"axG",@progbits,_ZN6MatrixIbEixEm,comdat
	.align 2
	.weak	_ZN6MatrixIbEixEm
	.type	_ZN6MatrixIbEixEm, @function
_ZN6MatrixIbEixEm:
.LASANPC4596:
.LFB4596:
	.loc 10 83 12
	.cfi_startproc
	endbr64
	pushq	%rbp
	.cfi_def_cfa_offset 16
	.cfi_offset 6, -16
	movq	%rsp, %rbp
	.cfi_def_cfa_register 6
	subq	$16, %rsp
	movq	%rdi, -8(%rbp)
	movq	%rsi, -16(%rbp)
	.loc 10 85 18
	movq	-8(%rbp), %rax
	movq	-16(%rbp), %rdx
	movq	%rdx, %rsi
	movq	%rax, %rdi
	call	_ZNSt6vectorIS_IbSaIbEESaIS1_EEixEm
	.loc 10 86 1
	leave
	.cfi_def_cfa 7, 8
	ret
	.cfi_endproc
.LFE4596:
	.size	_ZN6MatrixIbEixEm, .-_ZN6MatrixIbEixEm
	.section	.text._ZNSt6vectorIbSaIbEEixEm,"axG",@progbits,_ZNSt6vectorIbSaIbEEixEm,comdat
	.align 2
	.weak	_ZNSt6vectorIbSaIbEEixEm
	.type	_ZNSt6vectorIbSaIbEEixEm, @function
_ZNSt6vectorIbSaIbEEixEm:
.LASANPC4597:
.LFB4597:
	.loc 5 886 7
	.cfi_startproc
	endbr64
	pushq	%rbp
	.cfi_def_cfa_offset 16
	.cfi_offset 6, -16
	movq	%rsp, %rbp
	.cfi_def_cfa_register 6
	pushq	%r14
	pushq	%r13
	pushq	%r12
	pushq	%rbx
	subq	$112, %rsp
	.cfi_offset 14, -24
	.cfi_offset 13, -32
	.cfi_offset 12, -40
	.cfi_offset 3, -48
	movq	%rdi, -136(%rbp)
	movq	%rsi, -144(%rbp)
	leaq	-128(%rbp), %rbx
	movq	%rbx, %r14
	cmpl	$0, __asan_option_detect_stack_use_after_return(%rip)
	je	.L565
	movl	$64, %edi
	call	__asan_stack_malloc_0@PLT
.LVL24:
	testq	%rax, %rax
	je	.L565
	movq	%rax, %rbx
.L565:
	leaq	96(%rbx), %rax
	movq	%rax, %r13
	movq	$1102416563, (%rbx)
	leaq	.LC0(%rip), %rax
	movq	%rax, 8(%rbx)
	leaq	.LASANPC4597(%rip), %rax
	movq	%rax, 16(%rbx)
	movq	%rbx, %r12
	shrq	$3, %r12
	movl	$-235802127, 2147450880(%r12)
	movl	$-202178560, 2147450884(%r12)
	.loc 5 886 7
	movq	%fs:40, %rax
	movq	%rax, -40(%rbp)
	xorl	%eax, %eax
	.loc 5 888 9
	movq	-144(%rbp), %rax
	andl	$63, %eax
	movl	%eax, %edx
	.loc 5 888 42
	movq	-136(%rbp), %rax
	movq	%rax, %rcx
	shrq	$3, %rcx
	addq	$2147450880, %rcx
	movzbl	(%rcx), %ecx
	testb	%cl, %cl
	je	.L569
	movq	%rax, %rdi
	call	__asan_report_load8@PLT
.L569:
	movq	-136(%rbp), %rax
	movq	(%rax), %rax
	.loc 5 889 11
	movq	-144(%rbp), %rcx
	shrq	$6, %rcx
	.loc 5 889 5
	salq	$3, %rcx
	.loc 5 888 9
	addq	%rax, %rcx
	leaq	-64(%r13), %rax
	movq	%rcx, %rsi
	movq	%rax, %rdi
	call	_ZNSt13_Bit_iteratorC1EPmj
	leaq	-64(%r13), %rax
	movq	%rax, %rdi
	call	_ZNKSt13_Bit_iteratordeEv
	.loc 5 886 7
	cmpq	%rbx, %r14
	je	.L566
	movq	$1172321806, (%rbx)
	movabsq	$-723401728380766731, %rsi
	movq	%rsi, 2147450880(%r12)
	movq	56(%rbx), %rcx
	movb	$0, (%rcx)
	jmp	.L567
.L566:
	movq	$0, 2147450880(%r12)
.L567:
	.loc 5 890 7
	movq	-40(%rbp), %rsi
	xorq	%fs:40, %rsi
	je	.L571
	call	__stack_chk_fail@PLT
.L571:
	addq	$112, %rsp
	popq	%rbx
	popq	%r12
	popq	%r13
	popq	%r14
	popq	%rbp
	.cfi_def_cfa 7, 8
	ret
	.cfi_endproc
.LFE4597:
	.size	_ZNSt6vectorIbSaIbEEixEm, .-_ZNSt6vectorIbSaIbEEixEm
	.section	.rodata
	.align 8
.LC24:
	.string	"2 32 40 9 <unknown> 112 40 9 <unknown>"
	.section	.text._ZN11GraphMatrixIccE18reachabilityMatrixEv,"axG",@progbits,_ZN11GraphMatrixIccE18reachabilityMatrixEv,comdat
	.align 2
	.weak	_ZN11GraphMatrixIccE18reachabilityMatrixEv
	.type	_ZN11GraphMatrixIccE18reachabilityMatrixEv, @function
_ZN11GraphMatrixIccE18reachabilityMatrixEv:
.LASANPC4599:
.LFB4599:
	.loc 13 219 14
	.cfi_startproc
	.cfi_personality 0x9b,DW.ref.__gxx_personality_v0
	.cfi_lsda 0x1b,.LLSDA4599
	endbr64
	pushq	%rbp
	.cfi_def_cfa_offset 16
	.cfi_offset 6, -16
	movq	%rsp, %rbp
	.cfi_def_cfa_register 6
	pushq	%r14
	pushq	%r13
	pushq	%r12
	pushq	%rbx
	subq	$240, %rsp
	.cfi_offset 14, -24
	.cfi_offset 13, -32
	.cfi_offset 12, -40
	.cfi_offset 3, -48
	movq	%rdi, -264(%rbp)
	movq	%rsi, -272(%rbp)
	leaq	-256(%rbp), %r12
	movq	%r12, %r14
	cmpl	$0, __asan_option_detect_stack_use_after_return(%rip)
	je	.L572
	movl	$192, %edi
	call	__asan_stack_malloc_2@PLT
.LVL25:
	testq	%rax, %rax
	je	.L572
	movq	%rax, %r12
.L572:
	leaq	224(%r12), %rax
	movq	%rax, %rbx
	movq	$1102416563, (%r12)
	leaq	.LC24(%rip), %rax
	movq	%rax, 8(%r12)
	leaq	.LASANPC4599(%rip), %rax
	movq	%rax, 16(%r12)
	movq	%r12, %r13
	shrq	$3, %r13
	movl	$-235802127, 2147450880(%r13)
	movl	$-218959360, 2147450888(%r13)
	movl	$62194, 2147450892(%r13)
	movl	$-218103808, 2147450896(%r13)
	movl	$-202116109, 2147450900(%r13)
	.loc 13 219 14
	movq	%fs:40, %rax
	movq	%rax, -40(%rbp)
	xorl	%eax, %eax
	.loc 13 226 44
	movq	-272(%rbp), %rax
	addq	$8, %rax
	movq	%rax, %rdx
	movq	%rdx, %rax
	shrq	$3, %rax
	addq	$2147450880, %rax
	movzbl	(%rax), %eax
	testb	%al, %al
	setne	%cl
	cmpb	$3, %al
	setle	%al
	andl	%ecx, %eax
	testb	%al, %al
	je	.L576
	movq	%rdx, %rdi
	call	__asan_report_load4@PLT
.L576:
	movq	-272(%rbp), %rax
	movl	8(%rax), %eax
	.loc 13 226 45
	movslq	%eax, %rdx
	leaq	-112(%rbx), %rax
	movq	%rdx, %rsi
	movq	%rax, %rdi
.LEHB76:
	call	_ZN6MatrixIbEC1Em
.LEHE76:
	leaq	-192(%rbx), %rax
	movq	%rax, %rdx
	shrq	$3, %rdx
	addq	$2147450880, %rdx
	movzbl	(%rdx), %edx
	testb	%dl, %dl
	setne	%cl
	testb	%dl, %dl
	setle	%dl
	movl	%ecx, %edi
	andl	%edx, %edi
	movl	$40, %edx
	subq	$1, %rdx
	leaq	(%rax,%rdx), %rcx
	movq	%rcx, %rdx
	shrq	$3, %rdx
	addq	$2147450880, %rdx
	movzbl	(%rdx), %edx
	testb	%dl, %dl
	setne	%sil
	andl	$7, %ecx
	cmpb	%dl, %cl
	setge	%dl
	andl	%esi, %edx
	orl	%edi, %edx
	testb	%dl, %dl
	je	.L577
	movl	$40, %esi
	movq	%rax, %rdi
	call	__asan_report_store_n@PLT
.L577:
	leaq	-192(%rbx), %rax
	movq	-272(%rbp), %rdx
	movq	%rdx, %rsi
	movq	%rax, %rdi
.LEHB77:
	call	_ZN11GraphMatrixIccE8WarshallEv
.LEHE77:
	.loc 13 226 45 is_stmt 0 discriminator 2
	movq	-264(%rbp), %rax
	movq	%rax, %rdx
	shrq	$3, %rdx
	addq	$2147450880, %rdx
	movzbl	(%rdx), %edx
	testb	%dl, %dl
	setne	%cl
	testb	%dl, %dl
	setle	%dl
	movl	%ecx, %edi
	andl	%edx, %edi
	movl	$40, %edx
	subq	$1, %rdx
	leaq	(%rax,%rdx), %rcx
	movq	%rcx, %rdx
	shrq	$3, %rdx
	addq	$2147450880, %rdx
	movzbl	(%rdx), %edx
	testb	%dl, %dl
	setne	%sil
	andl	$7, %ecx
	cmpb	%dl, %cl
	setge	%dl
	andl	%esi, %edx
	orl	%edi, %edx
	testb	%dl, %dl
	je	.L578
	.loc 13 226 45
	movl	$40, %esi
	movq	%rax, %rdi
	call	__asan_report_store_n@PLT
.L578:
	.loc 13 226 45 discriminator 2
	movq	-264(%rbp), %rax
	leaq	-112(%rbx), %rdx
	leaq	-192(%rbx), %rcx
	movq	%rcx, %rsi
	movq	%rax, %rdi
.LEHB78:
	call	_ZN6MatrixIbEorERKS0_
.LEHE78:
	.loc 13 226 45
	leaq	-192(%rbx), %rax
	movq	%rax, %rdi
	call	_ZN6MatrixIbED1Ev
	leaq	-192(%rbx), %rax
	shrq	$3, %rax
	addq	$2147450880, %rax
	movl	$-117901064, (%rax)
	movb	$-8, 4(%rax)
	leaq	-112(%rbx), %rax
	movq	%rax, %rdi
	call	_ZN6MatrixIbED1Ev
	.loc 13 219 14 is_stmt 1
	cmpq	%r12, %r14
	je	.L573
	jmp	.L585
.L584:
	endbr64
	movq	%rax, %r12
	.loc 13 226 45
	leaq	-192(%rbx), %rax
	movq	%rax, %rdi
	call	_ZN6MatrixIbED1Ev
	movq	%r12, %rdx
	leaq	-192(%rbx), %rax
	shrq	$3, %rax
	addq	$2147450880, %rax
	movl	$-117901064, (%rax)
	movb	$-8, 4(%rax)
	movq	%rdx, %r12
	jmp	.L581
.L583:
	endbr64
	movq	%rax, %r12
.L581:
	.loc 13 226 45 is_stmt 0 discriminator 1
	leaq	-112(%rbx), %rax
	movq	%rax, %rdi
	call	_ZN6MatrixIbED1Ev
	movq	%r12, %rbx
	call	__asan_handle_no_return@PLT
	movq	%rbx, %rdi
.LEHB79:
	call	_Unwind_Resume@PLT
.LEHE79:
.L585:
	.loc 13 219 14 is_stmt 1
	movq	$1172321806, (%r12)
	movabsq	$-723401728380766731, %rax
	movabsq	$-723401728380766731, %rdx
	movq	%rax, 2147450880(%r13)
	movq	%rdx, 2147450888(%r13)
	movabsq	$-723401728380766731, %rax
	movq	%rax, 2147450896(%r13)
	movq	248(%r12), %rax
	movb	$0, (%rax)
	jmp	.L574
.L573:
	movq	$0, 2147450880(%r13)
	movq	$0, 2147450888(%r13)
	movq	$0, 2147450896(%r13)
.L574:
	.loc 13 227 1
	movq	-40(%rbp), %rax
	xorq	%fs:40, %rax
	je	.L582
	call	__stack_chk_fail@PLT
.L582:
	movq	-264(%rbp), %rax
	addq	$240, %rsp
	popq	%rbx
	popq	%r12
	popq	%r13
	popq	%r14
	popq	%rbp
	.cfi_def_cfa 7, 8
	ret
	.cfi_endproc
.LFE4599:
	.section	.gcc_except_table
.LLSDA4599:
	.byte	0xff
	.byte	0xff
	.byte	0x1
	.uleb128 .LLSDACSE4599-.LLSDACSB4599
.LLSDACSB4599:
	.uleb128 .LEHB76-.LFB4599
	.uleb128 .LEHE76-.LEHB76
	.uleb128 0
	.uleb128 0
	.uleb128 .LEHB77-.LFB4599
	.uleb128 .LEHE77-.LEHB77
	.uleb128 .L583-.LFB4599
	.uleb128 0
	.uleb128 .LEHB78-.LFB4599
	.uleb128 .LEHE78-.LEHB78
	.uleb128 .L584-.LFB4599
	.uleb128 0
	.uleb128 .LEHB79-.LFB4599
	.uleb128 .LEHE79-.LEHB79
	.uleb128 0
	.uleb128 0
.LLSDACSE4599:
	.section	.text._ZN11GraphMatrixIccE18reachabilityMatrixEv,"axG",@progbits,_ZN11GraphMatrixIccE18reachabilityMatrixEv,comdat
	.size	_ZN11GraphMatrixIccE18reachabilityMatrixEv, .-_ZN11GraphMatrixIccE18reachabilityMatrixEv
	.section	.text._ZNSt12_Vector_baseIcSaIcEE12_Vector_implC2Ev,"axG",@progbits,_ZNSt12_Vector_baseIcSaIcEE12_Vector_implC5Ev,comdat
	.align 2
	.weak	_ZNSt12_Vector_baseIcSaIcEE12_Vector_implC2Ev
	.type	_ZNSt12_Vector_baseIcSaIcEE12_Vector_implC2Ev, @function
_ZNSt12_Vector_baseIcSaIcEE12_Vector_implC2Ev:
.LASANPC4601:
.LFB4601:
	.loc 11 128 2
	.cfi_startproc
	endbr64
	pushq	%rbp
	.cfi_def_cfa_offset 16
	.cfi_offset 6, -16
	movq	%rsp, %rbp
	.cfi_def_cfa_register 6
	subq	$16, %rsp
	movq	%rdi, -8(%rbp)
.LBB61:
	.loc 11 130 19
	movq	-8(%rbp), %rax
	movq	%rax, %rdi
	call	_ZNSaIcEC2Ev@PLT
	movq	-8(%rbp), %rax
	movq	%rax, %rdi
	call	_ZNSt12_Vector_baseIcSaIcEE17_Vector_impl_dataC2Ev
.LBE61:
	.loc 11 131 4
	nop
	leave
	.cfi_def_cfa 7, 8
	ret
	.cfi_endproc
.LFE4601:
	.size	_ZNSt12_Vector_baseIcSaIcEE12_Vector_implC2Ev, .-_ZNSt12_Vector_baseIcSaIcEE12_Vector_implC2Ev
	.weak	_ZNSt12_Vector_baseIcSaIcEE12_Vector_implC1Ev
	.set	_ZNSt12_Vector_baseIcSaIcEE12_Vector_implC1Ev,_ZNSt12_Vector_baseIcSaIcEE12_Vector_implC2Ev
	.section	.text._ZNSt12_Vector_baseIcSaIcEED2Ev,"axG",@progbits,_ZNSt12_Vector_baseIcSaIcEED5Ev,comdat
	.align 2
	.weak	_ZNSt12_Vector_baseIcSaIcEED2Ev
	.type	_ZNSt12_Vector_baseIcSaIcEED2Ev, @function
_ZNSt12_Vector_baseIcSaIcEED2Ev:
.LASANPC4604:
.LFB4604:
	.loc 11 330 7
	.cfi_startproc
	.cfi_personality 0x9b,DW.ref.__gxx_personality_v0
	.cfi_lsda 0x1b,.LLSDA4604
	endbr64
	pushq	%rbp
	.cfi_def_cfa_offset 16
	.cfi_offset 6, -16
	movq	%rsp, %rbp
	.cfi_def_cfa_register 6
	subq	$16, %rsp
	movq	%rdi, -8(%rbp)
.LBB62:
	.loc 11 333 17
	movq	-8(%rbp), %rax
	addq	$16, %rax
	movq	%rax, %rdx
	shrq	$3, %rdx
	addq	$2147450880, %rdx
	movzbl	(%rdx), %edx
	testb	%dl, %dl
	je	.L588
	movq	%rax, %rdi
	call	__asan_report_load8@PLT
.L588:
	movq	-8(%rbp), %rax
	movq	16(%rax), %rcx
	.loc 11 333 45
	movq	-8(%rbp), %rax
	movq	%rax, %rdx
	shrq	$3, %rdx
	addq	$2147450880, %rdx
	movzbl	(%rdx), %edx
	testb	%dl, %dl
	je	.L589
	movq	%rax, %rdi
	call	__asan_report_load8@PLT
.L589:
	movq	-8(%rbp), %rax
	movq	(%rax), %rax
	.loc 11 333 35
	subq	%rax, %rcx
	movq	%rcx, %rax
	.loc 11 332 2
	movq	%rax, %rdx
	movq	-8(%rbp), %rax
	movq	(%rax), %rcx
	movq	-8(%rbp), %rax
	movq	%rcx, %rsi
	movq	%rax, %rdi
	call	_ZNSt12_Vector_baseIcSaIcEE13_M_deallocateEPcm
	.loc 11 334 7
	movq	-8(%rbp), %rax
	movq	%rax, %rdi
	call	_ZNSt12_Vector_baseIcSaIcEE12_Vector_implD1Ev
.LBE62:
	nop
	leave
	.cfi_def_cfa 7, 8
	ret
	.cfi_endproc
.LFE4604:
	.section	.gcc_except_table
.LLSDA4604:
	.byte	0xff
	.byte	0xff
	.byte	0x1
	.uleb128 .LLSDACSE4604-.LLSDACSB4604
.LLSDACSB4604:
.LLSDACSE4604:
	.section	.text._ZNSt12_Vector_baseIcSaIcEED2Ev,"axG",@progbits,_ZNSt12_Vector_baseIcSaIcEED5Ev,comdat
	.size	_ZNSt12_Vector_baseIcSaIcEED2Ev, .-_ZNSt12_Vector_baseIcSaIcEED2Ev
	.weak	_ZNSt12_Vector_baseIcSaIcEED1Ev
	.set	_ZNSt12_Vector_baseIcSaIcEED1Ev,_ZNSt12_Vector_baseIcSaIcEED2Ev
	.section	.rodata
	.align 32
.LC25:
	.string	"vector::reserve"
	.zero	48
	.section	.text._ZNSt6vectorIcSaIcEE7reserveEm,"axG",@progbits,_ZNSt6vectorIcSaIcEE7reserveEm,comdat
	.align 2
	.weak	_ZNSt6vectorIcSaIcEE7reserveEm
	.type	_ZNSt6vectorIcSaIcEE7reserveEm, @function
_ZNSt6vectorIcSaIcEE7reserveEm:
.LASANPC4606:
.LFB4606:
	.file 16 "/usr/include/c++/9/bits/vector.tcc"
	.loc 16 66 5
	.cfi_startproc
	endbr64
	pushq	%rbp
	.cfi_def_cfa_offset 16
	.cfi_offset 6, -16
	movq	%rsp, %rbp
	.cfi_def_cfa_register 6
	subq	$32, %rsp
	movq	%rdi, -24(%rbp)
	movq	%rsi, -32(%rbp)
	.loc 16 69 15
	movq	-24(%rbp), %rax
	movq	%rax, %rdi
	call	_ZNKSt6vectorIcSaIcEE8max_sizeEv
	cmpq	%rax, -32(%rbp)
	seta	%al
	.loc 16 69 7
	testb	%al, %al
	je	.L591
	.loc 16 70 22
	call	__asan_handle_no_return@PLT
	leaq	.LC25(%rip), %rdi
	call	_ZSt20__throw_length_errorPKc@PLT
.L591:
.LBB63:
	.loc 16 71 28
	movq	-24(%rbp), %rax
	movq	%rax, %rdi
	call	_ZNKSt6vectorIcSaIcEE8capacityEv
	cmpq	%rax, -32(%rbp)
	seta	%al
	.loc 16 71 7
	testb	%al, %al
	je	.L600
.LBB64:
	.loc 16 73 20
	movq	-24(%rbp), %rax
	movq	%rax, %rdi
	call	_ZNKSt6vectorIcSaIcEE4sizeEv
	movq	%rax, -16(%rbp)
	.loc 16 78 14
	movq	-24(%rbp), %rax
	movq	-32(%rbp), %rdx
	movq	%rdx, %rsi
	movq	%rax, %rdi
	call	_ZNSt12_Vector_baseIcSaIcEE11_M_allocateEm
	movq	%rax, -8(%rbp)
	.loc 16 80 32
	movq	-24(%rbp), %rax
	movq	%rax, %rdi
	call	_ZNSt12_Vector_baseIcSaIcEE19_M_get_Tp_allocatorEv
	movq	%rax, %rcx
	.loc 16 79 19
	movq	-24(%rbp), %rax
	addq	$8, %rax
	movq	%rax, %rdx
	shrq	$3, %rdx
	addq	$2147450880, %rdx
	movzbl	(%rdx), %edx
	testb	%dl, %dl
	je	.L593
	movq	%rax, %rdi
	call	__asan_report_load8@PLT
.L593:
	movq	-24(%rbp), %rax
	movq	8(%rax), %rsi
	movq	-24(%rbp), %rax
	movq	%rax, %rdx
	shrq	$3, %rdx
	addq	$2147450880, %rdx
	movzbl	(%rdx), %edx
	testb	%dl, %dl
	je	.L594
	movq	%rax, %rdi
	call	__asan_report_load8@PLT
.L594:
	movq	-24(%rbp), %rax
	movq	(%rax), %rax
	movq	-8(%rbp), %rdx
	movq	%rax, %rdi
	call	_ZNSt6vectorIcSaIcEE11_S_relocateEPcS2_S2_RS0_
	.loc 16 92 17
	movq	-24(%rbp), %rax
	.loc 16 93 18
	movq	-24(%rbp), %rdx
	addq	$16, %rdx
	movq	%rdx, %rcx
	shrq	$3, %rcx
	addq	$2147450880, %rcx
	movzbl	(%rcx), %ecx
	testb	%cl, %cl
	je	.L595
	movq	%rdx, %rdi
	call	__asan_report_load8@PLT
.L595:
	movq	-24(%rbp), %rdx
	movq	16(%rdx), %rsi
	.loc 16 94 20
	movq	-24(%rbp), %rdx
	movq	%rdx, %rcx
	shrq	$3, %rcx
	addq	$2147450880, %rcx
	movzbl	(%rcx), %ecx
	testb	%cl, %cl
	je	.L596
	movq	%rdx, %rdi
	call	__asan_report_load8@PLT
.L596:
	movq	-24(%rbp), %rdx
	movq	(%rdx), %rdx
	.loc 16 94 4
	subq	%rdx, %rsi
	movq	%rsi, %rdx
	.loc 16 92 17
	movq	%rdx, %rsi
	movq	-24(%rbp), %rdx
	movq	(%rdx), %rcx
	movq	%rsi, %rdx
	movq	%rcx, %rsi
	movq	%rax, %rdi
	call	_ZNSt12_Vector_baseIcSaIcEE13_M_deallocateEPcm
	.loc 16 95 4
	movq	-24(%rbp), %rax
	movq	%rax, %rdx
	shrq	$3, %rdx
	addq	$2147450880, %rdx
	movzbl	(%rdx), %edx
	testb	%dl, %dl
	je	.L597
	movq	%rax, %rdi
	call	__asan_report_store8@PLT
.L597:
	movq	-24(%rbp), %rax
	movq	-8(%rbp), %rdx
	movq	%rdx, (%rax)
	.loc 16 96 36
	movq	-8(%rbp), %rdx
	movq	-16(%rbp), %rax
	leaq	(%rdx,%rax), %rcx
	.loc 16 96 4
	movq	-24(%rbp), %rax
	addq	$8, %rax
	movq	%rax, %rdx
	shrq	$3, %rdx
	addq	$2147450880, %rdx
	movzbl	(%rdx), %edx
	testb	%dl, %dl
	je	.L598
	movq	%rax, %rdi
	call	__asan_report_store8@PLT
.L598:
	movq	-24(%rbp), %rax
	movq	%rcx, 8(%rax)
	.loc 16 97 52
	movq	-24(%rbp), %rax
	movq	(%rax), %rdx
	.loc 16 97 61
	movq	-32(%rbp), %rax
	leaq	(%rdx,%rax), %rcx
	.loc 16 97 4
	movq	-24(%rbp), %rax
	addq	$16, %rax
	movq	%rax, %rdx
	shrq	$3, %rdx
	addq	$2147450880, %rdx
	movzbl	(%rdx), %edx
	testb	%dl, %dl
	je	.L599
	movq	%rax, %rdi
	call	__asan_report_store8@PLT
.L599:
	movq	-24(%rbp), %rax
	movq	%rcx, 16(%rax)
.L600:
.LBE64:
.LBE63:
	.loc 16 99 5
	nop
	leave
	.cfi_def_cfa 7, 8
	ret
	.cfi_endproc
.LFE4606:
	.size	_ZNSt6vectorIcSaIcEE7reserveEm, .-_ZNSt6vectorIcSaIcEE7reserveEm
	.section	.text._ZN11GraphMatrixIccE3locERKc,"axG",@progbits,_ZN11GraphMatrixIccE3locERKc,comdat
	.align 2
	.weak	_ZN11GraphMatrixIccE3locERKc
	.type	_ZN11GraphMatrixIccE3locERKc, @function
_ZN11GraphMatrixIccE3locERKc:
.LASANPC4609:
.LFB4609:
	.loc 13 73 17
	.cfi_startproc
	endbr64
	pushq	%rbp
	.cfi_def_cfa_offset 16
	.cfi_offset 6, -16
	movq	%rsp, %rbp
	.cfi_def_cfa_register 6
	subq	$32, %rsp
	movq	%rdi, -24(%rbp)
	movq	%rsi, -32(%rbp)
	.loc 13 75 13
	movq	-24(%rbp), %rax
	addq	$8, %rax
	movq	%rax, %rdx
	movq	%rdx, %rax
	shrq	$3, %rax
	addq	$2147450880, %rax
	movzbl	(%rax), %eax
	testb	%al, %al
	setne	%cl
	cmpb	$3, %al
	setle	%al
	andl	%ecx, %eax
	testb	%al, %al
	je	.L602
	movq	%rdx, %rdi
	call	__asan_report_load4@PLT
.L602:
	movq	-24(%rbp), %rax
	movl	8(%rax), %eax
	movl	%eax, -4(%rbp)
.L609:
	.loc 13 76 25
	subl	$1, -4(%rbp)
	cmpl	$0, -4(%rbp)
	js	.L603
	.loc 13 76 29 discriminator 1
	movq	-24(%rbp), %rax
	leaq	24(%rax), %rdx
	movl	-4(%rbp), %eax
	cltq
	movq	%rax, %rsi
	movq	%rdx, %rdi
	call	_ZNSt6vectorIP6VertexIcESaIS2_EEixEm
	.loc 13 76 34 discriminator 1
	movq	%rax, %rdx
	movq	%rdx, %rcx
	shrq	$3, %rcx
	addq	$2147450880, %rcx
	movzbl	(%rcx), %ecx
	testb	%cl, %cl
	je	.L604
	.loc 13 76 34 is_stmt 0
	movq	%rdx, %rdi
	call	__asan_report_load8@PLT
.L604:
	.loc 13 76 34 discriminator 1
	movq	(%rax), %rdx
	movq	%rdx, %rax
	movq	%rax, %rcx
	shrq	$3, %rcx
	addq	$2147450880, %rcx
	movzbl	(%rcx), %ecx
	testb	%cl, %cl
	setne	%sil
	movq	%rax, %rdi
	andl	$7, %edi
	cmpb	%cl, %dil
	setge	%cl
	andl	%esi, %ecx
	testb	%cl, %cl
	je	.L605
	.loc 13 76 34
	movq	%rax, %rdi
	call	__asan_report_load1@PLT
.L605:
	.loc 13 76 34 discriminator 1
	movzbl	(%rdx), %ecx
	.loc 13 76 39 is_stmt 1 discriminator 1
	movq	-32(%rbp), %rax
	movq	%rax, %rdx
	shrq	$3, %rdx
	addq	$2147450880, %rdx
	movzbl	(%rdx), %edx
	testb	%dl, %dl
	setne	%sil
	movq	%rax, %rdi
	andl	$7, %edi
	cmpb	%dl, %dil
	setge	%dl
	andl	%esi, %edx
	testb	%dl, %dl
	je	.L606
	.loc 13 76 39 is_stmt 0
	movq	%rax, %rdi
