	.file	"mainRelation.cpp"
	.text
.Ltext0:
	.section	.text._ZnwmPv,"axG",@progbits,_ZnwmPv,comdat
	.weak	_ZnwmPv
	.type	_ZnwmPv, @function
_ZnwmPv:
.LASANPC38:
.LFB38:
	.file 1 "/usr/include/c++/9/new"
	.loc 1 174 1
	.cfi_startproc
	endbr64
	pushq	%rbp
	.cfi_def_cfa_offset 16
	.cfi_offset 6, -16
	movq	%rsp, %rbp
	.cfi_def_cfa_register 6
	movq	%rdi, -8(%rbp)
	movq	%rsi, -16(%rbp)
	.loc 1 174 10
	movq	-16(%rbp), %rax
	.loc 1 174 15
	popq	%rbp
	.cfi_def_cfa 7, 8
	ret
	.cfi_endproc
.LFE38:
	.size	_ZnwmPv, .-_ZnwmPv
	.section	.text._ZdlPvS_,"axG",@progbits,_ZdlPvS_,comdat
	.weak	_ZdlPvS_
	.type	_ZdlPvS_, @function
_ZdlPvS_:
.LASANPC40:
.LFB40:
	.loc 1 179 53
	.cfi_startproc
	endbr64
	pushq	%rbp
	.cfi_def_cfa_offset 16
	.cfi_offset 6, -16
	movq	%rsp, %rbp
	.cfi_def_cfa_register 6
	movq	%rdi, -8(%rbp)
	movq	%rsi, -16(%rbp)
	.loc 1 179 55
	nop
	popq	%rbp
	.cfi_def_cfa 7, 8
	ret
	.cfi_endproc
.LFE40:
	.size	_ZdlPvS_, .-_ZdlPvS_
	.section	.text._ZNSt11char_traitsIcE6lengthEPKc,"axG",@progbits,_ZNSt11char_traitsIcE6lengthEPKc,comdat
	.weak	_ZNSt11char_traitsIcE6lengthEPKc
	.type	_ZNSt11char_traitsIcE6lengthEPKc, @function
_ZNSt11char_traitsIcE6lengthEPKc:
.LASANPC402:
.LFB402:
	.file 2 "/usr/include/c++/9/bits/char_traits.h"
	.loc 2 329 7
	.cfi_startproc
	endbr64
	pushq	%rbp
	.cfi_def_cfa_offset 16
	.cfi_offset 6, -16
	movq	%rsp, %rbp
	.cfi_def_cfa_register 6
	subq	$32, %rsp
	movq	%rdi, -24(%rbp)
	movq	-24(%rbp), %rax
	movq	%rax, -8(%rbp)
.LBB4:
.LBB5:
	.loc 2 236 46
	movl	$0, %eax
.LBE5:
.LBE4:
	.loc 2 332 2
	testb	%al, %al
	je	.L6
	.loc 2 333 52
	movq	-24(%rbp), %rax
	movq	%rax, %rdi
	call	_ZN9__gnu_cxx11char_traitsIcE6lengthEPKc
	.loc 2 333 56
	jmp	.L7
.L6:
	.loc 2 335 25
	movq	-24(%rbp), %rax
	movq	%rax, %rdi
	call	strlen@PLT
	.loc 2 335 29
	nop
.L7:
	.loc 2 336 7
	leave
	.cfi_def_cfa 7, 8
	ret
	.cfi_endproc
.LFE402:
	.size	_ZNSt11char_traitsIcE6lengthEPKc, .-_ZNSt11char_traitsIcE6lengthEPKc
	.section	.text._ZStorSt13_Ios_OpenmodeS_,"axG",@progbits,_ZStorSt13_Ios_OpenmodeS_,comdat
	.weak	_ZStorSt13_Ios_OpenmodeS_
	.type	_ZStorSt13_Ios_OpenmodeS_, @function
_ZStorSt13_Ios_OpenmodeS_:
.LASANPC1423:
.LFB1423:
	.file 3 "/usr/include/c++/9/bits/ios_base.h"
	.loc 3 130 3
	.cfi_startproc
	endbr64
	pushq	%rbp
	.cfi_def_cfa_offset 16
	.cfi_offset 6, -16
	movq	%rsp, %rbp
	.cfi_def_cfa_register 6
	movl	%edi, -4(%rbp)
	movl	%esi, -8(%rbp)
	.loc 3 130 71
	movl	-4(%rbp), %eax
	orl	-8(%rbp), %eax
	.loc 3 130 74
	popq	%rbp
	.cfi_def_cfa 7, 8
	ret
	.cfi_endproc
.LFE1423:
	.size	_ZStorSt13_Ios_OpenmodeS_, .-_ZStorSt13_Ios_OpenmodeS_
	.bss
	.align 32
	.type	_ZStL8__ioinit, @object
	.size	_ZStL8__ioinit, 1
_ZStL8__ioinit:
	.zero	64
	.section	.text._ZNSt14_Bit_referenceC2EPmm,"axG",@progbits,_ZNSt14_Bit_referenceC5EPmm,comdat
	.align 2
	.weak	_ZNSt14_Bit_referenceC2EPmm
	.type	_ZNSt14_Bit_referenceC2EPmm, @function
_ZNSt14_Bit_referenceC2EPmm:
.LASANPC2033:
.LFB2033:
	.file 4 "/usr/include/c++/9/bits/stl_bvector.h"
	.loc 4 77 5
	.cfi_startproc
	endbr64
	pushq	%rbp
	.cfi_def_cfa_offset 16
	.cfi_offset 6, -16
	movq	%rsp, %rbp
	.cfi_def_cfa_register 6
	subq	$32, %rsp
	movq	%rdi, -8(%rbp)
	movq	%rsi, -16(%rbp)
	movq	%rdx, -24(%rbp)
.LBB6:
	.loc 4 78 29
	movq	-8(%rbp), %rax
	movq	%rax, %rdx
	shrq	$3, %rdx
	addq	$2147450880, %rdx
	movzbl	(%rdx), %edx
	testb	%dl, %dl
	je	.L11
	movq	%rax, %rdi
	call	__asan_report_store8@PLT
.L11:
	movq	-8(%rbp), %rax
	movq	-16(%rbp), %rdx
	movq	%rdx, (%rax)
	movq	-8(%rbp), %rax
	addq	$8, %rax
	movq	%rax, %rdx
	shrq	$3, %rdx
	addq	$2147450880, %rdx
	movzbl	(%rdx), %edx
	testb	%dl, %dl
	je	.L12
	movq	%rax, %rdi
	call	__asan_report_store8@PLT
.L12:
	movq	-8(%rbp), %rax
	movq	-24(%rbp), %rdx
	movq	%rdx, 8(%rax)
.LBE6:
	.loc 4 78 33
	nop
	leave
	.cfi_def_cfa 7, 8
	ret
	.cfi_endproc
.LFE2033:
	.size	_ZNSt14_Bit_referenceC2EPmm, .-_ZNSt14_Bit_referenceC2EPmm
	.weak	_ZNSt14_Bit_referenceC1EPmm
	.set	_ZNSt14_Bit_referenceC1EPmm,_ZNSt14_Bit_referenceC2EPmm
	.section	.text._ZNKSt14_Bit_referencecvbEv,"axG",@progbits,_ZNKSt14_Bit_referencecvbEv,comdat
	.align 2
	.weak	_ZNKSt14_Bit_referencecvbEv
	.type	_ZNKSt14_Bit_referencecvbEv, @function
_ZNKSt14_Bit_referencecvbEv:
.LASANPC2038:
.LFB2038:
	.loc 4 86 5
	.cfi_startproc
	endbr64
	pushq	%rbp
	.cfi_def_cfa_offset 16
	.cfi_offset 6, -16
	movq	%rsp, %rbp
	.cfi_def_cfa_register 6
	subq	$16, %rsp
	movq	%rdi, -8(%rbp)
	.loc 4 87 18
	movq	-8(%rbp), %rax
	movq	%rax, %rdx
	shrq	$3, %rdx
	addq	$2147450880, %rdx
	movzbl	(%rdx), %edx
	testb	%dl, %dl
	je	.L14
	movq	%rax, %rdi
	call	__asan_report_load8@PLT
.L14:
	movq	-8(%rbp), %rax
	movq	(%rax), %rax
	.loc 4 87 17
	movq	%rax, %rdx
	movq	%rdx, %rcx
	shrq	$3, %rcx
	addq	$2147450880, %rcx
	movzbl	(%rcx), %ecx
	testb	%cl, %cl
	je	.L15
	movq	%rdx, %rdi
	call	__asan_report_load8@PLT
.L15:
	movq	(%rax), %rcx
	.loc 4 87 25
	movq	-8(%rbp), %rax
	addq	$8, %rax
	movq	%rax, %rdx
	shrq	$3, %rdx
	addq	$2147450880, %rdx
	movzbl	(%rdx), %edx
	testb	%dl, %dl
	je	.L16
	movq	%rax, %rdi
	call	__asan_report_load8@PLT
.L16:
	movq	-8(%rbp), %rax
	movq	8(%rax), %rax
	.loc 4 87 23
	andq	%rcx, %rax
	.loc 4 87 32
	testq	%rax, %rax
	setne	%al
	.loc 4 87 35
	leave
	.cfi_def_cfa 7, 8
	ret
	.cfi_endproc
.LFE2038:
	.size	_ZNKSt14_Bit_referencecvbEv, .-_ZNKSt14_Bit_referencecvbEv
	.section	.text._ZNSt14_Bit_referenceaSEb,"axG",@progbits,_ZNSt14_Bit_referenceaSEb,comdat
	.align 2
	.weak	_ZNSt14_Bit_referenceaSEb
	.type	_ZNSt14_Bit_referenceaSEb, @function
_ZNSt14_Bit_referenceaSEb:
.LASANPC2039:
.LFB2039:
	.loc 4 90 5
	.cfi_startproc
	endbr64
	pushq	%rbp
	.cfi_def_cfa_offset 16
	.cfi_offset 6, -16
	movq	%rsp, %rbp
	.cfi_def_cfa_register 6
	subq	$16, %rsp
	movq	%rdi, -8(%rbp)
	movl	%esi, %eax
	movb	%al, -12(%rbp)
	.loc 4 92 7
	cmpb	$0, -12(%rbp)
	je	.L19
	.loc 4 93 3
	movq	-8(%rbp), %rax
	movq	%rax, %rdx
	shrq	$3, %rdx
	addq	$2147450880, %rdx
	movzbl	(%rdx), %edx
	testb	%dl, %dl
	je	.L20
	movq	%rax, %rdi
	call	__asan_report_load8@PLT
.L20:
	movq	-8(%rbp), %rax
	movq	(%rax), %rax
	.loc 4 93 8
	movq	%rax, %rdx
	movq	%rdx, %rcx
	shrq	$3, %rcx
	addq	$2147450880, %rcx
	movzbl	(%rcx), %ecx
	testb	%cl, %cl
	je	.L21
	movq	%rdx, %rdi
	call	__asan_report_load8@PLT
.L21:
	movq	(%rax), %rcx
	.loc 4 93 11
	movq	-8(%rbp), %rax
	addq	$8, %rax
	movq	%rax, %rdx
	shrq	$3, %rdx
	addq	$2147450880, %rdx
	movzbl	(%rdx), %edx
	testb	%dl, %dl
	je	.L22
	movq	%rax, %rdi
	call	__asan_report_load8@PLT
.L22:
	movq	-8(%rbp), %rax
	movq	8(%rax), %rdx
	.loc 4 93 3
	movq	-8(%rbp), %rax
	movq	(%rax), %rax
	.loc 4 93 8
	movq	%rcx, %rsi
	orq	%rdx, %rsi
	movq	%rax, %rdx
	movq	%rdx, %rcx
	shrq	$3, %rcx
	addq	$2147450880, %rcx
	movzbl	(%rcx), %ecx
	testb	%cl, %cl
	je	.L23
	movq	%rdx, %rdi
	call	__asan_report_store8@PLT
.L23:
	movq	%rsi, (%rax)
	jmp	.L24
.L19:
	.loc 4 95 3
	movq	-8(%rbp), %rax
	movq	%rax, %rdx
	shrq	$3, %rdx
	addq	$2147450880, %rdx
	movzbl	(%rdx), %edx
	testb	%dl, %dl
	je	.L25
	movq	%rax, %rdi
	call	__asan_report_load8@PLT
.L25:
	movq	-8(%rbp), %rax
	movq	(%rax), %rax
	.loc 4 95 8
	movq	%rax, %rdx
	movq	%rdx, %rcx
	shrq	$3, %rcx
	addq	$2147450880, %rcx
	movzbl	(%rcx), %ecx
	testb	%cl, %cl
	je	.L26
	movq	%rdx, %rdi
	call	__asan_report_load8@PLT
.L26:
	movq	(%rax), %rcx
	.loc 4 95 12
	movq	-8(%rbp), %rax
	addq	$8, %rax
	movq	%rax, %rdx
	shrq	$3, %rdx
	addq	$2147450880, %rdx
	movzbl	(%rdx), %edx
	testb	%dl, %dl
	je	.L27
	movq	%rax, %rdi
	call	__asan_report_load8@PLT
.L27:
	movq	-8(%rbp), %rax
	movq	8(%rax), %rax
	.loc 4 95 11
	notq	%rax
	movq	%rax, %rdx
	.loc 4 95 3
	movq	-8(%rbp), %rax
	movq	(%rax), %rax
	.loc 4 95 8
	movq	%rcx, %rsi
	andq	%rdx, %rsi
	movq	%rax, %rdx
	movq	%rdx, %rcx
	shrq	$3, %rcx
	addq	$2147450880, %rcx
	movzbl	(%rcx), %ecx
	testb	%cl, %cl
	je	.L28
	movq	%rdx, %rdi
	call	__asan_report_store8@PLT
.L28:
	movq	%rsi, (%rax)
.L24:
	.loc 4 96 15
	movq	-8(%rbp), %rax
	.loc 4 97 5
	leave
	.cfi_def_cfa 7, 8
	ret
	.cfi_endproc
.LFE2039:
	.size	_ZNSt14_Bit_referenceaSEb, .-_ZNSt14_Bit_referenceaSEb
	.section	.text._ZNKSt14_Bit_referenceeqERKS_,"axG",@progbits,_ZNKSt14_Bit_referenceeqERKS_,comdat
	.align 2
	.weak	_ZNKSt14_Bit_referenceeqERKS_
	.type	_ZNKSt14_Bit_referenceeqERKS_, @function
_ZNKSt14_Bit_referenceeqERKS_:
.LASANPC2041:
.LFB2041:
	.loc 4 104 5
	.cfi_startproc
	endbr64
	pushq	%rbp
	.cfi_def_cfa_offset 16
	.cfi_offset 6, -16
	movq	%rsp, %rbp
	.cfi_def_cfa_register 6
	pushq	%rbx
	subq	$24, %rsp
	.cfi_offset 3, -24
	movq	%rdi, -24(%rbp)
	movq	%rsi, -32(%rbp)
	.loc 4 105 14
	movq	-24(%rbp), %rax
	movq	%rax, %rdi
	call	_ZNKSt14_Bit_referencecvbEv
	movl	%eax, %ebx
	.loc 4 105 29
	movq	-32(%rbp), %rax
	movq	%rax, %rdi
	call	_ZNKSt14_Bit_referencecvbEv
	.loc 4 105 37
	cmpb	%al, %bl
	sete	%al
	.loc 4 105 40
	addq	$24, %rsp
	popq	%rbx
	popq	%rbp
	.cfi_def_cfa 7, 8
	ret
	.cfi_endproc
.LFE2041:
	.size	_ZNKSt14_Bit_referenceeqERKS_, .-_ZNKSt14_Bit_referenceeqERKS_
	.section	.text._ZNSt18_Bit_iterator_baseC2EPmj,"axG",@progbits,_ZNSt18_Bit_iterator_baseC5EPmj,comdat
	.align 2
	.weak	_ZNSt18_Bit_iterator_baseC2EPmj
	.type	_ZNSt18_Bit_iterator_baseC2EPmj, @function
_ZNSt18_Bit_iterator_baseC2EPmj:
.LASANPC2048:
.LFB2048:
	.loc 4 148 5
	.cfi_startproc
	endbr64
	pushq	%rbp
	.cfi_def_cfa_offset 16
	.cfi_offset 6, -16
	movq	%rsp, %rbp
	.cfi_def_cfa_register 6
	subq	$32, %rsp
	movq	%rdi, -8(%rbp)
	movq	%rsi, -16(%rbp)
	movl	%edx, -20(%rbp)
.LBB7:
	.loc 4 149 31
	movq	-8(%rbp), %rax
	movq	%rax, %rdx
	shrq	$3, %rdx
	addq	$2147450880, %rdx
	movzbl	(%rdx), %edx
	testb	%dl, %dl
	je	.L33
	movq	%rax, %rdi
	call	__asan_report_store8@PLT
.L33:
	movq	-8(%rbp), %rax
	movq	-16(%rbp), %rdx
	movq	%rdx, (%rax)
	movq	-8(%rbp), %rax
	addq	$8, %rax
	movq	%rax, %rdx
	movq	%rdx, %rax
	shrq	$3, %rax
	addq	$2147450880, %rax
	movzbl	(%rax), %eax
	testb	%al, %al
	setne	%cl
	cmpb	$3, %al
	setle	%al
	andl	%ecx, %eax
	testb	%al, %al
	je	.L34
	movq	%rdx, %rdi
	call	__asan_report_store4@PLT
.L34:
	movq	-8(%rbp), %rax
	movl	-20(%rbp), %edx
	movl	%edx, 8(%rax)
.LBE7:
	.loc 4 149 35
	nop
	leave
	.cfi_def_cfa 7, 8
	ret
	.cfi_endproc
.LFE2048:
	.size	_ZNSt18_Bit_iterator_baseC2EPmj, .-_ZNSt18_Bit_iterator_baseC2EPmj
	.weak	_ZNSt18_Bit_iterator_baseC1EPmj
	.set	_ZNSt18_Bit_iterator_baseC1EPmj,_ZNSt18_Bit_iterator_baseC2EPmj
	.section	.text._ZNSt18_Bit_iterator_base10_M_bump_upEv,"axG",@progbits,_ZNSt18_Bit_iterator_base10_M_bump_upEv,comdat
	.align 2
	.weak	_ZNSt18_Bit_iterator_base10_M_bump_upEv
	.type	_ZNSt18_Bit_iterator_base10_M_bump_upEv, @function
_ZNSt18_Bit_iterator_base10_M_bump_upEv:
.LASANPC2050:
.LFB2050:
	.loc 4 152 5
	.cfi_startproc
	endbr64
	pushq	%rbp
	.cfi_def_cfa_offset 16
	.cfi_offset 6, -16
	movq	%rsp, %rbp
	.cfi_def_cfa_register 6
	subq	$16, %rsp
	movq	%rdi, -8(%rbp)
	.loc 4 154 11
	movq	-8(%rbp), %rax
	addq	$8, %rax
	movq	%rax, %rdx
	movq	%rdx, %rax
	shrq	$3, %rax
	addq	$2147450880, %rax
	movzbl	(%rax), %eax
	testb	%al, %al
	setne	%cl
	cmpb	$3, %al
	setle	%al
	andl	%ecx, %eax
	testb	%al, %al
	je	.L36
	movq	%rdx, %rdi
	call	__asan_report_load4@PLT
.L36:
	movq	-8(%rbp), %rax
	movl	8(%rax), %eax
	.loc 4 154 20
	leal	1(%rax), %ecx
	movq	-8(%rbp), %rdx
	movl	%ecx, 8(%rdx)
	.loc 4 154 23
	cmpl	$63, %eax
	sete	%al
	.loc 4 154 7
	testb	%al, %al
	je	.L39
	.loc 4 156 14
	movq	-8(%rbp), %rax
	movl	$0, 8(%rax)
	.loc 4 157 6
	movq	-8(%rbp), %rax
	movq	%rax, %rdx
	shrq	$3, %rdx
	addq	$2147450880, %rdx
	movzbl	(%rdx), %edx
	testb	%dl, %dl
	je	.L38
	movq	%rax, %rdi
	call	__asan_report_load8@PLT
.L38:
	movq	-8(%rbp), %rax
	movq	(%rax), %rax
	.loc 4 157 4
	leaq	8(%rax), %rdx
	movq	-8(%rbp), %rax
	movq	%rdx, (%rax)
.L39:
	.loc 4 159 5
	nop
	leave
	.cfi_def_cfa 7, 8
	ret
	.cfi_endproc
.LFE2050:
	.size	_ZNSt18_Bit_iterator_base10_M_bump_upEv, .-_ZNSt18_Bit_iterator_base10_M_bump_upEv
	.section	.text._ZNSt18_Bit_iterator_base7_M_incrEl,"axG",@progbits,_ZNSt18_Bit_iterator_base7_M_incrEl,comdat
	.align 2
	.weak	_ZNSt18_Bit_iterator_base7_M_incrEl
	.type	_ZNSt18_Bit_iterator_base7_M_incrEl, @function
_ZNSt18_Bit_iterator_base7_M_incrEl:
.LASANPC2052:
.LFB2052:
	.loc 4 172 5
	.cfi_startproc
	endbr64
	pushq	%rbp
	.cfi_def_cfa_offset 16
	.cfi_offset 6, -16
	movq	%rsp, %rbp
	.cfi_def_cfa_register 6
	subq	$32, %rsp
	movq	%rdi, -24(%rbp)
	movq	%rsi, -32(%rbp)
	.loc 4 174 35
	movq	-24(%rbp), %rax
	addq	$8, %rax
	movq	%rax, %rdx
	movq	%rdx, %rax
	shrq	$3, %rax
	addq	$2147450880, %rax
	movzbl	(%rax), %eax
	testb	%al, %al
	setne	%cl
	cmpb	$3, %al
	setle	%al
	andl	%ecx, %eax
	testb	%al, %al
	je	.L41
	movq	%rdx, %rdi
	call	__asan_report_load4@PLT
.L41:
	movq	-24(%rbp), %rax
	movl	8(%rax), %eax
	movl	%eax, %edx
	.loc 4 174 23
	movq	-32(%rbp), %rax
	addq	%rdx, %rax
	movq	%rax, -8(%rbp)
	.loc 4 175 12
	movq	-24(%rbp), %rax
	movq	%rax, %rdx
	shrq	$3, %rdx
	addq	$2147450880, %rdx
	movzbl	(%rdx), %edx
	testb	%dl, %dl
	je	.L42
	movq	%rax, %rdi
	call	__asan_report_load8@PLT
.L42:
	movq	-24(%rbp), %rax
	movq	(%rax), %rdx
	.loc 4 175 19
	movq	-8(%rbp), %rax
	leaq	63(%rax), %rcx
	testq	%rax, %rax
	cmovs	%rcx, %rax
	sarq	$6, %rax
	.loc 4 175 12
	salq	$3, %rax
	addq	%rax, %rdx
	movq	-24(%rbp), %rax
	movq	%rdx, (%rax)
	.loc 4 176 11
	movq	-8(%rbp), %rax
	cqto
	shrq	$58, %rdx
	addq	%rdx, %rax
	andl	$63, %eax
	subq	%rdx, %rax
	movq	%rax, -8(%rbp)
	.loc 4 177 7
	cmpq	$0, -8(%rbp)
	jns	.L43
	.loc 4 179 8
	addq	$64, -8(%rbp)
	.loc 4 180 6
	movq	-24(%rbp), %rax
	movq	(%rax), %rax
	.loc 4 180 4
	leaq	-8(%rax), %rdx
	movq	-24(%rbp), %rax
	movq	%rdx, (%rax)
.L43:
	.loc 4 182 17
	movq	-8(%rbp), %rax
	movl	%eax, %esi
	movq	-24(%rbp), %rax
	addq	$8, %rax
	movq	%rax, %rdx
	movq	%rdx, %rax
	shrq	$3, %rax
	addq	$2147450880, %rax
	movzbl	(%rax), %eax
	testb	%al, %al
	setne	%cl
	cmpb	$3, %al
	setle	%al
	andl	%ecx, %eax
	testb	%al, %al
	je	.L44
	movq	%rdx, %rdi
	call	__asan_report_store4@PLT
.L44:
	movq	-24(%rbp), %rax
	movl	%esi, 8(%rax)
	.loc 4 183 5
	nop
	leave
	.cfi_def_cfa 7, 8
	ret
	.cfi_endproc
.LFE2052:
	.size	_ZNSt18_Bit_iterator_base7_M_incrEl, .-_ZNSt18_Bit_iterator_base7_M_incrEl
	.section	.text._ZStmiRKSt18_Bit_iterator_baseS1_,"axG",@progbits,_ZStmiRKSt18_Bit_iterator_baseS1_,comdat
	.weak	_ZStmiRKSt18_Bit_iterator_baseS1_
	.type	_ZStmiRKSt18_Bit_iterator_baseS1_, @function
_ZStmiRKSt18_Bit_iterator_baseS1_:
.LASANPC2059:
.LFB2059:
	.loc 4 215 3
	.cfi_startproc
	endbr64
	pushq	%rbp
	.cfi_def_cfa_offset 16
	.cfi_offset 6, -16
	movq	%rsp, %rbp
	.cfi_def_cfa_register 6
	subq	$16, %rsp
	movq	%rdi, -8(%rbp)
	movq	%rsi, -16(%rbp)
	.loc 4 216 37
	movq	-8(%rbp), %rax
	movq	%rax, %rdx
	shrq	$3, %rdx
	addq	$2147450880, %rdx
	movzbl	(%rdx), %edx
	testb	%dl, %dl
	je	.L46
	movq	%rax, %rdi
	call	__asan_report_load8@PLT
.L46:
	movq	-8(%rbp), %rax
	movq	(%rax), %rcx
	.loc 4 216 48
	movq	-16(%rbp), %rax
	movq	%rax, %rdx
	shrq	$3, %rdx
	addq	$2147450880, %rdx
	movzbl	(%rdx), %edx
	testb	%dl, %dl
	je	.L47
	movq	%rax, %rdi
	call	__asan_report_load8@PLT
.L47:
	movq	-16(%rbp), %rax
	movq	(%rax), %rax
	.loc 4 216 42
	subq	%rax, %rcx
	movq	%rcx, %rax
	.loc 4 217 6
	leaq	0(,%rax,8), %rcx
	.loc 4 217 12
	movq	-8(%rbp), %rax
	addq	$8, %rax
	movq	%rax, %rdx
	movq	%rdx, %rax
	shrq	$3, %rax
	addq	$2147450880, %rax
	movzbl	(%rax), %eax
	testb	%al, %al
	setne	%sil
	cmpb	$3, %al
	setle	%al
	andl	%esi, %eax
	testb	%al, %al
	je	.L48
	movq	%rdx, %rdi
	call	__asan_report_load4@PLT
.L48:
	movq	-8(%rbp), %rax
	movl	8(%rax), %eax
	movl	%eax, %eax
	.loc 4 217 6
	addq	%rax, %rcx
	.loc 4 217 28
	movq	-16(%rbp), %rax
	addq	$8, %rax
	movq	%rax, %rdx
	movq	%rdx, %rax
	shrq	$3, %rax
	addq	$2147450880, %rax
	movzbl	(%rax), %eax
	testb	%al, %al
	setne	%sil
	cmpb	$3, %al
	setle	%al
	andl	%esi, %eax
	testb	%al, %al
	je	.L49
	movq	%rdx, %rdi
	call	__asan_report_load4@PLT
.L49:
	movq	-16(%rbp), %rax
	movl	8(%rax), %eax
	movl	%eax, %eax
	.loc 4 217 37
	subq	%rax, %rcx
	movq	%rcx, %rax
	.loc 4 218 3
	leave
	.cfi_def_cfa 7, 8
	ret
	.cfi_endproc
.LFE2059:
	.size	_ZStmiRKSt18_Bit_iterator_baseS1_, .-_ZStmiRKSt18_Bit_iterator_baseS1_
	.section	.text._ZNSt13_Bit_iteratorC2Ev,"axG",@progbits,_ZNSt13_Bit_iteratorC5Ev,comdat
	.align 2
	.weak	_ZNSt13_Bit_iteratorC2Ev
	.type	_ZNSt13_Bit_iteratorC2Ev, @function
_ZNSt13_Bit_iteratorC2Ev:
.LASANPC2061:
.LFB2061:
	.loc 4 226 5
	.cfi_startproc
	endbr64
	pushq	%rbp
	.cfi_def_cfa_offset 16
	.cfi_offset 6, -16
	movq	%rsp, %rbp
	.cfi_def_cfa_register 6
	subq	$16, %rsp
	movq	%rdi, -8(%rbp)
.LBB8:
	.loc 4 226 46
	movq	-8(%rbp), %rax
	movl	$0, %edx
	movl	$0, %esi
	movq	%rax, %rdi
	call	_ZNSt18_Bit_iterator_baseC2EPmj
.LBE8:
	.loc 4 226 50
	nop
	leave
	.cfi_def_cfa 7, 8
	ret
	.cfi_endproc
.LFE2061:
	.size	_ZNSt13_Bit_iteratorC2Ev, .-_ZNSt13_Bit_iteratorC2Ev
	.weak	_ZNSt13_Bit_iteratorC1Ev
	.set	_ZNSt13_Bit_iteratorC1Ev,_ZNSt13_Bit_iteratorC2Ev
	.section	.text._ZNSt13_Bit_iteratorC2EPmj,"axG",@progbits,_ZNSt13_Bit_iteratorC5EPmj,comdat
	.align 2
	.weak	_ZNSt13_Bit_iteratorC2EPmj
	.type	_ZNSt13_Bit_iteratorC2EPmj, @function
_ZNSt13_Bit_iteratorC2EPmj:
.LASANPC2064:
.LFB2064:
	.loc 4 228 5
	.cfi_startproc
	endbr64
	pushq	%rbp
	.cfi_def_cfa_offset 16
	.cfi_offset 6, -16
	movq	%rsp, %rbp
	.cfi_def_cfa_register 6
	subq	$32, %rsp
	movq	%rdi, -8(%rbp)
	movq	%rsi, -16(%rbp)
	movl	%edx, -20(%rbp)
.LBB9:
	.loc 4 229 34
	movq	-8(%rbp), %rax
	movl	-20(%rbp), %edx
	movq	-16(%rbp), %rcx
	movq	%rcx, %rsi
	movq	%rax, %rdi
	call	_ZNSt18_Bit_iterator_baseC2EPmj
.LBE9:
	.loc 4 229 38
	nop
	leave
	.cfi_def_cfa 7, 8
	ret
	.cfi_endproc
.LFE2064:
	.size	_ZNSt13_Bit_iteratorC2EPmj, .-_ZNSt13_Bit_iteratorC2EPmj
	.weak	_ZNSt13_Bit_iteratorC1EPmj
	.set	_ZNSt13_Bit_iteratorC1EPmj,_ZNSt13_Bit_iteratorC2EPmj
	.globl	__asan_stack_malloc_0
	.section	.rodata
.LC0:
	.string	"1 32 16 9 <unknown>"
	.section	.text._ZNKSt13_Bit_iteratordeEv,"axG",@progbits,_ZNKSt13_Bit_iteratordeEv,comdat
	.align 2
	.weak	_ZNKSt13_Bit_iteratordeEv
	.type	_ZNKSt13_Bit_iteratordeEv, @function
_ZNKSt13_Bit_iteratordeEv:
.LASANPC2067:
.LFB2067:
	.loc 4 236 5
	.cfi_startproc
	endbr64
	pushq	%rbp
	.cfi_def_cfa_offset 16
	.cfi_offset 6, -16
	movq	%rsp, %rbp
	.cfi_def_cfa_register 6
	pushq	%r14
	pushq	%r13
	pushq	%r12
	pushq	%rbx
	subq	$112, %rsp
	.cfi_offset 14, -24
	.cfi_offset 13, -32
	.cfi_offset 12, -40
	.cfi_offset 3, -48
	movq	%rdi, -136(%rbp)
	leaq	-128(%rbp), %rbx
	movq	%rbx, %r14
	cmpl	$0, __asan_option_detect_stack_use_after_return(%rip)
	je	.L53
	movl	$64, %edi
	call	__asan_stack_malloc_0@PLT
.LVL0:
	testq	%rax, %rax
	je	.L53
	movq	%rax, %rbx
.L53:
	leaq	96(%rbx), %rax
	movq	%rax, %r13
	movq	$1102416563, (%rbx)
	leaq	.LC0(%rip), %rax
	movq	%rax, 8(%rbx)
	leaq	.LASANPC2067(%rip), %rax
	movq	%rax, 16(%rbx)
	movq	%rbx, %r12
	shrq	$3, %r12
	movl	$-235802127, 2147450880(%r12)
	movl	$-202178560, 2147450884(%r12)
	.loc 4 236 5
	movq	%fs:40, %rax
	movq	%rax, -40(%rbp)
	xorl	%eax, %eax
	.loc 4 237 37
	movq	-136(%rbp), %rax
	addq	$8, %rax
	movq	%rax, %rdx
	movq	%rdx, %rax
	shrq	$3, %rax
	addq	$2147450880, %rax
	movzbl	(%rax), %eax
	testb	%al, %al
	setne	%cl
	cmpb	$3, %al
	setle	%al
	andl	%ecx, %eax
	testb	%al, %al
	je	.L57
	movq	%rdx, %rdi
	call	__asan_report_load4@PLT
.L57:
	movq	-136(%rbp), %rax
	movl	8(%rax), %eax
	.loc 4 237 14
	movl	$1, %edx
	movl	%eax, %ecx
	salq	%cl, %rdx
	.loc 4 237 24
	movq	-136(%rbp), %rax
	movq	%rax, %rcx
	shrq	$3, %rcx
	addq	$2147450880, %rcx
	movzbl	(%rcx), %ecx
	testb	%cl, %cl
	je	.L58
	movq	%rax, %rdi
	call	__asan_report_load8@PLT
.L58:
	movq	-136(%rbp), %rax
	movq	(%rax), %rcx
	.loc 4 237 14
	leaq	-64(%r13), %rax
	movq	%rcx, %rsi
	movq	%rax, %rdi
	call	_ZNSt14_Bit_referenceC1EPmm
	.loc 4 237 46
	leaq	-64(%r13), %rax
	movq	%rax, %rdx
	shrq	$3, %rdx
	addq	$2147450880, %rdx
	movzwl	(%rdx), %edx
	testw	%dx, %dx
	je	.L59
	movq	%rax, %rdi
	call	__asan_report_load16@PLT
.L59:
	movq	-64(%r13), %rax
	movq	-56(%r13), %rdx
	.loc 4 236 5
	cmpq	%rbx, %r14
	je	.L54
	movq	$1172321806, (%rbx)
	movabsq	$-723401728380766731, %rsi
	movq	%rsi, 2147450880(%r12)
	movq	56(%rbx), %rcx
	movb	$0, (%rcx)
	jmp	.L55
.L54:
	movq	$0, 2147450880(%r12)
.L55:
	.loc 4 237 49
	movq	-40(%rbp), %rsi
	xorq	%fs:40, %rsi
	je	.L61
	call	__stack_chk_fail@PLT
.L61:
	addq	$112, %rsp
	popq	%rbx
	popq	%r12
	popq	%r13
	popq	%r14
	popq	%rbp
	.cfi_def_cfa 7, 8
	ret
	.cfi_endproc
.LFE2067:
	.size	_ZNKSt13_Bit_iteratordeEv, .-_ZNKSt13_Bit_iteratordeEv
	.section	.text._ZNSt13_Bit_iteratorppEv,"axG",@progbits,_ZNSt13_Bit_iteratorppEv,comdat
	.align 2
	.weak	_ZNSt13_Bit_iteratorppEv
	.type	_ZNSt13_Bit_iteratorppEv, @function
_ZNSt13_Bit_iteratorppEv:
.LASANPC2068:
.LFB2068:
	.loc 4 240 5
	.cfi_startproc
	endbr64
	pushq	%rbp
	.cfi_def_cfa_offset 16
	.cfi_offset 6, -16
	movq	%rsp, %rbp
	.cfi_def_cfa_register 6
	subq	$16, %rsp
	movq	%rdi, -8(%rbp)
	.loc 4 242 17
	movq	-8(%rbp), %rax
	movq	%rax, %rdi
	call	_ZNSt18_Bit_iterator_base10_M_bump_upEv
	.loc 4 243 15
	movq	-8(%rbp), %rax
	.loc 4 244 5
	leave
	.cfi_def_cfa 7, 8
	ret
	.cfi_endproc
.LFE2068:
	.size	_ZNSt13_Bit_iteratorppEv, .-_ZNSt13_Bit_iteratorppEv
	.section	.text._ZNSt13_Bit_iteratorpLEl,"axG",@progbits,_ZNSt13_Bit_iteratorpLEl,comdat
	.align 2
	.weak	_ZNSt13_Bit_iteratorpLEl
	.type	_ZNSt13_Bit_iteratorpLEl, @function
_ZNSt13_Bit_iteratorpLEl:
.LASANPC2072:
.LFB2072:
	.loc 4 270 5
	.cfi_startproc
	endbr64
	pushq	%rbp
	.cfi_def_cfa_offset 16
	.cfi_offset 6, -16
	movq	%rsp, %rbp
	.cfi_def_cfa_register 6
	subq	$16, %rsp
	movq	%rdi, -8(%rbp)
	movq	%rsi, -16(%rbp)
	.loc 4 272 14
	movq	-8(%rbp), %rax
	movq	-16(%rbp), %rdx
	movq	%rdx, %rsi
	movq	%rax, %rdi
	call	_ZNSt18_Bit_iterator_base7_M_incrEl
	.loc 4 273 15
	movq	-8(%rbp), %rax
	.loc 4 274 5
	leave
	.cfi_def_cfa 7, 8
	ret
	.cfi_endproc
.LFE2072:
	.size	_ZNSt13_Bit_iteratorpLEl, .-_ZNSt13_Bit_iteratorpLEl
	.section	.rodata
.LC1:
	.string	"1 32 16 9 __tmp:286"
	.section	.text._ZNKSt13_Bit_iteratorplEl,"axG",@progbits,_ZNKSt13_Bit_iteratorplEl,comdat
	.align 2
	.weak	_ZNKSt13_Bit_iteratorplEl
	.type	_ZNKSt13_Bit_iteratorplEl, @function
_ZNKSt13_Bit_iteratorplEl:
.LASANPC2074:
.LFB2074:
	.loc 4 284 5
	.cfi_startproc
	endbr64
	pushq	%rbp
	.cfi_def_cfa_offset 16
	.cfi_offset 6, -16
	movq	%rsp, %rbp
	.cfi_def_cfa_register 6
	pushq	%r13
	pushq	%r12
	pushq	%rbx
	subq	$152, %rsp
	.cfi_offset 13, -24
	.cfi_offset 12, -32
	.cfi_offset 3, -40
	movq	%rdi, -152(%rbp)
	movq	%rsi, -160(%rbp)
	leaq	-128(%rbp), %rbx
	movq	%rbx, %r13
	cmpl	$0, __asan_option_detect_stack_use_after_return(%rip)
	je	.L66
	movl	$64, %edi
	call	__asan_stack_malloc_0@PLT
.LVL1:
	testq	%rax, %rax
	je	.L66
	movq	%rax, %rbx
.L66:
	leaq	96(%rbx), %rax
	movq	$1102416563, (%rbx)
	leaq	.LC1(%rip), %rdx
	movq	%rdx, 8(%rbx)
	leaq	.LASANPC2074(%rip), %rdx
	movq	%rdx, 16(%rbx)
	movq	%rbx, %r12
	shrq	$3, %r12
	movl	$-235802127, 2147450880(%r12)
	movl	$-202178560, 2147450884(%r12)
	.loc 4 284 5
	movq	%fs:40, %rsi
	movq	%rsi, -40(%rbp)
	xorl	%esi, %esi
	.loc 4 286 16
	leaq	-64(%rax), %rdx
	movq	%rdx, %rcx
	shrq	$3, %rcx
	addq	$2147450880, %rcx
	movzwl	(%rcx), %ecx
	testw	%cx, %cx
	je	.L70
	movq	%rdx, %rdi
	call	__asan_report_store16@PLT
.L70:
	movq	-152(%rbp), %rdx
	movq	%rdx, %rcx
	shrq	$3, %rcx
	addq	$2147450880, %rcx
	movzwl	(%rcx), %ecx
	testw	%cx, %cx
	je	.L71
	movq	%rdx, %rdi
	call	__asan_report_load16@PLT
.L71:
	movq	-152(%rbp), %rdx
	movq	(%rdx), %rsi
	movq	8(%rdx), %rdi
	movq	%rsi, -64(%rax)
	movq	%rdi, -56(%rax)
	.loc 4 287 23
	movq	-160(%rbp), %rdx
	subq	$64, %rax
	movq	%rdx, %rsi
	movq	%rax, %rdi
	call	_ZNSt13_Bit_iteratorpLEl
	movq	%rax, %rdx
	movq	%rdx, %rcx
	shrq	$3, %rcx
	addq	$2147450880, %rcx
	movzwl	(%rcx), %ecx
	testw	%cx, %cx
	je	.L72
	movq	%rdx, %rdi
	call	__asan_report_load16@PLT
.L72:
	movq	8(%rax), %rdx
	movq	(%rax), %rax
	movq	%rax, -144(%rbp)
	movq	%rdx, -136(%rbp)
	movq	-144(%rbp), %rax
	movq	-136(%rbp), %rdx
	.loc 4 284 5
	cmpq	%rbx, %r13
	je	.L67
	movq	$1172321806, (%rbx)
	movabsq	$-723401728380766731, %rsi
	movq	%rsi, 2147450880(%r12)
	movq	56(%rbx), %rcx
	movb	$0, (%rcx)
	jmp	.L68
.L67:
	movq	$0, 2147450880(%r12)
.L68:
	.loc 4 288 5
	movq	-40(%rbp), %rdi
	xorq	%fs:40, %rdi
	je	.L74
	call	__stack_chk_fail@PLT
.L74:
	addq	$152, %rsp
	popq	%rbx
	popq	%r12
	popq	%r13
	popq	%rbp
	.cfi_def_cfa 7, 8
	ret
	.cfi_endproc
.LFE2074:
	.size	_ZNKSt13_Bit_iteratorplEl, .-_ZNKSt13_Bit_iteratorplEl
	.section	.text._ZNSt19_Bit_const_iteratorC2EPmj,"axG",@progbits,_ZNSt19_Bit_const_iteratorC5EPmj,comdat
	.align 2
	.weak	_ZNSt19_Bit_const_iteratorC2EPmj
	.type	_ZNSt19_Bit_const_iteratorC2EPmj, @function
_ZNSt19_Bit_const_iteratorC2EPmj:
.LASANPC2082:
.LFB2082:
	.loc 4 315 5
	.cfi_startproc
	endbr64
	pushq	%rbp
	.cfi_def_cfa_offset 16
	.cfi_offset 6, -16
	movq	%rsp, %rbp
	.cfi_def_cfa_register 6
	subq	$32, %rsp
	movq	%rdi, -8(%rbp)
	movq	%rsi, -16(%rbp)
	movl	%edx, -20(%rbp)
.LBB10:
	.loc 4 316 34
	movq	-8(%rbp), %rax
	movl	-20(%rbp), %edx
	movq	-16(%rbp), %rcx
	movq	%rcx, %rsi
	movq	%rax, %rdi
	call	_ZNSt18_Bit_iterator_baseC2EPmj
.LBE10:
	.loc 4 316 38
	nop
	leave
	.cfi_def_cfa 7, 8
	ret
	.cfi_endproc
.LFE2082:
	.size	_ZNSt19_Bit_const_iteratorC2EPmj, .-_ZNSt19_Bit_const_iteratorC2EPmj
	.weak	_ZNSt19_Bit_const_iteratorC1EPmj
	.set	_ZNSt19_Bit_const_iteratorC1EPmj,_ZNSt19_Bit_const_iteratorC2EPmj
	.section	.text._ZNSt19_Bit_const_iteratorC2ERKSt13_Bit_iterator,"axG",@progbits,_ZNSt19_Bit_const_iteratorC5ERKSt13_Bit_iterator,comdat
	.align 2
	.weak	_ZNSt19_Bit_const_iteratorC2ERKSt13_Bit_iterator
	.type	_ZNSt19_Bit_const_iteratorC2ERKSt13_Bit_iterator, @function
_ZNSt19_Bit_const_iteratorC2ERKSt13_Bit_iterator:
.LASANPC2085:
.LFB2085:
	.loc 4 318 5
	.cfi_startproc
	endbr64
	pushq	%rbp
	.cfi_def_cfa_offset 16
	.cfi_offset 6, -16
	movq	%rsp, %rbp
	.cfi_def_cfa_register 6
	subq	$16, %rsp
	movq	%rdi, -8(%rbp)
	movq	%rsi, -16(%rbp)
.LBB11:
	.loc 4 319 49
	movq	-8(%rbp), %rcx
	.loc 4 319 40
	movq	-16(%rbp), %rax
	addq	$8, %rax
	movq	%rax, %rdx
	movq	%rdx, %rax
	shrq	$3, %rax
	addq	$2147450880, %rax
	movzbl	(%rax), %eax
	testb	%al, %al
	setne	%sil
	cmpb	$3, %al
	setle	%al
	andl	%esi, %eax
	testb	%al, %al
	je	.L77
	movq	%rdx, %rdi
	call	__asan_report_load4@PLT
.L77:
	movq	-16(%rbp), %rax
	movl	8(%rax), %edx
	.loc 4 319 30
	movq	-16(%rbp), %rax
	movq	%rax, %rsi
	shrq	$3, %rsi
	addq	$2147450880, %rsi
	movzbl	(%rsi), %esi
	testb	%sil, %sil
	je	.L78
	movq	%rax, %rdi
	call	__asan_report_load8@PLT
.L78:
	movq	-16(%rbp), %rax
	movq	(%rax), %rax
	.loc 4 319 49
	movq	%rax, %rsi
	movq	%rcx, %rdi
	call	_ZNSt18_Bit_iterator_baseC2EPmj
.LBE11:
	.loc 4 319 53
	nop
	leave
	.cfi_def_cfa 7, 8
	ret
	.cfi_endproc
.LFE2085:
	.size	_ZNSt19_Bit_const_iteratorC2ERKSt13_Bit_iterator, .-_ZNSt19_Bit_const_iteratorC2ERKSt13_Bit_iterator
	.weak	_ZNSt19_Bit_const_iteratorC1ERKSt13_Bit_iterator
	.set	_ZNSt19_Bit_const_iteratorC1ERKSt13_Bit_iterator,_ZNSt19_Bit_const_iteratorC2ERKSt13_Bit_iterator
	.section	.text._ZNKSt19_Bit_const_iteratordeEv,"axG",@progbits,_ZNKSt19_Bit_const_iteratordeEv,comdat
	.align 2
	.weak	_ZNKSt19_Bit_const_iteratordeEv
	.type	_ZNKSt19_Bit_const_iteratordeEv, @function
_ZNKSt19_Bit_const_iteratordeEv:
.LASANPC2088:
.LFB2088:
	.loc 4 326 5
	.cfi_startproc
	endbr64
	pushq	%rbp
	.cfi_def_cfa_offset 16
	.cfi_offset 6, -16
	movq	%rsp, %rbp
	.cfi_def_cfa_register 6
	pushq	%r14
	pushq	%r13
	pushq	%r12
	pushq	%rbx
	subq	$112, %rsp
	.cfi_offset 14, -24
	.cfi_offset 13, -32
	.cfi_offset 12, -40
	.cfi_offset 3, -48
	movq	%rdi, -136(%rbp)
	leaq	-128(%rbp), %rbx
	movq	%rbx, %r14
	cmpl	$0, __asan_option_detect_stack_use_after_return(%rip)
	je	.L79
	movl	$64, %edi
	call	__asan_stack_malloc_0@PLT
.LVL2:
	testq	%rax, %rax
	je	.L79
	movq	%rax, %rbx
.L79:
	leaq	96(%rbx), %rax
	movq	%rax, %r13
	movq	$1102416563, (%rbx)
	leaq	.LC0(%rip), %rax
	movq	%rax, 8(%rbx)
	leaq	.LASANPC2088(%rip), %rax
	movq	%rax, 16(%rbx)
	movq	%rbx, %r12
	shrq	$3, %r12
	movl	$-235802127, 2147450880(%r12)
	movl	$-202178560, 2147450884(%r12)
	.loc 4 326 5
	movq	%fs:40, %rax
	movq	%rax, -40(%rbp)
	xorl	%eax, %eax
	.loc 4 327 42
	movq	-136(%rbp), %rax
	addq	$8, %rax
	movq	%rax, %rdx
	movq	%rdx, %rax
	shrq	$3, %rax
	addq	$2147450880, %rax
	movzbl	(%rax), %eax
	testb	%al, %al
	setne	%cl
	cmpb	$3, %al
	setle	%al
	andl	%ecx, %eax
	testb	%al, %al
	je	.L83
	movq	%rdx, %rdi
	call	__asan_report_load4@PLT
.L83:
	movq	-136(%rbp), %rax
	movl	8(%rax), %eax
	.loc 4 327 14
	movl	$1, %edx
	movl	%eax, %ecx
	salq	%cl, %rdx
	.loc 4 327 29
	movq	-136(%rbp), %rax
	movq	%rax, %rcx
	shrq	$3, %rcx
	addq	$2147450880, %rcx
	movzbl	(%rcx), %ecx
	testb	%cl, %cl
	je	.L84
	movq	%rax, %rdi
	call	__asan_report_load8@PLT
.L84:
	movq	-136(%rbp), %rax
	movq	(%rax), %rcx
	.loc 4 327 14
	leaq	-64(%r13), %rax
	movq	%rcx, %rsi
	movq	%rax, %rdi
	call	_ZNSt14_Bit_referenceC1EPmm
	.loc 4 327 51
	leaq	-64(%r13), %rax
	movq	%rax, %rdi
	call	_ZNKSt14_Bit_referencecvbEv
	movl	%eax, %edx
	.loc 4 326 5
	cmpq	%rbx, %r14
	je	.L80
	movq	$1172321806, (%rbx)
	movabsq	$-723401728380766731, %rax
	movq	%rax, 2147450880(%r12)
	movq	56(%rbx), %rax
	movb	$0, (%rax)
	jmp	.L81
.L80:
	movq	$0, 2147450880(%r12)
.L81:
	.loc 4 327 54
	movq	-40(%rbp), %rax
	xorq	%fs:40, %rax
	je	.L86
	call	__stack_chk_fail@PLT
.L86:
	movl	%edx, %eax
	addq	$112, %rsp
	popq	%rbx
	popq	%r12
	popq	%r13
	popq	%r14
	popq	%rbp
	.cfi_def_cfa 7, 8
	ret
	.cfi_endproc
.LFE2088:
	.size	_ZNKSt19_Bit_const_iteratordeEv, .-_ZNKSt19_Bit_const_iteratordeEv
	.section	.text._ZNSt19_Bit_const_iteratorppEv,"axG",@progbits,_ZNSt19_Bit_const_iteratorppEv,comdat
	.align 2
	.weak	_ZNSt19_Bit_const_iteratorppEv
	.type	_ZNSt19_Bit_const_iteratorppEv, @function
_ZNSt19_Bit_const_iteratorppEv:
.LASANPC2089:
.LFB2089:
	.loc 4 330 5
	.cfi_startproc
	endbr64
	pushq	%rbp
	.cfi_def_cfa_offset 16
	.cfi_offset 6, -16
	movq	%rsp, %rbp
	.cfi_def_cfa_register 6
	subq	$16, %rsp
	movq	%rdi, -8(%rbp)
	.loc 4 332 17
	movq	-8(%rbp), %rax
	movq	%rax, %rdi
	call	_ZNSt18_Bit_iterator_base10_M_bump_upEv
	.loc 4 333 15
	movq	-8(%rbp), %rax
	.loc 4 334 5
	leave
	.cfi_def_cfa 7, 8
	ret
	.cfi_endproc
.LFE2089:
	.size	_ZNSt19_Bit_const_iteratorppEv, .-_ZNSt19_Bit_const_iteratorppEv
	.section	.text._ZSt11setiosflagsSt13_Ios_Fmtflags,"axG",@progbits,_ZSt11setiosflagsSt13_Ios_Fmtflags,comdat
	.weak	_ZSt11setiosflagsSt13_Ios_Fmtflags
	.type	_ZSt11setiosflagsSt13_Ios_Fmtflags, @function
_ZSt11setiosflagsSt13_Ios_Fmtflags:
.LASANPC2765:
.LFB2765:
	.file 5 "/usr/include/c++/9/iomanip"
	.loc 5 97 3
	.cfi_startproc
	endbr64
	pushq	%rbp
	.cfi_def_cfa_offset 16
	.cfi_offset 6, -16
	movq	%rsp, %rbp
	.cfi_def_cfa_register 6
	movl	%edi, -4(%rbp)
	.loc 5 97 21
	movl	-4(%rbp), %eax
	.loc 5 97 24
	popq	%rbp
	.cfi_def_cfa 7, 8
	ret
	.cfi_endproc
.LFE2765:
	.size	_ZSt11setiosflagsSt13_Ios_Fmtflags, .-_ZSt11setiosflagsSt13_Ios_Fmtflags
	.section	.text._ZSt4setwi,"axG",@progbits,_ZSt4setwi,comdat
	.weak	_ZSt4setwi
	.type	_ZSt4setwi, @function
_ZSt4setwi:
.LASANPC2777:
.LFB2777:
	.loc 5 226 3
	.cfi_startproc
	endbr64
	pushq	%rbp
	.cfi_def_cfa_offset 16
	.cfi_offset 6, -16
	movq	%rsp, %rbp
	.cfi_def_cfa_register 6
	movl	%edi, -4(%rbp)
	.loc 5 226 18
	movl	-4(%rbp), %eax
	.loc 5 226 21
	popq	%rbp
	.cfi_def_cfa 7, 8
	ret
	.cfi_endproc
.LFE2777:
	.size	_ZSt4setwi, .-_ZSt4setwi
	.section	.text._ZNSt9_Any_data9_M_accessEv,"axG",@progbits,_ZNSt9_Any_data9_M_accessEv,comdat
	.align 2
	.weak	_ZNSt9_Any_data9_M_accessEv
	.type	_ZNSt9_Any_data9_M_accessEv, @function
_ZNSt9_Any_data9_M_accessEv:
.LASANPC2822:
.LFB2822:
	.file 6 "/usr/include/c++/9/bits/std_function.h"
	.loc 6 87 11
	.cfi_startproc
	endbr64
	pushq	%rbp
	.cfi_def_cfa_offset 16
	.cfi_offset 6, -16
	movq	%rsp, %rbp
	.cfi_def_cfa_register 6
	movq	%rdi, -8(%rbp)
	.loc 6 87 46
	movq	-8(%rbp), %rax
	.loc 6 87 49
	popq	%rbp
	.cfi_def_cfa 7, 8
	ret
	.cfi_endproc
.LFE2822:
	.size	_ZNSt9_Any_data9_M_accessEv, .-_ZNSt9_Any_data9_M_accessEv
	.section	.text._ZNKSt9_Any_data9_M_accessEv,"axG",@progbits,_ZNKSt9_Any_data9_M_accessEv,comdat
	.align 2
	.weak	_ZNKSt9_Any_data9_M_accessEv
	.type	_ZNKSt9_Any_data9_M_accessEv, @function
_ZNKSt9_Any_data9_M_accessEv:
.LASANPC2823:
.LFB2823:
	.loc 6 88 17
	.cfi_startproc
	endbr64
	pushq	%rbp
	.cfi_def_cfa_offset 16
	.cfi_offset 6, -16
	movq	%rsp, %rbp
	.cfi_def_cfa_register 6
	movq	%rdi, -8(%rbp)
	.loc 6 88 58
	movq	-8(%rbp), %rax
	.loc 6 88 61
	popq	%rbp
	.cfi_def_cfa 7, 8
	ret
	.cfi_endproc
.LFE2823:
	.size	_ZNKSt9_Any_data9_M_accessEv, .-_ZNKSt9_Any_data9_M_accessEv
	.section	.text._ZNSt14_Function_baseC2Ev,"axG",@progbits,_ZNSt14_Function_baseC5Ev,comdat
	.align 2
	.weak	_ZNSt14_Function_baseC2Ev
	.type	_ZNSt14_Function_baseC2Ev, @function
_ZNSt14_Function_baseC2Ev:
.LASANPC2841:
.LFB2841:
	.loc 6 255 5
	.cfi_startproc
	endbr64
	pushq	%rbp
	.cfi_def_cfa_offset 16
	.cfi_offset 6, -16
	movq	%rsp, %rbp
	.cfi_def_cfa_register 6
	subq	$16, %rsp
	movq	%rdi, -8(%rbp)
.LBB12:
	.loc 6 255 42
	movq	-8(%rbp), %rax
	addq	$16, %rax
	movq	%rax, %rdx
	shrq	$3, %rdx
	addq	$2147450880, %rdx
	movzbl	(%rdx), %edx
	testb	%dl, %dl
	je	.L98
	movq	%rax, %rdi
	call	__asan_report_store8@PLT
.L98:
	movq	-8(%rbp), %rax
	movq	$0, 16(%rax)
.LBE12:
	.loc 6 255 46
	nop
	leave
	.cfi_def_cfa 7, 8
	ret
	.cfi_endproc
.LFE2841:
	.size	_ZNSt14_Function_baseC2Ev, .-_ZNSt14_Function_baseC2Ev
	.weak	_ZNSt14_Function_baseC1Ev
	.set	_ZNSt14_Function_baseC1Ev,_ZNSt14_Function_baseC2Ev
	.section	.text._ZNSt14_Function_baseD2Ev,"axG",@progbits,_ZNSt14_Function_baseD5Ev,comdat
	.align 2
	.weak	_ZNSt14_Function_baseD2Ev
	.type	_ZNSt14_Function_baseD2Ev, @function
_ZNSt14_Function_baseD2Ev:
.LASANPC2844:
.LFB2844:
	.loc 6 257 5
	.cfi_startproc
	.cfi_personality 0x9b,DW.ref.__gxx_personality_v0
	.cfi_lsda 0x1b,.LLSDA2844
	endbr64
	pushq	%rbp
	.cfi_def_cfa_offset 16
	.cfi_offset 6, -16
	movq	%rsp, %rbp
	.cfi_def_cfa_register 6
	subq	$16, %rsp
	movq	%rdi, -8(%rbp)
.LBB13:
	.loc 6 259 11
	movq	-8(%rbp), %rax
	addq	$16, %rax
	movq	%rax, %rdx
	shrq	$3, %rdx
	addq	$2147450880, %rdx
	movzbl	(%rdx), %edx
	testb	%dl, %dl
	je	.L100
	movq	%rax, %rdi
	call	__asan_report_load8@PLT
.L100:
	movq	-8(%rbp), %rax
	movq	16(%rax), %rax
	.loc 6 259 7
	testq	%rax, %rax
	je	.L102
	.loc 6 260 2
	movq	-8(%rbp), %rax
	movq	16(%rax), %r8
	.loc 6 260 25
	movq	-8(%rbp), %rcx
	.loc 6 260 13
	movq	-8(%rbp), %rax
	.loc 6 260 12
	movl	$3, %edx
	movq	%rcx, %rsi
	movq	%rax, %rdi
	call	*%r8
.LVL3:
.L102:
.LBE13:
	.loc 6 261 5
	nop
	leave
	.cfi_def_cfa 7, 8
	ret
	.cfi_endproc
.LFE2844:
	.globl	__gxx_personality_v0
	.section	.gcc_except_table._ZNSt14_Function_baseD2Ev,"aG",@progbits,_ZNSt14_Function_baseD5Ev,comdat
.LLSDA2844:
	.byte	0xff
	.byte	0xff
	.byte	0x1
	.uleb128 .LLSDACSE2844-.LLSDACSB2844
.LLSDACSB2844:
.LLSDACSE2844:
	.section	.text._ZNSt14_Function_baseD2Ev,"axG",@progbits,_ZNSt14_Function_baseD5Ev,comdat
	.size	_ZNSt14_Function_baseD2Ev, .-_ZNSt14_Function_baseD2Ev
	.weak	_ZNSt14_Function_baseD1Ev
	.set	_ZNSt14_Function_baseD1Ev,_ZNSt14_Function_baseD2Ev
	.section	.text._ZNKSt14_Function_base8_M_emptyEv,"axG",@progbits,_ZNKSt14_Function_base8_M_emptyEv,comdat
	.align 2
	.weak	_ZNKSt14_Function_base8_M_emptyEv
	.type	_ZNKSt14_Function_base8_M_emptyEv, @function
_ZNKSt14_Function_base8_M_emptyEv:
.LASANPC2846:
.LFB2846:
	.loc 6 263 10
	.cfi_startproc
	endbr64
	pushq	%rbp
	.cfi_def_cfa_offset 16
	.cfi_offset 6, -16
	movq	%rsp, %rbp
	.cfi_def_cfa_register 6
	subq	$16, %rsp
	movq	%rdi, -8(%rbp)
	.loc 6 263 37
	movq	-8(%rbp), %rax
	addq	$16, %rax
	movq	%rax, %rdx
	shrq	$3, %rdx
	addq	$2147450880, %rdx
	movzbl	(%rdx), %edx
	testb	%dl, %dl
	je	.L104
	movq	%rax, %rdi
	call	__asan_report_load8@PLT
.L104:
	movq	-8(%rbp), %rax
	movq	16(%rax), %rax
	testq	%rax, %rax
	sete	%al
	.loc 6 263 49
	leave
	.cfi_def_cfa 7, 8
	ret
	.cfi_endproc
.LFE2846:
	.size	_ZNKSt14_Function_base8_M_emptyEv, .-_ZNKSt14_Function_base8_M_emptyEv
	.section	.text._ZSt3minImERKT_S2_S2_,"axG",@progbits,_ZSt3minImERKT_S2_S2_,comdat
	.weak	_ZSt3minImERKT_S2_S2_
	.type	_ZSt3minImERKT_S2_S2_, @function
_ZSt3minImERKT_S2_S2_:
.LASANPC2938:
.LFB2938:
	.file 7 "/usr/include/c++/9/bits/stl_algobase.h"
	.loc 7 198 5
	.cfi_startproc
	endbr64
	pushq	%rbp
	.cfi_def_cfa_offset 16
	.cfi_offset 6, -16
	movq	%rsp, %rbp
	.cfi_def_cfa_register 6
	subq	$16, %rsp
	movq	%rdi, -8(%rbp)
	movq	%rsi, -16(%rbp)
	.loc 7 203 15
	movq	-16(%rbp), %rax
	movq	%rax, %rdx
	shrq	$3, %rdx
	addq	$2147450880, %rdx
	movzbl	(%rdx), %edx
	testb	%dl, %dl
	je	.L107
	movq	%rax, %rdi
	call	__asan_report_load8@PLT
.L107:
	movq	-16(%rbp), %rax
	movq	(%rax), %rcx
	movq	-8(%rbp), %rax
	movq	%rax, %rdx
	shrq	$3, %rdx
	addq	$2147450880, %rdx
	movzbl	(%rdx), %edx
	testb	%dl, %dl
	je	.L108
	movq	%rax, %rdi
	call	__asan_report_load8@PLT
.L108:
	movq	-8(%rbp), %rax
	movq	(%rax), %rax
	.loc 7 203 7
	cmpq	%rax, %rcx
	jnb	.L109
	.loc 7 204 9
	movq	-16(%rbp), %rax
	jmp	.L110
.L109:
	.loc 7 205 14
	movq	-8(%rbp), %rax
.L110:
	.loc 7 206 5
	leave
	.cfi_def_cfa 7, 8
	ret
	.cfi_endproc
.LFE2938:
	.size	_ZSt3minImERKT_S2_S2_, .-_ZSt3minImERKT_S2_S2_
	.section	.text._ZNSt18_Rb_tree_node_base10_S_minimumEPS_,"axG",@progbits,_ZNSt18_Rb_tree_node_base10_S_minimumEPS_,comdat
	.weak	_ZNSt18_Rb_tree_node_base10_S_minimumEPS_
	.type	_ZNSt18_Rb_tree_node_base10_S_minimumEPS_, @function
_ZNSt18_Rb_tree_node_base10_S_minimumEPS_:
.LASANPC3773:
.LFB3773:
	.file 8 "/usr/include/c++/9/bits/stl_tree.h"
	.loc 8 112 5
	.cfi_startproc
	endbr64
	pushq	%rbp
	.cfi_def_cfa_offset 16
	.cfi_offset 6, -16
	movq	%rsp, %rbp
	.cfi_def_cfa_register 6
	subq	$16, %rsp
	movq	%rdi, -8(%rbp)
.L114:
	.loc 8 114 19 discriminator 2
	movq	-8(%rbp), %rax
	addq	$16, %rax
	movq	%rax, %rdx
	shrq	$3, %rdx
	addq	$2147450880, %rdx
	movzbl	(%rdx), %edx
	testb	%dl, %dl
	je	.L112
	.loc 8 114 19 is_stmt 0
	movq	%rax, %rdi
	call	__asan_report_load8@PLT
.L112:
	.loc 8 114 19 discriminator 2
	movq	-8(%rbp), %rax
	movq	16(%rax), %rax
	.loc 8 114 27 is_stmt 1 discriminator 2
	testq	%rax, %rax
	je	.L113
	.loc 8 114 37 discriminator 1
	movq	-8(%rbp), %rax
	movq	16(%rax), %rax
	movq	%rax, -8(%rbp)
	.loc 8 114 7 discriminator 1
	jmp	.L114
.L113:
	.loc 8 115 14
	movq	-8(%rbp), %rax
	.loc 8 116 5
	leave
	.cfi_def_cfa 7, 8
	ret
	.cfi_endproc
.LFE3773:
	.size	_ZNSt18_Rb_tree_node_base10_S_minimumEPS_, .-_ZNSt18_Rb_tree_node_base10_S_minimumEPS_
	.section	.text._ZNSt18_Rb_tree_node_base10_S_maximumEPS_,"axG",@progbits,_ZNSt18_Rb_tree_node_base10_S_maximumEPS_,comdat
	.weak	_ZNSt18_Rb_tree_node_base10_S_maximumEPS_
	.type	_ZNSt18_Rb_tree_node_base10_S_maximumEPS_, @function
_ZNSt18_Rb_tree_node_base10_S_maximumEPS_:
.LASANPC3775:
.LFB3775:
	.loc 8 126 5
	.cfi_startproc
	endbr64
	pushq	%rbp
	.cfi_def_cfa_offset 16
	.cfi_offset 6, -16
	movq	%rsp, %rbp
	.cfi_def_cfa_register 6
	subq	$16, %rsp
	movq	%rdi, -8(%rbp)
.L119:
	.loc 8 128 19 discriminator 2
	movq	-8(%rbp), %rax
	addq	$24, %rax
	movq	%rax, %rdx
	shrq	$3, %rdx
	addq	$2147450880, %rdx
	movzbl	(%rdx), %edx
	testb	%dl, %dl
	je	.L117
	.loc 8 128 19 is_stmt 0
	movq	%rax, %rdi
	call	__asan_report_load8@PLT
.L117:
	.loc 8 128 19 discriminator 2
	movq	-8(%rbp), %rax
	movq	24(%rax), %rax
	.loc 8 128 28 is_stmt 1 discriminator 2
	testq	%rax, %rax
	je	.L118
	.loc 8 128 38 discriminator 1
	movq	-8(%rbp), %rax
	movq	24(%rax), %rax
	movq	%rax, -8(%rbp)
	.loc 8 128 7 discriminator 1
	jmp	.L119
.L118:
	.loc 8 129 14
	movq	-8(%rbp), %rax
	.loc 8 130 5
	leave
	.cfi_def_cfa 7, 8
	ret
	.cfi_endproc
.LFE3775:
	.size	_ZNSt18_Rb_tree_node_base10_S_maximumEPS_, .-_ZNSt18_Rb_tree_node_base10_S_maximumEPS_
	.section	.text._ZNSt15_Rb_tree_headerC2Ev,"axG",@progbits,_ZNSt15_Rb_tree_headerC5Ev,comdat
	.align 2
	.weak	_ZNSt15_Rb_tree_headerC2Ev
	.type	_ZNSt15_Rb_tree_headerC2Ev, @function
_ZNSt15_Rb_tree_headerC2Ev:
.LASANPC3781:
.LFB3781:
	.loc 8 173 5
	.cfi_startproc
	endbr64
	pushq	%rbp
	.cfi_def_cfa_offset 16
	.cfi_offset 6, -16
	movq	%rsp, %rbp
	.cfi_def_cfa_register 6
	subq	$16, %rsp
	movq	%rdi, -8(%rbp)
.LBB14:
	.loc 8 175 26
	movq	-8(%rbp), %rax
	movq	%rax, %rdx
	movq	%rdx, %rax
	shrq	$3, %rax
	addq	$2147450880, %rax
	movzbl	(%rax), %eax
	testb	%al, %al
	setne	%cl
	cmpb	$3, %al
	setle	%al
	andl	%ecx, %eax
	testb	%al, %al
	je	.L122
	movq	%rdx, %rdi
	call	__asan_report_store4@PLT
.L122:
	movq	-8(%rbp), %rax
	movl	$0, (%rax)
	.loc 8 176 15
	movq	-8(%rbp), %rax
	movq	%rax, %rdi
	call	_ZNSt15_Rb_tree_header8_M_resetEv
.LBE14:
	.loc 8 177 5
	nop
	leave
	.cfi_def_cfa 7, 8
	ret
	.cfi_endproc
.LFE3781:
	.size	_ZNSt15_Rb_tree_headerC2Ev, .-_ZNSt15_Rb_tree_headerC2Ev
	.weak	_ZNSt15_Rb_tree_headerC1Ev
	.set	_ZNSt15_Rb_tree_headerC1Ev,_ZNSt15_Rb_tree_headerC2Ev
	.section	.text._ZNSt15_Rb_tree_header8_M_resetEv,"axG",@progbits,_ZNSt15_Rb_tree_header8_M_resetEv,comdat
	.align 2
	.weak	_ZNSt15_Rb_tree_header8_M_resetEv
	.type	_ZNSt15_Rb_tree_header8_M_resetEv, @function
_ZNSt15_Rb_tree_header8_M_resetEv:
.LASANPC3787:
.LFB3787:
	.loc 8 206 5
	.cfi_startproc
	endbr64
	pushq	%rbp
	.cfi_def_cfa_offset 16
	.cfi_offset 6, -16
	movq	%rsp, %rbp
	.cfi_def_cfa_register 6
	subq	$16, %rsp
	movq	%rdi, -8(%rbp)
	.loc 8 208 27
	movq	-8(%rbp), %rax
	addq	$8, %rax
	movq	%rax, %rdx
	shrq	$3, %rdx
	addq	$2147450880, %rdx
	movzbl	(%rdx), %edx
	testb	%dl, %dl
	je	.L124
	movq	%rax, %rdi
	call	__asan_report_store8@PLT
.L124:
	movq	-8(%rbp), %rax
	movq	$0, 8(%rax)
	.loc 8 209 27
	movq	-8(%rbp), %rdx
	.loc 8 209 25
	movq	-8(%rbp), %rax
	addq	$16, %rax
	movq	%rax, %rcx
	shrq	$3, %rcx
	addq	$2147450880, %rcx
	movzbl	(%rcx), %ecx
	testb	%cl, %cl
	je	.L125
	movq	%rax, %rdi
	call	__asan_report_store8@PLT
.L125:
	movq	-8(%rbp), %rax
	movq	%rdx, 16(%rax)
	.loc 8 210 28
	movq	-8(%rbp), %rdx
	.loc 8 210 26
	movq	-8(%rbp), %rax
	addq	$24, %rax
	movq	%rax, %rcx
	shrq	$3, %rcx
	addq	$2147450880, %rcx
	movzbl	(%rcx), %ecx
	testb	%cl, %cl
	je	.L126
	movq	%rax, %rdi
	call	__asan_report_store8@PLT
.L126:
	movq	-8(%rbp), %rax
	movq	%rdx, 24(%rax)
	.loc 8 211 21
	movq	-8(%rbp), %rax
	addq	$32, %rax
	movq	%rax, %rdx
	shrq	$3, %rdx
	addq	$2147450880, %rdx
	movzbl	(%rdx), %edx
	testb	%dl, %dl
	je	.L127
	movq	%rax, %rdi
	call	__asan_report_store8@PLT
.L127:
	movq	-8(%rbp), %rax
	movq	$0, 32(%rax)
	.loc 8 212 5
	nop
	leave
	.cfi_def_cfa 7, 8
	ret
	.cfi_endproc
.LFE3787:
	.size	_ZNSt15_Rb_tree_header8_M_resetEv, .-_ZNSt15_Rb_tree_header8_M_resetEv
	.section	.text._ZNSt22bernoulli_distribution10param_typeC2Ed,"axG",@progbits,_ZNSt22bernoulli_distribution10param_typeC5Ed,comdat
	.align 2
	.weak	_ZNSt22bernoulli_distribution10param_typeC2Ed
	.type	_ZNSt22bernoulli_distribution10param_typeC2Ed, @function
_ZNSt22bernoulli_distribution10param_typeC2Ed:
.LASANPC4801:
.LFB4801:
	.file 9 "/usr/include/c++/9/bits/random.h"
	.loc 9 3529 7
	.cfi_startproc
	endbr64
	pushq	%rbp
	.cfi_def_cfa_offset 16
	.cfi_offset 6, -16
	movq	%rsp, %rbp
	.cfi_def_cfa_register 6
	subq	$16, %rsp
	movq	%rdi, -8(%rbp)
	movsd	%xmm0, -16(%rbp)
.LBB15:
	.loc 9 3530 17
	movq	-8(%rbp), %rax
	movq	%rax, %rdx
	shrq	$3, %rdx
	addq	$2147450880, %rdx
	movzbl	(%rdx), %edx
	testb	%dl, %dl
	je	.L129
	movq	%rax, %rdi
	call	__asan_report_store8@PLT
.L129:
	movq	-8(%rbp), %rax
	movsd	-16(%rbp), %xmm0
	movsd	%xmm0, (%rax)
.LBE15:
	.loc 9 3533 7
	nop
	leave
	.cfi_def_cfa 7, 8
	ret
	.cfi_endproc
.LFE4801:
	.size	_ZNSt22bernoulli_distribution10param_typeC2Ed, .-_ZNSt22bernoulli_distribution10param_typeC2Ed
	.weak	_ZNSt22bernoulli_distribution10param_typeC1Ed
	.set	_ZNSt22bernoulli_distribution10param_typeC1Ed,_ZNSt22bernoulli_distribution10param_typeC2Ed
	.section	.text._ZNKSt22bernoulli_distribution10param_type1pEv,"axG",@progbits,_ZNKSt22bernoulli_distribution10param_type1pEv,comdat
	.align 2
	.weak	_ZNKSt22bernoulli_distribution10param_type1pEv
	.type	_ZNKSt22bernoulli_distribution10param_type1pEv, @function
_ZNKSt22bernoulli_distribution10param_type1pEv:
.LASANPC4803:
.LFB4803:
	.loc 9 3536 7
	.cfi_startproc
	endbr64
	pushq	%rbp
	.cfi_def_cfa_offset 16
	.cfi_offset 6, -16
	movq	%rsp, %rbp
	.cfi_def_cfa_register 6
	subq	$16, %rsp
	movq	%rdi, -8(%rbp)
	.loc 9 3537 16
	movq	-8(%rbp), %rax
	movq	%rax, %rdx
	shrq	$3, %rdx
	addq	$2147450880, %rdx
	movzbl	(%rdx), %edx
	testb	%dl, %dl
	je	.L131
	movq	%rax, %rdi
	call	__asan_report_load8@PLT
.L131:
	movq	-8(%rbp), %rax
	movsd	(%rax), %xmm0
	.loc 9 3537 22
	leave
	.cfi_def_cfa 7, 8
	ret
	.cfi_endproc
.LFE4803:
	.size	_ZNKSt22bernoulli_distribution10param_type1pEv, .-_ZNKSt22bernoulli_distribution10param_type1pEv
	.section	.text._ZNSt22bernoulli_distributionC2Ev,"axG",@progbits,_ZNSt22bernoulli_distributionC5Ev,comdat
	.align 2
	.weak	_ZNSt22bernoulli_distributionC2Ev
	.type	_ZNSt22bernoulli_distributionC2Ev, @function
_ZNSt22bernoulli_distributionC2Ev:
.LASANPC4807:
.LFB4807:
	.loc 9 3555 5
	.cfi_startproc
	endbr64
	pushq	%rbp
	.cfi_def_cfa_offset 16
	.cfi_offset 6, -16
	movq	%rsp, %rbp
	.cfi_def_cfa_register 6
	subq	$16, %rsp
	movq	%rdi, -8(%rbp)
.LBB16:
	.loc 9 3555 58
	movq	.LC2(%rip), %rdx
	movq	-8(%rbp), %rax
	movq	%rdx, %xmm0
	movq	%rax, %rdi
	call	_ZNSt22bernoulli_distributionC1Ed
.LBE16:
	.loc 9 3555 62
	nop
	leave
	.cfi_def_cfa 7, 8
	ret
	.cfi_endproc
.LFE4807:
	.size	_ZNSt22bernoulli_distributionC2Ev, .-_ZNSt22bernoulli_distributionC2Ev
	.weak	_ZNSt22bernoulli_distributionC1Ev
	.set	_ZNSt22bernoulli_distributionC1Ev,_ZNSt22bernoulli_distributionC2Ev
	.section	.text._ZNSt22bernoulli_distributionC2Ed,"axG",@progbits,_ZNSt22bernoulli_distributionC5Ed,comdat
	.align 2
	.weak	_ZNSt22bernoulli_distributionC2Ed
	.type	_ZNSt22bernoulli_distributionC2Ed, @function
_ZNSt22bernoulli_distributionC2Ed:
.LASANPC4810:
.LFB4810:
	.loc 9 3564 5
	.cfi_startproc
	endbr64
	pushq	%rbp
	.cfi_def_cfa_offset 16
	.cfi_offset 6, -16
	movq	%rsp, %rbp
	.cfi_def_cfa_register 6
	subq	$16, %rsp
	movq	%rdi, -8(%rbp)
	movsd	%xmm0, -16(%rbp)
.LBB17:
	.loc 9 3565 19
	movq	-8(%rbp), %rax
	movq	-16(%rbp), %rdx
	movq	%rdx, %xmm0
	movq	%rax, %rdi
	call	_ZNSt22bernoulli_distribution10param_typeC1Ed
.LBE17:
	.loc 9 3566 7
	nop
	leave
	.cfi_def_cfa 7, 8
	ret
	.cfi_endproc
.LFE4810:
	.size	_ZNSt22bernoulli_distributionC2Ed, .-_ZNSt22bernoulli_distributionC2Ed
	.weak	_ZNSt22bernoulli_distributionC1Ed
	.set	_ZNSt22bernoulli_distributionC1Ed,_ZNSt22bernoulli_distributionC2Ed
	.section	.rodata
	.align 32
	.type	_ZN6__pstl9execution2v1L3seqE, @object
	.size	_ZN6__pstl9execution2v1L3seqE, 1
_ZN6__pstl9execution2v1L3seqE:
	.zero	1
	.zero	63
	.align 32
	.type	_ZN6__pstl9execution2v1L3parE, @object
	.size	_ZN6__pstl9execution2v1L3parE, 1
_ZN6__pstl9execution2v1L3parE:
	.zero	1
	.zero	63
	.align 32
	.type	_ZN6__pstl9execution2v1L9par_unseqE, @object
	.size	_ZN6__pstl9execution2v1L9par_unseqE, 1
_ZN6__pstl9execution2v1L9par_unseqE:
	.zero	1
	.zero	63
	.align 32
	.type	_ZN6__pstl9execution2v1L5unseqE, @object
	.size	_ZN6__pstl9execution2v1L5unseqE, 1
_ZN6__pstl9execution2v1L5unseqE:
	.zero	1
	.zero	63
	.globl	__asan_stack_malloc_1
	.align 8
.LC3:
	.string	"2 32 16 9 <unknown> 64 16 9 <unknown>"
	.section	.text._ZNK8Relation8propertyMUliiRS_E_clEiiS0_,"axG",@progbits,_ZNK8Relation8propertyMUliiRS_E_clEiiS0_,comdat
	.align 2
	.weak	_ZNK8Relation8propertyMUliiRS_E_clEiiS0_
	.type	_ZNK8Relation8propertyMUliiRS_E_clEiiS0_, @function
_ZNK8Relation8propertyMUliiRS_E_clEiiS0_:
.LASANPC5223:
.LFB5223:
	.file 10 "../mainRelation.cpp"
	.loc 10 33 82
	.cfi_startproc
	endbr64
	pushq	%rbp
	.cfi_def_cfa_offset 16
	.cfi_offset 6, -16
	movq	%rsp, %rbp
	.cfi_def_cfa_register 6
	pushq	%r14
	pushq	%r13
	pushq	%r12
	pushq	%rbx
	subq	$160, %rsp
	.cfi_offset 14, -24
	.cfi_offset 13, -32
	.cfi_offset 12, -40
	.cfi_offset 3, -48
	movq	%rdi, -168(%rbp)
	movl	%esi, -172(%rbp)
	movl	%edx, -176(%rbp)
	movq	%rcx, -184(%rbp)
	leaq	-160(%rbp), %rbx
	movq	%rbx, %r14
	cmpl	$0, __asan_option_detect_stack_use_after_return(%rip)
	je	.L135
	movl	$96, %edi
	call	__asan_stack_malloc_1@PLT
.LVL4:
	testq	%rax, %rax
	je	.L135
	movq	%rax, %rbx
.L135:
	leaq	128(%rbx), %rax
	movq	%rax, %r13
	movq	$1102416563, (%rbx)
	leaq	.LC3(%rip), %rax
	movq	%rax, 8(%rbx)
	leaq	.LASANPC5223(%rip), %rax
	movq	%rax, 16(%rbx)
	movq	%rbx, %r12
	shrq	$3, %r12
	movl	$-235802127, 2147450880(%r12)
	movl	$-219021312, 2147450884(%r12)
	movl	$-202178560, 2147450888(%r12)
	.loc 10 33 82
	movq	%fs:40, %rax
	movq	%rax, -40(%rbp)
	xorl	%eax, %eax
	.loc 10 35 103
	movq	-184(%rbp), %rax
	movl	-176(%rbp), %edx
	movslq	%edx, %rdx
	movq	%rdx, %rsi
	movq	%rax, %rdi
	call	_ZN6MatrixIbEixEm
	movq	%rax, %rdi
	.loc 10 35 106
	movl	-172(%rbp), %eax
	cltq
	leaq	-64(%r13), %rdx
	movq	%rdx, %rcx
	shrq	$3, %rcx
	addq	$2147450880, %rcx
	movzwl	(%rcx), %ecx
	testw	%cx, %cx
	je	.L139
	movq	%rdx, %rdi
	call	__asan_report_store16@PLT
.L139:
	movq	%rax, %rsi
	call	_ZNSt6vectorIbSaIbEEixEm
	movq	%rax, -64(%r13)
	movq	%rdx, -56(%r13)
	.loc 10 35 87
	movq	-184(%rbp), %rax
	movl	-172(%rbp), %edx
	movslq	%edx, %rdx
	movq	%rdx, %rsi
	movq	%rax, %rdi
	call	_ZN6MatrixIbEixEm
	movq	%rax, %rdi
	.loc 10 35 90
	movl	-176(%rbp), %eax
	cltq
	leaq	-96(%r13), %rdx
	movq	%rdx, %rcx
	shrq	$3, %rcx
	addq	$2147450880, %rcx
	movzwl	(%rcx), %ecx
	testw	%cx, %cx
	je	.L140
	movq	%rdx, %rdi
	call	__asan_report_store16@PLT
.L140:
	movq	%rax, %rsi
	call	_ZNSt6vectorIbSaIbEEixEm
	movq	%rax, -96(%r13)
	movq	%rdx, -88(%r13)
	.loc 10 35 92
	leaq	-64(%r13), %rax
	leaq	-96(%r13), %rdx
	movq	%rax, %rsi
	movq	%rdx, %rdi
	call	_ZNKSt14_Bit_referenceeqERKS_
	.loc 10 35 106
	movl	%eax, %edx
	.loc 10 33 82
	cmpq	%rbx, %r14
	je	.L136
	movq	$1172321806, (%rbx)
	movabsq	$-723401728380766731, %rax
	movq	%rax, 2147450880(%r12)
	movl	$-168430091, 2147450888(%r12)
	movq	120(%rbx), %rax
	movb	$0, (%rax)
	jmp	.L137
.L136:
	movq	$0, 2147450880(%r12)
	movl	$0, 2147450888(%r12)
.L137:
	.loc 10 36 68
	movq	-40(%rbp), %rax
	xorq	%fs:40, %rax
	je	.L142
	call	__stack_chk_fail@PLT
.L142:
	movl	%edx, %eax
	addq	$160, %rsp
	popq	%rbx
	popq	%r12
	popq	%r13
	popq	%r14
	popq	%rbp
	.cfi_def_cfa 7, 8
	ret
	.cfi_endproc
.LFE5223:
	.size	_ZNK8Relation8propertyMUliiRS_E_clEiiS0_, .-_ZNK8Relation8propertyMUliiRS_E_clEiiS0_
	.section	.text._ZNK8Relation8propertyMUliiRS_E0_clEiiS0_,"axG",@progbits,_ZNK8Relation8propertyMUliiRS_E0_clEiiS0_,comdat
	.align 2
	.weak	_ZNK8Relation8propertyMUliiRS_E0_clEiiS0_
	.type	_ZNK8Relation8propertyMUliiRS_E0_clEiiS0_, @function
_ZNK8Relation8propertyMUliiRS_E0_clEiiS0_:
.LASANPC5226:
.LFB5226:
	.loc 10 37 86
	.cfi_startproc
	endbr64
	pushq	%rbp
	.cfi_def_cfa_offset 16
	.cfi_offset 6, -16
	movq	%rsp, %rbp
	.cfi_def_cfa_register 6
	pushq	%r15
	pushq	%r14
	pushq	%r13
	pushq	%r12
	pushq	%rbx
	subq	$168, %rsp
	.cfi_offset 15, -24
	.cfi_offset 14, -32
	.cfi_offset 13, -40
	.cfi_offset 12, -48
	.cfi_offset 3, -56
	movq	%rdi, -184(%rbp)
	movl	%esi, -188(%rbp)
	movl	%edx, -192(%rbp)
	movq	%rcx, -200(%rbp)
	leaq	-176(%rbp), %rbx
	movq	%rbx, %r15
	cmpl	$0, __asan_option_detect_stack_use_after_return(%rip)
	je	.L143
	movl	$96, %edi
	call	__asan_stack_malloc_1@PLT
.LVL5:
	testq	%rax, %rax
	je	.L143
	movq	%rax, %rbx
.L143:
	leaq	128(%rbx), %rax
	movq	%rax, %r13
	movq	$1102416563, (%rbx)
	leaq	.LC3(%rip), %rax
	movq	%rax, 8(%rbx)
	leaq	.LASANPC5226(%rip), %rax
	movq	%rax, 16(%rbx)
	movq	%rbx, %r12
	shrq	$3, %r12
	movl	$-235802127, 2147450880(%r12)
	movl	$-219021312, 2147450884(%r12)
	movl	$-202178560, 2147450888(%r12)
	.loc 10 37 86
	movq	%fs:40, %rax
	movq	%rax, -56(%rbp)
	xorl	%eax, %eax
	.loc 10 39 79
	movl	$0, %r14d
	movl	-188(%rbp), %eax
	cmpl	-192(%rbp), %eax
	je	.L147
	.loc 10 39 99 discriminator 2
	movq	-200(%rbp), %rax
	movl	-188(%rbp), %edx
	movslq	%edx, %rdx
	movq	%rdx, %rsi
	movq	%rax, %rdi
	call	_ZN6MatrixIbEixEm
	movq	%rax, %rdi
	.loc 10 39 102 discriminator 2
	movl	-192(%rbp), %eax
	cltq
	leaq	-96(%r13), %rdx
	movq	%rdx, %rcx
	shrq	$3, %rcx
	addq	$2147450880, %rcx
	movzwl	(%rcx), %ecx
	testw	%cx, %cx
	je	.L148
	.loc 10 39 102 is_stmt 0
	movq	%rdx, %rdi
	call	__asan_report_store16@PLT
.L148:
	.loc 10 39 102 discriminator 2
	movq	%rax, %rsi
	call	_ZNSt6vectorIbSaIbEEixEm
	movq	%rax, -96(%r13)
	movq	%rdx, -88(%r13)
	.loc 10 39 88 is_stmt 1 discriminator 2
	movl	$1, %r14d
	.loc 10 39 102 discriminator 2
	leaq	-96(%r13), %rax
	movq	%rax, %rdi
	call	_ZNKSt14_Bit_referencecvbEv
	xorl	$1, %eax
	.loc 10 39 88 discriminator 2
	testb	%al, %al
	jne	.L147
	.loc 10 39 115 discriminator 4
	movq	-200(%rbp), %rax
	movl	-192(%rbp), %edx
	movslq	%edx, %rdx
	movq	%rdx, %rsi
	movq	%rax, %rdi
	call	_ZN6MatrixIbEixEm
	movq	%rax, %rdi
	.loc 10 39 118 discriminator 4
	movl	-188(%rbp), %eax
	cltq
	leaq	-64(%r13), %rdx
	movq	%rdx, %rcx
	shrq	$3, %rcx
	addq	$2147450880, %rcx
	movzwl	(%rcx), %ecx
	testw	%cx, %cx
	je	.L149
	.loc 10 39 118 is_stmt 0
	movq	%rdx, %rdi
	call	__asan_report_store16@PLT
.L149:
	.loc 10 39 118 discriminator 4
	movq	%rax, %rsi
	call	_ZNSt6vectorIbSaIbEEixEm
	movq	%rax, -64(%r13)
	movq	%rdx, -56(%r13)
	leaq	-64(%r13), %rax
	movq	%rax, %rdi
	call	_ZNKSt14_Bit_referencecvbEv
	xorl	$1, %eax
	.loc 10 39 79 is_stmt 1 discriminator 4
	testb	%al, %al
	je	.L150
.L147:
	.loc 10 39 79 is_stmt 0 discriminator 5
	movl	$1, %eax
	jmp	.L155
.L150:
	.loc 10 39 79 discriminator 6
	movl	$0, %eax
.L155:
	.loc 10 39 102 is_stmt 1
	testb	%r14b, %r14b
	.loc 10 39 119
	movl	%eax, %edx
	.loc 10 37 86
	cmpq	%rbx, %r15
	je	.L144
	movq	$1172321806, (%rbx)
	movabsq	$-723401728380766731, %rax
	movq	%rax, 2147450880(%r12)
	movl	$-168430091, 2147450888(%r12)
	movq	120(%rbx), %rax
	movb	$0, (%rax)
	jmp	.L145
.L144:
	movq	$0, 2147450880(%r12)
	movl	$0, 2147450888(%r12)
.L145:
	.loc 10 40 68
	movq	-56(%rbp), %rax
	xorq	%fs:40, %rax
	je	.L154
	call	__stack_chk_fail@PLT
.L154:
	movl	%edx, %eax
	addq	$168, %rsp
	popq	%rbx
	popq	%r12
	popq	%r13
	popq	%r14
	popq	%r15
	popq	%rbp
	.cfi_def_cfa 7, 8
	ret
	.cfi_endproc
.LFE5226:
	.size	_ZNK8Relation8propertyMUliiRS_E0_clEiiS0_, .-_ZNK8Relation8propertyMUliiRS_E0_clEiiS0_
	.section	.text._ZNK8Relation8propertyMUliiRS_E1_clEiiS0_,"axG",@progbits,_ZNK8Relation8propertyMUliiRS_E1_clEiiS0_,comdat
	.align 2
	.weak	_ZNK8Relation8propertyMUliiRS_E1_clEiiS0_
	.type	_ZNK8Relation8propertyMUliiRS_E1_clEiiS0_, @function
_ZNK8Relation8propertyMUliiRS_E1_clEiiS0_:
.LASANPC5229:
.LFB5229:
	.loc 10 41 85
	.cfi_startproc
	endbr64
	pushq	%rbp
	.cfi_def_cfa_offset 16
	.cfi_offset 6, -16
	movq	%rsp, %rbp
	.cfi_def_cfa_register 6
	subq	$32, %rsp
	movq	%rdi, -8(%rbp)
	movl	%esi, -12(%rbp)
	movl	%edx, -16(%rbp)
	movq	%rcx, -24(%rbp)
	.loc 10 43 87
	movq	-24(%rbp), %rax
	movl	-12(%rbp), %edx
	movslq	%edx, %rdx
	movq	%rdx, %rsi
	movq	%rax, %rdi
	call	_ZN6MatrixIbEixEm
	movq	%rax, %rdx
	.loc 10 43 90
	movl	-12(%rbp), %eax
	cltq
	movq	%rax, %rsi
	movq	%rdx, %rdi
	call	_ZNSt6vectorIbSaIbEEixEm
	.loc 10 44 68
	leave
	.cfi_def_cfa 7, 8
	ret
	.cfi_endproc
.LFE5229:
	.size	_ZNK8Relation8propertyMUliiRS_E1_clEiiS0_, .-_ZNK8Relation8propertyMUliiRS_E1_clEiiS0_
	.section	.text._ZNK8Relation8propertyMUliiRS_E2_clEiiS0_,"axG",@progbits,_ZNK8Relation8propertyMUliiRS_E2_clEiiS0_,comdat
	.align 2
	.weak	_ZNK8Relation8propertyMUliiRS_E2_clEiiS0_
	.type	_ZNK8Relation8propertyMUliiRS_E2_clEiiS0_, @function
_ZNK8Relation8propertyMUliiRS_E2_clEiiS0_:
.LASANPC5232:
.LFB5232:
	.loc 10 45 89
	.cfi_startproc
	endbr64
	pushq	%rbp
	.cfi_def_cfa_offset 16
	.cfi_offset 6, -16
	movq	%rsp, %rbp
	.cfi_def_cfa_register 6
	pushq	%r14
	pushq	%r13
	pushq	%r12
	pushq	%rbx
	addq	$-128, %rsp
	.cfi_offset 14, -24
	.cfi_offset 13, -32
	.cfi_offset 12, -40
	.cfi_offset 3, -48
	movq	%rdi, -136(%rbp)
	movl	%esi, -140(%rbp)
	movl	%edx, -144(%rbp)
	movq	%rcx, -152(%rbp)
	leaq	-128(%rbp), %rbx
	movq	%rbx, %r14
	cmpl	$0, __asan_option_detect_stack_use_after_return(%rip)
	je	.L158
	movl	$64, %edi
	call	__asan_stack_malloc_0@PLT
.LVL6:
	testq	%rax, %rax
	je	.L158
	movq	%rax, %rbx
.L158:
	leaq	96(%rbx), %rax
	movq	%rax, %r13
	movq	$1102416563, (%rbx)
	leaq	.LC0(%rip), %rax
	movq	%rax, 8(%rbx)
	leaq	.LASANPC5232(%rip), %rax
	movq	%rax, 16(%rbx)
	movq	%rbx, %r12
	shrq	$3, %r12
	movl	$-235802127, 2147450880(%r12)
	movl	$-202178560, 2147450884(%r12)
	.loc 10 45 89
	movq	%fs:40, %rax
	movq	%rax, -40(%rbp)
	xorl	%eax, %eax
	.loc 10 47 88
	movq	-152(%rbp), %rax
	movl	-140(%rbp), %edx
	movslq	%edx, %rdx
	movq	%rdx, %rsi
	movq	%rax, %rdi
	call	_ZN6MatrixIbEixEm
	movq	%rax, %rdi
	.loc 10 47 91
	movl	-140(%rbp), %eax
	cltq
	leaq	-64(%r13), %rdx
	movq	%rdx, %rcx
	shrq	$3, %rcx
	addq	$2147450880, %rcx
	movzwl	(%rcx), %ecx
	testw	%cx, %cx
	je	.L162
	movq	%rdx, %rdi
	call	__asan_report_store16@PLT
.L162:
	movq	%rax, %rsi
	call	_ZNSt6vectorIbSaIbEEixEm
	movq	%rax, -64(%r13)
	movq	%rdx, -56(%r13)
	leaq	-64(%r13), %rax
	movq	%rax, %rdi
	call	_ZNKSt14_Bit_referencecvbEv
	xorl	$1, %eax
	movl	%eax, %edx
	.loc 10 45 89
	cmpq	%rbx, %r14
	je	.L159
	movq	$1172321806, (%rbx)
	movabsq	$-723401728380766731, %rax
	movq	%rax, 2147450880(%r12)
	movq	56(%rbx), %rax
	movb	$0, (%rax)
	jmp	.L160
.L159:
	movq	$0, 2147450880(%r12)
.L160:
	.loc 10 48 68
	movq	-40(%rbp), %rax
	xorq	%fs:40, %rax
	je	.L164
	call	__stack_chk_fail@PLT
.L164:
	movl	%edx, %eax
	subq	$-128, %rsp
	popq	%rbx
	popq	%r12
	popq	%r13
	popq	%r14
	popq	%rbp
	.cfi_def_cfa 7, 8
	ret
	.cfi_endproc
.LFE5232:
	.size	_ZNK8Relation8propertyMUliiRS_E2_clEiiS0_, .-_ZNK8Relation8propertyMUliiRS_E2_clEiiS0_
	.section	.rodata
	.align 8
.LC4:
	.string	"3 32 16 9 <unknown> 64 16 9 <unknown> 96 16 9 <unknown>"
	.section	.text._ZNK8Relation8propertyMUliiRS_E3_clEiiS0_,"axG",@progbits,_ZNK8Relation8propertyMUliiRS_E3_clEiiS0_,comdat
	.align 2
	.weak	_ZNK8Relation8propertyMUliiRS_E3_clEiiS0_
	.type	_ZNK8Relation8propertyMUliiRS_E3_clEiiS0_, @function
_ZNK8Relation8propertyMUliiRS_E3_clEiiS0_:
.LASANPC5235:
.LFB5235:
	.loc 10 49 86
	.cfi_startproc
	endbr64
	pushq	%rbp
	.cfi_def_cfa_offset 16
	.cfi_offset 6, -16
	movq	%rsp, %rbp
	.cfi_def_cfa_register 6
	pushq	%r15
	pushq	%r14
	pushq	%r13
	pushq	%r12
	pushq	%rbx
	subq	$232, %rsp
	.cfi_offset 15, -24
	.cfi_offset 14, -32
	.cfi_offset 13, -40
	.cfi_offset 12, -48
	.cfi_offset 3, -56
	movq	%rdi, -232(%rbp)
	movl	%esi, -236(%rbp)
	movl	%edx, -240(%rbp)
	movq	%rcx, -248(%rbp)
	leaq	-208(%rbp), %r12
	movq	%r12, -264(%rbp)
	cmpl	$0, __asan_option_detect_stack_use_after_return(%rip)
	je	.L165
	movl	$128, %edi
	call	__asan_stack_malloc_1@PLT
.LVL7:
	testq	%rax, %rax
	je	.L165
	movq	%rax, %r12
.L165:
	leaq	160(%r12), %rax
	movq	%rax, %rbx
	movq	$1102416563, (%r12)
	leaq	.LC4(%rip), %rax
	movq	%rax, 8(%r12)
	leaq	.LASANPC5235(%rip), %rax
	movq	%rax, 16(%r12)
	movq	%r12, %r13
	shrq	$3, %r13
	movl	$-235802127, 2147450880(%r13)
	movl	$-219021312, 2147450884(%r13)
	movl	$-219021312, 2147450888(%r13)
	movl	$-202178560, 2147450892(%r13)
	.loc 10 49 86
	movq	%fs:40, %rax
	movq	%rax, -56(%rbp)
	xorl	%eax, %eax
.LBB18:
.LBB19:
	.loc 10 51 81
	movl	$0, -212(%rbp)
.L181:
	.loc 10 51 99 discriminator 1
	movq	-248(%rbp), %rax
	addq	$40, %rax
	movq	%rax, %rdx
	movq	%rdx, %rax
	shrq	$3, %rax
	addq	$2147450880, %rax
	movzbl	(%rax), %eax
	testb	%al, %al
	setne	%cl
	cmpb	$3, %al
	setle	%al
	andl	%ecx, %eax
	testb	%al, %al
	je	.L169
	.loc 10 51 99 is_stmt 0
	movq	%rdx, %rdi
	call	__asan_report_load4@PLT
.L169:
	.loc 10 51 99 discriminator 1
	movq	-248(%rbp), %rax
	movl	40(%rax), %eax
	.loc 10 51 90 is_stmt 1 discriminator 1
	cmpl	%eax, -212(%rbp)
	jge	.L170
	.loc 10 52 109
	movl	$0, %r14d
	movl	$0, %r15d
	leaq	-128(%rbx), %rax
	shrq	$3, %rax
	addq	$2147450880, %rax
	movw	$0, (%rax)
	.loc 10 52 88
	movq	-248(%rbp), %rax
	movl	-236(%rbp), %edx
	movslq	%edx, %rdx
	movq	%rdx, %rsi
	movq	%rax, %rdi
	call	_ZN6MatrixIbEixEm
	movq	%rax, %rdi
	.loc 10 52 91
	movl	-212(%rbp), %eax
	cltq
	leaq	-128(%rbx), %rdx
	movq	%rdx, %rcx
	shrq	$3, %rcx
	addq	$2147450880, %rcx
	movzwl	(%rcx), %ecx
	testw	%cx, %cx
	je	.L171
	movq	%rdx, %rdi
	call	__asan_report_store16@PLT
.L171:
	movq	%rax, %rsi
	call	_ZNSt6vectorIbSaIbEEixEm
	movq	%rax, -128(%rbx)
	movq	%rdx, -120(%rbx)
	.loc 10 52 109
	movb	$1, -249(%rbp)
	.loc 10 52 107
	leaq	-128(%rbx), %rax
	movq	%rax, %rdi
	call	_ZNKSt14_Bit_referencecvbEv
	.loc 10 52 109
	testb	%al, %al
	je	.L172
	.loc 10 52 93 discriminator 1
	leaq	-96(%rbx), %rax
	shrq	$3, %rax
	addq	$2147450880, %rax
	movw	$0, (%rax)
	.loc 10 52 104 discriminator 1
	movq	-248(%rbp), %rax
	movl	-212(%rbp), %edx
	movslq	%edx, %rdx
	movq	%rdx, %rsi
	movq	%rax, %rdi
	call	_ZN6MatrixIbEixEm
	movq	%rax, %rdi
	.loc 10 52 107 discriminator 1
	movl	-240(%rbp), %eax
	cltq
	leaq	-96(%rbx), %rdx
	movq	%rdx, %rcx
	shrq	$3, %rcx
	addq	$2147450880, %rcx
	movzwl	(%rcx), %ecx
	testw	%cx, %cx
	je	.L173
	.loc 10 52 107 is_stmt 0
	movq	%rdx, %rdi
	call	__asan_report_store16@PLT
.L173:
	.loc 10 52 107 discriminator 1
	movq	%rax, %rsi
	call	_ZNSt6vectorIbSaIbEEixEm
	movq	%rax, -96(%rbx)
	movq	%rdx, -88(%rbx)
	.loc 10 52 93 is_stmt 1 discriminator 1
	movl	$1, %r14d
	.loc 10 52 107 discriminator 1
	leaq	-96(%rbx), %rax
	movq	%rax, %rdi
	call	_ZNKSt14_Bit_referencecvbEv
	.loc 10 52 93 discriminator 1
	testb	%al, %al
	je	.L172
	.loc 10 52 109 discriminator 3
	leaq	-64(%rbx), %rax
	shrq	$3, %rax
	addq	$2147450880, %rax
	movw	$0, (%rax)
	.loc 10 52 121 discriminator 3
	movq	-248(%rbp), %rax
	movl	-236(%rbp), %edx
	movslq	%edx, %rdx
	movq	%rdx, %rsi
	movq	%rax, %rdi
	call	_ZN6MatrixIbEixEm
	movq	%rax, %rdi
	.loc 10 52 124 discriminator 3
	movl	-240(%rbp), %eax
	cltq
	leaq	-64(%rbx), %rdx
	movq	%rdx, %rcx
	shrq	$3, %rcx
	addq	$2147450880, %rcx
	movzwl	(%rcx), %ecx
	testw	%cx, %cx
	je	.L174
	.loc 10 52 124 is_stmt 0
	movq	%rdx, %rdi
	call	__asan_report_store16@PLT
.L174:
	.loc 10 52 124 discriminator 3
	movq	%rax, %rsi
	call	_ZNSt6vectorIbSaIbEEixEm
	movq	%rax, -64(%rbx)
	movq	%rdx, -56(%rbx)
	.loc 10 52 109 is_stmt 1 discriminator 3
	movl	$1, %r15d
	.loc 10 52 124 discriminator 3
	leaq	-64(%rbx), %rax
	movq	%rax, %rdi
	call	_ZNKSt14_Bit_referencecvbEv
	.loc 10 52 112 discriminator 3
	xorl	$1, %eax
	.loc 10 52 109 discriminator 3
	testb	%al, %al
	je	.L172
	.loc 10 52 109 is_stmt 0 discriminator 5
	movl	$1, %edx
	jmp	.L175
.L172:
	.loc 10 52 109 discriminator 6
	movl	$0, %edx
.L175:
	.loc 10 52 124 is_stmt 1 discriminator 8
	testb	%r15b, %r15b
	je	.L176
	.loc 10 52 124 is_stmt 0 discriminator 9
	leaq	-64(%rbx), %rax
	shrq	$3, %rax
	addq	$2147450880, %rax
	movw	$-1800, (%rax)
.L176:
	.loc 10 52 107 is_stmt 1 discriminator 11
	testb	%r14b, %r14b
	je	.L177
	.loc 10 52 107 is_stmt 0 discriminator 12
	leaq	-96(%rbx), %rax
	shrq	$3, %rax
	addq	$2147450880, %rax
	movw	$-1800, (%rax)
.L177:
	.loc 10 52 91 is_stmt 1 discriminator 14
	cmpb	$0, -249(%rbp)
	je	.L178
	.loc 10 52 76
	nop
	.loc 10 52 91
	leaq	-128(%rbx), %rax
	shrq	$3, %rax
	addq	$2147450880, %rax
	movw	$-1800, (%rax)
.L178:
	.loc 10 52 76 discriminator 17
	testb	%dl, %dl
	je	.L179
	.loc 10 53 87
	movl	$0, %eax
	jmp	.L180
.L179:
	.loc 10 51 72 discriminator 2
	addl	$1, -212(%rbp)
	jmp	.L181
.L170:
.LBE19:
	.loc 10 54 79
	movl	$1, %eax
.L180:
	movl	%eax, %edx
.LBE18:
	.loc 10 49 86
	cmpq	%r12, -264(%rbp)
	je	.L166
	movq	$1172321806, (%r12)
	movabsq	$-723401728380766731, %rsi
	movabsq	$-723401728380766731, %rdi
	movq	%rsi, 2147450880(%r13)
	movq	%rdi, 2147450888(%r13)
	movq	120(%r12), %rax
	movb	$0, (%rax)
	jmp	.L167
.L166:
	movq	$0, 2147450880(%r13)
	movq	$0, 2147450888(%r13)
.L167:
	.loc 10 55 68
	movq	-56(%rbp), %rax
	xorq	%fs:40, %rax
	je	.L182
	call	__stack_chk_fail@PLT
.L182:
	movl	%edx, %eax
	addq	$232, %rsp
	popq	%rbx
	popq	%r12
	popq	%r13
	popq	%r14
	popq	%r15
	popq	%rbp
	.cfi_def_cfa 7, 8
	ret
	.cfi_endproc
.LFE5235:
	.size	_ZNK8Relation8propertyMUliiRS_E3_clEiiS0_, .-_ZNK8Relation8propertyMUliiRS_E3_clEiiS0_
	.section	.text._ZNSt8functionIFbiiR8RelationEED2Ev,"axG",@progbits,_ZNSt8functionIFbiiR8RelationEED5Ev,comdat
	.align 2
	.weak	_ZNSt8functionIFbiiR8RelationEED2Ev
	.type	_ZNSt8functionIFbiiR8RelationEED2Ev, @function
_ZNSt8functionIFbiiR8RelationEED2Ev:
.LASANPC5270:
.LFB5270:
	.loc 6 369 11
	.cfi_startproc
	endbr64
	pushq	%rbp
	.cfi_def_cfa_offset 16
	.cfi_offset 6, -16
	movq	%rsp, %rbp
	.cfi_def_cfa_register 6
	subq	$16, %rsp
	movq	%rdi, -8(%rbp)
.LBB20:
	.loc 6 369 11
	movq	-8(%rbp), %rax
	movq	%rax, %rdi
	call	_ZNSt14_Function_baseD2Ev
.LBE20:
	nop
	leave
	.cfi_def_cfa 7, 8
	ret
	.cfi_endproc
.LFE5270:
	.size	_ZNSt8functionIFbiiR8RelationEED2Ev, .-_ZNSt8functionIFbiiR8RelationEED2Ev
	.weak	_ZNSt8functionIFbiiR8RelationEED1Ev
	.set	_ZNSt8functionIFbiiR8RelationEED1Ev,_ZNSt8functionIFbiiR8RelationEED2Ev
	.section	.text._ZNSt4pairIKNSt7__cxx1112basic_stringIcSt11char_traitsIcESaIcEEESt8functionIFbiiR8RelationEEED2Ev,"axG",@progbits,_ZNSt4pairIKNSt7__cxx1112basic_stringIcSt11char_traitsIcESaIcEEESt8functionIFbiiR8RelationEEED5Ev,comdat
	.align 2
	.weak	_ZNSt4pairIKNSt7__cxx1112basic_stringIcSt11char_traitsIcESaIcEEESt8functionIFbiiR8RelationEEED2Ev
	.type	_ZNSt4pairIKNSt7__cxx1112basic_stringIcSt11char_traitsIcESaIcEEESt8functionIFbiiR8RelationEEED2Ev, @function
_ZNSt4pairIKNSt7__cxx1112basic_stringIcSt11char_traitsIcESaIcEEESt8functionIFbiiR8RelationEEED2Ev:
.LASANPC5272:
.LFB5272:
	.file 11 "/usr/include/c++/9/bits/stl_pair.h"
	.loc 11 208 12
	.cfi_startproc
	endbr64
	pushq	%rbp
	.cfi_def_cfa_offset 16
	.cfi_offset 6, -16
	movq	%rsp, %rbp
	.cfi_def_cfa_register 6
	subq	$16, %rsp
	movq	%rdi, -8(%rbp)
.LBB21:
	.loc 11 208 12
	movq	-8(%rbp), %rax
	addq	$32, %rax
	movq	%rax, %rdi
	call	_ZNSt8functionIFbiiR8RelationEED1Ev
	movq	-8(%rbp), %rax
	movq	%rax, %rdi
	call	_ZNSt7__cxx1112basic_stringIcSt11char_traitsIcESaIcEED1Ev@PLT
.LBE21:
	nop
	leave
	.cfi_def_cfa 7, 8
	ret
	.cfi_endproc
.LFE5272:
	.size	_ZNSt4pairIKNSt7__cxx1112basic_stringIcSt11char_traitsIcESaIcEEESt8functionIFbiiR8RelationEEED2Ev, .-_ZNSt4pairIKNSt7__cxx1112basic_stringIcSt11char_traitsIcESaIcEEESt8functionIFbiiR8RelationEEED2Ev
	.weak	_ZNSt4pairIKNSt7__cxx1112basic_stringIcSt11char_traitsIcESaIcEEESt8functionIFbiiR8RelationEEED1Ev
	.set	_ZNSt4pairIKNSt7__cxx1112basic_stringIcSt11char_traitsIcESaIcEEESt8functionIFbiiR8RelationEEED1Ev,_ZNSt4pairIKNSt7__cxx1112basic_stringIcSt11char_traitsIcESaIcEEESt8functionIFbiiR8RelationEEED2Ev
	.section	.rodata
.LC5:
	.string	"1 32 1 9 <unknown>"
	.section	.text._ZNSt4pairIKNSt7__cxx1112basic_stringIcSt11char_traitsIcESaIcEEESt8functionIFbiiR8RelationEEEC1IRA11_KcNS8_8propertyMUliiS9_E_ELb1EEEOT_OT0_,"axG",@progbits,_ZNSt4pairIKNSt7__cxx1112basic_stringIcSt11char_traitsIcESaIcEEESt8functionIFbiiR8RelationEEEC1IRA11_KcNS8_8propertyMUliiS9_E_ELb1EEEOT_OT0_,comdat
	.align 2
	.weak	_ZNSt4pairIKNSt7__cxx1112basic_stringIcSt11char_traitsIcESaIcEEESt8functionIFbiiR8RelationEEEC1IRA11_KcNS8_8propertyMUliiS9_E_ELb1EEEOT_OT0_
	.type	_ZNSt4pairIKNSt7__cxx1112basic_stringIcSt11char_traitsIcESaIcEEESt8functionIFbiiR8RelationEEEC1IRA11_KcNS8_8propertyMUliiS9_E_ELb1EEEOT_OT0_, @function
_ZNSt4pairIKNSt7__cxx1112basic_stringIcSt11char_traitsIcESaIcEEESt8functionIFbiiR8RelationEEEC1IRA11_KcNS8_8propertyMUliiS9_E_ELb1EEEOT_OT0_:
.LASANPC5276:
.LFB5276:
	.loc 11 341 12
	.cfi_startproc
	.cfi_personality 0x9b,DW.ref.__gxx_personality_v0
	.cfi_lsda 0x1b,.LLSDA5276
	endbr64
	pushq	%rbp
	.cfi_def_cfa_offset 16
	.cfi_offset 6, -16
	movq	%rsp, %rbp
	.cfi_def_cfa_register 6
	pushq	%r15
	pushq	%r14
	pushq	%r13
	pushq	%r12
	pushq	%rbx
	subq	$136, %rsp
	.cfi_offset 15, -24
	.cfi_offset 14, -32
	.cfi_offset 13, -40
	.cfi_offset 12, -48
	.cfi_offset 3, -56
	movq	%rdi, -152(%rbp)
	movq	%rsi, -160(%rbp)
	movq	%rdx, -168(%rbp)
	leaq	-144(%rbp), %rbx
	movq	%rbx, %r15
	cmpl	$0, __asan_option_detect_stack_use_after_return(%rip)
	je	.L185
	movl	$64, %edi
	call	__asan_stack_malloc_0@PLT
.LVL8:
	testq	%rax, %rax
	je	.L185
	movq	%rax, %rbx
.L185:
	leaq	96(%rbx), %rax
	movq	%rax, %r13
	movq	$1102416563, (%rbx)
	leaq	.LC5(%rip), %rax
	movq	%rax, 8(%rbx)
	leaq	.LASANPC5276(%rip), %rax
	movq	%rax, 16(%rbx)
	movq	%rbx, %r12
	shrq	$3, %r12
	movl	$-235802127, 2147450880(%r12)
	movl	$-202116351, 2147450884(%r12)
	.loc 11 341 12
	movq	%fs:40, %rax
	movq	%rax, -56(%rbp)
	xorl	%eax, %eax
.LBB22:
	.loc 11 342 64
	movq	-152(%rbp), %r14
	leaq	-64(%r13), %rax
	movq	%rax, %rdi
	call	_ZNSaIcEC1Ev@PLT
	.loc 11 342 27
	movq	-160(%rbp), %rax
	movq	%rax, %rdi
	call	_ZSt7forwardIRA11_KcEOT_RNSt16remove_referenceIS3_E4typeE
	movq	%rax, %rcx
	.loc 11 342 64
	leaq	-64(%r13), %rax
	movq	%rax, %rdx
	movq	%rcx, %rsi
	movq	%r14, %rdi
.LEHB0:
	call	_ZNSt7__cxx1112basic_stringIcSt11char_traitsIcESaIcEEC1IS3_EEPKcRKS3_
.LEHE0:
	.loc 11 342 64 is_stmt 0 discriminator 2
	leaq	-64(%r13), %rax
	movq	%rax, %rdi
	call	_ZNSaIcED1Ev@PLT
	leaq	-64(%r13), %rax
	shrq	$3, %rax
	addq	$2147450880, %rax
	movb	$-8, (%rax)
	movq	-152(%rbp), %rax
	leaq	32(%rax), %r13
	.loc 11 342 59 is_stmt 1 discriminator 2
	movq	-168(%rbp), %rax
	movq	%rax, %rdi
	call	_ZSt7forwardIN8Relation8propertyMUliiRS0_E_EEOT_RNSt16remove_referenceIS3_E4typeE
	.loc 11 342 64 discriminator 2
	movq	%r13, %rdi
.LEHB1:
	call	_ZNSt8functionIFbiiR8RelationEEC1INS0_8propertyMUliiS1_E_EvvEET_
.LEHE1:
.LBE22:
	.loc 11 342 68
	jmp	.L194
.L192:
	endbr64
	movq	%rax, %rbx
.LBB23:
	.loc 11 342 64
	leaq	-64(%r13), %rax
	movq	%rax, %rdi
	call	_ZNSaIcED1Ev@PLT
	call	__asan_handle_no_return@PLT
	movq	%rbx, %rdi
.LEHB2:
	call	_Unwind_Resume@PLT
.L193:
	endbr64
	movq	%rax, %rbx
	movq	-152(%rbp), %rax
	movq	%rax, %rdi
	call	_ZNSt7__cxx1112basic_stringIcSt11char_traitsIcESaIcEED1Ev@PLT
	call	__asan_handle_no_return@PLT
	movq	%rbx, %rdi
	call	_Unwind_Resume@PLT
.LEHE2:
.L194:
.LBE23:
	.loc 11 341 12
	cmpq	%rbx, %r15
	je	.L186
	movq	$1172321806, (%rbx)
	movabsq	$-723401728380766731, %rax
	movq	%rax, 2147450880(%r12)
	movq	56(%rbx), %rax
	movb	$0, (%rax)
	jmp	.L187
.L186:
	movq	$0, 2147450880(%r12)
.L187:
	.loc 11 342 68
	movq	-56(%rbp), %rax
	xorq	%fs:40, %rax
	je	.L191
	call	__stack_chk_fail@PLT
.L191:
	addq	$136, %rsp
	popq	%rbx
	popq	%r12
	popq	%r13
	popq	%r14
	popq	%r15
	popq	%rbp
	.cfi_def_cfa 7, 8
	ret
	.cfi_endproc
.LFE5276:
	.section	.gcc_except_table._ZNSt4pairIKNSt7__cxx1112basic_stringIcSt11char_traitsIcESaIcEEESt8functionIFbiiR8RelationEEEC1IRA11_KcNS8_8propertyMUliiS9_E_ELb1EEEOT_OT0_,"aG",@progbits,_ZNSt4pairIKNSt7__cxx1112basic_stringIcSt11char_traitsIcESaIcEEESt8functionIFbiiR8RelationEEEC1IRA11_KcNS8_8propertyMUliiS9_E_ELb1EEEOT_OT0_,comdat
.LLSDA5276:
	.byte	0xff
	.byte	0xff
	.byte	0x1
	.uleb128 .LLSDACSE5276-.LLSDACSB5276
.LLSDACSB5276:
	.uleb128 .LEHB0-.LFB5276
	.uleb128 .LEHE0-.LEHB0
	.uleb128 .L192-.LFB5276
	.uleb128 0
	.uleb128 .LEHB1-.LFB5276
	.uleb128 .LEHE1-.LEHB1
	.uleb128 .L193-.LFB5276
	.uleb128 0
	.uleb128 .LEHB2-.LFB5276
	.uleb128 .LEHE2-.LEHB2
	.uleb128 0
	.uleb128 0
.LLSDACSE5276:
	.section	.text._ZNSt4pairIKNSt7__cxx1112basic_stringIcSt11char_traitsIcESaIcEEESt8functionIFbiiR8RelationEEEC1IRA11_KcNS8_8propertyMUliiS9_E_ELb1EEEOT_OT0_,"axG",@progbits,_ZNSt4pairIKNSt7__cxx1112basic_stringIcSt11char_traitsIcESaIcEEESt8functionIFbiiR8RelationEEEC1IRA11_KcNS8_8propertyMUliiS9_E_ELb1EEEOT_OT0_,comdat
	.size	_ZNSt4pairIKNSt7__cxx1112basic_stringIcSt11char_traitsIcESaIcEEESt8functionIFbiiR8RelationEEEC1IRA11_KcNS8_8propertyMUliiS9_E_ELb1EEEOT_OT0_, .-_ZNSt4pairIKNSt7__cxx1112basic_stringIcSt11char_traitsIcESaIcEEESt8functionIFbiiR8RelationEEEC1IRA11_KcNS8_8propertyMUliiS9_E_ELb1EEEOT_OT0_
	.section	.text._ZNSt4pairIKNSt7__cxx1112basic_stringIcSt11char_traitsIcESaIcEEESt8functionIFbiiR8RelationEEEC1IRA15_KcNS8_8propertyMUliiS9_E0_ELb1EEEOT_OT0_,"axG",@progbits,_ZNSt4pairIKNSt7__cxx1112basic_stringIcSt11char_traitsIcESaIcEEESt8functionIFbiiR8RelationEEEC1IRA15_KcNS8_8propertyMUliiS9_E0_ELb1EEEOT_OT0_,comdat
	.align 2
	.weak	_ZNSt4pairIKNSt7__cxx1112basic_stringIcSt11char_traitsIcESaIcEEESt8functionIFbiiR8RelationEEEC1IRA15_KcNS8_8propertyMUliiS9_E0_ELb1EEEOT_OT0_
	.type	_ZNSt4pairIKNSt7__cxx1112basic_stringIcSt11char_traitsIcESaIcEEESt8functionIFbiiR8RelationEEEC1IRA15_KcNS8_8propertyMUliiS9_E0_ELb1EEEOT_OT0_, @function
_ZNSt4pairIKNSt7__cxx1112basic_stringIcSt11char_traitsIcESaIcEEESt8functionIFbiiR8RelationEEEC1IRA15_KcNS8_8propertyMUliiS9_E0_ELb1EEEOT_OT0_:
.LASANPC5279:
.LFB5279:
	.loc 11 341 12
	.cfi_startproc
	.cfi_personality 0x9b,DW.ref.__gxx_personality_v0
	.cfi_lsda 0x1b,.LLSDA5279
	endbr64
	pushq	%rbp
	.cfi_def_cfa_offset 16
	.cfi_offset 6, -16
	movq	%rsp, %rbp
	.cfi_def_cfa_register 6
	pushq	%r15
	pushq	%r14
	pushq	%r13
	pushq	%r12
	pushq	%rbx
	subq	$136, %rsp
	.cfi_offset 15, -24
	.cfi_offset 14, -32
	.cfi_offset 13, -40
	.cfi_offset 12, -48
	.cfi_offset 3, -56
	movq	%rdi, -152(%rbp)
	movq	%rsi, -160(%rbp)
	movq	%rdx, -168(%rbp)
	leaq	-144(%rbp), %rbx
	movq	%rbx, %r15
	cmpl	$0, __asan_option_detect_stack_use_after_return(%rip)
	je	.L195
	movl	$64, %edi
	call	__asan_stack_malloc_0@PLT
.LVL9:
	testq	%rax, %rax
	je	.L195
	movq	%rax, %rbx
.L195:
	leaq	96(%rbx), %rax
	movq	%rax, %r13
	movq	$1102416563, (%rbx)
	leaq	.LC5(%rip), %rax
	movq	%rax, 8(%rbx)
	leaq	.LASANPC5279(%rip), %rax
	movq	%rax, 16(%rbx)
	movq	%rbx, %r12
	shrq	$3, %r12
	movl	$-235802127, 2147450880(%r12)
	movl	$-202116351, 2147450884(%r12)
	.loc 11 341 12
	movq	%fs:40, %rax
	movq	%rax, -56(%rbp)
	xorl	%eax, %eax
.LBB24:
	.loc 11 342 64
	movq	-152(%rbp), %r14
	leaq	-64(%r13), %rax
	movq	%rax, %rdi
	call	_ZNSaIcEC1Ev@PLT
	.loc 11 342 27
	movq	-160(%rbp), %rax
	movq	%rax, %rdi
	call	_ZSt7forwardIRA15_KcEOT_RNSt16remove_referenceIS3_E4typeE
	movq	%rax, %rcx
	.loc 11 342 64
	leaq	-64(%r13), %rax
	movq	%rax, %rdx
	movq	%rcx, %rsi
	movq	%r14, %rdi
.LEHB3:
	call	_ZNSt7__cxx1112basic_stringIcSt11char_traitsIcESaIcEEC1IS3_EEPKcRKS3_
.LEHE3:
	.loc 11 342 64 is_stmt 0 discriminator 2
	leaq	-64(%r13), %rax
	movq	%rax, %rdi
	call	_ZNSaIcED1Ev@PLT
	leaq	-64(%r13), %rax
	shrq	$3, %rax
	addq	$2147450880, %rax
	movb	$-8, (%rax)
	movq	-152(%rbp), %rax
	leaq	32(%rax), %r13
	.loc 11 342 59 is_stmt 1 discriminator 2
	movq	-168(%rbp), %rax
	movq	%rax, %rdi
	call	_ZSt7forwardIN8Relation8propertyMUliiRS0_E0_EEOT_RNSt16remove_referenceIS3_E4typeE
	.loc 11 342 64 discriminator 2
	movq	%r13, %rdi
.LEHB4:
	call	_ZNSt8functionIFbiiR8RelationEEC1INS0_8propertyMUliiS1_E0_EvvEET_
.LEHE4:
.LBE24:
	.loc 11 342 68
	jmp	.L204
.L202:
	endbr64
	movq	%rax, %rbx
.LBB25:
	.loc 11 342 64
	leaq	-64(%r13), %rax
	movq	%rax, %rdi
	call	_ZNSaIcED1Ev@PLT
	call	__asan_handle_no_return@PLT
	movq	%rbx, %rdi
.LEHB5:
	call	_Unwind_Resume@PLT
.L203:
	endbr64
	movq	%rax, %rbx
	movq	-152(%rbp), %rax
	movq	%rax, %rdi
	call	_ZNSt7__cxx1112basic_stringIcSt11char_traitsIcESaIcEED1Ev@PLT
	call	__asan_handle_no_return@PLT
	movq	%rbx, %rdi
	call	_Unwind_Resume@PLT
.LEHE5:
.L204:
.LBE25:
	.loc 11 341 12
	cmpq	%rbx, %r15
	je	.L196
	movq	$1172321806, (%rbx)
	movabsq	$-723401728380766731, %rax
	movq	%rax, 2147450880(%r12)
	movq	56(%rbx), %rax
	movb	$0, (%rax)
	jmp	.L197
.L196:
	movq	$0, 2147450880(%r12)
.L197:
	.loc 11 342 68
	movq	-56(%rbp), %rax
	xorq	%fs:40, %rax
	je	.L201
	call	__stack_chk_fail@PLT
.L201:
	addq	$136, %rsp
	popq	%rbx
	popq	%r12
	popq	%r13
	popq	%r14
	popq	%r15
	popq	%rbp
	.cfi_def_cfa 7, 8
	ret
	.cfi_endproc
.LFE5279:
	.section	.gcc_except_table._ZNSt4pairIKNSt7__cxx1112basic_stringIcSt11char_traitsIcESaIcEEESt8functionIFbiiR8RelationEEEC1IRA15_KcNS8_8propertyMUliiS9_E0_ELb1EEEOT_OT0_,"aG",@progbits,_ZNSt4pairIKNSt7__cxx1112basic_stringIcSt11char_traitsIcESaIcEEESt8functionIFbiiR8RelationEEEC1IRA15_KcNS8_8propertyMUliiS9_E0_ELb1EEEOT_OT0_,comdat
.LLSDA5279:
	.byte	0xff
	.byte	0xff
	.byte	0x1
	.uleb128 .LLSDACSE5279-.LLSDACSB5279
.LLSDACSB5279:
	.uleb128 .LEHB3-.LFB5279
	.uleb128 .LEHE3-.LEHB3
	.uleb128 .L202-.LFB5279
	.uleb128 0
	.uleb128 .LEHB4-.LFB5279
	.uleb128 .LEHE4-.LEHB4
	.uleb128 .L203-.LFB5279
	.uleb128 0
	.uleb128 .LEHB5-.LFB5279
	.uleb128 .LEHE5-.LEHB5
	.uleb128 0
	.uleb128 0
.LLSDACSE5279:
	.section	.text._ZNSt4pairIKNSt7__cxx1112basic_stringIcSt11char_traitsIcESaIcEEESt8functionIFbiiR8RelationEEEC1IRA15_KcNS8_8propertyMUliiS9_E0_ELb1EEEOT_OT0_,"axG",@progbits,_ZNSt4pairIKNSt7__cxx1112basic_stringIcSt11char_traitsIcESaIcEEESt8functionIFbiiR8RelationEEEC1IRA15_KcNS8_8propertyMUliiS9_E0_ELb1EEEOT_OT0_,comdat
	.size	_ZNSt4pairIKNSt7__cxx1112basic_stringIcSt11char_traitsIcESaIcEEESt8functionIFbiiR8RelationEEEC1IRA15_KcNS8_8propertyMUliiS9_E0_ELb1EEEOT_OT0_, .-_ZNSt4pairIKNSt7__cxx1112basic_stringIcSt11char_traitsIcESaIcEEESt8functionIFbiiR8RelationEEEC1IRA15_KcNS8_8propertyMUliiS9_E0_ELb1EEEOT_OT0_
	.section	.text._ZNSt4pairIKNSt7__cxx1112basic_stringIcSt11char_traitsIcESaIcEEESt8functionIFbiiR8RelationEEEC1IRA14_KcNS8_8propertyMUliiS9_E1_ELb1EEEOT_OT0_,"axG",@progbits,_ZNSt4pairIKNSt7__cxx1112basic_stringIcSt11char_traitsIcESaIcEEESt8functionIFbiiR8RelationEEEC1IRA14_KcNS8_8propertyMUliiS9_E1_ELb1EEEOT_OT0_,comdat
	.align 2
	.weak	_ZNSt4pairIKNSt7__cxx1112basic_stringIcSt11char_traitsIcESaIcEEESt8functionIFbiiR8RelationEEEC1IRA14_KcNS8_8propertyMUliiS9_E1_ELb1EEEOT_OT0_
	.type	_ZNSt4pairIKNSt7__cxx1112basic_stringIcSt11char_traitsIcESaIcEEESt8functionIFbiiR8RelationEEEC1IRA14_KcNS8_8propertyMUliiS9_E1_ELb1EEEOT_OT0_, @function
_ZNSt4pairIKNSt7__cxx1112basic_stringIcSt11char_traitsIcESaIcEEESt8functionIFbiiR8RelationEEEC1IRA14_KcNS8_8propertyMUliiS9_E1_ELb1EEEOT_OT0_:
.LASANPC5282:
.LFB5282:
	.loc 11 341 12
	.cfi_startproc
	.cfi_personality 0x9b,DW.ref.__gxx_personality_v0
	.cfi_lsda 0x1b,.LLSDA5282
	endbr64
	pushq	%rbp
	.cfi_def_cfa_offset 16
	.cfi_offset 6, -16
	movq	%rsp, %rbp
	.cfi_def_cfa_register 6
	pushq	%r15
	pushq	%r14
	pushq	%r13
	pushq	%r12
	pushq	%rbx
	subq	$136, %rsp
	.cfi_offset 15, -24
	.cfi_offset 14, -32
	.cfi_offset 13, -40
	.cfi_offset 12, -48
	.cfi_offset 3, -56
	movq	%rdi, -152(%rbp)
	movq	%rsi, -160(%rbp)
	movq	%rdx, -168(%rbp)
	leaq	-144(%rbp), %rbx
	movq	%rbx, %r15
	cmpl	$0, __asan_option_detect_stack_use_after_return(%rip)
	je	.L205
	movl	$64, %edi
	call	__asan_stack_malloc_0@PLT
.LVL10:
	testq	%rax, %rax
	je	.L205
	movq	%rax, %rbx
.L205:
	leaq	96(%rbx), %rax
	movq	%rax, %r13
	movq	$1102416563, (%rbx)
	leaq	.LC5(%rip), %rax
	movq	%rax, 8(%rbx)
	leaq	.LASANPC5282(%rip), %rax
	movq	%rax, 16(%rbx)
	movq	%rbx, %r12
	shrq	$3, %r12
	movl	$-235802127, 2147450880(%r12)
	movl	$-202116351, 2147450884(%r12)
	.loc 11 341 12
	movq	%fs:40, %rax
	movq	%rax, -56(%rbp)
	xorl	%eax, %eax
.LBB26:
	.loc 11 342 64
	movq	-152(%rbp), %r14
	leaq	-64(%r13), %rax
	movq	%rax, %rdi
	call	_ZNSaIcEC1Ev@PLT
	.loc 11 342 27
	movq	-160(%rbp), %rax
	movq	%rax, %rdi
	call	_ZSt7forwardIRA14_KcEOT_RNSt16remove_referenceIS3_E4typeE
	movq	%rax, %rcx
	.loc 11 342 64
	leaq	-64(%r13), %rax
	movq	%rax, %rdx
	movq	%rcx, %rsi
	movq	%r14, %rdi
.LEHB6:
	call	_ZNSt7__cxx1112basic_stringIcSt11char_traitsIcESaIcEEC1IS3_EEPKcRKS3_
.LEHE6:
	.loc 11 342 64 is_stmt 0 discriminator 2
	leaq	-64(%r13), %rax
	movq	%rax, %rdi
	call	_ZNSaIcED1Ev@PLT
	leaq	-64(%r13), %rax
	shrq	$3, %rax
	addq	$2147450880, %rax
	movb	$-8, (%rax)
	movq	-152(%rbp), %rax
	leaq	32(%rax), %r13
	.loc 11 342 59 is_stmt 1 discriminator 2
	movq	-168(%rbp), %rax
	movq	%rax, %rdi
	call	_ZSt7forwardIN8Relation8propertyMUliiRS0_E1_EEOT_RNSt16remove_referenceIS3_E4typeE
	.loc 11 342 64 discriminator 2
	movq	%r13, %rdi
.LEHB7:
	call	_ZNSt8functionIFbiiR8RelationEEC1INS0_8propertyMUliiS1_E1_EvvEET_
.LEHE7:
.LBE26:
	.loc 11 342 68
	jmp	.L214
.L212:
	endbr64
	movq	%rax, %rbx
.LBB27:
	.loc 11 342 64
	leaq	-64(%r13), %rax
	movq	%rax, %rdi
	call	_ZNSaIcED1Ev@PLT
	call	__asan_handle_no_return@PLT
	movq	%rbx, %rdi
.LEHB8:
	call	_Unwind_Resume@PLT
.L213:
	endbr64
	movq	%rax, %rbx
	movq	-152(%rbp), %rax
	movq	%rax, %rdi
	call	_ZNSt7__cxx1112basic_stringIcSt11char_traitsIcESaIcEED1Ev@PLT
	call	__asan_handle_no_return@PLT
	movq	%rbx, %rdi
	call	_Unwind_Resume@PLT
.LEHE8:
.L214:
.LBE27:
	.loc 11 341 12
	cmpq	%rbx, %r15
	je	.L206
	movq	$1172321806, (%rbx)
	movabsq	$-723401728380766731, %rax
	movq	%rax, 2147450880(%r12)
	movq	56(%rbx), %rax
	movb	$0, (%rax)
	jmp	.L207
.L206:
	movq	$0, 2147450880(%r12)
.L207:
	.loc 11 342 68
	movq	-56(%rbp), %rax
	xorq	%fs:40, %rax
	je	.L211
	call	__stack_chk_fail@PLT
.L211:
	addq	$136, %rsp
	popq	%rbx
	popq	%r12
	popq	%r13
	popq	%r14
	popq	%r15
	popq	%rbp
	.cfi_def_cfa 7, 8
	ret
	.cfi_endproc
.LFE5282:
	.section	.gcc_except_table._ZNSt4pairIKNSt7__cxx1112basic_stringIcSt11char_traitsIcESaIcEEESt8functionIFbiiR8RelationEEEC1IRA14_KcNS8_8propertyMUliiS9_E1_ELb1EEEOT_OT0_,"aG",@progbits,_ZNSt4pairIKNSt7__cxx1112basic_stringIcSt11char_traitsIcESaIcEEESt8functionIFbiiR8RelationEEEC1IRA14_KcNS8_8propertyMUliiS9_E1_ELb1EEEOT_OT0_,comdat
.LLSDA5282:
	.byte	0xff
	.byte	0xff
	.byte	0x1
	.uleb128 .LLSDACSE5282-.LLSDACSB5282
.LLSDACSB5282:
	.uleb128 .LEHB6-.LFB5282
	.uleb128 .LEHE6-.LEHB6
	.uleb128 .L212-.LFB5282
	.uleb128 0
	.uleb128 .LEHB7-.LFB5282
	.uleb128 .LEHE7-.LEHB7
	.uleb128 .L213-.LFB5282
	.uleb128 0
	.uleb128 .LEHB8-.LFB5282
	.uleb128 .LEHE8-.LEHB8
	.uleb128 0
	.uleb128 0
.LLSDACSE5282:
	.section	.text._ZNSt4pairIKNSt7__cxx1112basic_stringIcSt11char_traitsIcESaIcEEESt8functionIFbiiR8RelationEEEC1IRA14_KcNS8_8propertyMUliiS9_E1_ELb1EEEOT_OT0_,"axG",@progbits,_ZNSt4pairIKNSt7__cxx1112basic_stringIcSt11char_traitsIcESaIcEEESt8functionIFbiiR8RelationEEEC1IRA14_KcNS8_8propertyMUliiS9_E1_ELb1EEEOT_OT0_,comdat
	.size	_ZNSt4pairIKNSt7__cxx1112basic_stringIcSt11char_traitsIcESaIcEEESt8functionIFbiiR8RelationEEEC1IRA14_KcNS8_8propertyMUliiS9_E1_ELb1EEEOT_OT0_, .-_ZNSt4pairIKNSt7__cxx1112basic_stringIcSt11char_traitsIcESaIcEEESt8functionIFbiiR8RelationEEEC1IRA14_KcNS8_8propertyMUliiS9_E1_ELb1EEEOT_OT0_
	.section	.text._ZNSt4pairIKNSt7__cxx1112basic_stringIcSt11char_traitsIcESaIcEEESt8functionIFbiiR8RelationEEEC1IRA18_KcNS8_8propertyMUliiS9_E2_ELb1EEEOT_OT0_,"axG",@progbits,_ZNSt4pairIKNSt7__cxx1112basic_stringIcSt11char_traitsIcESaIcEEESt8functionIFbiiR8RelationEEEC1IRA18_KcNS8_8propertyMUliiS9_E2_ELb1EEEOT_OT0_,comdat
	.align 2
	.weak	_ZNSt4pairIKNSt7__cxx1112basic_stringIcSt11char_traitsIcESaIcEEESt8functionIFbiiR8RelationEEEC1IRA18_KcNS8_8propertyMUliiS9_E2_ELb1EEEOT_OT0_
	.type	_ZNSt4pairIKNSt7__cxx1112basic_stringIcSt11char_traitsIcESaIcEEESt8functionIFbiiR8RelationEEEC1IRA18_KcNS8_8propertyMUliiS9_E2_ELb1EEEOT_OT0_, @function
_ZNSt4pairIKNSt7__cxx1112basic_stringIcSt11char_traitsIcESaIcEEESt8functionIFbiiR8RelationEEEC1IRA18_KcNS8_8propertyMUliiS9_E2_ELb1EEEOT_OT0_:
.LASANPC5285:
.LFB5285:
	.loc 11 341 12
	.cfi_startproc
	.cfi_personality 0x9b,DW.ref.__gxx_personality_v0
	.cfi_lsda 0x1b,.LLSDA5285
	endbr64
	pushq	%rbp
	.cfi_def_cfa_offset 16
	.cfi_offset 6, -16
	movq	%rsp, %rbp
	.cfi_def_cfa_register 6
	pushq	%r15
	pushq	%r14
	pushq	%r13
	pushq	%r12
	pushq	%rbx
	subq	$136, %rsp
	.cfi_offset 15, -24
	.cfi_offset 14, -32
	.cfi_offset 13, -40
	.cfi_offset 12, -48
	.cfi_offset 3, -56
	movq	%rdi, -152(%rbp)
	movq	%rsi, -160(%rbp)
	movq	%rdx, -168(%rbp)
	leaq	-144(%rbp), %rbx
	movq	%rbx, %r15
	cmpl	$0, __asan_option_detect_stack_use_after_return(%rip)
	je	.L215
	movl	$64, %edi
	call	__asan_stack_malloc_0@PLT
.LVL11:
	testq	%rax, %rax
	je	.L215
	movq	%rax, %rbx
.L215:
	leaq	96(%rbx), %rax
	movq	%rax, %r13
	movq	$1102416563, (%rbx)
	leaq	.LC5(%rip), %rax
	movq	%rax, 8(%rbx)
	leaq	.LASANPC5285(%rip), %rax
	movq	%rax, 16(%rbx)
	movq	%rbx, %r12
	shrq	$3, %r12
	movl	$-235802127, 2147450880(%r12)
	movl	$-202116351, 2147450884(%r12)
	.loc 11 341 12
	movq	%fs:40, %rax
	movq	%rax, -56(%rbp)
	xorl	%eax, %eax
.LBB28:
	.loc 11 342 64
	movq	-152(%rbp), %r14
	leaq	-64(%r13), %rax
	movq	%rax, %rdi
	call	_ZNSaIcEC1Ev@PLT
	.loc 11 342 27
	movq	-160(%rbp), %rax
	movq	%rax, %rdi
	call	_ZSt7forwardIRA18_KcEOT_RNSt16remove_referenceIS3_E4typeE
	movq	%rax, %rcx
	.loc 11 342 64
	leaq	-64(%r13), %rax
	movq	%rax, %rdx
	movq	%rcx, %rsi
	movq	%r14, %rdi
.LEHB9:
	call	_ZNSt7__cxx1112basic_stringIcSt11char_traitsIcESaIcEEC1IS3_EEPKcRKS3_
.LEHE9:
	.loc 11 342 64 is_stmt 0 discriminator 2
	leaq	-64(%r13), %rax
	movq	%rax, %rdi
	call	_ZNSaIcED1Ev@PLT
	leaq	-64(%r13), %rax
	shrq	$3, %rax
	addq	$2147450880, %rax
	movb	$-8, (%rax)
	movq	-152(%rbp), %rax
	leaq	32(%rax), %r13
	.loc 11 342 59 is_stmt 1 discriminator 2
	movq	-168(%rbp), %rax
	movq	%rax, %rdi
	call	_ZSt7forwardIN8Relation8propertyMUliiRS0_E2_EEOT_RNSt16remove_referenceIS3_E4typeE
	.loc 11 342 64 discriminator 2
	movq	%r13, %rdi
.LEHB10:
	call	_ZNSt8functionIFbiiR8RelationEEC1INS0_8propertyMUliiS1_E2_EvvEET_
.LEHE10:
.LBE28:
	.loc 11 342 68
	jmp	.L224
.L222:
	endbr64
	movq	%rax, %rbx
.LBB29:
	.loc 11 342 64
	leaq	-64(%r13), %rax
	movq	%rax, %rdi
	call	_ZNSaIcED1Ev@PLT
	call	__asan_handle_no_return@PLT
	movq	%rbx, %rdi
.LEHB11:
	call	_Unwind_Resume@PLT
.L223:
	endbr64
	movq	%rax, %rbx
	movq	-152(%rbp), %rax
	movq	%rax, %rdi
	call	_ZNSt7__cxx1112basic_stringIcSt11char_traitsIcESaIcEED1Ev@PLT
	call	__asan_handle_no_return@PLT
	movq	%rbx, %rdi
	call	_Unwind_Resume@PLT
.LEHE11:
.L224:
.LBE29:
	.loc 11 341 12
	cmpq	%rbx, %r15
	je	.L216
	movq	$1172321806, (%rbx)
	movabsq	$-723401728380766731, %rax
	movq	%rax, 2147450880(%r12)
	movq	56(%rbx), %rax
	movb	$0, (%rax)
	jmp	.L217
.L216:
	movq	$0, 2147450880(%r12)
.L217:
	.loc 11 342 68
	movq	-56(%rbp), %rax
	xorq	%fs:40, %rax
	je	.L221
	call	__stack_chk_fail@PLT
.L221:
	addq	$136, %rsp
	popq	%rbx
	popq	%r12
	popq	%r13
	popq	%r14
	popq	%r15
	popq	%rbp
	.cfi_def_cfa 7, 8
	ret
	.cfi_endproc
.LFE5285:
	.section	.gcc_except_table._ZNSt4pairIKNSt7__cxx1112basic_stringIcSt11char_traitsIcESaIcEEESt8functionIFbiiR8RelationEEEC1IRA18_KcNS8_8propertyMUliiS9_E2_ELb1EEEOT_OT0_,"aG",@progbits,_ZNSt4pairIKNSt7__cxx1112basic_stringIcSt11char_traitsIcESaIcEEESt8functionIFbiiR8RelationEEEC1IRA18_KcNS8_8propertyMUliiS9_E2_ELb1EEEOT_OT0_,comdat
.LLSDA5285:
	.byte	0xff
	.byte	0xff
	.byte	0x1
	.uleb128 .LLSDACSE5285-.LLSDACSB5285
.LLSDACSB5285:
	.uleb128 .LEHB9-.LFB5285
	.uleb128 .LEHE9-.LEHB9
	.uleb128 .L222-.LFB5285
	.uleb128 0
	.uleb128 .LEHB10-.LFB5285
	.uleb128 .LEHE10-.LEHB10
	.uleb128 .L223-.LFB5285
	.uleb128 0
	.uleb128 .LEHB11-.LFB5285
	.uleb128 .LEHE11-.LEHB11
	.uleb128 0
	.uleb128 0
.LLSDACSE5285:
	.section	.text._ZNSt4pairIKNSt7__cxx1112basic_stringIcSt11char_traitsIcESaIcEEESt8functionIFbiiR8RelationEEEC1IRA18_KcNS8_8propertyMUliiS9_E2_ELb1EEEOT_OT0_,"axG",@progbits,_ZNSt4pairIKNSt7__cxx1112basic_stringIcSt11char_traitsIcESaIcEEESt8functionIFbiiR8RelationEEEC1IRA18_KcNS8_8propertyMUliiS9_E2_ELb1EEEOT_OT0_,comdat
	.size	_ZNSt4pairIKNSt7__cxx1112basic_stringIcSt11char_traitsIcESaIcEEESt8functionIFbiiR8RelationEEEC1IRA18_KcNS8_8propertyMUliiS9_E2_ELb1EEEOT_OT0_, .-_ZNSt4pairIKNSt7__cxx1112basic_stringIcSt11char_traitsIcESaIcEEESt8functionIFbiiR8RelationEEEC1IRA18_KcNS8_8propertyMUliiS9_E2_ELb1EEEOT_OT0_
	.section	.text._ZNSt4pairIKNSt7__cxx1112basic_stringIcSt11char_traitsIcESaIcEEESt8functionIFbiiR8RelationEEEC1IRA15_KcNS8_8propertyMUliiS9_E3_ELb1EEEOT_OT0_,"axG",@progbits,_ZNSt4pairIKNSt7__cxx1112basic_stringIcSt11char_traitsIcESaIcEEESt8functionIFbiiR8RelationEEEC1IRA15_KcNS8_8propertyMUliiS9_E3_ELb1EEEOT_OT0_,comdat
	.align 2
	.weak	_ZNSt4pairIKNSt7__cxx1112basic_stringIcSt11char_traitsIcESaIcEEESt8functionIFbiiR8RelationEEEC1IRA15_KcNS8_8propertyMUliiS9_E3_ELb1EEEOT_OT0_
	.type	_ZNSt4pairIKNSt7__cxx1112basic_stringIcSt11char_traitsIcESaIcEEESt8functionIFbiiR8RelationEEEC1IRA15_KcNS8_8propertyMUliiS9_E3_ELb1EEEOT_OT0_, @function
_ZNSt4pairIKNSt7__cxx1112basic_stringIcSt11char_traitsIcESaIcEEESt8functionIFbiiR8RelationEEEC1IRA15_KcNS8_8propertyMUliiS9_E3_ELb1EEEOT_OT0_:
.LASANPC5288:
.LFB5288:
	.loc 11 341 12
	.cfi_startproc
	.cfi_personality 0x9b,DW.ref.__gxx_personality_v0
	.cfi_lsda 0x1b,.LLSDA5288
	endbr64
	pushq	%rbp
	.cfi_def_cfa_offset 16
	.cfi_offset 6, -16
	movq	%rsp, %rbp
	.cfi_def_cfa_register 6
	pushq	%r15
	pushq	%r14
	pushq	%r13
	pushq	%r12
	pushq	%rbx
	subq	$136, %rsp
	.cfi_offset 15, -24
	.cfi_offset 14, -32
	.cfi_offset 13, -40
	.cfi_offset 12, -48
	.cfi_offset 3, -56
	movq	%rdi, -152(%rbp)
	movq	%rsi, -160(%rbp)
	movq	%rdx, -168(%rbp)
	leaq	-144(%rbp), %rbx
	movq	%rbx, %r15
	cmpl	$0, __asan_option_detect_stack_use_after_return(%rip)
	je	.L225
	movl	$64, %edi
	call	__asan_stack_malloc_0@PLT
.LVL12:
	testq	%rax, %rax
	je	.L225
	movq	%rax, %rbx
.L225:
	leaq	96(%rbx), %rax
	movq	%rax, %r13
	movq	$1102416563, (%rbx)
	leaq	.LC5(%rip), %rax
	movq	%rax, 8(%rbx)
	leaq	.LASANPC5288(%rip), %rax
	movq	%rax, 16(%rbx)
	movq	%rbx, %r12
	shrq	$3, %r12
	movl	$-235802127, 2147450880(%r12)
	movl	$-202116351, 2147450884(%r12)
	.loc 11 341 12
	movq	%fs:40, %rax
	movq	%rax, -56(%rbp)
	xorl	%eax, %eax
.LBB30:
	.loc 11 342 64
	movq	-152(%rbp), %r14
	leaq	-64(%r13), %rax
	movq	%rax, %rdi
	call	_ZNSaIcEC1Ev@PLT
	.loc 11 342 27
	movq	-160(%rbp), %rax
	movq	%rax, %rdi
	call	_ZSt7forwardIRA15_KcEOT_RNSt16remove_referenceIS3_E4typeE
	movq	%rax, %rcx
	.loc 11 342 64
	leaq	-64(%r13), %rax
	movq	%rax, %rdx
	movq	%rcx, %rsi
	movq	%r14, %rdi
.LEHB12:
	call	_ZNSt7__cxx1112basic_stringIcSt11char_traitsIcESaIcEEC1IS3_EEPKcRKS3_
.LEHE12:
	.loc 11 342 64 is_stmt 0 discriminator 2
	leaq	-64(%r13), %rax
	movq	%rax, %rdi
	call	_ZNSaIcED1Ev@PLT
	leaq	-64(%r13), %rax
	shrq	$3, %rax
	addq	$2147450880, %rax
	movb	$-8, (%rax)
	movq	-152(%rbp), %rax
	leaq	32(%rax), %r13
	.loc 11 342 59 is_stmt 1 discriminator 2
	movq	-168(%rbp), %rax
	movq	%rax, %rdi
	call	_ZSt7forwardIN8Relation8propertyMUliiRS0_E3_EEOT_RNSt16remove_referenceIS3_E4typeE
	.loc 11 342 64 discriminator 2
	movq	%r13, %rdi
.LEHB13:
	call	_ZNSt8functionIFbiiR8RelationEEC1INS0_8propertyMUliiS1_E3_EvvEET_
.LEHE13:
.LBE30:
	.loc 11 342 68
	jmp	.L234
.L232:
	endbr64
	movq	%rax, %rbx
.LBB31:
	.loc 11 342 64
	leaq	-64(%r13), %rax
	movq	%rax, %rdi
	call	_ZNSaIcED1Ev@PLT
	call	__asan_handle_no_return@PLT
	movq	%rbx, %rdi
.LEHB14:
	call	_Unwind_Resume@PLT
.L233:
	endbr64
	movq	%rax, %rbx
	movq	-152(%rbp), %rax
	movq	%rax, %rdi
	call	_ZNSt7__cxx1112basic_stringIcSt11char_traitsIcESaIcEED1Ev@PLT
	call	__asan_handle_no_return@PLT
	movq	%rbx, %rdi
	call	_Unwind_Resume@PLT
.LEHE14:
.L234:
.LBE31:
	.loc 11 341 12
	cmpq	%rbx, %r15
	je	.L226
	movq	$1172321806, (%rbx)
	movabsq	$-723401728380766731, %rax
	movq	%rax, 2147450880(%r12)
	movq	56(%rbx), %rax
	movb	$0, (%rax)
	jmp	.L227
.L226:
	movq	$0, 2147450880(%r12)
.L227:
	.loc 11 342 68
	movq	-56(%rbp), %rax
	xorq	%fs:40, %rax
	je	.L231
	call	__stack_chk_fail@PLT
.L231:
	addq	$136, %rsp
	popq	%rbx
	popq	%r12
	popq	%r13
	popq	%r14
	popq	%r15
	popq	%rbp
	.cfi_def_cfa 7, 8
	ret
	.cfi_endproc
.LFE5288:
	.section	.gcc_except_table._ZNSt4pairIKNSt7__cxx1112basic_stringIcSt11char_traitsIcESaIcEEESt8functionIFbiiR8RelationEEEC1IRA15_KcNS8_8propertyMUliiS9_E3_ELb1EEEOT_OT0_,"aG",@progbits,_ZNSt4pairIKNSt7__cxx1112basic_stringIcSt11char_traitsIcESaIcEEESt8functionIFbiiR8RelationEEEC1IRA15_KcNS8_8propertyMUliiS9_E3_ELb1EEEOT_OT0_,comdat
.LLSDA5288:
	.byte	0xff
	.byte	0xff
	.byte	0x1
	.uleb128 .LLSDACSE5288-.LLSDACSB5288
.LLSDACSB5288:
	.uleb128 .LEHB12-.LFB5288
	.uleb128 .LEHE12-.LEHB12
	.uleb128 .L232-.LFB5288
	.uleb128 0
	.uleb128 .LEHB13-.LFB5288
	.uleb128 .LEHE13-.LEHB13
	.uleb128 .L233-.LFB5288
	.uleb128 0
	.uleb128 .LEHB14-.LFB5288
	.uleb128 .LEHE14-.LEHB14
	.uleb128 0
	.uleb128 0
.LLSDACSE5288:
	.section	.text._ZNSt4pairIKNSt7__cxx1112basic_stringIcSt11char_traitsIcESaIcEEESt8functionIFbiiR8RelationEEEC1IRA15_KcNS8_8propertyMUliiS9_E3_ELb1EEEOT_OT0_,"axG",@progbits,_ZNSt4pairIKNSt7__cxx1112basic_stringIcSt11char_traitsIcESaIcEEESt8functionIFbiiR8RelationEEEC1IRA15_KcNS8_8propertyMUliiS9_E3_ELb1EEEOT_OT0_,comdat
	.size	_ZNSt4pairIKNSt7__cxx1112basic_stringIcSt11char_traitsIcESaIcEEESt8functionIFbiiR8RelationEEEC1IRA15_KcNS8_8propertyMUliiS9_E3_ELb1EEEOT_OT0_, .-_ZNSt4pairIKNSt7__cxx1112basic_stringIcSt11char_traitsIcESaIcEEESt8functionIFbiiR8RelationEEEC1IRA15_KcNS8_8propertyMUliiS9_E3_ELb1EEEOT_OT0_
	.section	.text._ZNSt3mapINSt7__cxx1112basic_stringIcSt11char_traitsIcESaIcEEESt8functionIFbiiR8RelationEESt4lessIS5_ESaISt4pairIKS5_SA_EEED2Ev,"axG",@progbits,_ZNSt3mapINSt7__cxx1112basic_stringIcSt11char_traitsIcESaIcEEESt8functionIFbiiR8RelationEESt4lessIS5_ESaISt4pairIKS5_SA_EEED5Ev,comdat
	.align 2
	.weak	_ZNSt3mapINSt7__cxx1112basic_stringIcSt11char_traitsIcESaIcEEESt8functionIFbiiR8RelationEESt4lessIS5_ESaISt4pairIKS5_SA_EEED2Ev
	.type	_ZNSt3mapINSt7__cxx1112basic_stringIcSt11char_traitsIcESaIcEEESt8functionIFbiiR8RelationEESt4lessIS5_ESaISt4pairIKS5_SA_EEED2Ev, @function
_ZNSt3mapINSt7__cxx1112basic_stringIcSt11char_traitsIcESaIcEEESt8functionIFbiiR8RelationEESt4lessIS5_ESaISt4pairIKS5_SA_EEED2Ev:
.LASANPC5290:
.LFB5290:
	.file 12 "/usr/include/c++/9/bits/stl_map.h"
	.loc 12 300 7
	.cfi_startproc
	endbr64
	pushq	%rbp
	.cfi_def_cfa_offset 16
	.cfi_offset 6, -16
	movq	%rsp, %rbp
	.cfi_def_cfa_register 6
	subq	$16, %rsp
	movq	%rdi, -8(%rbp)
.LBB32:
	.loc 12 300 7
	movq	-8(%rbp), %rax
	movq	%rax, %rdi
	call	_ZNSt8_Rb_treeINSt7__cxx1112basic_stringIcSt11char_traitsIcESaIcEEESt4pairIKS5_St8functionIFbiiR8RelationEEESt10_Select1stISD_ESt4lessIS5_ESaISD_EED1Ev
.LBE32:
	nop
	leave
	.cfi_def_cfa 7, 8
	ret
	.cfi_endproc
.LFE5290:
	.size	_ZNSt3mapINSt7__cxx1112basic_stringIcSt11char_traitsIcESaIcEEESt8functionIFbiiR8RelationEESt4lessIS5_ESaISt4pairIKS5_SA_EEED2Ev, .-_ZNSt3mapINSt7__cxx1112basic_stringIcSt11char_traitsIcESaIcEEESt8functionIFbiiR8RelationEESt4lessIS5_ESaISt4pairIKS5_SA_EEED2Ev
	.weak	_ZNSt3mapINSt7__cxx1112basic_stringIcSt11char_traitsIcESaIcEEESt8functionIFbiiR8RelationEESt4lessIS5_ESaISt4pairIKS5_SA_EEED1Ev
	.set	_ZNSt3mapINSt7__cxx1112basic_stringIcSt11char_traitsIcESaIcEEESt8functionIFbiiR8RelationEESt4lessIS5_ESaISt4pairIKS5_SA_EEED1Ev,_ZNSt3mapINSt7__cxx1112basic_stringIcSt11char_traitsIcESaIcEEESt8functionIFbiiR8RelationEESt4lessIS5_ESaISt4pairIKS5_SA_EEED2Ev
	.section	.text._ZNK8Relation7closureMUliiRS_E_clEiiS0_,"axG",@progbits,_ZNK8Relation7closureMUliiRS_E_clEiiS0_,comdat
	.align 2
	.weak	_ZNK8Relation7closureMUliiRS_E_clEiiS0_
	.type	_ZNK8Relation7closureMUliiRS_E_clEiiS0_, @function
_ZNK8Relation7closureMUliiRS_E_clEiiS0_:
.LASANPC5292:
.LFB5292:
	.loc 10 57 86
	.cfi_startproc
	endbr64
	pushq	%rbp
	.cfi_def_cfa_offset 16
	.cfi_offset 6, -16
	movq	%rsp, %rbp
	.cfi_def_cfa_register 6
	pushq	%r15
	pushq	%r14
	pushq	%r13
	pushq	%r12
	pushq	%rbx
	subq	$200, %rsp
	.cfi_offset 15, -24
	.cfi_offset 14, -32
	.cfi_offset 13, -40
	.cfi_offset 12, -48
	.cfi_offset 3, -56
	movq	%rdi, -216(%rbp)
	movl	%esi, -220(%rbp)
	movl	%edx, -224(%rbp)
	movq	%rcx, -232(%rbp)
	leaq	-208(%rbp), %rbx
	movq	%rbx, -240(%rbp)
	cmpl	$0, __asan_option_detect_stack_use_after_return(%rip)
	je	.L236
	movl	$128, %edi
	call	__asan_stack_malloc_1@PLT
.LVL13:
	testq	%rax, %rax
	je	.L236
	movq	%rax, %rbx
.L236:
	leaq	160(%rbx), %rax
	movq	%rax, %r12
	movq	$1102416563, (%rbx)
	leaq	.LC4(%rip), %rax
	movq	%rax, 8(%rbx)
	leaq	.LASANPC5292(%rip), %rax
	movq	%rax, 16(%rbx)
	movq	%rbx, %r13
	shrq	$3, %r13
	movl	$-235802127, 2147450880(%r13)
	movl	$-219021312, 2147450884(%r13)
	movl	$-219021312, 2147450888(%r13)
	movl	$-202178560, 2147450892(%r13)
	.loc 10 57 86
	movq	%fs:40, %rax
	movq	%rax, -56(%rbp)
	xorl	%eax, %eax
	.loc 10 59 85
	movq	-232(%rbp), %rax
	movl	-220(%rbp), %edx
	movslq	%edx, %rdx
	movq	%rdx, %rsi
	movq	%rax, %rdi
	call	_ZN6MatrixIbEixEm
	movq	%rax, %rdi
	.loc 10 59 88
	movl	-224(%rbp), %eax
	cltq
	leaq	-96(%r12), %rdx
	movq	%rdx, %rcx
	shrq	$3, %rcx
	addq	$2147450880, %rcx
	movzwl	(%rcx), %ecx
	testw	%cx, %cx
	je	.L240
	movq	%rdx, %rdi
	call	__asan_report_store16@PLT
.L240:
	movq	%rax, %rsi
	call	_ZNSt6vectorIbSaIbEEixEm
	movq	%rax, -96(%r12)
	movq	%rdx, -88(%r12)
	.loc 10 59 90
	movl	$1, %r15d
	.loc 10 59 101
	leaq	-96(%r12), %rax
	movq	%rax, %rdi
	call	_ZNKSt14_Bit_referencecvbEv
	.loc 10 59 90
	testb	%al, %al
	jne	.L241
	.loc 10 59 98 discriminator 2
	movq	-232(%rbp), %rax
	movl	-224(%rbp), %edx
	movslq	%edx, %rdx
	movq	%rdx, %rsi
	movq	%rax, %rdi
	call	_ZN6MatrixIbEixEm
	movq	%rax, %rdi
	.loc 10 59 101 discriminator 2
	movl	-220(%rbp), %eax
	cltq
	leaq	-64(%r12), %rdx
	movq	%rdx, %rcx
	shrq	$3, %rcx
	addq	$2147450880, %rcx
	movzwl	(%rcx), %ecx
	testw	%cx, %cx
	je	.L242
	.loc 10 59 101 is_stmt 0
	movq	%rdx, %rdi
	call	__asan_report_store16@PLT
.L242:
	.loc 10 59 101 discriminator 2
	movq	%rax, %rsi
	call	_ZNSt6vectorIbSaIbEEixEm
	movq	%rax, -64(%r12)
	movq	%rdx, -56(%r12)
	leaq	-64(%r12), %rax
	movq	%rax, %rdi
	call	_ZNKSt14_Bit_referencecvbEv
	.loc 10 59 90 is_stmt 1 discriminator 2
	testb	%al, %al
	je	.L243
.L241:
	.loc 10 59 90 is_stmt 0 discriminator 3
	movl	$1, %eax
	jmp	.L244
.L243:
	.loc 10 59 90 discriminator 4
	movl	$0, %eax
.L244:
	.loc 10 59 101 is_stmt 1 discriminator 6
	movzbl	%al, %r14d
	.loc 10 59 73 discriminator 6
	movq	-232(%rbp), %rax
	movl	-220(%rbp), %edx
	movslq	%edx, %rdx
	movq	%rdx, %rsi
	movq	%rax, %rdi
	call	_ZN6MatrixIbEixEm
	movq	%rax, %rdi
	.loc 10 59 76 discriminator 6
	movl	-224(%rbp), %eax
	cltq
	leaq	-128(%r12), %rdx
	movq	%rdx, %rcx
	shrq	$3, %rcx
	addq	$2147450880, %rcx
	movzwl	(%rcx), %ecx
	testw	%cx, %cx
	je	.L245
	.loc 10 59 76 is_stmt 0
	movq	%rdx, %rdi
	call	__asan_report_store16@PLT
.L245:
	.loc 10 59 76 discriminator 6
	movq	%rax, %rsi
	call	_ZNSt6vectorIbSaIbEEixEm
	movq	%rax, -128(%r12)
	movq	%rdx, -120(%r12)
	.loc 10 59 101 is_stmt 1 discriminator 6
	leaq	-128(%r12), %rax
	movl	%r14d, %esi
	movq	%rax, %rdi
	call	_ZNSt14_Bit_referenceaSEb
	.loc 10 59 88 discriminator 6
	testb	%r15b, %r15b
	.loc 10 59 78 discriminator 6
	nop
	.loc 10 60 64 discriminator 6
	nop
	.loc 10 57 86 discriminator 6
	cmpq	%rbx, -240(%rbp)
	je	.L237
	.loc 10 57 86 is_stmt 0
	movq	$1172321806, (%rbx)
	movabsq	$-723401728380766731, %rax
	movabsq	$-723401728380766731, %rdx
	movq	%rax, 2147450880(%r13)
	movq	%rdx, 2147450888(%r13)
	movq	120(%rbx), %rax
	movb	$0, (%rax)
	jmp	.L238
.L237:
	movq	$0, 2147450880(%r13)
	movq	$0, 2147450888(%r13)
.L238:
	.loc 10 60 64 is_stmt 1
	movq	-56(%rbp), %rax
	xorq	%fs:40, %rax
	je	.L247
	call	__stack_chk_fail@PLT
.L247:
	addq	$200, %rsp
	popq	%rbx
	popq	%r12
	popq	%r13
	popq	%r14
	popq	%r15
	popq	%rbp
	.cfi_def_cfa 7, 8
	ret
	.cfi_endproc
.LFE5292:
	.size	_ZNK8Relation7closureMUliiRS_E_clEiiS0_, .-_ZNK8Relation7closureMUliiRS_E_clEiiS0_
	.globl	__asan_stack_malloc_2
	.section	.rodata
	.align 8
.LC6:
	.string	"4 32 16 9 <unknown> 64 16 9 <unknown> 96 16 9 <unknown> 128 16 9 <unknown>"
	.section	.text._ZNK8Relation7closureMUliiRS_E0_clEiiS0_,"axG",@progbits,_ZNK8Relation7closureMUliiRS_E0_clEiiS0_,comdat
	.align 2
	.weak	_ZNK8Relation7closureMUliiRS_E0_clEiiS0_
	.type	_ZNK8Relation7closureMUliiRS_E0_clEiiS0_, @function
_ZNK8Relation7closureMUliiRS_E0_clEiiS0_:
.LASANPC5293:
.LFB5293:
	.loc 10 61 89
	.cfi_startproc
	endbr64
	pushq	%rbp
	.cfi_def_cfa_offset 16
	.cfi_offset 6, -16
	movq	%rsp, %rbp
	.cfi_def_cfa_register 6
	pushq	%r15
	pushq	%r14
	pushq	%r13
	pushq	%r12
	pushq	%rbx
	subq	$232, %rsp
	.cfi_offset 15, -24
	.cfi_offset 14, -32
	.cfi_offset 13, -40
	.cfi_offset 12, -48
	.cfi_offset 3, -56
	movq	%rdi, -248(%rbp)
	movl	%esi, -252(%rbp)
	movl	%edx, -256(%rbp)
	movq	%rcx, -264(%rbp)
	leaq	-240(%rbp), %r12
	movq	%r12, -272(%rbp)
	cmpl	$0, __asan_option_detect_stack_use_after_return(%rip)
	je	.L248
	movl	$160, %edi
	call	__asan_stack_malloc_2@PLT
.LVL14:
	testq	%rax, %rax
	je	.L248
	movq	%rax, %r12
.L248:
	leaq	192(%r12), %rax
	movq	%rax, %rbx
	movq	$1102416563, (%r12)
	leaq	.LC6(%rip), %rax
	movq	%rax, 8(%r12)
	leaq	.LASANPC5293(%rip), %rax
	movq	%rax, 16(%r12)
	movq	%r12, %r13
	shrq	$3, %r13
	movl	$-235802127, 2147450880(%r13)
	movl	$-219021312, 2147450884(%r13)
	movl	$-219021312, 2147450888(%r13)
	movl	$-219021312, 2147450892(%r13)
	movl	$-202178560, 2147450896(%r13)
	.loc 10 61 89
	movq	%fs:40, %rax
	movq	%rax, -56(%rbp)
	xorl	%eax, %eax
	.loc 10 63 85
	movq	-264(%rbp), %rax
	movl	-252(%rbp), %edx
	movslq	%edx, %rdx
	movq	%rdx, %rsi
	movq	%rax, %rdi
	call	_ZN6MatrixIbEixEm
	movq	%rax, %rdi
	.loc 10 63 88
	movl	-256(%rbp), %eax
	cltq
	leaq	-128(%rbx), %rdx
	movq	%rdx, %rcx
	shrq	$3, %rcx
	addq	$2147450880, %rcx
	movzwl	(%rcx), %ecx
	testw	%cx, %cx
	je	.L252
	movq	%rdx, %rdi
	call	__asan_report_store16@PLT
.L252:
	movq	%rax, %rsi
	call	_ZNSt6vectorIbSaIbEEixEm
	movq	%rax, -128(%rbx)
	movq	%rdx, -120(%rbx)
	.loc 10 63 90
	movl	$1, %r15d
	.loc 10 63 127
	leaq	-128(%rbx), %rax
	movq	%rax, %rdi
	call	_ZNKSt14_Bit_referencecvbEv
	.loc 10 63 90
	testb	%al, %al
	je	.L253
	.loc 10 63 90 is_stmt 0 discriminator 1
	movl	-252(%rbp), %eax
	cmpl	-256(%rbp), %eax
	je	.L254
	.loc 10 63 110 is_stmt 1 discriminator 4
	movq	-264(%rbp), %rax
	movl	-252(%rbp), %edx
	movslq	%edx, %rdx
	movq	%rdx, %rsi
	movq	%rax, %rdi
	call	_ZN6MatrixIbEixEm
	movq	%rax, %rdi
	.loc 10 63 113 discriminator 4
	movl	-256(%rbp), %eax
	cltq
	leaq	-96(%rbx), %rdx
	movq	%rdx, %rcx
	shrq	$3, %rcx
	addq	$2147450880, %rcx
	movzwl	(%rcx), %ecx
	testw	%cx, %cx
	je	.L255
	.loc 10 63 113 is_stmt 0
	movq	%rdx, %rdi
	call	__asan_report_store16@PLT
.L255:
	.loc 10 63 113 discriminator 4
	movq	%rax, %rsi
	call	_ZNSt6vectorIbSaIbEEixEm
	movq	%rax, -96(%rbx)
	movq	%rdx, -88(%rbx)
	leaq	-96(%rbx), %rax
	movq	%rax, %rdi
	call	_ZNKSt14_Bit_referencecvbEv
	xorl	$1, %eax
	.loc 10 63 102 is_stmt 1 discriminator 4
	testb	%al, %al
	jne	.L254
	.loc 10 63 123 discriminator 6
	movq	-264(%rbp), %rax
	movl	-256(%rbp), %edx
	movslq	%edx, %rdx
	movq	%rdx, %rsi
	movq	%rax, %rdi
	call	_ZN6MatrixIbEixEm
	movq	%rax, %rdi
	.loc 10 63 126 discriminator 6
	movl	-252(%rbp), %eax
	cltq
	leaq	-64(%rbx), %rdx
	movq	%rdx, %rcx
	shrq	$3, %rcx
	addq	$2147450880, %rcx
	movzwl	(%rcx), %ecx
	testw	%cx, %cx
	je	.L256
	.loc 10 63 126 is_stmt 0
	movq	%rdx, %rdi
	call	__asan_report_store16@PLT
.L256:
	.loc 10 63 126 discriminator 6
	movq	%rax, %rsi
	call	_ZNSt6vectorIbSaIbEEixEm
	movq	%rax, -64(%rbx)
	movq	%rdx, -56(%rbx)
	leaq	-64(%rbx), %rax
	movq	%rax, %rdi
	call	_ZNKSt14_Bit_referencecvbEv
	xorl	$1, %eax
	.loc 10 63 93 is_stmt 1 discriminator 6
	testb	%al, %al
	je	.L253
.L254:
	.loc 10 63 90 discriminator 7
	movl	$1, %eax
	jmp	.L257
.L253:
	.loc 10 63 90 is_stmt 0 discriminator 8
	movl	$0, %eax
.L257:
	.loc 10 63 127 is_stmt 1 discriminator 10
	movzbl	%al, %r14d
	.loc 10 63 73 discriminator 10
	movq	-264(%rbp), %rax
	movl	-252(%rbp), %edx
	movslq	%edx, %rdx
	movq	%rdx, %rsi
	movq	%rax, %rdi
	call	_ZN6MatrixIbEixEm
	movq	%rax, %rdi
	.loc 10 63 76 discriminator 10
	movl	-256(%rbp), %eax
	cltq
	leaq	-160(%rbx), %rdx
	movq	%rdx, %rcx
	shrq	$3, %rcx
	addq	$2147450880, %rcx
	movzwl	(%rcx), %ecx
	testw	%cx, %cx
	je	.L258
	.loc 10 63 76 is_stmt 0
	movq	%rdx, %rdi
	call	__asan_report_store16@PLT
.L258:
	.loc 10 63 76 discriminator 10
	movq	%rax, %rsi
	call	_ZNSt6vectorIbSaIbEEixEm
	movq	%rax, -160(%rbx)
	movq	%rdx, -152(%rbx)
	.loc 10 63 127 is_stmt 1 discriminator 10
	leaq	-160(%rbx), %rax
	movl	%r14d, %esi
	movq	%rax, %rdi
	call	_ZNSt14_Bit_referenceaSEb
	.loc 10 63 88 discriminator 10
	testb	%r15b, %r15b
	.loc 10 63 78 discriminator 10
	nop
	.loc 10 64 64 discriminator 10
	nop
	.loc 10 61 89 discriminator 10
	cmpq	%r12, -272(%rbp)
	je	.L249
	.loc 10 61 89 is_stmt 0
	movq	$1172321806, (%r12)
	movabsq	$-723401728380766731, %rax
	movabsq	$-723401728380766731, %rdx
	movq	%rax, 2147450880(%r13)
	movq	%rdx, 2147450888(%r13)
	movl	$-168430091, 2147450896(%r13)
	movq	248(%r12), %rax
	movb	$0, (%rax)
	jmp	.L250
.L249:
	movq	$0, 2147450880(%r13)
	movq	$0, 2147450888(%r13)
	movl	$0, 2147450896(%r13)
.L250:
	.loc 10 64 64 is_stmt 1
	movq	-56(%rbp), %rax
	xorq	%fs:40, %rax
	je	.L260
	call	__stack_chk_fail@PLT
.L260:
	addq	$232, %rsp
	popq	%rbx
	popq	%r12
	popq	%r13
	popq	%r14
	popq	%r15
	popq	%rbp
	.cfi_def_cfa 7, 8
	ret
	.cfi_endproc
.LFE5293:
	.size	_ZNK8Relation7closureMUliiRS_E0_clEiiS0_, .-_ZNK8Relation7closureMUliiRS_E0_clEiiS0_
	.section	.text._ZNK8Relation7closureMUliiRS_E1_clEiiS0_,"axG",@progbits,_ZNK8Relation7closureMUliiRS_E1_clEiiS0_,comdat
	.align 2
	.weak	_ZNK8Relation7closureMUliiRS_E1_clEiiS0_
	.type	_ZNK8Relation7closureMUliiRS_E1_clEiiS0_, @function
_ZNK8Relation7closureMUliiRS_E1_clEiiS0_:
.LASANPC5294:
.LFB5294:
	.loc 10 65 86
	.cfi_startproc
	endbr64
	pushq	%rbp
	.cfi_def_cfa_offset 16
	.cfi_offset 6, -16
	movq	%rsp, %rbp
	.cfi_def_cfa_register 6
	pushq	%r14
	pushq	%r13
	pushq	%r12
	pushq	%rbx
	addq	$-128, %rsp
	.cfi_offset 14, -24
	.cfi_offset 13, -32
	.cfi_offset 12, -40
	.cfi_offset 3, -48
	movq	%rdi, -136(%rbp)
	movl	%esi, -140(%rbp)
	movl	%edx, -144(%rbp)
	movq	%rcx, -152(%rbp)
	leaq	-128(%rbp), %rbx
	movq	%rbx, %r14
	cmpl	$0, __asan_option_detect_stack_use_after_return(%rip)
	je	.L261
	movl	$64, %edi
	call	__asan_stack_malloc_0@PLT
.LVL15:
	testq	%rax, %rax
	je	.L261
	movq	%rax, %rbx
.L261:
	leaq	96(%rbx), %rax
	movq	%rax, %r13
	movq	$1102416563, (%rbx)
	leaq	.LC0(%rip), %rax
	movq	%rax, 8(%rbx)
	leaq	.LASANPC5294(%rip), %rax
	movq	%rax, 16(%rbx)
	movq	%rbx, %r12
	shrq	$3, %r12
	movl	$-235802127, 2147450880(%r12)
	movl	$-202178560, 2147450884(%r12)
	.loc 10 65 86
	movq	%fs:40, %rax
	movq	%rax, -40(%rbp)
	xorl	%eax, %eax
	.loc 10 67 73
	movq	-152(%rbp), %rax
	movl	-140(%rbp), %edx
	movslq	%edx, %rdx
	movq	%rdx, %rsi
	movq	%rax, %rdi
	call	_ZN6MatrixIbEixEm
	movq	%rax, %rdi
	.loc 10 67 76
	movl	-140(%rbp), %eax
	cltq
	leaq	-64(%r13), %rdx
	movq	%rdx, %rcx
	shrq	$3, %rcx
	addq	$2147450880, %rcx
	movzwl	(%rcx), %ecx
	testw	%cx, %cx
	je	.L265
	movq	%rdx, %rdi
	call	__asan_report_store16@PLT
.L265:
	movq	%rax, %rsi
	call	_ZNSt6vectorIbSaIbEEixEm
	movq	%rax, -64(%r13)
	movq	%rdx, -56(%r13)
	.loc 10 67 80
	leaq	-64(%r13), %rax
	movl	$1, %esi
	movq	%rax, %rdi
	call	_ZNSt14_Bit_referenceaSEb
	.loc 10 68 64
	nop
	.loc 10 65 86
	cmpq	%rbx, %r14
	je	.L262
	movq	$1172321806, (%rbx)
	movabsq	$-723401728380766731, %rax
	movq	%rax, 2147450880(%r12)
	movq	56(%rbx), %rax
	movb	$0, (%rax)
	jmp	.L263
.L262:
	movq	$0, 2147450880(%r12)
.L263:
	.loc 10 68 64
	movq	-40(%rbp), %rax
	xorq	%fs:40, %rax
	je	.L266
	call	__stack_chk_fail@PLT
.L266:
	subq	$-128, %rsp
	popq	%rbx
	popq	%r12
	popq	%r13
	popq	%r14
	popq	%rbp
	.cfi_def_cfa 7, 8
	ret
	.cfi_endproc
.LFE5294:
	.size	_ZNK8Relation7closureMUliiRS_E1_clEiiS0_, .-_ZNK8Relation7closureMUliiRS_E1_clEiiS0_
	.section	.text._ZNK8Relation7closureMUliiRS_E2_clEiiS0_,"axG",@progbits,_ZNK8Relation7closureMUliiRS_E2_clEiiS0_,comdat
	.align 2
	.weak	_ZNK8Relation7closureMUliiRS_E2_clEiiS0_
	.type	_ZNK8Relation7closureMUliiRS_E2_clEiiS0_, @function
_ZNK8Relation7closureMUliiRS_E2_clEiiS0_:
.LASANPC5295:
.LFB5295:
	.loc 10 69 90
	.cfi_startproc
	endbr64
	pushq	%rbp
	.cfi_def_cfa_offset 16
	.cfi_offset 6, -16
	movq	%rsp, %rbp
	.cfi_def_cfa_register 6
	pushq	%r14
	pushq	%r13
	pushq	%r12
	pushq	%rbx
	addq	$-128, %rsp
	.cfi_offset 14, -24
	.cfi_offset 13, -32
	.cfi_offset 12, -40
	.cfi_offset 3, -48
	movq	%rdi, -136(%rbp)
	movl	%esi, -140(%rbp)
	movl	%edx, -144(%rbp)
	movq	%rcx, -152(%rbp)
	leaq	-128(%rbp), %rbx
	movq	%rbx, %r14
	cmpl	$0, __asan_option_detect_stack_use_after_return(%rip)
	je	.L267
	movl	$64, %edi
	call	__asan_stack_malloc_0@PLT
.LVL16:
	testq	%rax, %rax
	je	.L267
	movq	%rax, %rbx
.L267:
	leaq	96(%rbx), %rax
	movq	%rax, %r13
	movq	$1102416563, (%rbx)
	leaq	.LC0(%rip), %rax
	movq	%rax, 8(%rbx)
	leaq	.LASANPC5295(%rip), %rax
	movq	%rax, 16(%rbx)
	movq	%rbx, %r12
	shrq	$3, %r12
	movl	$-235802127, 2147450880(%r12)
	movl	$-202178560, 2147450884(%r12)
	.loc 10 69 90
	movq	%fs:40, %rax
	movq	%rax, -40(%rbp)
	xorl	%eax, %eax
	.loc 10 71 73
	movq	-152(%rbp), %rax
	movl	-140(%rbp), %edx
	movslq	%edx, %rdx
	movq	%rdx, %rsi
	movq	%rax, %rdi
	call	_ZN6MatrixIbEixEm
	movq	%rax, %rdi
	.loc 10 71 76
	movl	-140(%rbp), %eax
	cltq
	leaq	-64(%r13), %rdx
	movq	%rdx, %rcx
	shrq	$3, %rcx
	addq	$2147450880, %rcx
	movzwl	(%rcx), %ecx
	testw	%cx, %cx
	je	.L271
	movq	%rdx, %rdi
	call	__asan_report_store16@PLT
.L271:
	movq	%rax, %rsi
	call	_ZNSt6vectorIbSaIbEEixEm
	movq	%rax, -64(%r13)
	movq	%rdx, -56(%r13)
	.loc 10 71 80
	leaq	-64(%r13), %rax
	movl	$0, %esi
	movq	%rax, %rdi
	call	_ZNSt14_Bit_referenceaSEb
	.loc 10 72 64
	nop
	.loc 10 69 90
	cmpq	%rbx, %r14
	je	.L268
	movq	$1172321806, (%rbx)
	movabsq	$-723401728380766731, %rax
	movq	%rax, 2147450880(%r12)
	movq	56(%rbx), %rax
	movb	$0, (%rax)
	jmp	.L269
.L268:
	movq	$0, 2147450880(%r12)
.L269:
	.loc 10 72 64
	movq	-40(%rbp), %rax
	xorq	%fs:40, %rax
	je	.L272
	call	__stack_chk_fail@PLT
.L272:
	subq	$-128, %rsp
	popq	%rbx
	popq	%r12
	popq	%r13
	popq	%r14
	popq	%rbp
	.cfi_def_cfa 7, 8
	ret
	.cfi_endproc
.LFE5295:
	.size	_ZNK8Relation7closureMUliiRS_E2_clEiiS0_, .-_ZNK8Relation7closureMUliiRS_E2_clEiiS0_
	.section	.text._ZNK8Relation7closureMUliiRS_E3_clEiiS0_,"axG",@progbits,_ZNK8Relation7closureMUliiRS_E3_clEiiS0_,comdat
	.align 2
	.weak	_ZNK8Relation7closureMUliiRS_E3_clEiiS0_
	.type	_ZNK8Relation7closureMUliiRS_E3_clEiiS0_, @function
_ZNK8Relation7closureMUliiRS_E3_clEiiS0_:
.LASANPC5296:
.LFB5296:
	.loc 10 73 87
	.cfi_startproc
	endbr64
	pushq	%rbp
	.cfi_def_cfa_offset 16
	.cfi_offset 6, -16
	movq	%rsp, %rbp
	.cfi_def_cfa_register 6
	pushq	%r15
	pushq	%r14
	pushq	%r13
	pushq	%r12
	pushq	%rbx
	subq	$264, %rsp
	.cfi_offset 15, -24
	.cfi_offset 14, -32
	.cfi_offset 13, -40
	.cfi_offset 12, -48
	.cfi_offset 3, -56
	movq	%rdi, -264(%rbp)
	movl	%esi, -268(%rbp)
	movl	%edx, -272(%rbp)
	movq	%rcx, -280(%rbp)
	leaq	-240(%rbp), %r12
	movq	%r12, -296(%rbp)
	cmpl	$0, __asan_option_detect_stack_use_after_return(%rip)
	je	.L273
	movl	$160, %edi
	call	__asan_stack_malloc_2@PLT
.LVL17:
	testq	%rax, %rax
	je	.L273
	movq	%rax, %r12
.L273:
	leaq	192(%r12), %rax
	movq	%rax, %rbx
	movq	$1102416563, (%r12)
	leaq	.LC6(%rip), %rax
	movq	%rax, 8(%r12)
	leaq	.LASANPC5296(%rip), %rax
	movq	%rax, 16(%r12)
	movq	%r12, %r13
	shrq	$3, %r13
	movl	$-235802127, 2147450880(%r13)
	movl	$-219021312, 2147450884(%r13)
	movl	$-219021312, 2147450888(%r13)
	movl	$-219021312, 2147450892(%r13)
	movl	$-202178560, 2147450896(%r13)
	.loc 10 73 87
	movq	%fs:40, %rax
	movq	%rax, -56(%rbp)
	xorl	%eax, %eax
.LBB33:
.LBB34:
	.loc 10 75 77
	movl	$0, -244(%rbp)
.L290:
	.loc 10 75 88 discriminator 1
	movq	-264(%rbp), %rax
	movq	%rax, %rdx
	shrq	$3, %rdx
	addq	$2147450880, %rdx
	movzbl	(%rdx), %edx
	testb	%dl, %dl
	je	.L277
	.loc 10 75 88 is_stmt 0
	movq	%rax, %rdi
	call	__asan_report_load8@PLT
.L277:
	.loc 10 75 88 discriminator 1
	movq	-264(%rbp), %rax
	movq	(%rax), %rax
	leaq	40(%rax), %rdx
	movq	%rdx, %rcx
	movq	%rcx, %rdx
	shrq	$3, %rdx
	addq	$2147450880, %rdx
	movzbl	(%rdx), %edx
	testb	%dl, %dl
	setne	%sil
	cmpb	$3, %dl
	setle	%dl
	andl	%esi, %edx
	testb	%dl, %dl
	je	.L278
	.loc 10 75 88
	movq	%rcx, %rdi
	call	__asan_report_load4@PLT
.L278:
	.loc 10 75 88 discriminator 1
	movl	40(%rax), %eax
	.loc 10 75 86 is_stmt 1 discriminator 1
	cmpl	%eax, -244(%rbp)
	jge	.L292
	.loc 10 76 94
	movl	$0, %r15d
	movb	$0, -281(%rbp)
	leaq	-128(%rbx), %rax
	shrq	$3, %rax
	addq	$2147450880, %rax
	movw	$0, (%rax)
	.loc 10 76 89
	movq	-280(%rbp), %rax
	movl	-272(%rbp), %edx
	movslq	%edx, %rdx
	movq	%rdx, %rsi
	movq	%rax, %rdi
	call	_ZN6MatrixIbEixEm
	movq	%rax, %rdi
	.loc 10 76 92
	movl	-244(%rbp), %eax
	cltq
	leaq	-128(%rbx), %rdx
	movq	%rdx, %rcx
	shrq	$3, %rcx
	addq	$2147450880, %rcx
	movzwl	(%rcx), %ecx
	testw	%cx, %cx
	je	.L280
	movq	%rdx, %rdi
	call	__asan_report_store16@PLT
.L280:
	movq	%rax, %rsi
	call	_ZNSt6vectorIbSaIbEEixEm
	movq	%rax, -128(%rbx)
	movq	%rdx, -120(%rbx)
	.loc 10 76 94
	movb	$1, -282(%rbp)
	.loc 10 76 120
	leaq	-128(%rbx), %rax
	movq	%rax, %rdi
	call	_ZNKSt14_Bit_referencecvbEv
	.loc 10 76 94
	testb	%al, %al
	jne	.L281
	.loc 10 76 94 is_stmt 0 discriminator 2
	leaq	-96(%rbx), %rax
	shrq	$3, %rax
	addq	$2147450880, %rax
	movw	$0, (%rax)
	.loc 10 76 103 is_stmt 1 discriminator 2
	movq	-280(%rbp), %rax
	movl	-272(%rbp), %edx
	movslq	%edx, %rdx
	movq	%rdx, %rsi
	movq	%rax, %rdi
	call	_ZN6MatrixIbEixEm
	movq	%rax, %rdi
	.loc 10 76 106 discriminator 2
	movl	-268(%rbp), %eax
	cltq
	leaq	-96(%rbx), %rdx
	movq	%rdx, %rcx
	shrq	$3, %rcx
	addq	$2147450880, %rcx
	movzwl	(%rcx), %ecx
	testw	%cx, %cx
	je	.L282
	.loc 10 76 106 is_stmt 0
	movq	%rdx, %rdi
	call	__asan_report_store16@PLT
.L282:
	.loc 10 76 106 discriminator 2
	movq	%rax, %rsi
	call	_ZNSt6vectorIbSaIbEEixEm
	movq	%rax, -96(%rbx)
	movq	%rdx, -88(%rbx)
	.loc 10 76 94 is_stmt 1 discriminator 2
	movl	$1, %r15d
	.loc 10 76 119 discriminator 2
	leaq	-96(%rbx), %rax
	movq	%rax, %rdi
	call	_ZNKSt14_Bit_referencecvbEv
	.loc 10 76 94 discriminator 2
	testb	%al, %al
	je	.L283
	.loc 10 76 108 discriminator 3
	leaq	-64(%rbx), %rax
	shrq	$3, %rax
	addq	$2147450880, %rax
	movw	$0, (%rax)
	.loc 10 76 116 discriminator 3
	movq	-280(%rbp), %rax
	movl	-268(%rbp), %edx
	movslq	%edx, %rdx
	movq	%rdx, %rsi
	movq	%rax, %rdi
	call	_ZN6MatrixIbEixEm
	movq	%rax, %rdi
	.loc 10 76 119 discriminator 3
	movl	-244(%rbp), %eax
	cltq
	leaq	-64(%rbx), %rdx
	movq	%rdx, %rcx
	shrq	$3, %rcx
	addq	$2147450880, %rcx
	movzwl	(%rcx), %ecx
	testw	%cx, %cx
	je	.L284
	.loc 10 76 119 is_stmt 0
	movq	%rdx, %rdi
	call	__asan_report_store16@PLT
.L284:
	.loc 10 76 119 discriminator 3
	movq	%rax, %rsi
	call	_ZNSt6vectorIbSaIbEEixEm
	movq	%rax, -64(%rbx)
	movq	%rdx, -56(%rbx)
	.loc 10 76 108 is_stmt 1 discriminator 3
	movb	$1, -281(%rbp)
	.loc 10 76 119 discriminator 3
	leaq	-64(%rbx), %rax
	movq	%rax, %rdi
	call	_ZNKSt14_Bit_referencecvbEv
	.loc 10 76 108 discriminator 3
	testb	%al, %al
	je	.L283
.L281:
	.loc 10 76 94 discriminator 5
	movl	$1, %eax
	jmp	.L285
.L283:
	.loc 10 76 94 is_stmt 0 discriminator 6
	movl	$0, %eax
.L285:
	.loc 10 76 120 is_stmt 1 discriminator 8
	movzbl	%al, %r14d
	.loc 10 76 82 discriminator 8
	leaq	-160(%rbx), %rax
	shrq	$3, %rax
	addq	$2147450880, %rax
	movw	$0, (%rax)
	.loc 10 76 77 discriminator 8
	movq	-280(%rbp), %rax
	movl	-272(%rbp), %edx
	movslq	%edx, %rdx
	movq	%rdx, %rsi
	movq	%rax, %rdi
	call	_ZN6MatrixIbEixEm
	movq	%rax, %rdi
	.loc 10 76 80 discriminator 8
	movl	-244(%rbp), %eax
	cltq
	leaq	-160(%rbx), %rdx
	movq	%rdx, %rcx
	shrq	$3, %rcx
	addq	$2147450880, %rcx
	movzwl	(%rcx), %ecx
	testw	%cx, %cx
	je	.L286
	.loc 10 76 80 is_stmt 0
	movq	%rdx, %rdi
	call	__asan_report_store16@PLT
.L286:
	.loc 10 76 80 discriminator 8
	movq	%rax, %rsi
	call	_ZNSt6vectorIbSaIbEEixEm
	movq	%rax, -160(%rbx)
	movq	%rdx, -152(%rbx)
	.loc 10 76 120 is_stmt 1 discriminator 8
	leaq	-160(%rbx), %rax
	movl	%r14d, %esi
	movq	%rax, %rdi
	call	_ZNSt14_Bit_referenceaSEb
	.loc 10 76 80 discriminator 8
	leaq	-160(%rbx), %rax
	shrq	$3, %rax
	addq	$2147450880, %rax
	movw	$-1800, (%rax)
	.loc 10 76 119 discriminator 8
	cmpb	$0, -281(%rbp)
	je	.L287
	.loc 10 76 119 is_stmt 0 discriminator 9
	leaq	-64(%rbx), %rax
	shrq	$3, %rax
	addq	$2147450880, %rax
	movw	$-1800, (%rax)
.L287:
	.loc 10 76 106 is_stmt 1 discriminator 11
	testb	%r15b, %r15b
	je	.L288
	.loc 10 76 106 is_stmt 0 discriminator 12
	leaq	-96(%rbx), %rax
	shrq	$3, %rax
	addq	$2147450880, %rax
	movw	$-1800, (%rax)
.L288:
	.loc 10 76 92 is_stmt 1 discriminator 14
	cmpb	$0, -282(%rbp)
	je	.L293
	.loc 10 76 82
	nop
	.loc 10 76 92
	leaq	-128(%rbx), %rax
	shrq	$3, %rax
	addq	$2147450880, %rax
	movw	$-1800, (%rax)
	jmp	.L289
.L293:
	.loc 10 76 82
	nop
.L289:
	.loc 10 75 68 discriminator 2
	addl	$1, -244(%rbp)
	jmp	.L290
.L292:
.LBE34:
.LBE33:
	.loc 10 77 64
	nop
	.loc 10 73 87
	cmpq	%r12, -296(%rbp)
	je	.L274
	movq	$1172321806, (%r12)
	movabsq	$-723401728380766731, %rax
	movabsq	$-723401728380766731, %rdx
	movq	%rax, 2147450880(%r13)
	movq	%rdx, 2147450888(%r13)
	movl	$-168430091, 2147450896(%r13)
	movq	248(%r12), %rax
	movb	$0, (%rax)
	jmp	.L275
.L274:
	movq	$0, 2147450880(%r13)
	movq	$0, 2147450888(%r13)
	movl	$0, 2147450896(%r13)
.L275:
	.loc 10 77 64
	movq	-56(%rbp), %rax
	xorq	%fs:40, %rax
	je	.L291
	call	__stack_chk_fail@PLT
.L291:
	addq	$264, %rsp
	popq	%rbx
	popq	%r12
	popq	%r13
	popq	%r14
	popq	%r15
	popq	%rbp
	.cfi_def_cfa 7, 8
	ret
	.cfi_endproc
.LFE5296:
	.size	_ZNK8Relation7closureMUliiRS_E3_clEiiS0_, .-_ZNK8Relation7closureMUliiRS_E3_clEiiS0_
	.section	.text._ZNSt8functionIFviiR8RelationEED2Ev,"axG",@progbits,_ZNSt8functionIFviiR8RelationEED5Ev,comdat
	.align 2
	.weak	_ZNSt8functionIFviiR8RelationEED2Ev
	.type	_ZNSt8functionIFviiR8RelationEED2Ev, @function
_ZNSt8functionIFviiR8RelationEED2Ev:
.LASANPC5329:
.LFB5329:
	.loc 6 369 11
	.cfi_startproc
	endbr64
	pushq	%rbp
	.cfi_def_cfa_offset 16
	.cfi_offset 6, -16
	movq	%rsp, %rbp
	.cfi_def_cfa_register 6
	subq	$16, %rsp
	movq	%rdi, -8(%rbp)
.LBB35:
	.loc 6 369 11
	movq	-8(%rbp), %rax
	movq	%rax, %rdi
	call	_ZNSt14_Function_baseD2Ev
.LBE35:
	nop
	leave
	.cfi_def_cfa 7, 8
	ret
	.cfi_endproc
.LFE5329:
	.size	_ZNSt8functionIFviiR8RelationEED2Ev, .-_ZNSt8functionIFviiR8RelationEED2Ev
	.weak	_ZNSt8functionIFviiR8RelationEED1Ev
	.set	_ZNSt8functionIFviiR8RelationEED1Ev,_ZNSt8functionIFviiR8RelationEED2Ev
	.section	.text._ZNSt4pairIKNSt7__cxx1112basic_stringIcSt11char_traitsIcESaIcEEESt8functionIFviiR8RelationEEED2Ev,"axG",@progbits,_ZNSt4pairIKNSt7__cxx1112basic_stringIcSt11char_traitsIcESaIcEEESt8functionIFviiR8RelationEEED5Ev,comdat
	.align 2
	.weak	_ZNSt4pairIKNSt7__cxx1112basic_stringIcSt11char_traitsIcESaIcEEESt8functionIFviiR8RelationEEED2Ev
	.type	_ZNSt4pairIKNSt7__cxx1112basic_stringIcSt11char_traitsIcESaIcEEESt8functionIFviiR8RelationEEED2Ev, @function
_ZNSt4pairIKNSt7__cxx1112basic_stringIcSt11char_traitsIcESaIcEEESt8functionIFviiR8RelationEEED2Ev:
.LASANPC5331:
.LFB5331:
	.loc 11 208 12
	.cfi_startproc
	endbr64
	pushq	%rbp
	.cfi_def_cfa_offset 16
	.cfi_offset 6, -16
	movq	%rsp, %rbp
	.cfi_def_cfa_register 6
	subq	$16, %rsp
	movq	%rdi, -8(%rbp)
.LBB36:
	.loc 11 208 12
	movq	-8(%rbp), %rax
	addq	$32, %rax
	movq	%rax, %rdi
	call	_ZNSt8functionIFviiR8RelationEED1Ev
	movq	-8(%rbp), %rax
	movq	%rax, %rdi
	call	_ZNSt7__cxx1112basic_stringIcSt11char_traitsIcESaIcEED1Ev@PLT
.LBE36:
	nop
	leave
	.cfi_def_cfa 7, 8
	ret
	.cfi_endproc
.LFE5331:
	.size	_ZNSt4pairIKNSt7__cxx1112basic_stringIcSt11char_traitsIcESaIcEEESt8functionIFviiR8RelationEEED2Ev, .-_ZNSt4pairIKNSt7__cxx1112basic_stringIcSt11char_traitsIcESaIcEEESt8functionIFviiR8RelationEEED2Ev
	.weak	_ZNSt4pairIKNSt7__cxx1112basic_stringIcSt11char_traitsIcESaIcEEESt8functionIFviiR8RelationEEED1Ev
	.set	_ZNSt4pairIKNSt7__cxx1112basic_stringIcSt11char_traitsIcESaIcEEESt8functionIFviiR8RelationEEED1Ev,_ZNSt4pairIKNSt7__cxx1112basic_stringIcSt11char_traitsIcESaIcEEESt8functionIFviiR8RelationEEED2Ev
	.section	.text._ZNSt4pairIKNSt7__cxx1112basic_stringIcSt11char_traitsIcESaIcEEESt8functionIFviiR8RelationEEEC1IRA19_KcNS8_7closureMUliiS9_E_ELb1EEEOT_OT0_,"axG",@progbits,_ZNSt4pairIKNSt7__cxx1112basic_stringIcSt11char_traitsIcESaIcEEESt8functionIFviiR8RelationEEEC1IRA19_KcNS8_7closureMUliiS9_E_ELb1EEEOT_OT0_,comdat
	.align 2
	.weak	_ZNSt4pairIKNSt7__cxx1112basic_stringIcSt11char_traitsIcESaIcEEESt8functionIFviiR8RelationEEEC1IRA19_KcNS8_7closureMUliiS9_E_ELb1EEEOT_OT0_
	.type	_ZNSt4pairIKNSt7__cxx1112basic_stringIcSt11char_traitsIcESaIcEEESt8functionIFviiR8RelationEEEC1IRA19_KcNS8_7closureMUliiS9_E_ELb1EEEOT_OT0_, @function
_ZNSt4pairIKNSt7__cxx1112basic_stringIcSt11char_traitsIcESaIcEEESt8functionIFviiR8RelationEEEC1IRA19_KcNS8_7closureMUliiS9_E_ELb1EEEOT_OT0_:
.LASANPC5335:
.LFB5335:
	.loc 11 341 12
	.cfi_startproc
	.cfi_personality 0x9b,DW.ref.__gxx_personality_v0
	.cfi_lsda 0x1b,.LLSDA5335
	endbr64
	pushq	%rbp
	.cfi_def_cfa_offset 16
	.cfi_offset 6, -16
	movq	%rsp, %rbp
	.cfi_def_cfa_register 6
	pushq	%r15
	pushq	%r14
	pushq	%r13
	pushq	%r12
	pushq	%rbx
	subq	$136, %rsp
	.cfi_offset 15, -24
	.cfi_offset 14, -32
	.cfi_offset 13, -40
	.cfi_offset 12, -48
	.cfi_offset 3, -56
	movq	%rdi, -152(%rbp)
	movq	%rsi, -160(%rbp)
	movq	%rdx, -168(%rbp)
	leaq	-144(%rbp), %rbx
	movq	%rbx, %r15
	cmpl	$0, __asan_option_detect_stack_use_after_return(%rip)
	je	.L296
	movl	$64, %edi
	call	__asan_stack_malloc_0@PLT
.LVL18:
	testq	%rax, %rax
	je	.L296
	movq	%rax, %rbx
.L296:
	leaq	96(%rbx), %rax
	movq	%rax, %r13
	movq	$1102416563, (%rbx)
	leaq	.LC5(%rip), %rax
	movq	%rax, 8(%rbx)
	leaq	.LASANPC5335(%rip), %rax
	movq	%rax, 16(%rbx)
	movq	%rbx, %r12
	shrq	$3, %r12
	movl	$-235802127, 2147450880(%r12)
	movl	$-202116351, 2147450884(%r12)
	.loc 11 341 12
	movq	%fs:40, %rax
	movq	%rax, -56(%rbp)
	xorl	%eax, %eax
.LBB37:
	.loc 11 342 64
	movq	-152(%rbp), %r14
	leaq	-64(%r13), %rax
	movq	%rax, %rdi
	call	_ZNSaIcEC1Ev@PLT
	.loc 11 342 27
	movq	-160(%rbp), %rax
	movq	%rax, %rdi
	call	_ZSt7forwardIRA19_KcEOT_RNSt16remove_referenceIS3_E4typeE
	movq	%rax, %rcx
	.loc 11 342 64
	leaq	-64(%r13), %rax
	movq	%rax, %rdx
	movq	%rcx, %rsi
	movq	%r14, %rdi
.LEHB15:
	call	_ZNSt7__cxx1112basic_stringIcSt11char_traitsIcESaIcEEC1IS3_EEPKcRKS3_
.LEHE15:
	.loc 11 342 64 is_stmt 0 discriminator 2
	leaq	-64(%r13), %rax
	movq	%rax, %rdi
	call	_ZNSaIcED1Ev@PLT
	leaq	-64(%r13), %rax
	shrq	$3, %rax
	addq	$2147450880, %rax
	movb	$-8, (%rax)
	movq	-152(%rbp), %rax
	leaq	32(%rax), %r13
	.loc 11 342 59 is_stmt 1 discriminator 2
	movq	-168(%rbp), %rax
	movq	%rax, %rdi
	call	_ZSt7forwardIN8Relation7closureMUliiRS0_E_EEOT_RNSt16remove_referenceIS3_E4typeE
	.loc 11 342 64 discriminator 2
	movq	%r13, %rdi
.LEHB16:
	call	_ZNSt8functionIFviiR8RelationEEC1INS0_7closureMUliiS1_E_EvvEET_
.LEHE16:
.LBE37:
	.loc 11 342 68
	jmp	.L305
.L303:
	endbr64
	movq	%rax, %rbx
.LBB38:
	.loc 11 342 64
	leaq	-64(%r13), %rax
	movq	%rax, %rdi
	call	_ZNSaIcED1Ev@PLT
	call	__asan_handle_no_return@PLT
	movq	%rbx, %rdi
.LEHB17:
	call	_Unwind_Resume@PLT
.L304:
	endbr64
	movq	%rax, %rbx
	movq	-152(%rbp), %rax
	movq	%rax, %rdi
	call	_ZNSt7__cxx1112basic_stringIcSt11char_traitsIcESaIcEED1Ev@PLT
	call	__asan_handle_no_return@PLT
	movq	%rbx, %rdi
	call	_Unwind_Resume@PLT
.LEHE17:
.L305:
.LBE38:
	.loc 11 341 12
	cmpq	%rbx, %r15
	je	.L297
	movq	$1172321806, (%rbx)
	movabsq	$-723401728380766731, %rax
	movq	%rax, 2147450880(%r12)
	movq	56(%rbx), %rax
	movb	$0, (%rax)
	jmp	.L298
.L297:
	movq	$0, 2147450880(%r12)
.L298:
	.loc 11 342 68
	movq	-56(%rbp), %rax
	xorq	%fs:40, %rax
	je	.L302
	call	__stack_chk_fail@PLT
.L302:
	addq	$136, %rsp
	popq	%rbx
	popq	%r12
	popq	%r13
	popq	%r14
	popq	%r15
	popq	%rbp
	.cfi_def_cfa 7, 8
	ret
	.cfi_endproc
.LFE5335:
	.section	.gcc_except_table._ZNSt4pairIKNSt7__cxx1112basic_stringIcSt11char_traitsIcESaIcEEESt8functionIFviiR8RelationEEEC1IRA19_KcNS8_7closureMUliiS9_E_ELb1EEEOT_OT0_,"aG",@progbits,_ZNSt4pairIKNSt7__cxx1112basic_stringIcSt11char_traitsIcESaIcEEESt8functionIFviiR8RelationEEEC1IRA19_KcNS8_7closureMUliiS9_E_ELb1EEEOT_OT0_,comdat
.LLSDA5335:
	.byte	0xff
	.byte	0xff
	.byte	0x1
	.uleb128 .LLSDACSE5335-.LLSDACSB5335
.LLSDACSB5335:
	.uleb128 .LEHB15-.LFB5335
	.uleb128 .LEHE15-.LEHB15
	.uleb128 .L303-.LFB5335
	.uleb128 0
	.uleb128 .LEHB16-.LFB5335
	.uleb128 .LEHE16-.LEHB16
	.uleb128 .L304-.LFB5335
	.uleb128 0
	.uleb128 .LEHB17-.LFB5335
	.uleb128 .LEHE17-.LEHB17
	.uleb128 0
	.uleb128 0
.LLSDACSE5335:
	.section	.text._ZNSt4pairIKNSt7__cxx1112basic_stringIcSt11char_traitsIcESaIcEEESt8functionIFviiR8RelationEEEC1IRA19_KcNS8_7closureMUliiS9_E_ELb1EEEOT_OT0_,"axG",@progbits,_ZNSt4pairIKNSt7__cxx1112basic_stringIcSt11char_traitsIcESaIcEEESt8functionIFviiR8RelationEEEC1IRA19_KcNS8_7closureMUliiS9_E_ELb1EEEOT_OT0_,comdat
	.size	_ZNSt4pairIKNSt7__cxx1112basic_stringIcSt11char_traitsIcESaIcEEESt8functionIFviiR8RelationEEEC1IRA19_KcNS8_7closureMUliiS9_E_ELb1EEEOT_OT0_, .-_ZNSt4pairIKNSt7__cxx1112basic_stringIcSt11char_traitsIcESaIcEEESt8functionIFviiR8RelationEEEC1IRA19_KcNS8_7closureMUliiS9_E_ELb1EEEOT_OT0_
	.section	.text._ZNSt4pairIKNSt7__cxx1112basic_stringIcSt11char_traitsIcESaIcEEESt8functionIFviiR8RelationEEEC1IRA22_KcNS8_7closureMUliiS9_E0_ELb1EEEOT_OT0_,"axG",@progbits,_ZNSt4pairIKNSt7__cxx1112basic_stringIcSt11char_traitsIcESaIcEEESt8functionIFviiR8RelationEEEC1IRA22_KcNS8_7closureMUliiS9_E0_ELb1EEEOT_OT0_,comdat
	.align 2
	.weak	_ZNSt4pairIKNSt7__cxx1112basic_stringIcSt11char_traitsIcESaIcEEESt8functionIFviiR8RelationEEEC1IRA22_KcNS8_7closureMUliiS9_E0_ELb1EEEOT_OT0_
	.type	_ZNSt4pairIKNSt7__cxx1112basic_stringIcSt11char_traitsIcESaIcEEESt8functionIFviiR8RelationEEEC1IRA22_KcNS8_7closureMUliiS9_E0_ELb1EEEOT_OT0_, @function
_ZNSt4pairIKNSt7__cxx1112basic_stringIcSt11char_traitsIcESaIcEEESt8functionIFviiR8RelationEEEC1IRA22_KcNS8_7closureMUliiS9_E0_ELb1EEEOT_OT0_:
.LASANPC5338:
.LFB5338:
	.loc 11 341 12
	.cfi_startproc
	.cfi_personality 0x9b,DW.ref.__gxx_personality_v0
	.cfi_lsda 0x1b,.LLSDA5338
	endbr64
	pushq	%rbp
	.cfi_def_cfa_offset 16
	.cfi_offset 6, -16
	movq	%rsp, %rbp
	.cfi_def_cfa_register 6
	pushq	%r15
	pushq	%r14
	pushq	%r13
	pushq	%r12
	pushq	%rbx
	subq	$136, %rsp
	.cfi_offset 15, -24
	.cfi_offset 14, -32
	.cfi_offset 13, -40
	.cfi_offset 12, -48
	.cfi_offset 3, -56
	movq	%rdi, -152(%rbp)
	movq	%rsi, -160(%rbp)
	movq	%rdx, -168(%rbp)
	leaq	-144(%rbp), %rbx
	movq	%rbx, %r15
	cmpl	$0, __asan_option_detect_stack_use_after_return(%rip)
	je	.L306
	movl	$64, %edi
	call	__asan_stack_malloc_0@PLT
.LVL19:
	testq	%rax, %rax
	je	.L306
	movq	%rax, %rbx
.L306:
	leaq	96(%rbx), %rax
	movq	%rax, %r13
	movq	$1102416563, (%rbx)
	leaq	.LC5(%rip), %rax
	movq	%rax, 8(%rbx)
	leaq	.LASANPC5338(%rip), %rax
	movq	%rax, 16(%rbx)
	movq	%rbx, %r12
	shrq	$3, %r12
	movl	$-235802127, 2147450880(%r12)
	movl	$-202116351, 2147450884(%r12)
	.loc 11 341 12
	movq	%fs:40, %rax
	movq	%rax, -56(%rbp)
	xorl	%eax, %eax
.LBB39:
	.loc 11 342 64
	movq	-152(%rbp), %r14
	leaq	-64(%r13), %rax
	movq	%rax, %rdi
	call	_ZNSaIcEC1Ev@PLT
	.loc 11 342 27
	movq	-160(%rbp), %rax
	movq	%rax, %rdi
	call	_ZSt7forwardIRA22_KcEOT_RNSt16remove_referenceIS3_E4typeE
	movq	%rax, %rcx
	.loc 11 342 64
	leaq	-64(%r13), %rax
	movq	%rax, %rdx
	movq	%rcx, %rsi
	movq	%r14, %rdi
.LEHB18:
	call	_ZNSt7__cxx1112basic_stringIcSt11char_traitsIcESaIcEEC1IS3_EEPKcRKS3_
.LEHE18:
	.loc 11 342 64 is_stmt 0 discriminator 2
	leaq	-64(%r13), %rax
	movq	%rax, %rdi
	call	_ZNSaIcED1Ev@PLT
	leaq	-64(%r13), %rax
	shrq	$3, %rax
	addq	$2147450880, %rax
	movb	$-8, (%rax)
	movq	-152(%rbp), %rax
	leaq	32(%rax), %r13
	.loc 11 342 59 is_stmt 1 discriminator 2
	movq	-168(%rbp), %rax
	movq	%rax, %rdi
	call	_ZSt7forwardIN8Relation7closureMUliiRS0_E0_EEOT_RNSt16remove_referenceIS3_E4typeE
	.loc 11 342 64 discriminator 2
	movq	%r13, %rdi
.LEHB19:
	call	_ZNSt8functionIFviiR8RelationEEC1INS0_7closureMUliiS1_E0_EvvEET_
.LEHE19:
.LBE39:
	.loc 11 342 68
	jmp	.L315
.L313:
	endbr64
	movq	%rax, %rbx
.LBB40:
	.loc 11 342 64
	leaq	-64(%r13), %rax
	movq	%rax, %rdi
	call	_ZNSaIcED1Ev@PLT
	call	__asan_handle_no_return@PLT
	movq	%rbx, %rdi
.LEHB20:
	call	_Unwind_Resume@PLT
.L314:
	endbr64
	movq	%rax, %rbx
	movq	-152(%rbp), %rax
	movq	%rax, %rdi
	call	_ZNSt7__cxx1112basic_stringIcSt11char_traitsIcESaIcEED1Ev@PLT
	call	__asan_handle_no_return@PLT
	movq	%rbx, %rdi
	call	_Unwind_Resume@PLT
.LEHE20:
.L315:
.LBE40:
	.loc 11 341 12
	cmpq	%rbx, %r15
	je	.L307
	movq	$1172321806, (%rbx)
	movabsq	$-723401728380766731, %rax
	movq	%rax, 2147450880(%r12)
	movq	56(%rbx), %rax
	movb	$0, (%rax)
	jmp	.L308
.L307:
	movq	$0, 2147450880(%r12)
.L308:
	.loc 11 342 68
	movq	-56(%rbp), %rax
	xorq	%fs:40, %rax
	je	.L312
	call	__stack_chk_fail@PLT
.L312:
	addq	$136, %rsp
	popq	%rbx
	popq	%r12
	popq	%r13
	popq	%r14
	popq	%r15
	popq	%rbp
	.cfi_def_cfa 7, 8
	ret
	.cfi_endproc
.LFE5338:
	.section	.gcc_except_table._ZNSt4pairIKNSt7__cxx1112basic_stringIcSt11char_traitsIcESaIcEEESt8functionIFviiR8RelationEEEC1IRA22_KcNS8_7closureMUliiS9_E0_ELb1EEEOT_OT0_,"aG",@progbits,_ZNSt4pairIKNSt7__cxx1112basic_stringIcSt11char_traitsIcESaIcEEESt8functionIFviiR8RelationEEEC1IRA22_KcNS8_7closureMUliiS9_E0_ELb1EEEOT_OT0_,comdat
.LLSDA5338:
	.byte	0xff
	.byte	0xff
	.byte	0x1
	.uleb128 .LLSDACSE5338-.LLSDACSB5338
.LLSDACSB5338:
	.uleb128 .LEHB18-.LFB5338
	.uleb128 .LEHE18-.LEHB18
	.uleb128 .L313-.LFB5338
	.uleb128 0
	.uleb128 .LEHB19-.LFB5338
	.uleb128 .LEHE19-.LEHB19
	.uleb128 .L314-.LFB5338
	.uleb128 0
	.uleb128 .LEHB20-.LFB5338
	.uleb128 .LEHE20-.LEHB20
	.uleb128 0
	.uleb128 0
.LLSDACSE5338:
	.section	.text._ZNSt4pairIKNSt7__cxx1112basic_stringIcSt11char_traitsIcESaIcEEESt8functionIFviiR8RelationEEEC1IRA22_KcNS8_7closureMUliiS9_E0_ELb1EEEOT_OT0_,"axG",@progbits,_ZNSt4pairIKNSt7__cxx1112basic_stringIcSt11char_traitsIcESaIcEEESt8functionIFviiR8RelationEEEC1IRA22_KcNS8_7closureMUliiS9_E0_ELb1EEEOT_OT0_,comdat
	.size	_ZNSt4pairIKNSt7__cxx1112basic_stringIcSt11char_traitsIcESaIcEEESt8functionIFviiR8RelationEEEC1IRA22_KcNS8_7closureMUliiS9_E0_ELb1EEEOT_OT0_, .-_ZNSt4pairIKNSt7__cxx1112basic_stringIcSt11char_traitsIcESaIcEEESt8functionIFviiR8RelationEEEC1IRA22_KcNS8_7closureMUliiS9_E0_ELb1EEEOT_OT0_
	.section	.text._ZNSt4pairIKNSt7__cxx1112basic_stringIcSt11char_traitsIcESaIcEEESt8functionIFviiR8RelationEEEC1IRA19_KcNS8_7closureMUliiS9_E1_ELb1EEEOT_OT0_,"axG",@progbits,_ZNSt4pairIKNSt7__cxx1112basic_stringIcSt11char_traitsIcESaIcEEESt8functionIFviiR8RelationEEEC1IRA19_KcNS8_7closureMUliiS9_E1_ELb1EEEOT_OT0_,comdat
	.align 2
	.weak	_ZNSt4pairIKNSt7__cxx1112basic_stringIcSt11char_traitsIcESaIcEEESt8functionIFviiR8RelationEEEC1IRA19_KcNS8_7closureMUliiS9_E1_ELb1EEEOT_OT0_
	.type	_ZNSt4pairIKNSt7__cxx1112basic_stringIcSt11char_traitsIcESaIcEEESt8functionIFviiR8RelationEEEC1IRA19_KcNS8_7closureMUliiS9_E1_ELb1EEEOT_OT0_, @function
_ZNSt4pairIKNSt7__cxx1112basic_stringIcSt11char_traitsIcESaIcEEESt8functionIFviiR8RelationEEEC1IRA19_KcNS8_7closureMUliiS9_E1_ELb1EEEOT_OT0_:
.LASANPC5341:
.LFB5341:
	.loc 11 341 12
	.cfi_startproc
	.cfi_personality 0x9b,DW.ref.__gxx_personality_v0
	.cfi_lsda 0x1b,.LLSDA5341
	endbr64
	pushq	%rbp
	.cfi_def_cfa_offset 16
	.cfi_offset 6, -16
	movq	%rsp, %rbp
	.cfi_def_cfa_register 6
	pushq	%r15
	pushq	%r14
	pushq	%r13
	pushq	%r12
	pushq	%rbx
	subq	$136, %rsp
	.cfi_offset 15, -24
	.cfi_offset 14, -32
	.cfi_offset 13, -40
	.cfi_offset 12, -48
	.cfi_offset 3, -56
	movq	%rdi, -152(%rbp)
	movq	%rsi, -160(%rbp)
	movq	%rdx, -168(%rbp)
	leaq	-144(%rbp), %rbx
	movq	%rbx, %r15
	cmpl	$0, __asan_option_detect_stack_use_after_return(%rip)
	je	.L316
	movl	$64, %edi
	call	__asan_stack_malloc_0@PLT
.LVL20:
	testq	%rax, %rax
	je	.L316
	movq	%rax, %rbx
.L316:
	leaq	96(%rbx), %rax
	movq	%rax, %r13
	movq	$1102416563, (%rbx)
	leaq	.LC5(%rip), %rax
	movq	%rax, 8(%rbx)
	leaq	.LASANPC5341(%rip), %rax
	movq	%rax, 16(%rbx)
	movq	%rbx, %r12
	shrq	$3, %r12
	movl	$-235802127, 2147450880(%r12)
	movl	$-202116351, 2147450884(%r12)
	.loc 11 341 12
	movq	%fs:40, %rax
	movq	%rax, -56(%rbp)
	xorl	%eax, %eax
.LBB41:
	.loc 11 342 64
	movq	-152(%rbp), %r14
	leaq	-64(%r13), %rax
	movq	%rax, %rdi
	call	_ZNSaIcEC1Ev@PLT
	.loc 11 342 27
	movq	-160(%rbp), %rax
	movq	%rax, %rdi
	call	_ZSt7forwardIRA19_KcEOT_RNSt16remove_referenceIS3_E4typeE
	movq	%rax, %rcx
	.loc 11 342 64
	leaq	-64(%r13), %rax
	movq	%rax, %rdx
	movq	%rcx, %rsi
	movq	%r14, %rdi
.LEHB21:
	call	_ZNSt7__cxx1112basic_stringIcSt11char_traitsIcESaIcEEC1IS3_EEPKcRKS3_
.LEHE21:
	.loc 11 342 64 is_stmt 0 discriminator 2
	leaq	-64(%r13), %rax
	movq	%rax, %rdi
	call	_ZNSaIcED1Ev@PLT
	leaq	-64(%r13), %rax
	shrq	$3, %rax
	addq	$2147450880, %rax
	movb	$-8, (%rax)
	movq	-152(%rbp), %rax
	leaq	32(%rax), %r13
	.loc 11 342 59 is_stmt 1 discriminator 2
	movq	-168(%rbp), %rax
	movq	%rax, %rdi
	call	_ZSt7forwardIN8Relation7closureMUliiRS0_E1_EEOT_RNSt16remove_referenceIS3_E4typeE
	.loc 11 342 64 discriminator 2
	movq	%r13, %rdi
.LEHB22:
	call	_ZNSt8functionIFviiR8RelationEEC1INS0_7closureMUliiS1_E1_EvvEET_
.LEHE22:
.LBE41:
	.loc 11 342 68
	jmp	.L325
.L323:
	endbr64
	movq	%rax, %rbx
.LBB42:
	.loc 11 342 64
	leaq	-64(%r13), %rax
	movq	%rax, %rdi
	call	_ZNSaIcED1Ev@PLT
	call	__asan_handle_no_return@PLT
	movq	%rbx, %rdi
.LEHB23:
	call	_Unwind_Resume@PLT
.L324:
	endbr64
	movq	%rax, %rbx
	movq	-152(%rbp), %rax
	movq	%rax, %rdi
	call	_ZNSt7__cxx1112basic_stringIcSt11char_traitsIcESaIcEED1Ev@PLT
	call	__asan_handle_no_return@PLT
	movq	%rbx, %rdi
	call	_Unwind_Resume@PLT
.LEHE23:
.L325:
.LBE42:
	.loc 11 341 12
	cmpq	%rbx, %r15
	je	.L317
	movq	$1172321806, (%rbx)
	movabsq	$-723401728380766731, %rax
	movq	%rax, 2147450880(%r12)
	movq	56(%rbx), %rax
	movb	$0, (%rax)
	jmp	.L318
.L317:
	movq	$0, 2147450880(%r12)
.L318:
	.loc 11 342 68
	movq	-56(%rbp), %rax
	xorq	%fs:40, %rax
	je	.L322
	call	__stack_chk_fail@PLT
.L322:
	addq	$136, %rsp
	popq	%rbx
	popq	%r12
	popq	%r13
	popq	%r14
	popq	%r15
	popq	%rbp
	.cfi_def_cfa 7, 8
	ret
	.cfi_endproc
.LFE5341:
	.section	.gcc_except_table._ZNSt4pairIKNSt7__cxx1112basic_stringIcSt11char_traitsIcESaIcEEESt8functionIFviiR8RelationEEEC1IRA19_KcNS8_7closureMUliiS9_E1_ELb1EEEOT_OT0_,"aG",@progbits,_ZNSt4pairIKNSt7__cxx1112basic_stringIcSt11char_traitsIcESaIcEEESt8functionIFviiR8RelationEEEC1IRA19_KcNS8_7closureMUliiS9_E1_ELb1EEEOT_OT0_,comdat
.LLSDA5341:
	.byte	0xff
	.byte	0xff
	.byte	0x1
	.uleb128 .LLSDACSE5341-.LLSDACSB5341
.LLSDACSB5341:
	.uleb128 .LEHB21-.LFB5341
	.uleb128 .LEHE21-.LEHB21
	.uleb128 .L323-.LFB5341
	.uleb128 0
	.uleb128 .LEHB22-.LFB5341
	.uleb128 .LEHE22-.LEHB22
	.uleb128 .L324-.LFB5341
	.uleb128 0
	.uleb128 .LEHB23-.LFB5341
	.uleb128 .LEHE23-.LEHB23
	.uleb128 0
	.uleb128 0
.LLSDACSE5341:
	.section	.text._ZNSt4pairIKNSt7__cxx1112basic_stringIcSt11char_traitsIcESaIcEEESt8functionIFviiR8RelationEEEC1IRA19_KcNS8_7closureMUliiS9_E1_ELb1EEEOT_OT0_,"axG",@progbits,_ZNSt4pairIKNSt7__cxx1112basic_stringIcSt11char_traitsIcESaIcEEESt8functionIFviiR8RelationEEEC1IRA19_KcNS8_7closureMUliiS9_E1_ELb1EEEOT_OT0_,comdat
	.size	_ZNSt4pairIKNSt7__cxx1112basic_stringIcSt11char_traitsIcESaIcEEESt8functionIFviiR8RelationEEEC1IRA19_KcNS8_7closureMUliiS9_E1_ELb1EEEOT_OT0_, .-_ZNSt4pairIKNSt7__cxx1112basic_stringIcSt11char_traitsIcESaIcEEESt8functionIFviiR8RelationEEEC1IRA19_KcNS8_7closureMUliiS9_E1_ELb1EEEOT_OT0_
	.section	.text._ZNSt4pairIKNSt7__cxx1112basic_stringIcSt11char_traitsIcESaIcEEESt8functionIFviiR8RelationEEEC1IRA23_KcNS8_7closureMUliiS9_E2_ELb1EEEOT_OT0_,"axG",@progbits,_ZNSt4pairIKNSt7__cxx1112basic_stringIcSt11char_traitsIcESaIcEEESt8functionIFviiR8RelationEEEC1IRA23_KcNS8_7closureMUliiS9_E2_ELb1EEEOT_OT0_,comdat
	.align 2
	.weak	_ZNSt4pairIKNSt7__cxx1112basic_stringIcSt11char_traitsIcESaIcEEESt8functionIFviiR8RelationEEEC1IRA23_KcNS8_7closureMUliiS9_E2_ELb1EEEOT_OT0_
	.type	_ZNSt4pairIKNSt7__cxx1112basic_stringIcSt11char_traitsIcESaIcEEESt8functionIFviiR8RelationEEEC1IRA23_KcNS8_7closureMUliiS9_E2_ELb1EEEOT_OT0_, @function
_ZNSt4pairIKNSt7__cxx1112basic_stringIcSt11char_traitsIcESaIcEEESt8functionIFviiR8RelationEEEC1IRA23_KcNS8_7closureMUliiS9_E2_ELb1EEEOT_OT0_:
.LASANPC5344:
.LFB5344:
	.loc 11 341 12
	.cfi_startproc
	.cfi_personality 0x9b,DW.ref.__gxx_personality_v0
	.cfi_lsda 0x1b,.LLSDA5344
	endbr64
	pushq	%rbp
	.cfi_def_cfa_offset 16
	.cfi_offset 6, -16
	movq	%rsp, %rbp
	.cfi_def_cfa_register 6
	pushq	%r15
	pushq	%r14
	pushq	%r13
	pushq	%r12
	pushq	%rbx
	subq	$136, %rsp
	.cfi_offset 15, -24
	.cfi_offset 14, -32
	.cfi_offset 13, -40
	.cfi_offset 12, -48
	.cfi_offset 3, -56
	movq	%rdi, -152(%rbp)
	movq	%rsi, -160(%rbp)
	movq	%rdx, -168(%rbp)
	leaq	-144(%rbp), %rbx
	movq	%rbx, %r15
	cmpl	$0, __asan_option_detect_stack_use_after_return(%rip)
	je	.L326
	movl	$64, %edi
	call	__asan_stack_malloc_0@PLT
.LVL21:
	testq	%rax, %rax
	je	.L326
	movq	%rax, %rbx
.L326:
	leaq	96(%rbx), %rax
	movq	%rax, %r13
	movq	$1102416563, (%rbx)
	leaq	.LC5(%rip), %rax
	movq	%rax, 8(%rbx)
	leaq	.LASANPC5344(%rip), %rax
	movq	%rax, 16(%rbx)
	movq	%rbx, %r12
	shrq	$3, %r12
	movl	$-235802127, 2147450880(%r12)
	movl	$-202116351, 2147450884(%r12)
	.loc 11 341 12
	movq	%fs:40, %rax
	movq	%rax, -56(%rbp)
	xorl	%eax, %eax
.LBB43:
	.loc 11 342 64
	movq	-152(%rbp), %r14
	leaq	-64(%r13), %rax
	movq	%rax, %rdi
	call	_ZNSaIcEC1Ev@PLT
	.loc 11 342 27
	movq	-160(%rbp), %rax
	movq	%rax, %rdi
	call	_ZSt7forwardIRA23_KcEOT_RNSt16remove_referenceIS3_E4typeE
	movq	%rax, %rcx
	.loc 11 342 64
	leaq	-64(%r13), %rax
	movq	%rax, %rdx
	movq	%rcx, %rsi
	movq	%r14, %rdi
.LEHB24:
	call	_ZNSt7__cxx1112basic_stringIcSt11char_traitsIcESaIcEEC1IS3_EEPKcRKS3_
.LEHE24:
	.loc 11 342 64 is_stmt 0 discriminator 2
	leaq	-64(%r13), %rax
	movq	%rax, %rdi
	call	_ZNSaIcED1Ev@PLT
	leaq	-64(%r13), %rax
	shrq	$3, %rax
	addq	$2147450880, %rax
	movb	$-8, (%rax)
	movq	-152(%rbp), %rax
	leaq	32(%rax), %r13
	.loc 11 342 59 is_stmt 1 discriminator 2
	movq	-168(%rbp), %rax
	movq	%rax, %rdi
	call	_ZSt7forwardIN8Relation7closureMUliiRS0_E2_EEOT_RNSt16remove_referenceIS3_E4typeE
	.loc 11 342 64 discriminator 2
	movq	%r13, %rdi
.LEHB25:
	call	_ZNSt8functionIFviiR8RelationEEC1INS0_7closureMUliiS1_E2_EvvEET_
.LEHE25:
.LBE43:
	.loc 11 342 68
	jmp	.L335
.L333:
	endbr64
	movq	%rax, %rbx
.LBB44:
	.loc 11 342 64
	leaq	-64(%r13), %rax
	movq	%rax, %rdi
	call	_ZNSaIcED1Ev@PLT
	call	__asan_handle_no_return@PLT
	movq	%rbx, %rdi
.LEHB26:
	call	_Unwind_Resume@PLT
.L334:
	endbr64
	movq	%rax, %rbx
	movq	-152(%rbp), %rax
	movq	%rax, %rdi
	call	_ZNSt7__cxx1112basic_stringIcSt11char_traitsIcESaIcEED1Ev@PLT
	call	__asan_handle_no_return@PLT
	movq	%rbx, %rdi
	call	_Unwind_Resume@PLT
.LEHE26:
.L335:
.LBE44:
	.loc 11 341 12
	cmpq	%rbx, %r15
	je	.L327
	movq	$1172321806, (%rbx)
	movabsq	$-723401728380766731, %rax
	movq	%rax, 2147450880(%r12)
	movq	56(%rbx), %rax
	movb	$0, (%rax)
	jmp	.L328
.L327:
	movq	$0, 2147450880(%r12)
.L328:
	.loc 11 342 68
	movq	-56(%rbp), %rax
	xorq	%fs:40, %rax
	je	.L332
	call	__stack_chk_fail@PLT
.L332:
	addq	$136, %rsp
	popq	%rbx
	popq	%r12
	popq	%r13
	popq	%r14
	popq	%r15
	popq	%rbp
	.cfi_def_cfa 7, 8
	ret
	.cfi_endproc
.LFE5344:
	.section	.gcc_except_table._ZNSt4pairIKNSt7__cxx1112basic_stringIcSt11char_traitsIcESaIcEEESt8functionIFviiR8RelationEEEC1IRA23_KcNS8_7closureMUliiS9_E2_ELb1EEEOT_OT0_,"aG",@progbits,_ZNSt4pairIKNSt7__cxx1112basic_stringIcSt11char_traitsIcESaIcEEESt8functionIFviiR8RelationEEEC1IRA23_KcNS8_7closureMUliiS9_E2_ELb1EEEOT_OT0_,comdat
.LLSDA5344:
	.byte	0xff
	.byte	0xff
	.byte	0x1
	.uleb128 .LLSDACSE5344-.LLSDACSB5344
.LLSDACSB5344:
	.uleb128 .LEHB24-.LFB5344
	.uleb128 .LEHE24-.LEHB24
	.uleb128 .L333-.LFB5344
	.uleb128 0
	.uleb128 .LEHB25-.LFB5344
	.uleb128 .LEHE25-.LEHB25
	.uleb128 .L334-.LFB5344
	.uleb128 0
	.uleb128 .LEHB26-.LFB5344
	.uleb128 .LEHE26-.LEHB26
	.uleb128 0
	.uleb128 0
.LLSDACSE5344:
	.section	.text._ZNSt4pairIKNSt7__cxx1112basic_stringIcSt11char_traitsIcESaIcEEESt8functionIFviiR8RelationEEEC1IRA23_KcNS8_7closureMUliiS9_E2_ELb1EEEOT_OT0_,"axG",@progbits,_ZNSt4pairIKNSt7__cxx1112basic_stringIcSt11char_traitsIcESaIcEEESt8functionIFviiR8RelationEEEC1IRA23_KcNS8_7closureMUliiS9_E2_ELb1EEEOT_OT0_,comdat
	.size	_ZNSt4pairIKNSt7__cxx1112basic_stringIcSt11char_traitsIcESaIcEEESt8functionIFviiR8RelationEEEC1IRA23_KcNS8_7closureMUliiS9_E2_ELb1EEEOT_OT0_, .-_ZNSt4pairIKNSt7__cxx1112basic_stringIcSt11char_traitsIcESaIcEEESt8functionIFviiR8RelationEEEC1IRA23_KcNS8_7closureMUliiS9_E2_ELb1EEEOT_OT0_
	.section	.text._ZNSt4pairIKNSt7__cxx1112basic_stringIcSt11char_traitsIcESaIcEEESt8functionIFviiR8RelationEEEC1IRA20_KcNS8_7closureMUliiS9_E3_ELb1EEEOT_OT0_,"axG",@progbits,_ZNSt4pairIKNSt7__cxx1112basic_stringIcSt11char_traitsIcESaIcEEESt8functionIFviiR8RelationEEEC1IRA20_KcNS8_7closureMUliiS9_E3_ELb1EEEOT_OT0_,comdat
	.align 2
	.weak	_ZNSt4pairIKNSt7__cxx1112basic_stringIcSt11char_traitsIcESaIcEEESt8functionIFviiR8RelationEEEC1IRA20_KcNS8_7closureMUliiS9_E3_ELb1EEEOT_OT0_
	.type	_ZNSt4pairIKNSt7__cxx1112basic_stringIcSt11char_traitsIcESaIcEEESt8functionIFviiR8RelationEEEC1IRA20_KcNS8_7closureMUliiS9_E3_ELb1EEEOT_OT0_, @function
_ZNSt4pairIKNSt7__cxx1112basic_stringIcSt11char_traitsIcESaIcEEESt8functionIFviiR8RelationEEEC1IRA20_KcNS8_7closureMUliiS9_E3_ELb1EEEOT_OT0_:
.LASANPC5347:
.LFB5347:
	.loc 11 341 12
	.cfi_startproc
	.cfi_personality 0x9b,DW.ref.__gxx_personality_v0
	.cfi_lsda 0x1b,.LLSDA5347
	endbr64
	pushq	%rbp
	.cfi_def_cfa_offset 16
	.cfi_offset 6, -16
	movq	%rsp, %rbp
	.cfi_def_cfa_register 6
	pushq	%r15
	pushq	%r14
	pushq	%r13
	pushq	%r12
	pushq	%rbx
	subq	$136, %rsp
	.cfi_offset 15, -24
	.cfi_offset 14, -32
	.cfi_offset 13, -40
	.cfi_offset 12, -48
	.cfi_offset 3, -56
	movq	%rdi, -152(%rbp)
	movq	%rsi, -160(%rbp)
	movq	%rdx, -168(%rbp)
	leaq	-144(%rbp), %rbx
	movq	%rbx, %r15
	cmpl	$0, __asan_option_detect_stack_use_after_return(%rip)
	je	.L336
	movl	$64, %edi
	call	__asan_stack_malloc_0@PLT
.LVL22:
	testq	%rax, %rax
	je	.L336
	movq	%rax, %rbx
.L336:
	leaq	96(%rbx), %rax
	movq	%rax, %r13
	movq	$1102416563, (%rbx)
	leaq	.LC5(%rip), %rax
	movq	%rax, 8(%rbx)
	leaq	.LASANPC5347(%rip), %rax
	movq	%rax, 16(%rbx)
	movq	%rbx, %r12
	shrq	$3, %r12
	movl	$-235802127, 2147450880(%r12)
	movl	$-202116351, 2147450884(%r12)
	.loc 11 341 12
	movq	%fs:40, %rax
	movq	%rax, -56(%rbp)
	xorl	%eax, %eax
.LBB45:
	.loc 11 342 64
	movq	-152(%rbp), %r14
	leaq	-64(%r13), %rax
	movq	%rax, %rdi
	call	_ZNSaIcEC1Ev@PLT
	.loc 11 342 27
	movq	-160(%rbp), %rax
	movq	%rax, %rdi
	call	_ZSt7forwardIRA20_KcEOT_RNSt16remove_referenceIS3_E4typeE
	movq	%rax, %rcx
	.loc 11 342 64
	leaq	-64(%r13), %rax
	movq	%rax, %rdx
	movq	%rcx, %rsi
	movq	%r14, %rdi
.LEHB27:
	call	_ZNSt7__cxx1112basic_stringIcSt11char_traitsIcESaIcEEC1IS3_EEPKcRKS3_
.LEHE27:
	.loc 11 342 64 is_stmt 0 discriminator 2
	leaq	-64(%r13), %rax
	movq	%rax, %rdi
	call	_ZNSaIcED1Ev@PLT
	leaq	-64(%r13), %rax
	shrq	$3, %rax
	addq	$2147450880, %rax
	movb	$-8, (%rax)
	movq	-152(%rbp), %rax
	leaq	32(%rax), %r13
	.loc 11 342 59 is_stmt 1 discriminator 2
	movq	-168(%rbp), %rax
	movq	%rax, %rdi
	call	_ZSt7forwardIN8Relation7closureMUliiRS0_E3_EEOT_RNSt16remove_referenceIS3_E4typeE
	.loc 11 342 64 discriminator 2
	movq	%rax, %rdx
	movq	%rdx, %rcx
	shrq	$3, %rcx
	addq	$2147450880, %rcx
	movzbl	(%rcx), %ecx
	testb	%cl, %cl
	je	.L340
	.loc 11 342 64 is_stmt 0
	movq	%rdx, %rdi
	call	__asan_report_load8@PLT
.L340:
	.loc 11 342 64 discriminator 2
	movq	(%rax), %rsi
	movq	%r13, %rdi
.LEHB28:
	call	_ZNSt8functionIFviiR8RelationEEC1INS0_7closureMUliiS1_E3_EvvEET_
.LEHE28:
.LBE45:
	.loc 11 342 68 is_stmt 1
	jmp	.L346
.L344:
	endbr64
	movq	%rax, %rbx
.LBB46:
	.loc 11 342 64
	leaq	-64(%r13), %rax
	movq	%rax, %rdi
	call	_ZNSaIcED1Ev@PLT
	call	__asan_handle_no_return@PLT
	movq	%rbx, %rdi
.LEHB29:
	call	_Unwind_Resume@PLT
.L345:
	endbr64
	movq	%rax, %rbx
	movq	-152(%rbp), %rax
	movq	%rax, %rdi
	call	_ZNSt7__cxx1112basic_stringIcSt11char_traitsIcESaIcEED1Ev@PLT
	call	__asan_handle_no_return@PLT
	movq	%rbx, %rdi
	call	_Unwind_Resume@PLT
.LEHE29:
.L346:
.LBE46:
	.loc 11 341 12
	cmpq	%rbx, %r15
	je	.L337
	movq	$1172321806, (%rbx)
	movabsq	$-723401728380766731, %rax
	movq	%rax, 2147450880(%r12)
	movq	56(%rbx), %rax
	movb	$0, (%rax)
	jmp	.L338
.L337:
	movq	$0, 2147450880(%r12)
.L338:
	.loc 11 342 68
	movq	-56(%rbp), %rax
	xorq	%fs:40, %rax
	je	.L343
	call	__stack_chk_fail@PLT
.L343:
	addq	$136, %rsp
	popq	%rbx
	popq	%r12
	popq	%r13
	popq	%r14
	popq	%r15
	popq	%rbp
	.cfi_def_cfa 7, 8
	ret
	.cfi_endproc
.LFE5347:
	.section	.gcc_except_table._ZNSt4pairIKNSt7__cxx1112basic_stringIcSt11char_traitsIcESaIcEEESt8functionIFviiR8RelationEEEC1IRA20_KcNS8_7closureMUliiS9_E3_ELb1EEEOT_OT0_,"aG",@progbits,_ZNSt4pairIKNSt7__cxx1112basic_stringIcSt11char_traitsIcESaIcEEESt8functionIFviiR8RelationEEEC1IRA20_KcNS8_7closureMUliiS9_E3_ELb1EEEOT_OT0_,comdat
.LLSDA5347:
	.byte	0xff
	.byte	0xff
	.byte	0x1
	.uleb128 .LLSDACSE5347-.LLSDACSB5347
.LLSDACSB5347:
	.uleb128 .LEHB27-.LFB5347
	.uleb128 .LEHE27-.LEHB27
	.uleb128 .L344-.LFB5347
	.uleb128 0
	.uleb128 .LEHB28-.LFB5347
	.uleb128 .LEHE28-.LEHB28
	.uleb128 .L345-.LFB5347
	.uleb128 0
	.uleb128 .LEHB29-.LFB5347
	.uleb128 .LEHE29-.LEHB29
	.uleb128 0
	.uleb128 0
.LLSDACSE5347:
	.section	.text._ZNSt4pairIKNSt7__cxx1112basic_stringIcSt11char_traitsIcESaIcEEESt8functionIFviiR8RelationEEEC1IRA20_KcNS8_7closureMUliiS9_E3_ELb1EEEOT_OT0_,"axG",@progbits,_ZNSt4pairIKNSt7__cxx1112basic_stringIcSt11char_traitsIcESaIcEEESt8functionIFviiR8RelationEEEC1IRA20_KcNS8_7closureMUliiS9_E3_ELb1EEEOT_OT0_,comdat
	.size	_ZNSt4pairIKNSt7__cxx1112basic_stringIcSt11char_traitsIcESaIcEEESt8functionIFviiR8RelationEEEC1IRA20_KcNS8_7closureMUliiS9_E3_ELb1EEEOT_OT0_, .-_ZNSt4pairIKNSt7__cxx1112basic_stringIcSt11char_traitsIcESaIcEEESt8functionIFviiR8RelationEEEC1IRA20_KcNS8_7closureMUliiS9_E3_ELb1EEEOT_OT0_
	.section	.text._ZN6MatrixIbED2Ev,"axG",@progbits,_ZN6MatrixIbED5Ev,comdat
	.align 2
	.weak	_ZN6MatrixIbED2Ev
	.type	_ZN6MatrixIbED2Ev, @function
_ZN6MatrixIbED2Ev:
.LASANPC5350:
.LFB5350:
	.file 13 "../src/Matrix.h"
	.loc 13 16 8
	.cfi_startproc
	endbr64
	pushq	%rbp
	.cfi_def_cfa_offset 16
	.cfi_offset 6, -16
	movq	%rsp, %rbp
	.cfi_def_cfa_register 6
	subq	$16, %rsp
	movq	%rdi, -8(%rbp)
.LBB47:
	.loc 13 16 8
	movq	-8(%rbp), %rax
	movq	%rax, %rdi
	call	_ZNSt6vectorIS_IbSaIbEESaIS1_EED1Ev
.LBE47:
	nop
	leave
	.cfi_def_cfa 7, 8
	ret
	.cfi_endproc
.LFE5350:
	.size	_ZN6MatrixIbED2Ev, .-_ZN6MatrixIbED2Ev
	.weak	_ZN6MatrixIbED1Ev
	.set	_ZN6MatrixIbED1Ev,_ZN6MatrixIbED2Ev
	.section	.text._ZNSt3mapINSt7__cxx1112basic_stringIcSt11char_traitsIcESaIcEEESt8functionIFviiR8RelationEESt4lessIS5_ESaISt4pairIKS5_SA_EEED2Ev,"axG",@progbits,_ZNSt3mapINSt7__cxx1112basic_stringIcSt11char_traitsIcESaIcEEESt8functionIFviiR8RelationEESt4lessIS5_ESaISt4pairIKS5_SA_EEED5Ev,comdat
	.align 2
	.weak	_ZNSt3mapINSt7__cxx1112basic_stringIcSt11char_traitsIcESaIcEEESt8functionIFviiR8RelationEESt4lessIS5_ESaISt4pairIKS5_SA_EEED2Ev
	.type	_ZNSt3mapINSt7__cxx1112basic_stringIcSt11char_traitsIcESaIcEEESt8functionIFviiR8RelationEESt4lessIS5_ESaISt4pairIKS5_SA_EEED2Ev, @function
_ZNSt3mapINSt7__cxx1112basic_stringIcSt11char_traitsIcESaIcEEESt8functionIFviiR8RelationEESt4lessIS5_ESaISt4pairIKS5_SA_EEED2Ev:
.LASANPC5353:
.LFB5353:
	.loc 12 300 7
	.cfi_startproc
	endbr64
	pushq	%rbp
	.cfi_def_cfa_offset 16
	.cfi_offset 6, -16
	movq	%rsp, %rbp
	.cfi_def_cfa_register 6
	subq	$16, %rsp
	movq	%rdi, -8(%rbp)
.LBB48:
	.loc 12 300 7
	movq	-8(%rbp), %rax
	movq	%rax, %rdi
	call	_ZNSt8_Rb_treeINSt7__cxx1112basic_stringIcSt11char_traitsIcESaIcEEESt4pairIKS5_St8functionIFviiR8RelationEEESt10_Select1stISD_ESt4lessIS5_ESaISD_EED1Ev
.LBE48:
	nop
	leave
	.cfi_def_cfa 7, 8
	ret
	.cfi_endproc
.LFE5353:
	.size	_ZNSt3mapINSt7__cxx1112basic_stringIcSt11char_traitsIcESaIcEEESt8functionIFviiR8RelationEESt4lessIS5_ESaISt4pairIKS5_SA_EEED2Ev, .-_ZNSt3mapINSt7__cxx1112basic_stringIcSt11char_traitsIcESaIcEEESt8functionIFviiR8RelationEESt4lessIS5_ESaISt4pairIKS5_SA_EEED2Ev
	.weak	_ZNSt3mapINSt7__cxx1112basic_stringIcSt11char_traitsIcESaIcEEESt8functionIFviiR8RelationEESt4lessIS5_ESaISt4pairIKS5_SA_EEED1Ev
	.set	_ZNSt3mapINSt7__cxx1112basic_stringIcSt11char_traitsIcESaIcEEESt8functionIFviiR8RelationEESt4lessIS5_ESaISt4pairIKS5_SA_EEED1Ev,_ZNSt3mapINSt7__cxx1112basic_stringIcSt11char_traitsIcESaIcEEESt8functionIFviiR8RelationEESt4lessIS5_ESaISt4pairIKS5_SA_EEED2Ev
	.weak	_ZZN8RelationC4EiE1e
	.section	.bss._ZZN8RelationC4EiE1e,"awG",@nobits,_ZZN8RelationC4EiE1e,comdat
	.align 8
	.type	_ZZN8RelationC4EiE1e, @gnu_unique_object
	.size	_ZZN8RelationC4EiE1e, 8
_ZZN8RelationC4EiE1e:
	.zero	8
	.weak	_ZGVZN8RelationC4EiE1e
	.section	.bss._ZGVZN8RelationC4EiE1e,"awG",@nobits,_ZGVZN8RelationC4EiE1e,comdat
	.align 8
	.type	_ZGVZN8RelationC4EiE1e, @gnu_unique_object
	.size	_ZGVZN8RelationC4EiE1e, 8
_ZGVZN8RelationC4EiE1e:
	.zero	8
	.weak	_ZZN8RelationC4EiE1b
	.section	.bss._ZZN8RelationC4EiE1b,"awG",@nobits,_ZZN8RelationC4EiE1b,comdat
	.align 8
	.type	_ZZN8RelationC4EiE1b, @gnu_unique_object
	.size	_ZZN8RelationC4EiE1b, 8
_ZZN8RelationC4EiE1b:
	.zero	8
	.weak	_ZGVZN8RelationC4EiE1b
	.section	.bss._ZGVZN8RelationC4EiE1b,"awG",@nobits,_ZGVZN8RelationC4EiE1b,comdat
	.align 8
	.type	_ZGVZN8RelationC4EiE1b, @gnu_unique_object
	.size	_ZGVZN8RelationC4EiE1b, 8
_ZGVZN8RelationC4EiE1b:
	.zero	8
	.globl	__asan_stack_malloc_5
	.section	.rodata
	.align 8
.LC7:
	.ascii	"17 48 1 9 <unknown> 64 1 9 <unknown> 80 1 9 <unknown>"
	.string	" 96 1 9 <unknown> 112 1 9 <unknown> 128 1 9 <unknown> 144 1 9 <unknown> 160 1 9 <unknown> 176 1 9 <unknown> 192 1 9 <unknown> 208 1 9 <unknown> 224 1 9 <unknown> 240 1 9 <unknown> 256 8 9 <unknown> 288 16 9 <unknown> 320 320 9 <unknown> 704 320 9 <unknown>"
	.globl	__asan_stack_free_5
	.align 32
.LC8:
	.string	"1.symmetry"
	.zero	53
	.align 32
.LC9:
	.string	"2.antisymmetry"
	.zero	49
	.align 32
.LC10:
	.string	"3.reflexivity"
	.zero	50
	.align 32
.LC11:
	.string	"4.antireflexivity"
	.zero	46
	.align 32
.LC12:
	.string	"5.transitivity"
	.zero	49
	.align 32
.LC13:
	.string	"1,symmetricClosure"
	.zero	45
	.align 32
.LC14:
	.string	"2,antisymmetrcClosure"
	.zero	42
	.align 32
.LC15:
	.string	"3,reflexiveClosure"
	.zero	45
	.align 32
.LC16:
	.string	"4,antireflexiveClosure"
	.zero	41
	.align 32
.LC17:
	.string	"5,transitiveClosure"
	.zero	44
	.section	.text._ZN8RelationC2Ei,"axG",@progbits,_ZN8RelationC5Ei,comdat
	.align 2
	.weak	_ZN8RelationC2Ei
	.type	_ZN8RelationC2Ei, @function
_ZN8RelationC2Ei:
.LASANPC5355:
.LFB5355:
	.loc 10 22 5
	.cfi_startproc
	.cfi_personality 0x9b,DW.ref.__gxx_personality_v0
	.cfi_lsda 0x1b,.LLSDA5355
	endbr64
	pushq	%rbp
	.cfi_def_cfa_offset 16
	.cfi_offset 6, -16
	movq	%rsp, %rbp
	.cfi_def_cfa_register 6
	pushq	%r15
	pushq	%r14
	pushq	%r13
	pushq	%r12
	pushq	%rbx
	subq	$1192, %rsp
	.cfi_offset 15, -24
	.cfi_offset 14, -32
	.cfi_offset 13, -40
	.cfi_offset 12, -48
	.cfi_offset 3, -56
	movq	%rdi, -1192(%rbp)
	movl	%esi, -1196(%rbp)
	leaq	-1168(%rbp), %r13
	movq	%r13, -1232(%rbp)
	cmpl	$0, __asan_option_detect_stack_use_after_return(%rip)
	je	.L349
	movl	$1088, %edi
	call	__asan_stack_malloc_5@PLT
.LVL23:
	testq	%rax, %rax
	je	.L349
	movq	%rax, %r13
.L349:
	leaq	1120(%r13), %rax
	movq	%rax, %rbx
	movq	$1102416563, 0(%r13)
	leaq	.LC7(%rip), %rax
	movq	%rax, 8(%r13)
	leaq	.LASANPC5355(%rip), %rax
	movq	%rax, 16(%r13)
	movq	%r13, %r12
	shrq	$3, %r12
	movl	$-235802127, 2147450880(%r12)
	movl	$-234753551, 2147450884(%r12)
	movl	$-234753535, 2147450888(%r12)
	movl	$-234753535, 2147450892(%r12)
	movl	$-234753535, 2147450896(%r12)
	movl	$-234753535, 2147450900(%r12)
	movl	$-234753535, 2147450904(%r12)
	movl	$-234753535, 2147450908(%r12)
	movl	$-218959360, 2147450912(%r12)
	movl	$-219021312, 2147450916(%r12)
	movl	$-218959118, 2147450960(%r12)
	movl	$-218959118, 2147450964(%r12)
	movl	$-202116109, 2147451008(%r12)
	movl	$-202116109, 2147451012(%r12)
	.loc 10 22 5
	movq	%fs:40, %rax
	movq	%rax, -56(%rbp)
	xorl	%eax, %eax
.LBB49:
	.loc 10 22 48
	movq	-1192(%rbp), %rax
	movl	-1196(%rbp), %edx
	movslq	%edx, %rdx
	movl	-1196(%rbp), %ecx
	movslq	%ecx, %rcx
	movq	%rcx, %rsi
	movq	%rax, %rdi
.LEHB30:
	call	_ZN6MatrixIbEC2Emm
.LEHE30:
	movq	-1192(%rbp), %rax
	addq	$40, %rax
	movq	%rax, %rdx
	movq	%rdx, %rax
	shrq	$3, %rax
	addq	$2147450880, %rax
	movzbl	(%rax), %eax
	testb	%al, %al
	setne	%cl
	cmpb	$3, %al
	setle	%al
	andl	%ecx, %eax
	testb	%al, %al
	je	.L353
	movq	%rdx, %rdi
	call	__asan_report_store4@PLT
.L353:
	movq	-1192(%rbp), %rax
	movl	-1196(%rbp), %edx
	movl	%edx, 40(%rax)
	movq	-1192(%rbp), %rax
	addq	$48, %rax
	movq	%rax, -1224(%rbp)
	leaq	-1040(%rbx), %rdx
	leaq	-800(%rbx), %rax
	leaq	.LC8(%rip), %rsi
	movq	%rax, %rdi
.LEHB31:
	call	_ZNSt4pairIKNSt7__cxx1112basic_stringIcSt11char_traitsIcESaIcEEESt8functionIFbiiR8RelationEEEC1IRA11_KcNS8_8propertyMUliiS9_E_ELb1EEEOT_OT0_
	.loc 10 22 48 is_stmt 0 discriminator 2
	leaq	-1024(%rbx), %rax
	leaq	-800(%rbx), %rdx
	leaq	64(%rdx), %rcx
	movq	%rax, %rdx
	leaq	.LC9(%rip), %rsi
	movq	%rcx, %rdi
	call	_ZNSt4pairIKNSt7__cxx1112basic_stringIcSt11char_traitsIcESaIcEEESt8functionIFbiiR8RelationEEEC1IRA15_KcNS8_8propertyMUliiS9_E0_ELb1EEEOT_OT0_
	.loc 10 22 48 discriminator 4
	leaq	-1008(%rbx), %rax
	leaq	-800(%rbx), %rdx
	leaq	128(%rdx), %rcx
	movq	%rax, %rdx
	leaq	.LC10(%rip), %rsi
	movq	%rcx, %rdi
	call	_ZNSt4pairIKNSt7__cxx1112basic_stringIcSt11char_traitsIcESaIcEEESt8functionIFbiiR8RelationEEEC1IRA14_KcNS8_8propertyMUliiS9_E1_ELb1EEEOT_OT0_
	.loc 10 22 48 discriminator 6
	leaq	-992(%rbx), %rax
	leaq	-800(%rbx), %rdx
	leaq	192(%rdx), %rcx
	movq	%rax, %rdx
	leaq	.LC11(%rip), %rsi
	movq	%rcx, %rdi
	call	_ZNSt4pairIKNSt7__cxx1112basic_stringIcSt11char_traitsIcESaIcEEESt8functionIFbiiR8RelationEEEC1IRA18_KcNS8_8propertyMUliiS9_E2_ELb1EEEOT_OT0_
	.loc 10 22 48 discriminator 8
	leaq	-976(%rbx), %rax
	leaq	-800(%rbx), %rdx
	leaq	256(%rdx), %rcx
	movq	%rax, %rdx
	leaq	.LC12(%rip), %rsi
	movq	%rcx, %rdi
	call	_ZNSt4pairIKNSt7__cxx1112basic_stringIcSt11char_traitsIcESaIcEEESt8functionIFbiiR8RelationEEEC1IRA15_KcNS8_8propertyMUliiS9_E3_ELb1EEEOT_OT0_
.LEHE31:
	.loc 10 22 48 discriminator 10
	leaq	-800(%rbx), %rax
	movq	%rax, %r14
	movl	$5, %r15d
	leaq	-1072(%rbx), %rax
	movq	%rax, %rdi
	call	_ZNSaISt4pairIKNSt7__cxx1112basic_stringIcSt11char_traitsIcESaIcEEESt8functionIFbiiR8RelationEEEEC1Ev
	leaq	-1072(%rbx), %rdx
	leaq	-960(%rbx), %rax
	movq	%r14, %r8
	movq	%r15, %r9
	movq	%r14, %rsi
	movq	%r15, %rdi
	movq	%r8, %r9
	movq	%rdx, %r8
	movq	%rax, %rcx
	movq	%r9, %rsi
	movq	%rdi, %rdx
	movq	-1224(%rbp), %rdi
.LEHB32:
	call	_ZNSt3mapINSt7__cxx1112basic_stringIcSt11char_traitsIcESaIcEEESt8functionIFbiiR8RelationEESt4lessIS5_ESaISt4pairIKS5_SA_EEEC1ESt16initializer_listISF_ERKSC_RKSG_
.LEHE32:
	.loc 10 22 48 discriminator 12
	leaq	-1072(%rbx), %rax
	movq	%rax, %rdi
	call	_ZNSaISt4pairIKNSt7__cxx1112basic_stringIcSt11char_traitsIcESaIcEEESt8functionIFbiiR8RelationEEEED1Ev
	leaq	-1072(%rbx), %rax
	shrq	$3, %rax
	addq	$2147450880, %rax
	movb	$-8, (%rax)
	leaq	-800(%rbx), %r14
	addq	$320, %r14
.L355:
	.loc 10 22 48 discriminator 16
	leaq	-800(%rbx), %rax
	cmpq	%rax, %r14
	je	.L354
	.loc 10 22 48 discriminator 15
	subq	$64, %r14
	movq	%r14, %rdi
	call	_ZNSt4pairIKNSt7__cxx1112basic_stringIcSt11char_traitsIcESaIcEEESt8functionIFbiiR8RelationEEED1Ev
	jmp	.L355
.L354:
	.loc 10 22 48 discriminator 14
	movl	$320, %edx
	leaq	-800(%rbx), %rax
	movq	%rdx, %rsi
	movq	%rax, %rdi
	call	__asan_poison_stack_memory@PLT
	movq	-1192(%rbp), %rax
	leaq	96(%rax), %r14
	movl	$320, %edx
	leaq	-416(%rbx), %rax
	movq	%rdx, %rsi
	movq	%rax, %rdi
	call	__asan_unpoison_stack_memory@PLT
	leaq	-944(%rbx), %rdx
	leaq	-416(%rbx), %rax
	leaq	.LC13(%rip), %rsi
	movq	%rax, %rdi
.LEHB33:
	call	_ZNSt4pairIKNSt7__cxx1112basic_stringIcSt11char_traitsIcESaIcEEESt8functionIFviiR8RelationEEEC1IRA19_KcNS8_7closureMUliiS9_E_ELb1EEEOT_OT0_
	.loc 10 22 48 discriminator 18
	leaq	-928(%rbx), %rax
	leaq	-416(%rbx), %rdx
	leaq	64(%rdx), %rcx
	movq	%rax, %rdx
	leaq	.LC14(%rip), %rsi
	movq	%rcx, %rdi
	call	_ZNSt4pairIKNSt7__cxx1112basic_stringIcSt11char_traitsIcESaIcEEESt8functionIFviiR8RelationEEEC1IRA22_KcNS8_7closureMUliiS9_E0_ELb1EEEOT_OT0_
	.loc 10 22 48 discriminator 20
	leaq	-912(%rbx), %rax
	leaq	-416(%rbx), %rdx
	leaq	128(%rdx), %rcx
	movq	%rax, %rdx
	leaq	.LC15(%rip), %rsi
	movq	%rcx, %rdi
	call	_ZNSt4pairIKNSt7__cxx1112basic_stringIcSt11char_traitsIcESaIcEEESt8functionIFviiR8RelationEEEC1IRA19_KcNS8_7closureMUliiS9_E1_ELb1EEEOT_OT0_
	.loc 10 22 48 discriminator 22
	leaq	-896(%rbx), %rax
	leaq	-416(%rbx), %rdx
	leaq	192(%rdx), %rcx
	movq	%rax, %rdx
	leaq	.LC16(%rip), %rsi
	movq	%rcx, %rdi
	call	_ZNSt4pairIKNSt7__cxx1112basic_stringIcSt11char_traitsIcESaIcEEESt8functionIFviiR8RelationEEEC1IRA23_KcNS8_7closureMUliiS9_E2_ELb1EEEOT_OT0_
	.loc 10 22 48 discriminator 24
	leaq	-864(%rbx), %rax
	movq	%rax, %rdx
	shrq	$3, %rdx
	addq	$2147450880, %rdx
	movzbl	(%rdx), %edx
	testb	%dl, %dl
	je	.L356
	.loc 10 22 48
	movq	%rax, %rdi
	call	__asan_report_store8@PLT
.L356:
	.loc 10 22 48 discriminator 24
	movq	-1192(%rbp), %rax
	movq	%rax, -864(%rbx)
	leaq	-864(%rbx), %rax
	leaq	-416(%rbx), %rdx
	leaq	256(%rdx), %rcx
	movq	%rax, %rdx
	leaq	.LC17(%rip), %rsi
	movq	%rcx, %rdi
	call	_ZNSt4pairIKNSt7__cxx1112basic_stringIcSt11char_traitsIcESaIcEEESt8functionIFviiR8RelationEEEC1IRA20_KcNS8_7closureMUliiS9_E3_ELb1EEEOT_OT0_
.LEHE33:
	.loc 10 22 48 discriminator 26
	leaq	-416(%rbx), %rax
	movq	%rax, -1216(%rbp)
	movq	$5, -1208(%rbp)
	leaq	-1056(%rbx), %rax
	shrq	$3, %rax
	addq	$2147450880, %rax
	movb	$1, (%rax)
	leaq	-1056(%rbx), %rax
	movq	%rax, %rdi
	call	_ZNSaISt4pairIKNSt7__cxx1112basic_stringIcSt11char_traitsIcESaIcEEESt8functionIFviiR8RelationEEEEC1Ev
	leaq	-1056(%rbx), %rdx
	leaq	-880(%rbx), %rax
	movq	-1216(%rbp), %rsi
	movq	-1208(%rbp), %rdi
	movq	%rsi, %r8
	movq	%rdi, %r9
	movq	%r8, %r9
	movq	%rdx, %r8
	movq	%rax, %rcx
	movq	%r9, %rsi
	movq	%rdi, %rdx
	movq	%r14, %rdi
.LEHB34:
	call	_ZNSt3mapINSt7__cxx1112basic_stringIcSt11char_traitsIcESaIcEEESt8functionIFviiR8RelationEESt4lessIS5_ESaISt4pairIKS5_SA_EEEC1ESt16initializer_listISF_ERKSC_RKSG_
.LEHE34:
	.loc 10 22 48 discriminator 28
	leaq	-1056(%rbx), %rax
	movq	%rax, %rdi
	call	_ZNSaISt4pairIKNSt7__cxx1112basic_stringIcSt11char_traitsIcESaIcEEESt8functionIFviiR8RelationEEEED1Ev
	leaq	-1056(%rbx), %rax
	shrq	$3, %rax
	addq	$2147450880, %rax
	movb	$-8, (%rax)
	leaq	-416(%rbx), %r14
	addq	$320, %r14
.L358:
	.loc 10 22 48 discriminator 32
	leaq	-416(%rbx), %rax
	cmpq	%rax, %r14
	je	.L357
	.loc 10 22 48 discriminator 31
	subq	$64, %r14
	movq	%r14, %rdi
	call	_ZNSt4pairIKNSt7__cxx1112basic_stringIcSt11char_traitsIcESaIcEEESt8functionIFviiR8RelationEEED1Ev
	jmp	.L358
.L357:
	.loc 10 22 48 discriminator 30
	movl	$320, %edx
	leaq	-416(%rbx), %rax
	movq	%rdx, %rsi
	movq	%rax, %rdi
	call	__asan_poison_stack_memory@PLT
.LBB50:
.LBB51:
	.loc 10 24 18 is_stmt 1 discriminator 30
	movl	$0, -1176(%rbp)
.L367:
	.loc 10 24 29 discriminator 1
	movq	-1192(%rbp), %rax
	addq	$40, %rax
	movq	%rax, %rdx
	movq	%rdx, %rax
	shrq	$3, %rax
	addq	$2147450880, %rax
	movzbl	(%rax), %eax
	testb	%al, %al
	setne	%cl
	cmpb	$3, %al
	setle	%al
	andl	%ecx, %eax
	testb	%al, %al
	je	.L359
	.loc 10 24 29 is_stmt 0
	movq	%rdx, %rdi
	call	__asan_report_load4@PLT
.L359:
	.loc 10 24 29 discriminator 1
	movq	-1192(%rbp), %rax
	movl	40(%rax), %eax
	.loc 10 24 27 is_stmt 1 discriminator 1
	cmpl	%eax, -1176(%rbp)
	jge	.L386
.LBB52:
.LBB53:
	.loc 10 25 22
	movl	$0, -1172(%rbp)
.L366:
	.loc 10 25 33 discriminator 2
	movq	-1192(%rbp), %rax
	addq	$40, %rax
	movq	%rax, %rdx
	movq	%rdx, %rax
	shrq	$3, %rax
	addq	$2147450880, %rax
	movzbl	(%rax), %eax
	testb	%al, %al
	setne	%cl
	cmpb	$3, %al
	setle	%al
	andl	%ecx, %eax
	testb	%al, %al
	je	.L361
	.loc 10 25 33 is_stmt 0
	movq	%rdx, %rdi
	call	__asan_report_load4@PLT
.L361:
	.loc 10 25 33 discriminator 2
	movq	-1192(%rbp), %rax
	movl	40(%rax), %eax
	.loc 10 25 31 is_stmt 1 discriminator 2
	cmpl	%eax, -1172(%rbp)
	jge	.L362
.LBB54:
.LBB55:
	.loc 10 26 32
	movzbl	_ZGVZN8RelationC4EiE1e(%rip), %eax
	testb	%al, %al
	sete	%al
	testb	%al, %al
	je	.L363
	.loc 10 26 32 is_stmt 0 discriminator 1
	leaq	_ZGVZN8RelationC4EiE1e(%rip), %rdi
	call	__cxa_guard_acquire@PLT
	testl	%eax, %eax
	setne	%al
	testb	%al, %al
	je	.L363
	.loc 10 26 32 discriminator 3
	movl	$0, %r14d
	.loc 10 26 71 is_stmt 1 discriminator 3
	movl	$0, %edi
	call	time@PLT
	.loc 10 26 32 discriminator 3
	movq	%rax, %rsi
	leaq	_ZZN8RelationC4EiE1e(%rip), %rdi
.LEHB35:
	call	_ZNSt26linear_congruential_engineImLm16807ELm0ELm2147483647EEC1Em
.LEHE35:
	.loc 10 26 32 is_stmt 0 discriminator 5
	leaq	_ZGVZN8RelationC4EiE1e(%rip), %rdi
	call	__cxa_guard_release@PLT
.L363:
	.loc 10 26 65 is_stmt 1 discriminator 2
	movzbl	_ZGVZN8RelationC4EiE1b(%rip), %eax
	testb	%al, %al
	sete	%al
	testb	%al, %al
	je	.L364
	.loc 10 26 65 is_stmt 0 discriminator 6
	leaq	_ZGVZN8RelationC4EiE1b(%rip), %rdi
	call	__cxa_guard_acquire@PLT
	testl	%eax, %eax
	setne	%al
	testb	%al, %al
	je	.L364
	.loc 10 26 65 discriminator 8
	leaq	_ZZN8RelationC4EiE1b(%rip), %rdi
	call	_ZNSt22bernoulli_distributionC1Ev
	leaq	_ZGVZN8RelationC4EiE1b(%rip), %rdi
	call	__cxa_guard_release@PLT
.L364:
	.loc 10 26 69 is_stmt 1 discriminator 7
	leaq	_ZZN8RelationC4EiE1e(%rip), %rsi
	leaq	_ZZN8RelationC4EiE1b(%rip), %rdi
.LEHB36:
	call	_ZNSt22bernoulli_distributionclISt26linear_congruential_engineImLm16807ELm0ELm2147483647EEEEbRT_
.LEHE36:
.LBE55:
	.loc 10 26 75 discriminator 7
	movzbl	%al, %r14d
	.loc 10 26 30 discriminator 7
	leaq	-832(%rbx), %rax
	shrq	$3, %rax
	addq	$2147450880, %rax
	movw	$0, (%rax)
	.loc 10 26 25 discriminator 7
	movq	-1192(%rbp), %rax
	movl	-1176(%rbp), %edx
	movslq	%edx, %rdx
	movq	%rdx, %rsi
	movq	%rax, %rdi
	call	_ZNSt6vectorIS_IbSaIbEESaIS1_EEixEm
	movq	%rax, %rdi
	.loc 10 26 28 discriminator 7
	movl	-1172(%rbp), %eax
	cltq
	leaq	-832(%rbx), %rdx
	movq	%rdx, %rcx
	shrq	$3, %rcx
	addq	$2147450880, %rcx
	movzwl	(%rcx), %ecx
	testw	%cx, %cx
	je	.L365
	.loc 10 26 28 is_stmt 0
	movq	%rdx, %rdi
	call	__asan_report_store16@PLT
.L365:
	.loc 10 26 28 discriminator 11
	movq	%rax, %rsi
	call	_ZNSt6vectorIbSaIbEEixEm
	movq	%rax, -832(%rbx)
	movq	%rdx, -824(%rbx)
	.loc 10 26 75 is_stmt 1 discriminator 11
	leaq	-832(%rbx), %rax
	movl	%r14d, %esi
	movq	%rax, %rdi
	call	_ZNSt14_Bit_referenceaSEb
	.loc 10 26 28 discriminator 11
	leaq	-832(%rbx), %rax
	shrq	$3, %rax
	addq	$2147450880, %rax
	movw	$-1800, (%rax)
.LBE54:
	.loc 10 25 13 discriminator 11
	addl	$1, -1172(%rbp)
	jmp	.L366
.L362:
.LBE53:
.LBE52:
	.loc 10 24 9 discriminator 2
	addl	$1, -1176(%rbp)
	jmp	.L367
.L381:
	endbr64
	movq	%rax, %r12
.LBE51:
.LBE50:
	.loc 10 22 48
	leaq	-1072(%rbx), %rax
	movq	%rax, %rdi
	call	_ZNSaISt4pairIKNSt7__cxx1112basic_stringIcSt11char_traitsIcESaIcEEESt8functionIFbiiR8RelationEEEED1Ev
	movq	%r12, %rdx
	leaq	-1072(%rbx), %rax
	shrq	$3, %rax
	addq	$2147450880, %rax
	movb	$-8, (%rax)
	movq	%rdx, %r13
	leaq	-800(%rbx), %r12
	addq	$320, %r12
.L370:
	.loc 10 22 48 is_stmt 0 discriminator 35
	leaq	-800(%rbx), %rax
	cmpq	%rax, %r12
	je	.L369
	.loc 10 22 48 discriminator 34
	subq	$64, %r12
	movq	%r12, %rdi
	call	_ZNSt4pairIKNSt7__cxx1112basic_stringIcSt11char_traitsIcESaIcEEESt8functionIFbiiR8RelationEEED1Ev
	jmp	.L370
.L369:
	movq	%r13, %r12
	.loc 10 22 48
	movl	$320, %edx
	leaq	-800(%rbx), %rax
	movq	%rdx, %rsi
	movq	%rax, %rdi
	call	__asan_poison_stack_memory@PLT
	movq	%r12, %rbx
	jmp	.L371
.L383:
	endbr64
	movq	%rax, %r12
	leaq	-1056(%rbx), %rax
	movq	%rax, %rdi
	call	_ZNSaISt4pairIKNSt7__cxx1112basic_stringIcSt11char_traitsIcESaIcEEESt8functionIFviiR8RelationEEEED1Ev
	movq	%r12, %rdx
	leaq	-1056(%rbx), %rax
	shrq	$3, %rax
	addq	$2147450880, %rax
	movb	$-8, (%rax)
	movq	%rdx, %r13
	leaq	-416(%rbx), %r12
	addq	$320, %r12
.L374:
	.loc 10 22 48 discriminator 38
	leaq	-416(%rbx), %rax
	cmpq	%rax, %r12
	je	.L373
	.loc 10 22 48 discriminator 37
	subq	$64, %r12
	movq	%r12, %rdi
	call	_ZNSt4pairIKNSt7__cxx1112basic_stringIcSt11char_traitsIcESaIcEEESt8functionIFviiR8RelationEEED1Ev
	jmp	.L374
.L373:
	movq	%r13, %r12
	.loc 10 22 48
	movl	$320, %edx
	leaq	-416(%rbx), %rax
	movq	%rdx, %rsi
	movq	%rax, %rdi
	call	__asan_poison_stack_memory@PLT
	movq	%r12, %rbx
	jmp	.L375
.L384:
	endbr64
	movq	%rax, %rbx
.LBB61:
.LBB60:
.LBB59:
.LBB58:
.LBB57:
.LBB56:
	.loc 10 26 32 is_stmt 1
	testb	%r14b, %r14b
	jne	.L378
	.loc 10 26 32 is_stmt 0 discriminator 12
	leaq	_ZGVZN8RelationC4EiE1e(%rip), %rdi
	call	__cxa_guard_abort@PLT
	jmp	.L378
.L385:
	endbr64
	movq	%rax, %rbx
.L378:
.LBE56:
.LBE57:
.LBE58:
.LBE59:
.LBE60:
.LBE61:
	.loc 10 22 48 is_stmt 1
	movq	-1192(%rbp), %rax
	addq	$96, %rax
	movq	%rax, %rdi
	call	_ZNSt3mapINSt7__cxx1112basic_stringIcSt11char_traitsIcESaIcEEESt8functionIFviiR8RelationEESt4lessIS5_ESaISt4pairIKS5_SA_EEED1Ev
	jmp	.L375
.L382:
	endbr64
	movq	%rax, %rbx
.L375:
	.loc 10 22 48 is_stmt 0 discriminator 25
	movq	-1192(%rbp), %rax
	addq	$48, %rax
	movq	%rax, %rdi
	call	_ZNSt3mapINSt7__cxx1112basic_stringIcSt11char_traitsIcESaIcEEESt8functionIFbiiR8RelationEESt4lessIS5_ESaISt4pairIKS5_SA_EEED1Ev
	jmp	.L371
.L380:
	endbr64
	movq	%rax, %rbx
.L371:
	.loc 10 22 48 discriminator 9
	movq	-1192(%rbp), %rax
	movq	%rax, %rdi
	call	_ZN6MatrixIbED2Ev
	call	__asan_handle_no_return@PLT
	movq	%rbx, %rdi
.LEHB37:
	call	_Unwind_Resume@PLT
.LEHE37:
.L386:
.LBE49:
	.loc 10 27 5 is_stmt 1
	nop
	.loc 10 22 5
	movq	-1232(%rbp), %rdx
	cmpq	%r13, %rdx
	je	.L350
	movq	$1172321806, 0(%r13)
	movl	$1088, %esi
	movq	%r13, %rdi
	call	__asan_stack_free_5@PLT
.LVL24:
	jmp	.L351
.L350:
	leaq	2147450880(%r12), %rax
	movl	$136, %ecx
	movl	$0, %esi
	movq	%rsi, (%rax)
	movl	%ecx, %edx
	addq	%rax, %rdx
	addq	$8, %rdx
	movq	%rsi, -16(%rdx)
	leaq	8(%rax), %rdx
	andq	$-8, %rdx
	subq	%rdx, %rax
	addl	%eax, %ecx
	andl	$-8, %ecx
	movl	%ecx, %eax
	shrl	$3, %eax
	movl	%eax, %ecx
	movq	%rdx, %rdi
	movq	%rsi, %rax
	rep stosq
.L351:
	.loc 10 27 5
	movq	-56(%rbp), %rax
	xorq	%fs:40, %rax
	je	.L379
	call	__stack_chk_fail@PLT
.L379:
	addq	$1192, %rsp
	popq	%rbx
	popq	%r12
	popq	%r13
	popq	%r14
	popq	%r15
	popq	%rbp
	.cfi_def_cfa 7, 8
	ret
	.cfi_endproc
.LFE5355:
	.section	.gcc_except_table._ZN8RelationC2Ei,"aG",@progbits,_ZN8RelationC5Ei,comdat
.LLSDA5355:
	.byte	0xff
	.byte	0xff
	.byte	0x1
	.uleb128 .LLSDACSE5355-.LLSDACSB5355
.LLSDACSB5355:
	.uleb128 .LEHB30-.LFB5355
	.uleb128 .LEHE30-.LEHB30
	.uleb128 0
	.uleb128 0
	.uleb128 .LEHB31-.LFB5355
	.uleb128 .LEHE31-.LEHB31
	.uleb128 .L380-.LFB5355
	.uleb128 0
	.uleb128 .LEHB32-.LFB5355
	.uleb128 .LEHE32-.LEHB32
	.uleb128 .L381-.LFB5355
	.uleb128 0
	.uleb128 .LEHB33-.LFB5355
	.uleb128 .LEHE33-.LEHB33
	.uleb128 .L382-.LFB5355
	.uleb128 0
	.uleb128 .LEHB34-.LFB5355
	.uleb128 .LEHE34-.LEHB34
	.uleb128 .L383-.LFB5355
	.uleb128 0
	.uleb128 .LEHB35-.LFB5355
	.uleb128 .LEHE35-.LEHB35
	.uleb128 .L384-.LFB5355
	.uleb128 0
	.uleb128 .LEHB36-.LFB5355
	.uleb128 .LEHE36-.LEHB36
	.uleb128 .L385-.LFB5355
	.uleb128 0
	.uleb128 .LEHB37-.LFB5355
	.uleb128 .LEHE37-.LEHB37
	.uleb128 0
	.uleb128 0
.LLSDACSE5355:
	.section	.text._ZN8RelationC2Ei,"axG",@progbits,_ZN8RelationC5Ei,comdat
	.size	_ZN8RelationC2Ei, .-_ZN8RelationC2Ei
	.weak	_ZN8RelationC1Ei
	.set	_ZN8RelationC1Ei,_ZN8RelationC2Ei
	.section	.rodata
	.align 8
.LC18:
	.ascii	"16 48 1 9 <unknown> 64 1 9 <unknow"
	.string	"n> 80 1 9 <unknown> 96 1 9 <unknown> 112 1 9 <unknown> 128 1 9 <unknown> 144 1 9 <unknown> 160 1 9 <unknown> 176 1 9 <unknown> 192 1 9 <unknown> 208 1 9 <unknown> 224 1 9 <unknown> 240 1 9 <unknown> 256 8 9 <unknown> 288 320 9 <unknown> 672 320 9 <unknown>"
	.section	.text._ZN8RelationC2ESt6vectorIS0_IbSaIbEESaIS2_EE,"axG",@progbits,_ZN8RelationC5ESt6vectorIS0_IbSaIbEESaIS2_EE,comdat
	.align 2
	.weak	_ZN8RelationC2ESt6vectorIS0_IbSaIbEESaIS2_EE
	.type	_ZN8RelationC2ESt6vectorIS0_IbSaIbEESaIS2_EE, @function
_ZN8RelationC2ESt6vectorIS0_IbSaIbEESaIS2_EE:
.LASANPC5358:
.LFB5358:
	.loc 10 29 5
	.cfi_startproc
	.cfi_personality 0x9b,DW.ref.__gxx_personality_v0
	.cfi_lsda 0x1b,.LLSDA5358
	endbr64
	pushq	%rbp
	.cfi_def_cfa_offset 16
	.cfi_offset 6, -16
	movq	%rsp, %rbp
	.cfi_def_cfa_register 6
	pushq	%r15
	pushq	%r14
	pushq	%r13
	pushq	%r12
	pushq	%rbx
	subq	$1144, %rsp
	.cfi_offset 15, -24
	.cfi_offset 14, -32
	.cfi_offset 13, -40
	.cfi_offset 12, -48
	.cfi_offset 3, -56
	movq	%rdi, -1144(%rbp)
	movq	%rsi, -1152(%rbp)
	leaq	-1136(%rbp), %r13
	movq	%r13, -1184(%rbp)
	cmpl	$0, __asan_option_detect_stack_use_after_return(%rip)
	je	.L387
	movl	$1056, %edi
	call	__asan_stack_malloc_5@PLT
.LVL25:
	testq	%rax, %rax
	je	.L387
	movq	%rax, %r13
.L387:
	leaq	1088(%r13), %rax
	movq	%rax, %rbx
	movq	$1102416563, 0(%r13)
	leaq	.LC18(%rip), %rax
	movq	%rax, 8(%r13)
	leaq	.LASANPC5358(%rip), %rax
	movq	%rax, 16(%r13)
	movq	%r13, %r12
	shrq	$3, %r12
	movl	$-235802127, 2147450880(%r12)
	movl	$-234753551, 2147450884(%r12)
	movl	$-234753535, 2147450888(%r12)
	movl	$-234753535, 2147450892(%r12)
	movl	$-234753535, 2147450896(%r12)
	movl	$-234753535, 2147450900(%r12)
	movl	$-234753535, 2147450904(%r12)
	movl	$-234753535, 2147450908(%r12)
	movl	$-218959360, 2147450912(%r12)
	movl	$-218959118, 2147450956(%r12)
	movl	$-218959118, 2147450960(%r12)
	movl	$-202116109, 2147451004(%r12)
	movl	$-202116109, 2147451008(%r12)
	.loc 10 29 5
	movq	%fs:40, %rax
	movq	%rax, -56(%rbp)
	xorl	%eax, %eax
.LBB62:
	.loc 10 29 61
	movq	-1144(%rbp), %rax
	movq	-1152(%rbp), %rdx
	movq	%rdx, %rsi
	movq	%rax, %rdi
.LEHB38:
	call	_ZN6MatrixIbEC2ERKSt6vectorIS1_IbSaIbEESaIS3_EE
.LEHE38:
	.loc 10 29 48
	movq	-1152(%rbp), %rax
	movq	%rax, %rdi
	call	_ZNKSt6vectorIS_IbSaIbEESaIS1_EE4sizeEv
	.loc 10 29 61
	movl	%eax, %esi
	movq	-1144(%rbp), %rax
	addq	$40, %rax
	movq	%rax, %rdx
	movq	%rdx, %rax
	shrq	$3, %rax
	addq	$2147450880, %rax
	movzbl	(%rax), %eax
	testb	%al, %al
	setne	%cl
	cmpb	$3, %al
	setle	%al
	andl	%ecx, %eax
	testb	%al, %al
	je	.L391
	movq	%rdx, %rdi
	call	__asan_report_store4@PLT
.L391:
	movq	-1144(%rbp), %rax
	movl	%esi, 40(%rax)
	movq	-1144(%rbp), %rax
	addq	$48, %rax
	movq	%rax, -1176(%rbp)
	leaq	-1008(%rbx), %rdx
	leaq	-800(%rbx), %rax
	leaq	.LC8(%rip), %rsi
	movq	%rax, %rdi
.LEHB39:
	call	_ZNSt4pairIKNSt7__cxx1112basic_stringIcSt11char_traitsIcESaIcEEESt8functionIFbiiR8RelationEEEC1IRA11_KcNS8_8propertyMUliiS9_E_ELb1EEEOT_OT0_
	.loc 10 29 61 is_stmt 0 discriminator 2
	leaq	-992(%rbx), %rax
	leaq	-800(%rbx), %rdx
	leaq	64(%rdx), %rcx
	movq	%rax, %rdx
	leaq	.LC9(%rip), %rsi
	movq	%rcx, %rdi
	call	_ZNSt4pairIKNSt7__cxx1112basic_stringIcSt11char_traitsIcESaIcEEESt8functionIFbiiR8RelationEEEC1IRA15_KcNS8_8propertyMUliiS9_E0_ELb1EEEOT_OT0_
	.loc 10 29 61 discriminator 4
	leaq	-976(%rbx), %rax
	leaq	-800(%rbx), %rdx
	leaq	128(%rdx), %rcx
	movq	%rax, %rdx
	leaq	.LC10(%rip), %rsi
	movq	%rcx, %rdi
	call	_ZNSt4pairIKNSt7__cxx1112basic_stringIcSt11char_traitsIcESaIcEEESt8functionIFbiiR8RelationEEEC1IRA14_KcNS8_8propertyMUliiS9_E1_ELb1EEEOT_OT0_
	.loc 10 29 61 discriminator 6
	leaq	-960(%rbx), %rax
	leaq	-800(%rbx), %rdx
	leaq	192(%rdx), %rcx
	movq	%rax, %rdx
	leaq	.LC11(%rip), %rsi
	movq	%rcx, %rdi
	call	_ZNSt4pairIKNSt7__cxx1112basic_stringIcSt11char_traitsIcESaIcEEESt8functionIFbiiR8RelationEEEC1IRA18_KcNS8_8propertyMUliiS9_E2_ELb1EEEOT_OT0_
	.loc 10 29 61 discriminator 8
	leaq	-944(%rbx), %rax
	leaq	-800(%rbx), %rdx
	leaq	256(%rdx), %rcx
	movq	%rax, %rdx
	leaq	.LC12(%rip), %rsi
	movq	%rcx, %rdi
	call	_ZNSt4pairIKNSt7__cxx1112basic_stringIcSt11char_traitsIcESaIcEEESt8functionIFbiiR8RelationEEEC1IRA15_KcNS8_8propertyMUliiS9_E3_ELb1EEEOT_OT0_
.LEHE39:
	.loc 10 29 61 discriminator 10
	leaq	-800(%rbx), %rax
	movq	%rax, %r14
	movl	$5, %r15d
	leaq	-1040(%rbx), %rax
	movq	%rax, %rdi
	call	_ZNSaISt4pairIKNSt7__cxx1112basic_stringIcSt11char_traitsIcESaIcEEESt8functionIFbiiR8RelationEEEEC1Ev
	leaq	-1040(%rbx), %rdx
	leaq	-928(%rbx), %rax
	movq	%r14, %r8
	movq	%r15, %r9
	movq	%r14, %rsi
	movq	%r15, %rdi
	movq	%r8, %r9
	movq	%rdx, %r8
	movq	%rax, %rcx
	movq	%r9, %rsi
	movq	%rdi, %rdx
	movq	-1176(%rbp), %rdi
.LEHB40:
	call	_ZNSt3mapINSt7__cxx1112basic_stringIcSt11char_traitsIcESaIcEEESt8functionIFbiiR8RelationEESt4lessIS5_ESaISt4pairIKS5_SA_EEEC1ESt16initializer_listISF_ERKSC_RKSG_
.LEHE40:
	.loc 10 29 61 discriminator 12
	leaq	-1040(%rbx), %rax
	movq	%rax, %rdi
	call	_ZNSaISt4pairIKNSt7__cxx1112basic_stringIcSt11char_traitsIcESaIcEEESt8functionIFbiiR8RelationEEEED1Ev
	leaq	-1040(%rbx), %rax
	shrq	$3, %rax
	addq	$2147450880, %rax
	movb	$-8, (%rax)
	leaq	-800(%rbx), %r14
	addq	$320, %r14
.L393:
	.loc 10 29 61 discriminator 16
	leaq	-800(%rbx), %rax
	cmpq	%rax, %r14
	je	.L392
	.loc 10 29 61 discriminator 15
	subq	$64, %r14
	movq	%r14, %rdi
	call	_ZNSt4pairIKNSt7__cxx1112basic_stringIcSt11char_traitsIcESaIcEEESt8functionIFbiiR8RelationEEED1Ev
	jmp	.L393
.L392:
	.loc 10 29 61 discriminator 14
	movl	$320, %edx
	leaq	-800(%rbx), %rax
	movq	%rdx, %rsi
	movq	%rax, %rdi
	call	__asan_poison_stack_memory@PLT
	movq	-1144(%rbp), %rax
	leaq	96(%rax), %r14
	movl	$320, %edx
	leaq	-416(%rbx), %rax
	movq	%rdx, %rsi
	movq	%rax, %rdi
	call	__asan_unpoison_stack_memory@PLT
	leaq	-912(%rbx), %rdx
	leaq	-416(%rbx), %rax
	leaq	.LC13(%rip), %rsi
	movq	%rax, %rdi
.LEHB41:
	call	_ZNSt4pairIKNSt7__cxx1112basic_stringIcSt11char_traitsIcESaIcEEESt8functionIFviiR8RelationEEEC1IRA19_KcNS8_7closureMUliiS9_E_ELb1EEEOT_OT0_
	.loc 10 29 61 discriminator 18
	leaq	-896(%rbx), %rax
	leaq	-416(%rbx), %rdx
	leaq	64(%rdx), %rcx
	movq	%rax, %rdx
	leaq	.LC14(%rip), %rsi
	movq	%rcx, %rdi
	call	_ZNSt4pairIKNSt7__cxx1112basic_stringIcSt11char_traitsIcESaIcEEESt8functionIFviiR8RelationEEEC1IRA22_KcNS8_7closureMUliiS9_E0_ELb1EEEOT_OT0_
	.loc 10 29 61 discriminator 20
	leaq	-880(%rbx), %rax
	leaq	-416(%rbx), %rdx
	leaq	128(%rdx), %rcx
	movq	%rax, %rdx
	leaq	.LC15(%rip), %rsi
	movq	%rcx, %rdi
	call	_ZNSt4pairIKNSt7__cxx1112basic_stringIcSt11char_traitsIcESaIcEEESt8functionIFviiR8RelationEEEC1IRA19_KcNS8_7closureMUliiS9_E1_ELb1EEEOT_OT0_
	.loc 10 29 61 discriminator 22
	leaq	-864(%rbx), %rax
	leaq	-416(%rbx), %rdx
	leaq	192(%rdx), %rcx
	movq	%rax, %rdx
	leaq	.LC16(%rip), %rsi
	movq	%rcx, %rdi
	call	_ZNSt4pairIKNSt7__cxx1112basic_stringIcSt11char_traitsIcESaIcEEESt8functionIFviiR8RelationEEEC1IRA23_KcNS8_7closureMUliiS9_E2_ELb1EEEOT_OT0_
	.loc 10 29 61 discriminator 24
	leaq	-832(%rbx), %rax
	movq	%rax, %rdx
	shrq	$3, %rdx
	addq	$2147450880, %rdx
	movzbl	(%rdx), %edx
	testb	%dl, %dl
	je	.L394
	.loc 10 29 61
	movq	%rax, %rdi
	call	__asan_report_store8@PLT
.L394:
	.loc 10 29 61 discriminator 24
	movq	-1144(%rbp), %rax
	movq	%rax, -832(%rbx)
	leaq	-832(%rbx), %rax
	leaq	-416(%rbx), %rdx
	leaq	256(%rdx), %rcx
	movq	%rax, %rdx
	leaq	.LC17(%rip), %rsi
	movq	%rcx, %rdi
	call	_ZNSt4pairIKNSt7__cxx1112basic_stringIcSt11char_traitsIcESaIcEEESt8functionIFviiR8RelationEEEC1IRA20_KcNS8_7closureMUliiS9_E3_ELb1EEEOT_OT0_
.LEHE41:
	.loc 10 29 61 discriminator 26
	leaq	-416(%rbx), %rax
	movq	%rax, -1168(%rbp)
	movq	$5, -1160(%rbp)
	leaq	-1024(%rbx), %rax
	shrq	$3, %rax
	addq	$2147450880, %rax
	movb	$1, (%rax)
	leaq	-1024(%rbx), %rax
	movq	%rax, %rdi
	call	_ZNSaISt4pairIKNSt7__cxx1112basic_stringIcSt11char_traitsIcESaIcEEESt8functionIFviiR8RelationEEEEC1Ev
	leaq	-1024(%rbx), %rdx
	leaq	-848(%rbx), %rax
	movq	-1168(%rbp), %rsi
	movq	-1160(%rbp), %rdi
	movq	%rsi, %r8
	movq	%rdi, %r9
	movq	%r8, %r9
	movq	%rdx, %r8
	movq	%rax, %rcx
	movq	%r9, %rsi
	movq	%rdi, %rdx
	movq	%r14, %rdi
.LEHB42:
	call	_ZNSt3mapINSt7__cxx1112basic_stringIcSt11char_traitsIcESaIcEEESt8functionIFviiR8RelationEESt4lessIS5_ESaISt4pairIKS5_SA_EEEC1ESt16initializer_listISF_ERKSC_RKSG_
.LEHE42:
	.loc 10 29 61 discriminator 28
	leaq	-1024(%rbx), %rax
	movq	%rax, %rdi
	call	_ZNSaISt4pairIKNSt7__cxx1112basic_stringIcSt11char_traitsIcESaIcEEESt8functionIFviiR8RelationEEEED1Ev
	leaq	-1024(%rbx), %rax
	shrq	$3, %rax
	addq	$2147450880, %rax
	movb	$-8, (%rax)
	leaq	-416(%rbx), %r14
	addq	$320, %r14
.L396:
	.loc 10 29 61 discriminator 32
	leaq	-416(%rbx), %rax
	cmpq	%rax, %r14
	je	.L410
	.loc 10 29 61 discriminator 31
	subq	$64, %r14
	movq	%r14, %rdi
	call	_ZNSt4pairIKNSt7__cxx1112basic_stringIcSt11char_traitsIcESaIcEEESt8functionIFviiR8RelationEEED1Ev
	jmp	.L396
.L407:
	endbr64
	movq	%rax, %r12
	.loc 10 29 61
	leaq	-1040(%rbx), %rax
	movq	%rax, %rdi
	call	_ZNSaISt4pairIKNSt7__cxx1112basic_stringIcSt11char_traitsIcESaIcEEESt8functionIFbiiR8RelationEEEED1Ev
	movq	%r12, %rdx
	leaq	-1040(%rbx), %rax
	shrq	$3, %rax
	addq	$2147450880, %rax
	movb	$-8, (%rax)
	movq	%rdx, %r13
	leaq	-800(%rbx), %r12
	addq	$320, %r12
.L399:
	.loc 10 29 61 discriminator 35
	leaq	-800(%rbx), %rax
	cmpq	%rax, %r12
	je	.L398
	.loc 10 29 61 discriminator 34
	subq	$64, %r12
	movq	%r12, %rdi
	call	_ZNSt4pairIKNSt7__cxx1112basic_stringIcSt11char_traitsIcESaIcEEESt8functionIFbiiR8RelationEEED1Ev
	jmp	.L399
.L398:
	movq	%r13, %r12
	.loc 10 29 61
	movl	$320, %edx
	leaq	-800(%rbx), %rax
	movq	%rdx, %rsi
	movq	%rax, %rdi
	call	__asan_poison_stack_memory@PLT
	movq	%r12, %rbx
	jmp	.L400
.L409:
	endbr64
	movq	%rax, %r12
	leaq	-1024(%rbx), %rax
	movq	%rax, %rdi
	call	_ZNSaISt4pairIKNSt7__cxx1112basic_stringIcSt11char_traitsIcESaIcEEESt8functionIFviiR8RelationEEEED1Ev
	movq	%r12, %rdx
	leaq	-1024(%rbx), %rax
	shrq	$3, %rax
	addq	$2147450880, %rax
	movb	$-8, (%rax)
	movq	%rdx, %r13
	leaq	-416(%rbx), %r12
	addq	$320, %r12
.L403:
	.loc 10 29 61 discriminator 38
	leaq	-416(%rbx), %rax
	cmpq	%rax, %r12
	je	.L402
	.loc 10 29 61 discriminator 37
	subq	$64, %r12
	movq	%r12, %rdi
	call	_ZNSt4pairIKNSt7__cxx1112basic_stringIcSt11char_traitsIcESaIcEEESt8functionIFviiR8RelationEEED1Ev
	jmp	.L403
.L402:
	movq	%r13, %r12
	.loc 10 29 61
	movl	$320, %edx
	leaq	-416(%rbx), %rax
	movq	%rdx, %rsi
	movq	%rax, %rdi
	call	__asan_poison_stack_memory@PLT
	movq	%r12, %rbx
	jmp	.L404
.L408:
	endbr64
	movq	%rax, %rbx
.L404:
	.loc 10 29 61 discriminator 25
	movq	-1144(%rbp), %rax
	addq	$48, %rax
	movq	%rax, %rdi
	call	_ZNSt3mapINSt7__cxx1112basic_stringIcSt11char_traitsIcESaIcEEESt8functionIFbiiR8RelationEESt4lessIS5_ESaISt4pairIKS5_SA_EEED1Ev
	jmp	.L400
.L406:
	endbr64
	movq	%rax, %rbx
.L400:
	.loc 10 29 61 discriminator 9
	movq	-1144(%rbp), %rax
	movq	%rax, %rdi
	call	_ZN6MatrixIbED2Ev
	call	__asan_handle_no_return@PLT
	movq	%rbx, %rdi
.LEHB43:
	call	_Unwind_Resume@PLT
.LEHE43:
.L410:
.LBE62:
	.loc 10 29 64 is_stmt 1
	nop
	.loc 10 29 5
	movq	-1184(%rbp), %rdx
	cmpq	%r13, %rdx
	je	.L388
	movq	$1172321806, 0(%r13)
	movl	$1056, %esi
	movq	%r13, %rdi
	call	__asan_stack_free_5@PLT
.LVL26:
	jmp	.L389
.L388:
	leaq	2147450880(%r12), %rax
	movl	$132, %ecx
	movl	$0, %esi
	movq	%rsi, (%rax)
	movl	%ecx, %edx
	addq	%rax, %rdx
	addq	$8, %rdx
	movq	%rsi, -16(%rdx)
	leaq	8(%rax), %rdx
	andq	$-8, %rdx
	subq	%rdx, %rax
	addl	%eax, %ecx
	andl	$-8, %ecx
	movl	%ecx, %eax
	shrl	$3, %eax
	movl	%eax, %ecx
	movq	%rdx, %rdi
	movq	%rsi, %rax
	rep stosq
.L389:
	.loc 10 29 64
	movq	-56(%rbp), %rax
	xorq	%fs:40, %rax
	je	.L405
	call	__stack_chk_fail@PLT
.L405:
	addq	$1144, %rsp
	popq	%rbx
	popq	%r12
	popq	%r13
	popq	%r14
	popq	%r15
	popq	%rbp
	.cfi_def_cfa 7, 8
	ret
	.cfi_endproc
.LFE5358:
	.section	.gcc_except_table._ZN8RelationC2ESt6vectorIS0_IbSaIbEESaIS2_EE,"aG",@progbits,_ZN8RelationC5ESt6vectorIS0_IbSaIbEESaIS2_EE,comdat
.LLSDA5358:
	.byte	0xff
	.byte	0xff
	.byte	0x1
	.uleb128 .LLSDACSE5358-.LLSDACSB5358
.LLSDACSB5358:
	.uleb128 .LEHB38-.LFB5358
	.uleb128 .LEHE38-.LEHB38
	.uleb128 0
	.uleb128 0
	.uleb128 .LEHB39-.LFB5358
	.uleb128 .LEHE39-.LEHB39
	.uleb128 .L406-.LFB5358
	.uleb128 0
	.uleb128 .LEHB40-.LFB5358
	.uleb128 .LEHE40-.LEHB40
	.uleb128 .L407-.LFB5358
	.uleb128 0
	.uleb128 .LEHB41-.LFB5358
	.uleb128 .LEHE41-.LEHB41
	.uleb128 .L408-.LFB5358
	.uleb128 0
	.uleb128 .LEHB42-.LFB5358
	.uleb128 .LEHE42-.LEHB42
	.uleb128 .L409-.LFB5358
	.uleb128 0
	.uleb128 .LEHB43-.LFB5358
	.uleb128 .LEHE43-.LEHB43
	.uleb128 0
	.uleb128 0
.LLSDACSE5358:
	.section	.text._ZN8RelationC2ESt6vectorIS0_IbSaIbEESaIS2_EE,"axG",@progbits,_ZN8RelationC5ESt6vectorIS0_IbSaIbEESaIS2_EE,comdat
	.size	_ZN8RelationC2ESt6vectorIS0_IbSaIbEESaIS2_EE, .-_ZN8RelationC2ESt6vectorIS0_IbSaIbEESaIS2_EE
	.weak	_ZN8RelationC1ESt6vectorIS0_IbSaIbEESaIS2_EE
	.set	_ZN8RelationC1ESt6vectorIS0_IbSaIbEESaIS2_EE,_ZN8RelationC2ESt6vectorIS0_IbSaIbEESaIS2_EE
	.section	.rodata
	.align 8
.LC19:
	.ascii	"17 48 1 9 <unknown> 64 1 9 <unknown> 80 1 9 <unknown>"
	.string	" 96 1 9 <unknown> 112 1 9 <unknown> 128 1 9 <unknown> 144 1 9 <unknown> 160 1 9 <unknown> 176 1 9 <unknown> 192 1 9 <unknown> 208 1 9 <unknown> 224 1 9 <unknown> 240 1 9 <unknown> 256 8 9 <unknown> 288 24 9 <unknown> 352 320 9 <unknown> 736 320 9 <unknown>"
	.section	.text._ZN8RelationC2ENSt7__cxx1112basic_stringIcSt11char_traitsIcESaIcEEEi,"axG",@progbits,_ZN8RelationC5ENSt7__cxx1112basic_stringIcSt11char_traitsIcESaIcEEEi,comdat
	.align 2
	.weak	_ZN8RelationC2ENSt7__cxx1112basic_stringIcSt11char_traitsIcESaIcEEEi
	.type	_ZN8RelationC2ENSt7__cxx1112basic_stringIcSt11char_traitsIcESaIcEEEi, @function
_ZN8RelationC2ENSt7__cxx1112basic_stringIcSt11char_traitsIcESaIcEEEi:
.LASANPC5361:
.LFB5361:
	.loc 10 30 5
	.cfi_startproc
	.cfi_personality 0x9b,DW.ref.__gxx_personality_v0
	.cfi_lsda 0x1b,.LLSDA5361
	endbr64
	pushq	%rbp
	.cfi_def_cfa_offset 16
	.cfi_offset 6, -16
	movq	%rsp, %rbp
	.cfi_def_cfa_register 6
	pushq	%r15
	pushq	%r14
	pushq	%r13
	pushq	%r12
	pushq	%rbx
	subq	$1224, %rsp
	.cfi_offset 15, -24
	.cfi_offset 14, -32
	.cfi_offset 13, -40
	.cfi_offset 12, -48
	.cfi_offset 3, -56
	movq	%rdi, -1208(%rbp)
	movq	%rsi, -1216(%rbp)
	movl	%edx, -1220(%rbp)
	leaq	-1200(%rbp), %r13
	movq	%r13, -1256(%rbp)
	cmpl	$0, __asan_option_detect_stack_use_after_return(%rip)
	je	.L411
	movl	$1120, %edi
	call	__asan_stack_malloc_5@PLT
.LVL27:
	testq	%rax, %rax
	je	.L411
	movq	%rax, %r13
.L411:
	leaq	1152(%r13), %rax
	movq	%rax, %rbx
	movq	$1102416563, 0(%r13)
	leaq	.LC19(%rip), %rax
	movq	%rax, 8(%r13)
	leaq	.LASANPC5361(%rip), %rax
	movq	%rax, 16(%r13)
	movq	%r13, %r12
	shrq	$3, %r12
	movl	$-235802127, 2147450880(%r12)
	movl	$-234753551, 2147450884(%r12)
	movl	$-234753535, 2147450888(%r12)
	movl	$-234753535, 2147450892(%r12)
	movl	$-234753535, 2147450896(%r12)
	movl	$-234753535, 2147450900(%r12)
	movl	$-234753535, 2147450904(%r12)
	movl	$-234753535, 2147450908(%r12)
	movl	$-218959360, 2147450912(%r12)
	movl	$-234881024, 2147450916(%r12)
	movl	$-218959118, 2147450920(%r12)
	movl	$-218959118, 2147450964(%r12)
	movl	$-218959118, 2147450968(%r12)
	movl	$-202116109, 2147451012(%r12)
	movl	$-202116109, 2147451016(%r12)
	.loc 10 30 5
	movq	%fs:40, %rax
	movq	%rax, -56(%rbp)
	xorl	%eax, %eax
.LBB63:
	.loc 10 30 72
	movq	-1208(%rbp), %rax
	movq	%rax, -1232(%rbp)
	.loc 10 30 60
	leaq	-864(%rbx), %rax
	movq	%rax, %rdx
	shrq	$3, %rdx
	addq	$2147450880, %rdx
	movzbl	(%rdx), %edx
	testb	%dl, %dl
	setne	%cl
	testb	%dl, %dl
	setle	%dl
	andl	%edx, %ecx
	movl	%ecx, %edi
	movl	$24, %edx
	subq	$1, %rdx
	leaq	(%rax,%rdx), %rcx
	movq	%rcx, %rdx
	shrq	$3, %rdx
	addq	$2147450880, %rdx
	movzbl	(%rdx), %edx
	testb	%dl, %dl
	setne	%sil
	andl	$7, %ecx
	cmpb	%dl, %cl
	setge	%dl
	andl	%esi, %edx
	orl	%edi, %edx
	testb	%dl, %dl
	je	.L415
	movl	$24, %esi
	movq	%rax, %rdi
	call	__asan_report_store_n@PLT
.L415:
	leaq	-864(%rbx), %rax
	movq	-1216(%rbp), %rdx
	movq	%rdx, %rsi
	movq	%rax, %rdi
.LEHB44:
	call	_ZN6MatrixIbE7getPairIiEESt6vectorISt4pairIT_S4_ESaIS5_EERKNSt7__cxx1112basic_stringIcSt11char_traitsIcESaIcEEE
.LEHE44:
	.loc 10 30 72
	movl	-1220(%rbp), %edx
	leaq	-864(%rbx), %rax
	movq	%rax, %rsi
	movq	-1232(%rbp), %rdi
.LEHB45:
	call	_ZN6MatrixIbEC2ERKSt6vectorISt4pairIiiESaIS3_EEi
.LEHE45:
	.loc 10 30 60 discriminator 2
	leaq	-864(%rbx), %rax
	movq	%rax, %rdi
	call	_ZNSt6vectorISt4pairIiiESaIS1_EED1Ev
	leaq	-864(%rbx), %rax
	shrq	$3, %rax
	addq	$2147450880, %rax
	movw	$-1800, (%rax)
	movb	$-8, 2(%rax)
	.loc 10 30 72 discriminator 2
	movq	-1208(%rbp), %rax
	addq	$40, %rax
	movq	%rax, %rdx
	movq	%rdx, %rax
	shrq	$3, %rax
	addq	$2147450880, %rax
	movzbl	(%rax), %eax
	testb	%al, %al
	setne	%cl
	cmpb	$3, %al
	setle	%al
	andl	%ecx, %eax
	testb	%al, %al
	je	.L416
	.loc 10 30 72 is_stmt 0
	movq	%rdx, %rdi
	call	__asan_report_store4@PLT
.L416:
	.loc 10 30 72 discriminator 2
	movq	-1208(%rbp), %rax
	movl	-1220(%rbp), %edx
	movl	%edx, 40(%rax)
	movq	-1208(%rbp), %rax
	addq	$48, %rax
	movq	%rax, -1232(%rbp)
	movl	$320, %edx
	leaq	-800(%rbx), %rax
	movq	%rdx, %rsi
	movq	%rax, %rdi
	call	__asan_unpoison_stack_memory@PLT
	leaq	-1072(%rbx), %rdx
	leaq	-800(%rbx), %rax
	leaq	.LC8(%rip), %rsi
	movq	%rax, %rdi
.LEHB46:
	call	_ZNSt4pairIKNSt7__cxx1112basic_stringIcSt11char_traitsIcESaIcEEESt8functionIFbiiR8RelationEEEC1IRA11_KcNS8_8propertyMUliiS9_E_ELb1EEEOT_OT0_
	.loc 10 30 72 discriminator 4
	leaq	-1056(%rbx), %rax
	leaq	-800(%rbx), %rdx
	leaq	64(%rdx), %rcx
	movq	%rax, %rdx
	leaq	.LC9(%rip), %rsi
	movq	%rcx, %rdi
	call	_ZNSt4pairIKNSt7__cxx1112basic_stringIcSt11char_traitsIcESaIcEEESt8functionIFbiiR8RelationEEEC1IRA15_KcNS8_8propertyMUliiS9_E0_ELb1EEEOT_OT0_
	.loc 10 30 72 discriminator 6
	leaq	-1040(%rbx), %rax
	leaq	-800(%rbx), %rdx
	leaq	128(%rdx), %rcx
	movq	%rax, %rdx
	leaq	.LC10(%rip), %rsi
	movq	%rcx, %rdi
	call	_ZNSt4pairIKNSt7__cxx1112basic_stringIcSt11char_traitsIcESaIcEEESt8functionIFbiiR8RelationEEEC1IRA14_KcNS8_8propertyMUliiS9_E1_ELb1EEEOT_OT0_
	.loc 10 30 72 discriminator 8
	leaq	-1024(%rbx), %rax
	leaq	-800(%rbx), %rdx
	leaq	192(%rdx), %rcx
	movq	%rax, %rdx
	leaq	.LC11(%rip), %rsi
	movq	%rcx, %rdi
	call	_ZNSt4pairIKNSt7__cxx1112basic_stringIcSt11char_traitsIcESaIcEEESt8functionIFbiiR8RelationEEEC1IRA18_KcNS8_8propertyMUliiS9_E2_ELb1EEEOT_OT0_
	.loc 10 30 72 discriminator 10
	leaq	-1008(%rbx), %rax
	leaq	-800(%rbx), %rdx
	leaq	256(%rdx), %rcx
	movq	%rax, %rdx
	leaq	.LC12(%rip), %rsi
	movq	%rcx, %rdi
	call	_ZNSt4pairIKNSt7__cxx1112basic_stringIcSt11char_traitsIcESaIcEEESt8functionIFbiiR8RelationEEEC1IRA15_KcNS8_8propertyMUliiS9_E3_ELb1EEEOT_OT0_
.LEHE46:
	.loc 10 30 72 discriminator 12
	leaq	-800(%rbx), %rax
	movq	%rax, %r14
	movl	$5, %r15d
	leaq	-1104(%rbx), %rax
	shrq	$3, %rax
	addq	$2147450880, %rax
	movb	$1, (%rax)
	leaq	-1104(%rbx), %rax
	movq	%rax, %rdi
	call	_ZNSaISt4pairIKNSt7__cxx1112basic_stringIcSt11char_traitsIcESaIcEEESt8functionIFbiiR8RelationEEEEC1Ev
	leaq	-1104(%rbx), %rdx
	leaq	-992(%rbx), %rax
	movq	%r14, %r8
	movq	%r15, %r9
	movq	%r14, %rsi
	movq	%r15, %rdi
	movq	%r8, %r9
	movq	%rdx, %r8
	movq	%rax, %rcx
	movq	%r9, %rsi
	movq	%rdi, %rdx
	movq	-1232(%rbp), %rdi
.LEHB47:
	call	_ZNSt3mapINSt7__cxx1112basic_stringIcSt11char_traitsIcESaIcEEESt8functionIFbiiR8RelationEESt4lessIS5_ESaISt4pairIKS5_SA_EEEC1ESt16initializer_listISF_ERKSC_RKSG_
.LEHE47:
	.loc 10 30 72 discriminator 14
	leaq	-1104(%rbx), %rax
	movq	%rax, %rdi
	call	_ZNSaISt4pairIKNSt7__cxx1112basic_stringIcSt11char_traitsIcESaIcEEESt8functionIFbiiR8RelationEEEED1Ev
	leaq	-1104(%rbx), %rax
	shrq	$3, %rax
	addq	$2147450880, %rax
	movb	$-8, (%rax)
	leaq	-800(%rbx), %r14
	addq	$320, %r14
.L418:
	.loc 10 30 72 discriminator 18
	leaq	-800(%rbx), %rax
	cmpq	%rax, %r14
	je	.L417
	.loc 10 30 72 discriminator 17
	subq	$64, %r14
	movq	%r14, %rdi
	call	_ZNSt4pairIKNSt7__cxx1112basic_stringIcSt11char_traitsIcESaIcEEESt8functionIFbiiR8RelationEEED1Ev
	jmp	.L418
.L417:
	.loc 10 30 72 discriminator 16
	movl	$320, %edx
	leaq	-800(%rbx), %rax
	movq	%rdx, %rsi
	movq	%rax, %rdi
	call	__asan_poison_stack_memory@PLT
	movq	-1208(%rbp), %rax
	leaq	96(%rax), %r14
	movl	$320, %edx
	leaq	-416(%rbx), %rax
	movq	%rdx, %rsi
	movq	%rax, %rdi
	call	__asan_unpoison_stack_memory@PLT
	leaq	-976(%rbx), %rdx
	leaq	-416(%rbx), %rax
	leaq	.LC13(%rip), %rsi
	movq	%rax, %rdi
.LEHB48:
	call	_ZNSt4pairIKNSt7__cxx1112basic_stringIcSt11char_traitsIcESaIcEEESt8functionIFviiR8RelationEEEC1IRA19_KcNS8_7closureMUliiS9_E_ELb1EEEOT_OT0_
	.loc 10 30 72 discriminator 20
	leaq	-960(%rbx), %rax
	leaq	-416(%rbx), %rdx
	leaq	64(%rdx), %rcx
	movq	%rax, %rdx
	leaq	.LC14(%rip), %rsi
	movq	%rcx, %rdi
	call	_ZNSt4pairIKNSt7__cxx1112basic_stringIcSt11char_traitsIcESaIcEEESt8functionIFviiR8RelationEEEC1IRA22_KcNS8_7closureMUliiS9_E0_ELb1EEEOT_OT0_
	.loc 10 30 72 discriminator 22
	leaq	-944(%rbx), %rax
	leaq	-416(%rbx), %rdx
	leaq	128(%rdx), %rcx
	movq	%rax, %rdx
	leaq	.LC15(%rip), %rsi
	movq	%rcx, %rdi
	call	_ZNSt4pairIKNSt7__cxx1112basic_stringIcSt11char_traitsIcESaIcEEESt8functionIFviiR8RelationEEEC1IRA19_KcNS8_7closureMUliiS9_E1_ELb1EEEOT_OT0_
	.loc 10 30 72 discriminator 24
	leaq	-928(%rbx), %rax
	leaq	-416(%rbx), %rdx
	leaq	192(%rdx), %rcx
	movq	%rax, %rdx
	leaq	.LC16(%rip), %rsi
	movq	%rcx, %rdi
	call	_ZNSt4pairIKNSt7__cxx1112basic_stringIcSt11char_traitsIcESaIcEEESt8functionIFviiR8RelationEEEC1IRA23_KcNS8_7closureMUliiS9_E2_ELb1EEEOT_OT0_
	.loc 10 30 72 discriminator 26
	leaq	-896(%rbx), %rax
	movq	%rax, %rdx
	shrq	$3, %rdx
	addq	$2147450880, %rdx
	movzbl	(%rdx), %edx
	testb	%dl, %dl
	je	.L419
	.loc 10 30 72
	movq	%rax, %rdi
	call	__asan_report_store8@PLT
.L419:
	.loc 10 30 72 discriminator 26
	movq	-1208(%rbp), %rax
	movq	%rax, -896(%rbx)
	leaq	-896(%rbx), %rax
	leaq	-416(%rbx), %rdx
	leaq	256(%rdx), %rcx
	movq	%rax, %rdx
	leaq	.LC17(%rip), %rsi
	movq	%rcx, %rdi
	call	_ZNSt4pairIKNSt7__cxx1112basic_stringIcSt11char_traitsIcESaIcEEESt8functionIFviiR8RelationEEEC1IRA20_KcNS8_7closureMUliiS9_E3_ELb1EEEOT_OT0_
.LEHE48:
	.loc 10 30 72 discriminator 28
	leaq	-416(%rbx), %rax
	movq	%rax, -1248(%rbp)
	movq	$5, -1240(%rbp)
	leaq	-1088(%rbx), %rax
	shrq	$3, %rax
	addq	$2147450880, %rax
	movb	$1, (%rax)
	leaq	-1088(%rbx), %rax
	movq	%rax, %rdi
	call	_ZNSaISt4pairIKNSt7__cxx1112basic_stringIcSt11char_traitsIcESaIcEEESt8functionIFviiR8RelationEEEEC1Ev
	leaq	-1088(%rbx), %rdx
	leaq	-912(%rbx), %rax
	movq	-1248(%rbp), %rsi
	movq	-1240(%rbp), %rdi
	movq	%rsi, %r8
	movq	%rdi, %r9
	movq	%r8, %r9
	movq	%rdx, %r8
	movq	%rax, %rcx
	movq	%r9, %rsi
	movq	%rdi, %rdx
	movq	%r14, %rdi
.LEHB49:
	call	_ZNSt3mapINSt7__cxx1112basic_stringIcSt11char_traitsIcESaIcEEESt8functionIFviiR8RelationEESt4lessIS5_ESaISt4pairIKS5_SA_EEEC1ESt16initializer_listISF_ERKSC_RKSG_
.LEHE49:
	.loc 10 30 72 discriminator 30
	leaq	-1088(%rbx), %rax
	movq	%rax, %rdi
	call	_ZNSaISt4pairIKNSt7__cxx1112basic_stringIcSt11char_traitsIcESaIcEEESt8functionIFviiR8RelationEEEED1Ev
	leaq	-1088(%rbx), %rax
	shrq	$3, %rax
	addq	$2147450880, %rax
	movb	$-8, (%rax)
	leaq	-416(%rbx), %r14
	addq	$320, %r14
.L421:
	.loc 10 30 72 discriminator 34
	leaq	-416(%rbx), %rax
	cmpq	%rax, %r14
	je	.L437
	.loc 10 30 72 discriminator 33
	subq	$64, %r14
	movq	%r14, %rdi
	call	_ZNSt4pairIKNSt7__cxx1112basic_stringIcSt11char_traitsIcESaIcEEESt8functionIFviiR8RelationEEED1Ev
	jmp	.L421
.L432:
	endbr64
	movq	%rax, %r12
	.loc 10 30 60 is_stmt 1
	leaq	-864(%rbx), %rax
	movq	%rax, %rdi
	call	_ZNSt6vectorISt4pairIiiESaIS1_EED1Ev
	movq	%r12, %rbx
	call	__asan_handle_no_return@PLT
	movq	%rbx, %rdi
.LEHB50:
	call	_Unwind_Resume@PLT
.L434:
	endbr64
	movq	%rax, %r12
	.loc 10 30 72
	leaq	-1104(%rbx), %rax
	movq	%rax, %rdi
	call	_ZNSaISt4pairIKNSt7__cxx1112basic_stringIcSt11char_traitsIcESaIcEEESt8functionIFbiiR8RelationEEEED1Ev
	movq	%r12, %rdx
	leaq	-1104(%rbx), %rax
	shrq	$3, %rax
	addq	$2147450880, %rax
	movb	$-8, (%rax)
	movq	%rdx, %r13
	leaq	-800(%rbx), %r12
	addq	$320, %r12
.L425:
	.loc 10 30 72 is_stmt 0 discriminator 37
	leaq	-800(%rbx), %rax
	cmpq	%rax, %r12
	je	.L424
	.loc 10 30 72 discriminator 36
	subq	$64, %r12
	movq	%r12, %rdi
	call	_ZNSt4pairIKNSt7__cxx1112basic_stringIcSt11char_traitsIcESaIcEEESt8functionIFbiiR8RelationEEED1Ev
	jmp	.L425
.L424:
	movq	%r13, %r12
	.loc 10 30 72
	movl	$320, %edx
	leaq	-800(%rbx), %rax
	movq	%rdx, %rsi
	movq	%rax, %rdi
	call	__asan_poison_stack_memory@PLT
	movq	%r12, %rbx
	jmp	.L426
.L436:
	endbr64
	movq	%rax, %r12
	leaq	-1088(%rbx), %rax
	movq	%rax, %rdi
	call	_ZNSaISt4pairIKNSt7__cxx1112basic_stringIcSt11char_traitsIcESaIcEEESt8functionIFviiR8RelationEEEED1Ev
	movq	%r12, %rdx
	leaq	-1088(%rbx), %rax
	shrq	$3, %rax
	addq	$2147450880, %rax
	movb	$-8, (%rax)
	movq	%rdx, %r13
	leaq	-416(%rbx), %r12
	addq	$320, %r12
.L429:
	.loc 10 30 72 discriminator 40
	leaq	-416(%rbx), %rax
	cmpq	%rax, %r12
	je	.L428
	.loc 10 30 72 discriminator 39
	subq	$64, %r12
	movq	%r12, %rdi
	call	_ZNSt4pairIKNSt7__cxx1112basic_stringIcSt11char_traitsIcESaIcEEESt8functionIFviiR8RelationEEED1Ev
	jmp	.L429
.L428:
	movq	%r13, %r12
	.loc 10 30 72
	movl	$320, %edx
	leaq	-416(%rbx), %rax
	movq	%rdx, %rsi
	movq	%rax, %rdi
	call	__asan_poison_stack_memory@PLT
	movq	%r12, %rbx
	jmp	.L430
.L435:
	endbr64
	movq	%rax, %rbx
.L430:
	.loc 10 30 72 discriminator 27
	movq	-1208(%rbp), %rax
	addq	$48, %rax
	movq	%rax, %rdi
	call	_ZNSt3mapINSt7__cxx1112basic_stringIcSt11char_traitsIcESaIcEEESt8functionIFbiiR8RelationEESt4lessIS5_ESaISt4pairIKS5_SA_EEED1Ev
	jmp	.L426
.L433:
	endbr64
	movq	%rax, %rbx
.L426:
	.loc 10 30 72 discriminator 11
	movq	-1208(%rbp), %rax
	movq	%rax, %rdi
	call	_ZN6MatrixIbED2Ev
	call	__asan_handle_no_return@PLT
	movq	%rbx, %rdi
	call	_Unwind_Resume@PLT
.LEHE50:
.L437:
.LBE63:
	.loc 10 30 75 is_stmt 1
	nop
	.loc 10 30 5
	movq	-1256(%rbp), %rdx
	cmpq	%r13, %rdx
	je	.L412
	movq	$1172321806, 0(%r13)
	movl	$1120, %esi
	movq	%r13, %rdi
	call	__asan_stack_free_5@PLT
.LVL28:
	jmp	.L413
.L412:
	leaq	2147450880(%r12), %rax
	movl	$140, %ecx
	movl	$0, %esi
	movq	%rsi, (%rax)
	movl	%ecx, %edx
	addq	%rax, %rdx
	addq	$8, %rdx
	movq	%rsi, -16(%rdx)
	leaq	8(%rax), %rdx
	andq	$-8, %rdx
	subq	%rdx, %rax
	addl	%eax, %ecx
	andl	$-8, %ecx
	movl	%ecx, %eax
	shrl	$3, %eax
	movl	%eax, %ecx
	movq	%rdx, %rdi
	movq	%rsi, %rax
	rep stosq
.L413:
	.loc 10 30 75
	movq	-56(%rbp), %rax
	xorq	%fs:40, %rax
	je	.L431
	call	__stack_chk_fail@PLT
.L431:
	addq	$1224, %rsp
	popq	%rbx
	popq	%r12
	popq	%r13
	popq	%r14
	popq	%r15
	popq	%rbp
	.cfi_def_cfa 7, 8
	ret
	.cfi_endproc
.LFE5361:
	.section	.gcc_except_table._ZN8RelationC2ENSt7__cxx1112basic_stringIcSt11char_traitsIcESaIcEEEi,"aG",@progbits,_ZN8RelationC5ENSt7__cxx1112basic_stringIcSt11char_traitsIcESaIcEEEi,comdat
.LLSDA5361:
	.byte	0xff
	.byte	0xff
	.byte	0x1
	.uleb128 .LLSDACSE5361-.LLSDACSB5361
.LLSDACSB5361:
	.uleb128 .LEHB44-.LFB5361
	.uleb128 .LEHE44-.LEHB44
	.uleb128 0
	.uleb128 0
	.uleb128 .LEHB45-.LFB5361
	.uleb128 .LEHE45-.LEHB45
	.uleb128 .L432-.LFB5361
	.uleb128 0
	.uleb128 .LEHB46-.LFB5361
	.uleb128 .LEHE46-.LEHB46
	.uleb128 .L433-.LFB5361
	.uleb128 0
	.uleb128 .LEHB47-.LFB5361
	.uleb128 .LEHE47-.LEHB47
	.uleb128 .L434-.LFB5361
	.uleb128 0
	.uleb128 .LEHB48-.LFB5361
	.uleb128 .LEHE48-.LEHB48
	.uleb128 .L435-.LFB5361
	.uleb128 0
	.uleb128 .LEHB49-.LFB5361
	.uleb128 .LEHE49-.LEHB49
	.uleb128 .L436-.LFB5361
	.uleb128 0
	.uleb128 .LEHB50-.LFB5361
	.uleb128 .LEHE50-.LEHB50
	.uleb128 0
	.uleb128 0
.LLSDACSE5361:
	.section	.text._ZN8RelationC2ENSt7__cxx1112basic_stringIcSt11char_traitsIcESaIcEEEi,"axG",@progbits,_ZN8RelationC5ENSt7__cxx1112basic_stringIcSt11char_traitsIcESaIcEEEi,comdat
	.size	_ZN8RelationC2ENSt7__cxx1112basic_stringIcSt11char_traitsIcESaIcEEEi, .-_ZN8RelationC2ENSt7__cxx1112basic_stringIcSt11char_traitsIcESaIcEEEi
	.weak	_ZN8RelationC1ENSt7__cxx1112basic_stringIcSt11char_traitsIcESaIcEEEi
	.set	_ZN8RelationC1ENSt7__cxx1112basic_stringIcSt11char_traitsIcESaIcEEEi,_ZN8RelationC2ENSt7__cxx1112basic_stringIcSt11char_traitsIcESaIcEEEi
	.section	.text._ZNSt4pairIKNSt7__cxx1112basic_stringIcSt11char_traitsIcESaIcEEESt8functionIFbiiR8RelationEEEC2ERKSC_,"axG",@progbits,_ZNSt4pairIKNSt7__cxx1112basic_stringIcSt11char_traitsIcESaIcEEESt8functionIFbiiR8RelationEEEC5ERKSC_,comdat
	.align 2
	.weak	_ZNSt4pairIKNSt7__cxx1112basic_stringIcSt11char_traitsIcESaIcEEESt8functionIFbiiR8RelationEEEC2ERKSC_
	.type	_ZNSt4pairIKNSt7__cxx1112basic_stringIcSt11char_traitsIcESaIcEEESt8functionIFbiiR8RelationEEEC2ERKSC_, @function
_ZNSt4pairIKNSt7__cxx1112basic_stringIcSt11char_traitsIcESaIcEEESt8functionIFbiiR8RelationEEEC2ERKSC_:
.LASANPC5371:
.LFB5371:
	.loc 11 303 17
	.cfi_startproc
	.cfi_personality 0x9b,DW.ref.__gxx_personality_v0
	.cfi_lsda 0x1b,.LLSDA5371
	endbr64
	pushq	%rbp
	.cfi_def_cfa_offset 16
	.cfi_offset 6, -16
	movq	%rsp, %rbp
	.cfi_def_cfa_register 6
	pushq	%rbx
	subq	$24, %rsp
	.cfi_offset 3, -24
	movq	%rdi, -24(%rbp)
	movq	%rsi, -32(%rbp)
.LBB64:
	.loc 11 303 17
	movq	-24(%rbp), %rax
	movq	-32(%rbp), %rdx
	movq	%rdx, %rsi
	movq	%rax, %rdi
.LEHB51:
	call	_ZNSt7__cxx1112basic_stringIcSt11char_traitsIcESaIcEEC1ERKS4_@PLT
.LEHE51:
	movq	-24(%rbp), %rax
	addq	$32, %rax
	movq	-32(%rbp), %rdx
	addq	$32, %rdx
	movq	%rdx, %rsi
	movq	%rax, %rdi
.LEHB52:
	call	_ZNSt8functionIFbiiR8RelationEEC1ERKS3_
.LEHE52:
.LBE64:
	jmp	.L441
.L440:
	endbr64
	movq	%rax, %rbx
.LBB65:
	movq	-24(%rbp), %rax
	movq	%rax, %rdi
	call	_ZNSt7__cxx1112basic_stringIcSt11char_traitsIcESaIcEED1Ev@PLT
	call	__asan_handle_no_return@PLT
	movq	%rbx, %rdi
.LEHB53:
	call	_Unwind_Resume@PLT
.LEHE53:
.L441:
.LBE65:
	addq	$24, %rsp
	popq	%rbx
	popq	%rbp
	.cfi_def_cfa 7, 8
	ret
	.cfi_endproc
.LFE5371:
	.section	.gcc_except_table._ZNSt4pairIKNSt7__cxx1112basic_stringIcSt11char_traitsIcESaIcEEESt8functionIFbiiR8RelationEEEC2ERKSC_,"aG",@progbits,_ZNSt4pairIKNSt7__cxx1112basic_stringIcSt11char_traitsIcESaIcEEESt8functionIFbiiR8RelationEEEC5ERKSC_,comdat
.LLSDA5371:
	.byte	0xff
	.byte	0xff
	.byte	0x1
	.uleb128 .LLSDACSE5371-.LLSDACSB5371
.LLSDACSB5371:
	.uleb128 .LEHB51-.LFB5371
	.uleb128 .LEHE51-.LEHB51
	.uleb128 0
	.uleb128 0
	.uleb128 .LEHB52-.LFB5371
	.uleb128 .LEHE52-.LEHB52
	.uleb128 .L440-.LFB5371
	.uleb128 0
	.uleb128 .LEHB53-.LFB5371
	.uleb128 .LEHE53-.LEHB53
	.uleb128 0
	.uleb128 0
.LLSDACSE5371:
	.section	.text._ZNSt4pairIKNSt7__cxx1112basic_stringIcSt11char_traitsIcESaIcEEESt8functionIFbiiR8RelationEEEC2ERKSC_,"axG",@progbits,_ZNSt4pairIKNSt7__cxx1112basic_stringIcSt11char_traitsIcESaIcEEESt8functionIFbiiR8RelationEEEC5ERKSC_,comdat
	.size	_ZNSt4pairIKNSt7__cxx1112basic_stringIcSt11char_traitsIcESaIcEEESt8functionIFbiiR8RelationEEEC2ERKSC_, .-_ZNSt4pairIKNSt7__cxx1112basic_stringIcSt11char_traitsIcESaIcEEESt8functionIFbiiR8RelationEEEC2ERKSC_
	.weak	_ZNSt4pairIKNSt7__cxx1112basic_stringIcSt11char_traitsIcESaIcEEESt8functionIFbiiR8RelationEEEC1ERKSC_
	.set	_ZNSt4pairIKNSt7__cxx1112basic_stringIcSt11char_traitsIcESaIcEEESt8functionIFbiiR8RelationEEEC1ERKSC_,_ZNSt4pairIKNSt7__cxx1112basic_stringIcSt11char_traitsIcESaIcEEESt8functionIFbiiR8RelationEEEC2ERKSC_
	.globl	__asan_stack_malloc_3
	.section	.rodata
	.align 8
.LC20:
	.string	"5 32 8 15 __for_begin:100 64 8 13 __for_end:100 96 32 9 <unknown> 160 32 9 <unknown> 224 64 5 i:100"
	.align 32
.LC21:
	.string	"the "
	.zero	59
	.align 32
.LC22:
	.string	" order relational matrix:"
	.zero	38
	.align 32
.LC23:
	.string	"is "
	.zero	60
	.align 32
.LC24:
	.string	"not "
	.zero	59
	.section	.text._ZN8Relation8judgeAllEv,"axG",@progbits,_ZN8Relation8judgeAllEv,comdat
	.align 2
	.weak	_ZN8Relation8judgeAllEv
	.type	_ZN8Relation8judgeAllEv, @function
_ZN8Relation8judgeAllEv:
.LASANPC5365:
.LFB5365:
	.loc 10 96 10
	.cfi_startproc
	.cfi_personality 0x9b,DW.ref.__gxx_personality_v0
	.cfi_lsda 0x1b,.LLSDA5365
	endbr64
	pushq	%rbp
	.cfi_def_cfa_offset 16
	.cfi_offset 6, -16
	movq	%rsp, %rbp
	.cfi_def_cfa_register 6
	pushq	%r15
	pushq	%r14
	pushq	%r13
	pushq	%r12
	pushq	%rbx
	subq	$392, %rsp
	.cfi_offset 15, -24
	.cfi_offset 14, -32
	.cfi_offset 13, -40
	.cfi_offset 12, -48
	.cfi_offset 3, -56
	movq	%rdi, -424(%rbp)
	leaq	-400(%rbp), %r13
	movq	%r13, %r15
	cmpl	$0, __asan_option_detect_stack_use_after_return(%rip)
	je	.L442
	movl	$320, %edi
	call	__asan_stack_malloc_3@PLT
.LVL29:
	testq	%rax, %rax
	je	.L442
	movq	%rax, %r13
.L442:
	leaq	352(%r13), %rax
	movq	%rax, %rbx
	movq	$1102416563, 0(%r13)
	leaq	.LC20(%rip), %rax
	movq	%rax, 8(%r13)
	leaq	.LASANPC5365(%rip), %rax
	movq	%rax, 16(%r13)
	movq	%r13, %r12
	shrq	$3, %r12
	movl	$-235802127, 2147450880(%r12)
	movl	$-218959360, 2147450884(%r12)
	movl	$-218959360, 2147450888(%r12)
	movl	$-218959118, 2147450896(%r12)
	movl	$-218959118, 2147450904(%r12)
	movl	$-202116109, 2147450916(%r12)
	.loc 10 96 10
	movq	%fs:40, %rax
	movq	%rax, -56(%rbp)
	xorl	%eax, %eax
	.loc 10 98 17
	leaq	.LC21(%rip), %rsi
	leaq	_ZSt4cout(%rip), %rdi
.LEHB54:
	call	_ZStlsISt11char_traitsIcEERSt13basic_ostreamIcT_ES5_PKc@PLT
	movq	%rax, %rcx
	.loc 10 98 32
	movq	-424(%rbp), %rax
	addq	$40, %rax
	movq	%rax, %rdx
	movq	%rdx, %rax
	shrq	$3, %rax
	addq	$2147450880, %rax
	movzbl	(%rax), %eax
	testb	%al, %al
	setne	%sil
	cmpb	$3, %al
	setle	%al
	andl	%esi, %eax
	testb	%al, %al
	je	.L446
	movq	%rdx, %rdi
	call	__asan_report_load4@PLT
.L446:
	movq	-424(%rbp), %rax
	movl	40(%rax), %eax
	movl	%eax, %esi
	movq	%rcx, %rdi
	call	_ZNSolsEi@PLT
	leaq	.LC22(%rip), %rsi
	movq	%rax, %rdi
	call	_ZStlsISt11char_traitsIcEERSt13basic_ostreamIcT_ES5_PKc@PLT
	movq	%rax, %rdx
	.loc 10 98 63
	movq	_ZSt4endlIcSt11char_traitsIcEERSt13basic_ostreamIT_T0_ES6_@GOTPCREL(%rip), %rax
	movq	%rax, %rsi
	movq	%rdx, %rdi
	call	_ZNSolsEPFRSoS_E@PLT
	movq	%rax, %rdx
	.loc 10 99 18
	movq	-424(%rbp), %rax
	movq	%rax, %rsi
	movq	%rdx, %rdi
	call	_ZlsIbERSoS0_RK6MatrixIT_E
	movq	%rax, %rdx
	.loc 10 99 26
	movq	_ZSt4endlIcSt11char_traitsIcEERSt13basic_ostreamIT_T0_ES6_@GOTPCREL(%rip), %rax
	movq	%rax, %rsi
	movq	%rdx, %rdi
	call	_ZNSolsEPFRSoS_E@PLT
.LBB66:
	.loc 10 100 23
	movq	-424(%rbp), %rax
	addq	$48, %rax
	movq	%rax, -408(%rbp)
	leaq	-320(%rbx), %rax
	movq	%rax, %rdx
	shrq	$3, %rdx
	addq	$2147450880, %rdx
	movzbl	(%rdx), %edx
	testb	%dl, %dl
	je	.L447
	movq	%rax, %rdi
	call	__asan_report_store8@PLT
.L447:
	movq	-408(%rbp), %rax
	movq	%rax, %rdi
	call	_ZNSt3mapINSt7__cxx1112basic_stringIcSt11char_traitsIcESaIcEEESt8functionIFbiiR8RelationEESt4lessIS5_ESaISt4pairIKS5_SA_EEE5beginEv
	movq	%rax, -320(%rbx)
	leaq	-288(%rbx), %rax
	movq	%rax, %rdx
	shrq	$3, %rdx
	addq	$2147450880, %rdx
	movzbl	(%rdx), %edx
	testb	%dl, %dl
	je	.L448
	movq	%rax, %rdi
	call	__asan_report_store8@PLT
.L448:
	movq	-408(%rbp), %rax
	movq	%rax, %rdi
	call	_ZNSt3mapINSt7__cxx1112basic_stringIcSt11char_traitsIcESaIcEEESt8functionIFbiiR8RelationEESt4lessIS5_ESaISt4pairIKS5_SA_EEE3endEv
	movq	%rax, -288(%rbx)
.L451:
	.loc 10 100 23 is_stmt 0 discriminator 3
	leaq	-288(%rbx), %rdx
	leaq	-320(%rbx), %rax
	movq	%rdx, %rsi
	movq	%rax, %rdi
	call	_ZStneRKSt17_Rb_tree_iteratorISt4pairIKNSt7__cxx1112basic_stringIcSt11char_traitsIcESaIcEEESt8functionIFbiiR8RelationEEEESG_
	testb	%al, %al
	je	.L449
	.loc 10 100 19 is_stmt 1 discriminator 2
	leaq	-128(%rbx), %rax
	shrq	$3, %rax
	addq	$2147450880, %rax
	movl	$0, (%rax)
	movl	$0, 4(%rax)
	.loc 10 100 23 discriminator 2
	leaq	-320(%rbx), %rax
	movq	%rax, %rdi
	call	_ZNKSt17_Rb_tree_iteratorISt4pairIKNSt7__cxx1112basic_stringIcSt11char_traitsIcESaIcEEESt8functionIFbiiR8RelationEEEEdeEv
	movq	%rax, %rdx
	leaq	-128(%rbx), %rax
	movq	%rdx, %rsi
	movq	%rax, %rdi
	call	_ZNSt4pairIKNSt7__cxx1112basic_stringIcSt11char_traitsIcESaIcEEESt8functionIFbiiR8RelationEEEC1ERKSC_
.LEHE54:
	.loc 10 102 21 discriminator 2
	leaq	.LC23(%rip), %rsi
	leaq	_ZSt4cout(%rip), %rdi
.LEHB55:
	call	_ZStlsISt11char_traitsIcEERSt13basic_ostreamIcT_ES5_PKc@PLT
	.loc 10 103 33
	leaq	-256(%rbx), %rax
	shrq	$3, %rax
	addq	$2147450880, %rax
	movl	$0, (%rax)
	.loc 10 103 22
	leaq	-128(%rbx), %rax
	leaq	32(%rax), %rdx
	leaq	-256(%rbx), %rax
	movq	%rdx, %rsi
	movq	%rax, %rdi
	call	_ZNSt8functionIFbiiR8RelationEEC1ERKS3_
.LEHE55:
	.loc 10 103 22 is_stmt 0 discriminator 1
	leaq	-256(%rbx), %rdx
	movq	-424(%rbp), %rax
	movq	%rdx, %rsi
	movq	%rax, %rdi
.LEHB56:
	call	_ZN8Relation5judgeISt8functionIFbiiRS_EEEEbT_
.LEHE56:
	movzbl	%al, %eax
	.loc 10 103 33 is_stmt 1 discriminator 1
	testl	%eax, %eax
	sete	%r14b
	.loc 10 103 22 discriminator 1
	leaq	-256(%rbx), %rax
	movq	%rax, %rdi
	call	_ZNSt8functionIFbiiR8RelationEED1Ev
	leaq	-256(%rbx), %rax
	shrq	$3, %rax
	addq	$2147450880, %rax
	movl	$-117901064, (%rax)
	.loc 10 103 13 discriminator 1
	testb	%r14b, %r14b
	je	.L450
	.loc 10 104 25
	leaq	.LC24(%rip), %rsi
	leaq	_ZSt4cout(%rip), %rdi
.LEHB57:
	call	_ZStlsISt11char_traitsIcEERSt13basic_ostreamIcT_ES5_PKc@PLT
.L450:
	.loc 10 105 49
	leaq	-192(%rbx), %rax
	shrq	$3, %rax
	addq	$2147450880, %rax
	movl	$0, (%rax)
	.loc 10 105 21
	leaq	-128(%rbx), %rdx
	leaq	-192(%rbx), %rax
	movq	%rdx, %rsi
	movq	%rax, %rdi
	call	_ZNSt7__cxx1112basic_stringIcSt11char_traitsIcESaIcEEC1ERKS4_@PLT
.LEHE57:
	.loc 10 105 47 discriminator 1
	leaq	-192(%rbx), %rax
	movl	$2, %edx
	movl	$0, %esi
	movq	%rax, %rdi
.LEHB58:
	call	_ZNSt7__cxx1112basic_stringIcSt11char_traitsIcESaIcEE5eraseEmm@PLT
	movq	%rax, %rsi
	leaq	_ZSt4cout(%rip), %rdi
	call	_ZStlsIcSt11char_traitsIcESaIcEERSt13basic_ostreamIT_T0_ES7_RKNSt7__cxx1112basic_stringIS4_S5_T1_EE@PLT
	.loc 10 105 47 is_stmt 0 discriminator 3
	movq	%rax, %rdx
	.loc 10 105 52 is_stmt 1 discriminator 3
	movq	_ZSt4endlIcSt11char_traitsIcEERSt13basic_ostreamIT_T0_ES6_@GOTPCREL(%rip), %rax
	movq	%rax, %rsi
	movq	%rdx, %rdi
	call	_ZNSolsEPFRSoS_E@PLT
.LEHE58:
	.loc 10 105 21 discriminator 7
	leaq	-192(%rbx), %rax
	movq	%rax, %rdi
	call	_ZNSt7__cxx1112basic_stringIcSt11char_traitsIcESaIcEED1Ev@PLT
	leaq	-192(%rbx), %rax
	shrq	$3, %rax
	addq	$2147450880, %rax
	movl	$-117901064, (%rax)
	.loc 10 100 23 discriminator 7
	leaq	-128(%rbx), %rax
	movq	%rax, %rdi
	call	_ZNSt4pairIKNSt7__cxx1112basic_stringIcSt11char_traitsIcESaIcEEESt8functionIFbiiR8RelationEEED1Ev
	leaq	-320(%rbx), %rax
	movq	%rax, %rdi
	call	_ZNSt17_Rb_tree_iteratorISt4pairIKNSt7__cxx1112basic_stringIcSt11char_traitsIcESaIcEEESt8functionIFbiiR8RelationEEEEppEv
	.loc 10 100 9 discriminator 7
	jmp	.L451
.L449:
	leaq	-128(%rbx), %rax
	shrq	$3, %rax
	addq	$2147450880, %rax
	movl	$-117901064, (%rax)
	movl	$-117901064, 4(%rax)
	leaq	-320(%rbx), %rax
	shrq	$3, %rax
	addq	$2147450880, %rax
	movb	$-8, (%rax)
	leaq	-288(%rbx), %rax
	shrq	$3, %rax
	addq	$2147450880, %rax
	movb	$-8, (%rax)
.LBE66:
	.loc 10 107 17
	movq	_ZSt4endlIcSt11char_traitsIcEERSt13basic_ostreamIT_T0_ES6_@GOTPCREL(%rip), %rax
	movq	%rax, %rsi
	leaq	_ZSt4cout(%rip), %rdi
.LEHB59:
	call	_ZNSolsEPFRSoS_E@PLT
	.loc 10 108 5
	nop
	.loc 10 96 10
	cmpq	%r13, %r15
	je	.L443
	jmp	.L459
.L457:
	endbr64
	movq	%rax, %r12
.LBB67:
	.loc 10 103 22
	leaq	-256(%rbx), %rax
	movq	%rax, %rdi
	call	_ZNSt8functionIFbiiR8RelationEED1Ev
	movq	%r12, %rdx
	leaq	-256(%rbx), %rax
	shrq	$3, %rax
	addq	$2147450880, %rax
	movl	$-117901064, (%rax)
	movq	%rdx, %r12
	jmp	.L453
.L458:
	endbr64
	movq	%rax, %r12
	.loc 10 105 21
	leaq	-192(%rbx), %rax
	movq	%rax, %rdi
	call	_ZNSt7__cxx1112basic_stringIcSt11char_traitsIcESaIcEED1Ev@PLT
	movq	%r12, %rdx
	leaq	-192(%rbx), %rax
	shrq	$3, %rax
	addq	$2147450880, %rax
	movl	$-117901064, (%rax)
	movq	%rdx, %r12
	jmp	.L453
.L456:
	endbr64
	movq	%rax, %r12
.L453:
	.loc 10 100 23
	leaq	-128(%rbx), %rax
	movq	%rax, %rdi
	call	_ZNSt4pairIKNSt7__cxx1112basic_stringIcSt11char_traitsIcESaIcEEESt8functionIFbiiR8RelationEEED1Ev
	movq	%r12, %rbx
	call	__asan_handle_no_return@PLT
	movq	%rbx, %rdi
	call	_Unwind_Resume@PLT
.LEHE59:
.L459:
.LBE67:
	.loc 10 96 10
	movq	$1172321806, 0(%r13)
	movabsq	$-723401728380766731, %rax
	movabsq	$-723401728380766731, %rdx
	movq	%rax, 2147450880(%r12)
	movq	%rdx, 2147450888(%r12)
	movq	%rax, 2147450896(%r12)
	movq	%rdx, 2147450904(%r12)
	movabsq	$-723401728380766731, %rax
	movq	%rax, 2147450912(%r12)
	movq	504(%r13), %rax
	movb	$0, (%rax)
	jmp	.L444
.L443:
	movq	$0, 2147450880(%r12)
	movq	$0, 2147450888(%r12)
	movq	$0, 2147450896(%r12)
	movq	$0, 2147450904(%r12)
	movq	$0, 2147450912(%r12)
.L444:
	.loc 10 108 5
	movq	-56(%rbp), %rax
	xorq	%fs:40, %rax
	je	.L455
	call	__stack_chk_fail@PLT
.L455:
	addq	$392, %rsp
	popq	%rbx
	popq	%r12
	popq	%r13
	popq	%r14
	popq	%r15
	popq	%rbp
	.cfi_def_cfa 7, 8
	ret
	.cfi_endproc
.LFE5365:
	.section	.gcc_except_table._ZN8Relation8judgeAllEv,"aG",@progbits,_ZN8Relation8judgeAllEv,comdat
.LLSDA5365:
	.byte	0xff
	.byte	0xff
	.byte	0x1
	.uleb128 .LLSDACSE5365-.LLSDACSB5365
.LLSDACSB5365:
	.uleb128 .LEHB54-.LFB5365
	.uleb128 .LEHE54-.LEHB54
	.uleb128 0
	.uleb128 0
	.uleb128 .LEHB55-.LFB5365
	.uleb128 .LEHE55-.LEHB55
	.uleb128 .L456-.LFB5365
	.uleb128 0
	.uleb128 .LEHB56-.LFB5365
	.uleb128 .LEHE56-.LEHB56
	.uleb128 .L457-.LFB5365
	.uleb128 0
	.uleb128 .LEHB57-.LFB5365
	.uleb128 .LEHE57-.LEHB57
	.uleb128 .L456-.LFB5365
	.uleb128 0
	.uleb128 .LEHB58-.LFB5365
	.uleb128 .LEHE58-.LEHB58
	.uleb128 .L458-.LFB5365
	.uleb128 0
	.uleb128 .LEHB59-.LFB5365
	.uleb128 .LEHE59-.LEHB59
	.uleb128 0
	.uleb128 0
.LLSDACSE5365:
	.section	.text._ZN8Relation8judgeAllEv,"axG",@progbits,_ZN8Relation8judgeAllEv,comdat
	.size	_ZN8Relation8judgeAllEv, .-_ZN8Relation8judgeAllEv
	.section	.text._ZNSt4pairIKNSt7__cxx1112basic_stringIcSt11char_traitsIcESaIcEEESt8functionIFviiR8RelationEEEC2ERKSC_,"axG",@progbits,_ZNSt4pairIKNSt7__cxx1112basic_stringIcSt11char_traitsIcESaIcEEESt8functionIFviiR8RelationEEEC5ERKSC_,comdat
	.align 2
	.weak	_ZNSt4pairIKNSt7__cxx1112basic_stringIcSt11char_traitsIcESaIcEEESt8functionIFviiR8RelationEEEC2ERKSC_
	.type	_ZNSt4pairIKNSt7__cxx1112basic_stringIcSt11char_traitsIcESaIcEEESt8functionIFviiR8RelationEEEC2ERKSC_, @function
_ZNSt4pairIKNSt7__cxx1112basic_stringIcSt11char_traitsIcESaIcEEESt8functionIFviiR8RelationEEEC2ERKSC_:
.LASANPC5379:
.LFB5379:
	.loc 11 303 17
	.cfi_startproc
	.cfi_personality 0x9b,DW.ref.__gxx_personality_v0
	.cfi_lsda 0x1b,.LLSDA5379
	endbr64
	pushq	%rbp
	.cfi_def_cfa_offset 16
	.cfi_offset 6, -16
	movq	%rsp, %rbp
	.cfi_def_cfa_register 6
	pushq	%rbx
	subq	$24, %rsp
	.cfi_offset 3, -24
	movq	%rdi, -24(%rbp)
	movq	%rsi, -32(%rbp)
.LBB68:
	.loc 11 303 17
	movq	-24(%rbp), %rax
	movq	-32(%rbp), %rdx
	movq	%rdx, %rsi
	movq	%rax, %rdi
.LEHB60:
	call	_ZNSt7__cxx1112basic_stringIcSt11char_traitsIcESaIcEEC1ERKS4_@PLT
.LEHE60:
	movq	-24(%rbp), %rax
	addq	$32, %rax
	movq	-32(%rbp), %rdx
	addq	$32, %rdx
	movq	%rdx, %rsi
	movq	%rax, %rdi
.LEHB61:
	call	_ZNSt8functionIFviiR8RelationEEC1ERKS3_
.LEHE61:
.LBE68:
	jmp	.L463
.L462:
	endbr64
	movq	%rax, %rbx
.LBB69:
	movq	-24(%rbp), %rax
	movq	%rax, %rdi
	call	_ZNSt7__cxx1112basic_stringIcSt11char_traitsIcESaIcEED1Ev@PLT
	call	__asan_handle_no_return@PLT
	movq	%rbx, %rdi
.LEHB62:
	call	_Unwind_Resume@PLT
.LEHE62:
.L463:
.LBE69:
	addq	$24, %rsp
	popq	%rbx
	popq	%rbp
	.cfi_def_cfa 7, 8
	ret
	.cfi_endproc
.LFE5379:
	.section	.gcc_except_table._ZNSt4pairIKNSt7__cxx1112basic_stringIcSt11char_traitsIcESaIcEEESt8functionIFviiR8RelationEEEC2ERKSC_,"aG",@progbits,_ZNSt4pairIKNSt7__cxx1112basic_stringIcSt11char_traitsIcESaIcEEESt8functionIFviiR8RelationEEEC5ERKSC_,comdat
.LLSDA5379:
	.byte	0xff
	.byte	0xff
	.byte	0x1
	.uleb128 .LLSDACSE5379-.LLSDACSB5379
.LLSDACSB5379:
	.uleb128 .LEHB60-.LFB5379
	.uleb128 .LEHE60-.LEHB60
	.uleb128 0
	.uleb128 0
	.uleb128 .LEHB61-.LFB5379
	.uleb128 .LEHE61-.LEHB61
	.uleb128 .L462-.LFB5379
	.uleb128 0
	.uleb128 .LEHB62-.LFB5379
	.uleb128 .LEHE62-.LEHB62
	.uleb128 0
	.uleb128 0
.LLSDACSE5379:
	.section	.text._ZNSt4pairIKNSt7__cxx1112basic_stringIcSt11char_traitsIcESaIcEEESt8functionIFviiR8RelationEEEC2ERKSC_,"axG",@progbits,_ZNSt4pairIKNSt7__cxx1112basic_stringIcSt11char_traitsIcESaIcEEESt8functionIFviiR8RelationEEEC5ERKSC_,comdat
	.size	_ZNSt4pairIKNSt7__cxx1112basic_stringIcSt11char_traitsIcESaIcEEESt8functionIFviiR8RelationEEEC2ERKSC_, .-_ZNSt4pairIKNSt7__cxx1112basic_stringIcSt11char_traitsIcESaIcEEESt8functionIFviiR8RelationEEEC2ERKSC_
	.weak	_ZNSt4pairIKNSt7__cxx1112basic_stringIcSt11char_traitsIcESaIcEEESt8functionIFviiR8RelationEEEC1ERKSC_
	.set	_ZNSt4pairIKNSt7__cxx1112basic_stringIcSt11char_traitsIcESaIcEEESt8functionIFviiR8RelationEEEC1ERKSC_,_ZNSt4pairIKNSt7__cxx1112basic_stringIcSt11char_traitsIcESaIcEEESt8functionIFviiR8RelationEEEC2ERKSC_
	.section	.text._ZN8RelationD2Ev,"axG",@progbits,_ZN8RelationD5Ev,comdat
	.align 2
	.weak	_ZN8RelationD2Ev
	.type	_ZN8RelationD2Ev, @function
_ZN8RelationD2Ev:
.LASANPC5382:
.LFB5382:
	.loc 10 19 8
	.cfi_startproc
	endbr64
	pushq	%rbp
	.cfi_def_cfa_offset 16
	.cfi_offset 6, -16
	movq	%rsp, %rbp
	.cfi_def_cfa_register 6
	subq	$16, %rsp
	movq	%rdi, -8(%rbp)
.LBB70:
	.loc 10 19 8
	movq	-8(%rbp), %rax
	addq	$96, %rax
	movq	%rax, %rdi
	call	_ZNSt3mapINSt7__cxx1112basic_stringIcSt11char_traitsIcESaIcEEESt8functionIFviiR8RelationEESt4lessIS5_ESaISt4pairIKS5_SA_EEED1Ev
	movq	-8(%rbp), %rax
	addq	$48, %rax
	movq	%rax, %rdi
	call	_ZNSt3mapINSt7__cxx1112basic_stringIcSt11char_traitsIcESaIcEEESt8functionIFbiiR8RelationEESt4lessIS5_ESaISt4pairIKS5_SA_EEED1Ev
	movq	-8(%rbp), %rax
	movq	%rax, %rdi
	call	_ZN6MatrixIbED2Ev
.LBE70:
	nop
	leave
	.cfi_def_cfa 7, 8
	ret
	.cfi_endproc
.LFE5382:
	.size	_ZN8RelationD2Ev, .-_ZN8RelationD2Ev
	.weak	_ZN8RelationD1Ev
	.set	_ZN8RelationD1Ev,_ZN8RelationD2Ev
	.globl	__asan_stack_malloc_4
	.section	.rodata
	.align 8
.LC25:
	.string	"6 48 8 15 __for_begin:113 80 8 13 __for_end:113 112 144 9 <unknown> 320 32 9 <unknown> 384 32 9 <unknown> 448 64 5 i:113"
	.align 32
.LC26:
	.string	"Closure of "
	.zero	52
	.align 32
.LC27:
	.string	" order random relational matrix:"
	.zero	63
	.section	.text._ZN8Relation9createAllEv,"axG",@progbits,_ZN8Relation9createAllEv,comdat
	.align 2
	.weak	_ZN8Relation9createAllEv
	.type	_ZN8Relation9createAllEv, @function
_ZN8Relation9createAllEv:
.LASANPC5373:
.LFB5373:
	.loc 10 109 10
	.cfi_startproc
	.cfi_personality 0x9b,DW.ref.__gxx_personality_v0
	.cfi_lsda 0x1b,.LLSDA5373
	endbr64
	pushq	%rbp
	.cfi_def_cfa_offset 16
	.cfi_offset 6, -16
	movq	%rsp, %rbp
	.cfi_def_cfa_register 6
	pushq	%r15
	pushq	%r14
	pushq	%r13
	pushq	%r12
	pushq	%rbx
	subq	$616, %rsp
	.cfi_offset 15, -24
	.cfi_offset 14, -32
	.cfi_offset 13, -40
	.cfi_offset 12, -48
	.cfi_offset 3, -56
	movq	%rdi, -648(%rbp)
	leaq	-624(%rbp), %r13
	movq	%r13, %r15
	cmpl	$0, __asan_option_detect_stack_use_after_return(%rip)
	je	.L465
	movl	$544, %edi
	call	__asan_stack_malloc_4@PLT
.LVL30:
	testq	%rax, %rax
	je	.L465
	movq	%rax, %r13
.L465:
	leaq	576(%r13), %rax
	movq	%rax, %rbx
	movq	$1102416563, 0(%r13)
	leaq	.LC25(%rip), %rax
	movq	%rax, 8(%r13)
	leaq	.LASANPC5373(%rip), %rax
	movq	%rax, 16(%r13)
	movq	%r13, %r12
	shrq	$3, %r12
	movl	$-235802127, 2147450880(%r12)
	movl	$61937, 2147450884(%r12)
	movl	$-234881024, 2147450884(%r12)
	movl	$62194, 2147450888(%r12)
	movl	$-234881024, 2147450888(%r12)
	movl	$62194, 2147450892(%r12)
	movl	$-218959118, 2147450912(%r12)
	movl	$-218959118, 2147450916(%r12)
	movl	$-218959118, 2147450924(%r12)
	movl	$-218959118, 2147450932(%r12)
	movl	$-202116109, 2147450944(%r12)
	.loc 10 109 10
	movq	%fs:40, %rax
	movq	%rax, -56(%rbp)
	xorl	%eax, %eax
	.loc 10 111 17
	leaq	.LC26(%rip), %rsi
	leaq	_ZSt4cout(%rip), %rdi
.LEHB63:
	call	_ZStlsISt11char_traitsIcEERSt13basic_ostreamIcT_ES5_PKc@PLT
	movq	%rax, %rcx
	.loc 10 111 39
	movq	-648(%rbp), %rax
	addq	$40, %rax
	movq	%rax, %rdx
	movq	%rdx, %rax
	shrq	$3, %rax
	addq	$2147450880, %rax
	movzbl	(%rax), %eax
	testb	%al, %al
	setne	%sil
	cmpb	$3, %al
	setle	%al
	andl	%esi, %eax
	testb	%al, %al
	je	.L469
	movq	%rdx, %rdi
	call	__asan_report_load4@PLT
.L469:
	movq	-648(%rbp), %rax
	movl	40(%rax), %eax
	movl	%eax, %esi
	movq	%rcx, %rdi
	call	_ZNSolsEi@PLT
	leaq	.LC27(%rip), %rsi
	movq	%rax, %rdi
	call	_ZStlsISt11char_traitsIcEERSt13basic_ostreamIcT_ES5_PKc@PLT
	movq	%rax, %rdx
	.loc 10 111 77
	movq	_ZSt4endlIcSt11char_traitsIcEERSt13basic_ostreamIT_T0_ES6_@GOTPCREL(%rip), %rax
	movq	%rax, %rsi
	movq	%rdx, %rdi
	call	_ZNSolsEPFRSoS_E@PLT
	movq	%rax, %rdx
	.loc 10 112 18
	movq	-648(%rbp), %rax
	movq	%rax, %rsi
	movq	%rdx, %rdi
	call	_ZlsIbERSoS0_RK6MatrixIT_E
	movq	%rax, %rdx
	.loc 10 112 26
	movq	_ZSt4endlIcSt11char_traitsIcEERSt13basic_ostreamIT_T0_ES6_@GOTPCREL(%rip), %rax
	movq	%rax, %rsi
	movq	%rdx, %rdi
	call	_ZNSolsEPFRSoS_E@PLT
.LBB71:
	.loc 10 113 23
	movq	-648(%rbp), %rax
	addq	$96, %rax
	movq	%rax, -632(%rbp)
	leaq	-528(%rbx), %rax
	movq	%rax, %rdx
	shrq	$3, %rdx
	addq	$2147450880, %rdx
	movzbl	(%rdx), %edx
	testb	%dl, %dl
	je	.L470
	movq	%rax, %rdi
	call	__asan_report_store8@PLT
.L470:
	movq	-632(%rbp), %rax
	movq	%rax, %rdi
	call	_ZNSt3mapINSt7__cxx1112basic_stringIcSt11char_traitsIcESaIcEEESt8functionIFviiR8RelationEESt4lessIS5_ESaISt4pairIKS5_SA_EEE5beginEv
	movq	%rax, -528(%rbx)
	leaq	-496(%rbx), %rax
	movq	%rax, %rdx
	shrq	$3, %rdx
	addq	$2147450880, %rdx
	movzbl	(%rdx), %edx
	testb	%dl, %dl
	je	.L471
	movq	%rax, %rdi
	call	__asan_report_store8@PLT
.L471:
	movq	-632(%rbp), %rax
	movq	%rax, %rdi
	call	_ZNSt3mapINSt7__cxx1112basic_stringIcSt11char_traitsIcESaIcEEESt8functionIFviiR8RelationEESt4lessIS5_ESaISt4pairIKS5_SA_EEE3endEv
	movq	%rax, -496(%rbx)
.L474:
	.loc 10 113 23 is_stmt 0 discriminator 3
	leaq	-496(%rbx), %rdx
	leaq	-528(%rbx), %rax
	movq	%rdx, %rsi
	movq	%rax, %rdi
	call	_ZStneRKSt17_Rb_tree_iteratorISt4pairIKNSt7__cxx1112basic_stringIcSt11char_traitsIcESaIcEEESt8functionIFviiR8RelationEEEESG_
	testb	%al, %al
	je	.L472
	.loc 10 113 19 is_stmt 1 discriminator 2
	leaq	-128(%rbx), %rax
	shrq	$3, %rax
	addq	$2147450880, %rax
	movl	$0, (%rax)
	movl	$0, 4(%rax)
	.loc 10 113 23 discriminator 2
	leaq	-528(%rbx), %rax
	movq	%rax, %rdi
	call	_ZNKSt17_Rb_tree_iteratorISt4pairIKNSt7__cxx1112basic_stringIcSt11char_traitsIcESaIcEEESt8functionIFviiR8RelationEEEEdeEv
	movq	%rax, %rdx
	leaq	-128(%rbx), %rax
	movq	%rdx, %rsi
	movq	%rax, %rdi
	call	_ZNSt4pairIKNSt7__cxx1112basic_stringIcSt11char_traitsIcESaIcEEESt8functionIFviiR8RelationEEEC1ERKSC_
.LEHE63:
	.loc 10 115 38 discriminator 2
	leaq	-256(%rbx), %rax
	shrq	$3, %rax
	addq	$2147450880, %rax
	movl	$0, (%rax)
	.loc 10 114 21 discriminator 2
	leaq	-128(%rbx), %rdx
	leaq	-256(%rbx), %rax
	movq	%rdx, %rsi
	movq	%rax, %rdi
.LEHB64:
	call	_ZNSt7__cxx1112basic_stringIcSt11char_traitsIcESaIcEEC1ERKS4_@PLT
.LEHE64:
	.loc 10 114 47 discriminator 1
	leaq	-256(%rbx), %rax
	movl	$2, %edx
	movl	$0, %esi
	movq	%rax, %rdi
.LEHB65:
	call	_ZNSt7__cxx1112basic_stringIcSt11char_traitsIcESaIcEE5eraseEmm@PLT
	.loc 10 114 52 discriminator 1
	movq	%rax, %rsi
	leaq	_ZSt4cout(%rip), %rdi
	call	_ZStlsIcSt11char_traitsIcESaIcEERSt13basic_ostreamIT_T0_ES7_RKNSt7__cxx1112basic_stringIS4_S5_T1_EE@PLT
	.loc 10 114 52 is_stmt 0 discriminator 3
	movl	$58, %esi
	movq	%rax, %rdi
	call	_ZStlsISt11char_traitsIcEERSt13basic_ostreamIcT_ES5_c@PLT
	.loc 10 114 52 discriminator 5
	movq	%rax, %rdx
	.loc 10 114 59 is_stmt 1 discriminator 5
	movq	_ZSt4endlIcSt11char_traitsIcEERSt13basic_ostreamIT_T0_ES6_@GOTPCREL(%rip), %rax
	movq	%rax, %rsi
	movq	%rdx, %rdi
	call	_ZNSolsEPFRSoS_E@PLT
	.loc 10 114 59 is_stmt 0 discriminator 7
	movq	%rax, %r14
	.loc 10 115 38 is_stmt 1 discriminator 7
	leaq	-464(%rbx), %rax
	shrq	$3, %rax
	addq	$2147450880, %rax
	movl	$0, (%rax)
	movl	$0, 4(%rax)
	movl	$0, 8(%rax)
	movl	$0, 12(%rax)
	movw	$0, 16(%rax)
	.loc 10 115 27 discriminator 7
	leaq	-192(%rbx), %rax
	shrq	$3, %rax
	addq	$2147450880, %rax
	movl	$0, (%rax)
	leaq	-128(%rbx), %rax
	leaq	32(%rax), %rdx
	leaq	-192(%rbx), %rax
	movq	%rdx, %rsi
	movq	%rax, %rdi
	call	_ZNSt8functionIFviiR8RelationEEC1ERKS3_
.LEHE65:
	.loc 10 115 27 is_stmt 0 discriminator 1
	leaq	-464(%rbx), %rax
	movq	%rax, %rdx
	shrq	$3, %rdx
	addq	$2147450880, %rdx
	movzbl	(%rdx), %edx
	testb	%dl, %dl
	setne	%cl
	testb	%dl, %dl
	setle	%dl
	andl	%edx, %ecx
	movl	%ecx, %edi
	movl	$144, %edx
	subq	$1, %rdx
	leaq	(%rax,%rdx), %rcx
	movq	%rcx, %rdx
	shrq	$3, %rdx
	addq	$2147450880, %rdx
	movzbl	(%rdx), %edx
	testb	%dl, %dl
	setne	%sil
	andl	$7, %ecx
	cmpb	%dl, %cl
	setge	%dl
	andl	%esi, %edx
	orl	%edi, %edx
	testb	%dl, %dl
	je	.L473
	.loc 10 115 27
	movl	$144, %esi
	movq	%rax, %rdi
	call	__asan_report_store_n@PLT
.L473:
	.loc 10 115 27 discriminator 1
	leaq	-464(%rbx), %rax
	leaq	-192(%rbx), %rdx
	movq	-648(%rbp), %rcx
	movq	%rcx, %rsi
	movq	%rax, %rdi
.LEHB66:
	call	_ZN8Relation6createISt8functionIFviiRS_EEEES_T_
.LEHE66:
	.loc 10 115 36 is_stmt 1 discriminator 3
	leaq	-464(%rbx), %rax
	movq	%rax, %rsi
	movq	%r14, %rdi
.LEHB67:
	call	_ZlsIbERSoS0_RK6MatrixIT_E
	movq	%rax, %rdx
	.loc 10 115 41 discriminator 3
	movq	_ZSt4endlIcSt11char_traitsIcEERSt13basic_ostreamIT_T0_ES6_@GOTPCREL(%rip), %rax
	movq	%rax, %rsi
	movq	%rdx, %rdi
	call	_ZNSolsEPFRSoS_E@PLT
.LEHE67:
	.loc 10 115 27 discriminator 7
	leaq	-464(%rbx), %rax
	movq	%rax, %rdi
	call	_ZN8RelationD1Ev
	leaq	-464(%rbx), %rax
	shrq	$3, %rax
	addq	$2147450880, %rax
	movl	$-117901064, (%rax)
	movl	$-117901064, 4(%rax)
	movl	$-117901064, 8(%rax)
	movl	$-117901064, 12(%rax)
	movw	$-1800, 16(%rax)
	leaq	-192(%rbx), %rax
	movq	%rax, %rdi
	call	_ZNSt8functionIFviiR8RelationEED1Ev
	leaq	-192(%rbx), %rax
	shrq	$3, %rax
	addq	$2147450880, %rax
	movl	$-117901064, (%rax)
	.loc 10 114 21 discriminator 7
	leaq	-256(%rbx), %rax
	movq	%rax, %rdi
	call	_ZNSt7__cxx1112basic_stringIcSt11char_traitsIcESaIcEED1Ev@PLT
	leaq	-256(%rbx), %rax
	shrq	$3, %rax
	addq	$2147450880, %rax
	movl	$-117901064, (%rax)
	.loc 10 113 23 discriminator 7
	leaq	-128(%rbx), %rax
	movq	%rax, %rdi
	call	_ZNSt4pairIKNSt7__cxx1112basic_stringIcSt11char_traitsIcESaIcEEESt8functionIFviiR8RelationEEED1Ev
	leaq	-528(%rbx), %rax
	movq	%rax, %rdi
	call	_ZNSt17_Rb_tree_iteratorISt4pairIKNSt7__cxx1112basic_stringIcSt11char_traitsIcESaIcEEESt8functionIFviiR8RelationEEEEppEv
	.loc 10 113 9 discriminator 7
	jmp	.L474
.L472:
	leaq	-128(%rbx), %rax
	shrq	$3, %rax
	addq	$2147450880, %rax
	movl	$-117901064, (%rax)
	movl	$-117901064, 4(%rax)
	leaq	-528(%rbx), %rax
	shrq	$3, %rax
	addq	$2147450880, %rax
	movb	$-8, (%rax)
	leaq	-496(%rbx), %rax
	shrq	$3, %rax
	addq	$2147450880, %rax
	movb	$-8, (%rax)
.LBE71:
	.loc 10 116 17
	movq	_ZSt4endlIcSt11char_traitsIcEERSt13basic_ostreamIT_T0_ES6_@GOTPCREL(%rip), %rax
	movq	%rax, %rsi
	leaq	_ZSt4cout(%rip), %rdi
.LEHB68:
	call	_ZNSolsEPFRSoS_E@PLT
	.loc 10 117 5
	nop
	.loc 10 109 10
	cmpq	%r13, %r15
	je	.L466
	jmp	.L484
.L483:
	endbr64
	movq	%rax, %r12
.LBB72:
	.loc 10 115 27
	leaq	-464(%rbx), %rax
	movq	%rax, %rdi
	call	_ZN8RelationD1Ev
	movq	%r12, %rdx
	leaq	-464(%rbx), %rax
	shrq	$3, %rax
	addq	$2147450880, %rax
	movl	$-117901064, (%rax)
	movl	$-117901064, 4(%rax)
	movl	$-117901064, 8(%rax)
	movl	$-117901064, 12(%rax)
	movw	$-1800, 16(%rax)
	movq	%rdx, %r12
	jmp	.L476
.L482:
	endbr64
	movq	%rax, %r12
.L476:
	.loc 10 115 27 is_stmt 0 discriminator 2
	leaq	-192(%rbx), %rax
	movq	%rax, %rdi
	call	_ZNSt8functionIFviiR8RelationEED1Ev
	movq	%r12, %rdx
	leaq	-192(%rbx), %rax
	shrq	$3, %rax
	addq	$2147450880, %rax
	movl	$-117901064, (%rax)
	movq	%rdx, %r12
	jmp	.L477
.L481:
	endbr64
	movq	%rax, %r12
.L477:
	.loc 10 114 21 is_stmt 1 discriminator 8
	leaq	-256(%rbx), %rax
	movq	%rax, %rdi
	call	_ZNSt7__cxx1112basic_stringIcSt11char_traitsIcESaIcEED1Ev@PLT
	movq	%r12, %rdx
	leaq	-256(%rbx), %rax
	shrq	$3, %rax
	addq	$2147450880, %rax
	movl	$-117901064, (%rax)
	movq	%rdx, %r12
	jmp	.L478
.L480:
	endbr64
	movq	%rax, %r12
.L478:
	.loc 10 113 23
	leaq	-128(%rbx), %rax
	movq	%rax, %rdi
	call	_ZNSt4pairIKNSt7__cxx1112basic_stringIcSt11char_traitsIcESaIcEEESt8functionIFviiR8RelationEEED1Ev
	movq	%r12, %rbx
	call	__asan_handle_no_return@PLT
	movq	%rbx, %rdi
	call	_Unwind_Resume@PLT
.LEHE68:
.L484:
.LBE72:
	.loc 10 109 10
	movq	$1172321806, 0(%r13)
	movabsq	$-723401728380766731, %rax
	movabsq	$-723401728380766731, %rdx
	movq	%rax, 2147450880(%r12)
	movq	%rdx, 2147450888(%r12)
	movq	%rax, 2147450896(%r12)
	movq	%rdx, 2147450904(%r12)
	movq	%rax, 2147450912(%r12)
	movq	%rdx, 2147450920(%r12)
	movq	%rax, 2147450928(%r12)
	movq	%rdx, 2147450936(%r12)
	movl	$-168430091, 2147450944(%r12)
	movq	1016(%r13), %rax
	movb	$0, (%rax)
	jmp	.L467
.L466:
	movq	$0, 2147450880(%r12)
	movq	$0, 2147450888(%r12)
	movq	$0, 2147450896(%r12)
	movq	$0, 2147450904(%r12)
	movq	$0, 2147450912(%r12)
	movq	$0, 2147450920(%r12)
	movq	$0, 2147450928(%r12)
	movq	$0, 2147450936(%r12)
	movl	$0, 2147450944(%r12)
.L467:
	.loc 10 117 5
	movq	-56(%rbp), %rax
	xorq	%fs:40, %rax
	je	.L479
	call	__stack_chk_fail@PLT
.L479:
	addq	$616, %rsp
	popq	%rbx
	popq	%r12
	popq	%r13
	popq	%r14
	popq	%r15
	popq	%rbp
	.cfi_def_cfa 7, 8
	ret
	.cfi_endproc
.LFE5373:
	.section	.gcc_except_table._ZN8Relation9createAllEv,"aG",@progbits,_ZN8Relation9createAllEv,comdat
.LLSDA5373:
	.byte	0xff
	.byte	0xff
	.byte	0x1
	.uleb128 .LLSDACSE5373-.LLSDACSB5373
.LLSDACSB5373:
	.uleb128 .LEHB63-.LFB5373
	.uleb128 .LEHE63-.LEHB63
	.uleb128 0
	.uleb128 0
	.uleb128 .LEHB64-.LFB5373
	.uleb128 .LEHE64-.LEHB64
	.uleb128 .L480-.LFB5373
	.uleb128 0
	.uleb128 .LEHB65-.LFB5373
	.uleb128 .LEHE65-.LEHB65
	.uleb128 .L481-.LFB5373
	.uleb128 0
	.uleb128 .LEHB66-.LFB5373
	.uleb128 .LEHE66-.LEHB66
	.uleb128 .L482-.LFB5373
	.uleb128 0
	.uleb128 .LEHB67-.LFB5373
	.uleb128 .LEHE67-.LEHB67
	.uleb128 .L483-.LFB5373
	.uleb128 0
	.uleb128 .LEHB68-.LFB5373
	.uleb128 .LEHE68-.LEHB68
	.uleb128 0
	.uleb128 0
.LLSDACSE5373:
	.section	.text._ZN8Relation9createAllEv,"axG",@progbits,_ZN8Relation9createAllEv,comdat
	.size	_ZN8Relation9createAllEv, .-_ZN8Relation9createAllEv
	.section	.rodata
	.align 8
.LC28:
	.string	"7 32 8 9 iter1:124 64 8 9 iter2:125 96 8 9 <unknown> 128 144 7 tmp:123 336 144 9 <unknown> 544 32 9 <unknown> 608 32 9 <unknown>"
	.align 32
.LC29:
	.string	"exists bug in program"
	.zero	42
	.section	.text._ZN8Relation4testEv,"axG",@progbits,_ZN8Relation4testEv,comdat
	.weak	_ZN8Relation4testEv
	.type	_ZN8Relation4testEv, @function
_ZN8Relation4testEv:
.LASANPC5384:
.LFB5384:
	.loc 10 118 17
	.cfi_startproc
	.cfi_personality 0x9b,DW.ref.__gxx_personality_v0
	.cfi_lsda 0x1b,.LLSDA5384
	endbr64
	pushq	%rbp
	.cfi_def_cfa_offset 16
	.cfi_offset 6, -16
	movq	%rsp, %rbp
	.cfi_def_cfa_register 6
	pushq	%r15
	pushq	%r14
	pushq	%r13
	pushq	%r12
	pushq	%rbx
	subq	$728, %rsp
	.cfi_offset 15, -24
	.cfi_offset 14, -32
	.cfi_offset 13, -40
	.cfi_offset 12, -48
	.cfi_offset 3, -56
	leaq	-752(%rbp), %r13
	movq	%r13, %r15
	cmpl	$0, __asan_option_detect_stack_use_after_return(%rip)
	je	.L485
	movl	$672, %edi
	call	__asan_stack_malloc_4@PLT
.LVL31:
	testq	%rax, %rax
	je	.L485
	movq	%rax, %r13
.L485:
	leaq	704(%r13), %rax
	movq	%rax, %rbx
	movq	$1102416563, 0(%r13)
	leaq	.LC28(%rip), %rax
	movq	%rax, 8(%r13)
	leaq	.LASANPC5384(%rip), %rax
	movq	%rax, 16(%r13)
	movq	%r13, %r12
	shrq	$3, %r12
	movl	$-235802127, 2147450880(%r12)
	movl	$-218959360, 2147450884(%r12)
	movl	$-218959360, 2147450888(%r12)
	movl	$-218959360, 2147450892(%r12)
	movl	$-219021312, 2147450912(%r12)
	movl	$-218959118, 2147450916(%r12)
	movl	$62194, 2147450920(%r12)
	movl	$-218959118, 2147450940(%r12)
	movl	$-218959118, 2147450944(%r12)
	movl	$-218959118, 2147450952(%r12)
	movl	$-202116109, 2147450960(%r12)
	.loc 10 118 17
	movq	%fs:40, %rax
	movq	%rax, -56(%rbp)
	xorl	%eax, %eax
.LBB73:
	.loc 10 120 18
	movl	$2, -760(%rbp)
.L499:
	.loc 10 120 27 discriminator 1
	cmpl	$10, -760(%rbp)
	jg	.L509
.LBB74:
.LBB75:
	.loc 10 121 22
	movl	$0, -756(%rbp)
.L498:
	.loc 10 121 31 discriminator 1
	cmpl	$99, -756(%rbp)
	jg	.L490
.LBB76:
	.loc 10 123 26
	leaq	-576(%rbx), %rax
	shrq	$3, %rax
	addq	$2147450880, %rax
	movl	$0, (%rax)
	movl	$0, 4(%rax)
	movl	$0, 8(%rax)
	movl	$0, 12(%rax)
	movw	$0, 16(%rax)
	.loc 10 123 31
	movl	-760(%rbp), %edx
	leaq	-576(%rbx), %rax
	movl	%edx, %esi
	movq	%rax, %rdi
.LEHB69:
	call	_ZN8RelationC1Ei
.LEHE69:
	.loc 10 124 22
	leaq	-672(%rbx), %rax
	shrq	$3, %rax
	addq	$2147450880, %rax
	movb	$0, (%rax)
	.loc 10 124 48
	leaq	-672(%rbx), %rax
	movq	%rax, %rdx
	shrq	$3, %rdx
	addq	$2147450880, %rdx
	movzbl	(%rdx), %edx
	testb	%dl, %dl
	je	.L491
	movq	%rax, %rdi
	call	__asan_report_store8@PLT
.L491:
	leaq	-576(%rbx), %rax
	addq	$96, %rax
	movq	%rax, %rdi
	call	_ZNSt3mapINSt7__cxx1112basic_stringIcSt11char_traitsIcESaIcEEESt8functionIFviiR8RelationEESt4lessIS5_ESaISt4pairIKS5_SA_EEE5beginEv
	movq	%rax, -672(%rbx)
	.loc 10 125 22
	leaq	-640(%rbx), %rax
	shrq	$3, %rax
	addq	$2147450880, %rax
	movb	$0, (%rax)
	.loc 10 125 49
	leaq	-640(%rbx), %rax
	movq	%rax, %rdx
	shrq	$3, %rdx
	addq	$2147450880, %rdx
	movzbl	(%rdx), %edx
	testb	%dl, %dl
	je	.L492
	movq	%rax, %rdi
	call	__asan_report_store8@PLT
.L492:
	leaq	-576(%rbx), %rax
	addq	$48, %rax
	movq	%rax, %rdi
	call	_ZNSt3mapINSt7__cxx1112basic_stringIcSt11char_traitsIcESaIcEEESt8functionIFbiiR8RelationEESt4lessIS5_ESaISt4pairIKS5_SA_EEE5beginEv
	movq	%rax, -640(%rbx)
.L497:
	.loc 10 126 30
	leaq	-608(%rbx), %rax
	shrq	$3, %rax
	addq	$2147450880, %rax
	movb	$0, (%rax)
	.loc 10 126 49
	leaq	-608(%rbx), %rax
	movq	%rax, %rdx
	shrq	$3, %rdx
	addq	$2147450880, %rdx
	movzbl	(%rdx), %edx
	testb	%dl, %dl
	je	.L493
	movq	%rax, %rdi
	call	__asan_report_store8@PLT
.L493:
	leaq	-576(%rbx), %rax
	addq	$96, %rax
	movq	%rax, %rdi
	call	_ZNSt3mapINSt7__cxx1112basic_stringIcSt11char_traitsIcESaIcEEESt8functionIFviiR8RelationEESt4lessIS5_ESaISt4pairIKS5_SA_EEE3endEv
	movq	%rax, -608(%rbx)
	.loc 10 126 30
	leaq	-608(%rbx), %rdx
	leaq	-672(%rbx), %rax
	movq	%rdx, %rsi
	movq	%rax, %rdi
	call	_ZStneRKSt17_Rb_tree_iteratorISt4pairIKNSt7__cxx1112basic_stringIcSt11char_traitsIcESaIcEEESt8functionIFviiR8RelationEEEESG_
	.loc 10 126 48
	leaq	-608(%rbx), %rdx
	shrq	$3, %rdx
	addq	$2147450880, %rdx
	movb	$-8, (%rdx)
	.loc 10 126 30
	testb	%al, %al
	je	.L494
	.loc 10 128 72
	leaq	-368(%rbx), %rax
	shrq	$3, %rax
	addq	$2147450880, %rax
	movl	$0, (%rax)
	movl	$0, 4(%rax)
	movl	$0, 8(%rax)
	movl	$0, 12(%rax)
	movw	$0, 16(%rax)
	.loc 10 128 35
	leaq	-160(%rbx), %rax
	shrq	$3, %rax
	addq	$2147450880, %rax
	movl	$0, (%rax)
	.loc 10 128 41
	leaq	-672(%rbx), %rax
	movq	%rax, %rdi
	call	_ZNKSt17_Rb_tree_iteratorISt4pairIKNSt7__cxx1112basic_stringIcSt11char_traitsIcESaIcEEESt8functionIFviiR8RelationEEEEptEv
	.loc 10 128 43
	leaq	32(%rax), %rdx
	.loc 10 128 35
	leaq	-160(%rbx), %rax
	movq	%rdx, %rsi
	movq	%rax, %rdi
.LEHB70:
	call	_ZNSt8functionIFviiR8RelationEEC1ERKS3_
.LEHE70:
	.loc 10 128 35 is_stmt 0 discriminator 1
	leaq	-368(%rbx), %rax
	movq	%rax, %rdx
	shrq	$3, %rdx
	addq	$2147450880, %rdx
	movzbl	(%rdx), %edx
	testb	%dl, %dl
	setne	%cl
	testb	%dl, %dl
	setle	%dl
	andl	%edx, %ecx
	movl	%ecx, %edi
	movl	$144, %edx
	subq	$1, %rdx
	leaq	(%rax,%rdx), %rcx
	movq	%rcx, %rdx
	shrq	$3, %rdx
	addq	$2147450880, %rdx
	movzbl	(%rdx), %edx
	testb	%dl, %dl
	setne	%sil
	andl	$7, %ecx
	cmpb	%dl, %cl
	setge	%dl
	andl	%esi, %edx
	orl	%edi, %edx
	testb	%dl, %dl
	je	.L495
	.loc 10 128 35
	movl	$144, %esi
	movq	%rax, %rdi
	call	__asan_report_store_n@PLT
.L495:
	.loc 10 128 35 discriminator 1
	leaq	-368(%rbx), %rax
	leaq	-160(%rbx), %rdx
	leaq	-576(%rbx), %rcx
	movq	%rcx, %rsi
	movq	%rax, %rdi
.LEHB71:
	call	_ZN8Relation6createISt8functionIFviiRS_EEEES_T_
.LEHE71:
	.loc 10 128 72 is_stmt 1 discriminator 3
	leaq	-96(%rbx), %rax
	shrq	$3, %rax
	addq	$2147450880, %rax
	movl	$0, (%rax)
	.loc 10 128 62 discriminator 3
	leaq	-640(%rbx), %rax
	movq	%rax, %rdi
	call	_ZNKSt17_Rb_tree_iteratorISt4pairIKNSt7__cxx1112basic_stringIcSt11char_traitsIcESaIcEEESt8functionIFbiiR8RelationEEEEptEv
	.loc 10 128 64 discriminator 3
	leaq	32(%rax), %rdx
	.loc 10 128 56 discriminator 3
	leaq	-96(%rbx), %rax
	movq	%rdx, %rsi
	movq	%rax, %rdi
.LEHB72:
	call	_ZNSt8functionIFbiiR8RelationEEC1ERKS3_
.LEHE72:
	.loc 10 128 56 is_stmt 0 discriminator 5
	leaq	-96(%rbx), %rdx
	leaq	-368(%rbx), %rax
	movq	%rdx, %rsi
	movq	%rax, %rdi
.LEHB73:
	call	_ZN8Relation5judgeISt8functionIFbiiRS_EEEEbT_
.LEHE73:
	movzbl	%al, %eax
	.loc 10 128 72 is_stmt 1 discriminator 5
	testl	%eax, %eax
	sete	%r14b
	.loc 10 128 56 discriminator 5
	leaq	-96(%rbx), %rax
	movq	%rax, %rdi
	call	_ZNSt8functionIFbiiR8RelationEED1Ev
	leaq	-96(%rbx), %rax
	shrq	$3, %rax
	addq	$2147450880, %rax
	movl	$-117901064, (%rax)
	.loc 10 128 35 discriminator 5
	leaq	-368(%rbx), %rax
	movq	%rax, %rdi
	call	_ZN8RelationD1Ev
	leaq	-368(%rbx), %rax
	shrq	$3, %rax
	addq	$2147450880, %rax
	movl	$-117901064, (%rax)
	movl	$-117901064, 4(%rax)
	movl	$-117901064, 8(%rax)
	movl	$-117901064, 12(%rax)
	movw	$-1800, 16(%rax)
	leaq	-160(%rbx), %rax
	movq	%rax, %rdi
	call	_ZNSt8functionIFviiR8RelationEED1Ev
	leaq	-160(%rbx), %rax
	shrq	$3, %rax
	addq	$2147450880, %rax
	movl	$-117901064, (%rax)
	.loc 10 128 21 discriminator 5
	testb	%r14b, %r14b
	je	.L496
	.loc 10 130 33
	leaq	.LC29(%rip), %rsi
	leaq	_ZSt4cout(%rip), %rdi
.LEHB74:
	call	_ZStlsISt11char_traitsIcEERSt13basic_ostreamIcT_ES5_PKc@PLT
	movq	%rax, %rdx
	.loc 10 130 60
	movq	_ZSt4endlIcSt11char_traitsIcEERSt13basic_ostreamIT_T0_ES6_@GOTPCREL(%rip), %rax
	movq	%rax, %rsi
	movq	%rdx, %rdi
	call	_ZNSolsEPFRSoS_E@PLT
.LEHE74:
	.loc 10 131 29
	call	__asan_handle_no_return@PLT
	movl	$1, %edi
	call	exit@PLT
.L496:
	.loc 10 133 26
	leaq	-672(%rbx), %rax
	movl	$0, %esi
	movq	%rax, %rdi
	call	_ZNSt17_Rb_tree_iteratorISt4pairIKNSt7__cxx1112basic_stringIcSt11char_traitsIcESaIcEEESt8functionIFviiR8RelationEEEEppEi
	.loc 10 134 26
	leaq	-640(%rbx), %rax
	movl	$0, %esi
	movq	%rax, %rdi
	call	_ZNSt17_Rb_tree_iteratorISt4pairIKNSt7__cxx1112basic_stringIcSt11char_traitsIcESaIcEEESt8functionIFbiiR8RelationEEEEppEi
	.loc 10 126 17
	jmp	.L497
.L494:
	.loc 10 123 31 discriminator 2
	leaq	-576(%rbx), %rax
	movq	%rax, %rdi
	call	_ZN8RelationD1Ev
	leaq	-576(%rbx), %rax
	shrq	$3, %rax
	addq	$2147450880, %rax
	movl	$-117901064, (%rax)
	movl	$-117901064, 4(%rax)
	movl	$-117901064, 8(%rax)
	movl	$-117901064, 12(%rax)
	movw	$-1800, 16(%rax)
	leaq	-672(%rbx), %rax
	shrq	$3, %rax
	addq	$2147450880, %rax
	movb	$-8, (%rax)
	leaq	-640(%rbx), %rax
	shrq	$3, %rax
	addq	$2147450880, %rax
	movb	$-8, (%rax)
.LBE76:
	.loc 10 121 13 discriminator 2
	addl	$1, -756(%rbp)
	jmp	.L498
.L490:
.LBE75:
.LBE74:
	.loc 10 120 9 discriminator 2
	addl	$1, -760(%rbp)
	jmp	.L499
.L508:
	endbr64
	movq	%rax, %r12
.LBB79:
.LBB78:
.LBB77:
	.loc 10 128 56
	leaq	-96(%rbx), %rax
	movq	%rax, %rdi
	call	_ZNSt8functionIFbiiR8RelationEED1Ev
	movq	%r12, %rdx
	leaq	-96(%rbx), %rax
	shrq	$3, %rax
	addq	$2147450880, %rax
	movl	$-117901064, (%rax)
	movq	%rdx, %r12
	jmp	.L501
.L507:
	endbr64
	movq	%rax, %r12
.L501:
	.loc 10 128 35 discriminator 4
	leaq	-368(%rbx), %rax
	movq	%rax, %rdi
	call	_ZN8RelationD1Ev
	movq	%r12, %rdx
	leaq	-368(%rbx), %rax
	shrq	$3, %rax
	addq	$2147450880, %rax
	movl	$-117901064, (%rax)
	movl	$-117901064, 4(%rax)
	movl	$-117901064, 8(%rax)
	movl	$-117901064, 12(%rax)
	movw	$-1800, 16(%rax)
	movq	%rdx, %r12
	jmp	.L502
.L506:
	endbr64
	movq	%rax, %r12
.L502:
	.loc 10 128 35 is_stmt 0 discriminator 2
	leaq	-160(%rbx), %rax
	movq	%rax, %rdi
	call	_ZNSt8functionIFviiR8RelationEED1Ev
	movq	%r12, %rdx
	leaq	-160(%rbx), %rax
	shrq	$3, %rax
	addq	$2147450880, %rax
	movl	$-117901064, (%rax)
	movq	%rdx, %r12
	jmp	.L503
.L505:
	endbr64
	movq	%rax, %r12
.L503:
	.loc 10 123 31 is_stmt 1
	leaq	-576(%rbx), %rax
	movq	%rax, %rdi
	call	_ZN8RelationD1Ev
	movq	%r12, %rbx
	call	__asan_handle_no_return@PLT
	movq	%rbx, %rdi
.LEHB75:
	call	_Unwind_Resume@PLT
.LEHE75:
.L509:
.LBE77:
.LBE78:
.LBE79:
.LBE73:
	.loc 10 137 5
	nop
	.loc 10 118 17
	cmpq	%r13, %r15
	je	.L486
	movq	$1172321806, 0(%r13)
	movabsq	$-723401728380766731, %rax
	movabsq	$-723401728380766731, %rdx
	movq	%rax, 2147450880(%r12)
	movq	%rdx, 2147450888(%r12)
	movq	%rax, 2147450896(%r12)
	movq	%rdx, 2147450904(%r12)
	movq	%rax, 2147450912(%r12)
	movq	%rdx, 2147450920(%r12)
	movq	%rax, 2147450928(%r12)
	movq	%rdx, 2147450936(%r12)
	movq	%rax, 2147450944(%r12)
	movq	%rdx, 2147450952(%r12)
	movl	$-168430091, 2147450960(%r12)
	movq	1016(%r13), %rax
	movb	$0, (%rax)
	jmp	.L487
.L486:
	leaq	2147450880(%r12), %rax
	movl	$84, %ecx
	movl	$0, %esi
	movq	%rsi, (%rax)
	movl	%ecx, %edx
	addq	%rax, %rdx
	addq	$8, %rdx
	movq	%rsi, -16(%rdx)
	leaq	8(%rax), %rdx
	andq	$-8, %rdx
	subq	%rdx, %rax
	addl	%eax, %ecx
	andl	$-8, %ecx
	movl	%ecx, %eax
	shrl	$3, %eax
	movl	%eax, %ecx
	movq	%rdx, %rdi
	movq	%rsi, %rax
	rep stosq
.L487:
	.loc 10 137 5
	movq	-56(%rbp), %rax
	xorq	%fs:40, %rax
	je	.L504
	call	__stack_chk_fail@PLT
.L504:
	addq	$728, %rsp
	popq	%rbx
	popq	%r12
	popq	%r13
	popq	%r14
	popq	%r15
	popq	%rbp
	.cfi_def_cfa 7, 8
	ret
	.cfi_endproc
.LFE5384:
	.section	.gcc_except_table._ZN8Relation4testEv,"aG",@progbits,_ZN8Relation4testEv,comdat
.LLSDA5384:
	.byte	0xff
	.byte	0xff
	.byte	0x1
	.uleb128 .LLSDACSE5384-.LLSDACSB5384
.LLSDACSB5384:
	.uleb128 .LEHB69-.LFB5384
	.uleb128 .LEHE69-.LEHB69
	.uleb128 0
	.uleb128 0
	.uleb128 .LEHB70-.LFB5384
	.uleb128 .LEHE70-.LEHB70
	.uleb128 .L505-.LFB5384
	.uleb128 0
	.uleb128 .LEHB71-.LFB5384
	.uleb128 .LEHE71-.LEHB71
	.uleb128 .L506-.LFB5384
	.uleb128 0
	.uleb128 .LEHB72-.LFB5384
	.uleb128 .LEHE72-.LEHB72
	.uleb128 .L507-.LFB5384
	.uleb128 0
	.uleb128 .LEHB73-.LFB5384
	.uleb128 .LEHE73-.LEHB73
	.uleb128 .L508-.LFB5384
	.uleb128 0
	.uleb128 .LEHB74-.LFB5384
	.uleb128 .LEHE74-.LEHB74
	.uleb128 .L505-.LFB5384
	.uleb128 0
	.uleb128 .LEHB75-.LFB5384
	.uleb128 .LEHE75-.LEHB75
	.uleb128 0
	.uleb128 0
.LLSDACSE5384:
	.section	.text._ZN8Relation4testEv,"axG",@progbits,_ZN8Relation4testEv,comdat
	.size	_ZN8Relation4testEv, .-_ZN8Relation4testEv
	.section	.rodata
	.align 8
.LC30:
	.ascii	"18 48 1 9 <unknown> 64 1 9 <unknown> 80 1 9 <unknown> 96 1 9"
	.ascii	" <unknown> 112 1 9"
	.string	" <unknown> 128 1 9 <unknown> 144 1 9 <unknown> 160 24 9 <unknown> 224 144 9 <unknown> 432 144 9 <unknown> 640 144 9 <unknown> 848 5 9 <unknown> 880 5 9 <unknown> 912 5 9 <unknown> 944 5 9 <unknown> 976 5 9 <unknown> 1008 32 9 <unknown> 1072 200 9 <unknown>"
	.align 32
.LC31:
	.string	"(0,2)(2.0)(1,4)(4,1)(3,2)(2,3)(1,1)(3,3)(4,4)(2,2)"
	.zero	45
	.text
	.globl	main
	.type	main, @function
main:
.LASANPC5385:
.LFB5385:
	.loc 10 141 1
	.cfi_startproc
	.cfi_personality 0x9b,DW.ref.__gxx_personality_v0
	.cfi_lsda 0x1b,.LLSDA5385
	endbr64
	pushq	%rbp
	.cfi_def_cfa_offset 16
	.cfi_offset 6, -16
	movq	%rsp, %rbp
	.cfi_def_cfa_register 6
	pushq	%r15
	pushq	%r14
	pushq	%r13
	pushq	%r12
	pushq	%rbx
	subq	$1480, %rsp
	.cfi_offset 15, -24
	.cfi_offset 14, -32
	.cfi_offset 13, -40
	.cfi_offset 12, -48
	.cfi_offset 3, -56
	leaq	-1424(%rbp), %r14
	movq	%r14, %r15
	cmpl	$0, __asan_option_detect_stack_use_after_return(%rip)
	je	.L510
	movl	$1344, %edi
	call	__asan_stack_malloc_5@PLT
.LVL32:
	testq	%rax, %rax
	je	.L510
	movq	%rax, %r14
.L510:
	leaq	1376(%r14), %rax
	movq	%rax, %r13
	movq	$1102416563, (%r14)
	leaq	.LC30(%rip), %rax
	movq	%rax, 8(%r14)
	leaq	.LASANPC5385(%rip), %rax
	movq	%rax, 16(%r14)
	movq	%r14, %r12
	shrq	$3, %r12
	movl	$-235802127, 2147450880(%r12)
	movl	$-234753551, 2147450884(%r12)
	movl	$-234753535, 2147450888(%r12)
	movl	$-234753535, 2147450892(%r12)
	movl	$-234753535, 2147450896(%r12)
	movl	$-234881024, 2147450900(%r12)
	movl	$-218959118, 2147450904(%r12)
	movl	$-219021312, 2147450924(%r12)
	movl	$-218959118, 2147450928(%r12)
	movl	$62194, 2147450932(%r12)
	movl	$-218959118, 2147450952(%r12)
	movl	$-218959118, 2147450956(%r12)
	movl	$-219021312, 2147450976(%r12)
	movl	$-218959118, 2147450980(%r12)
	movl	$-234491150, 2147450984(%r12)
	movl	$-234491150, 2147450988(%r12)
	movl	$-234491150, 2147450992(%r12)
	movl	$-234491150, 2147450996(%r12)
	movl	$-234491150, 2147451000(%r12)
	movl	$62194, 2147451004(%r12)
	movl	$-219021312, 2147451008(%r12)
	movl	$62194, 2147451012(%r12)
	movl	$-218103808, 2147451036(%r12)
	movl	$-202116109, 2147451040(%r12)
	movl	$-202116109, 2147451044(%r12)
	.loc 10 141 1
	movq	%fs:40, %rax
	movq	%rax, -56(%rbp)
	xorl	%eax, %eax
.LEHB76:
	.loc 10 142 19
	call	_ZN8Relation4testEv
.LEHE76:
	.loc 10 143 5
	leaq	-1328(%r13), %rax
	movq	%rax, %rdi
	call	_ZNSaIcEC1Ev@PLT
	leaq	-1328(%r13), %rax
	leaq	-368(%r13), %rcx
	movq	%rax, %rdx
	leaq	.LC31(%rip), %rsi
	movq	%rcx, %rdi
.LEHB77:
	call	_ZNSt7__cxx1112basic_stringIcSt11char_traitsIcESaIcEEC1IS3_EEPKcRKS3_
.LEHE77:
	.loc 10 143 5 is_stmt 0 discriminator 2
	leaq	-368(%r13), %rcx
	leaq	-1152(%r13), %rax
	movl	$5, %edx
	movq	%rcx, %rsi
	movq	%rax, %rdi
.LEHB78:
	call	_ZN8RelationC1ENSt7__cxx1112basic_stringIcSt11char_traitsIcESaIcEEEi
.LEHE78:
	.loc 10 143 79 is_stmt 1 discriminator 4
	leaq	-1152(%r13), %rax
	movq	%rax, %rdi
.LEHB79:
	call	_ZN8Relation8judgeAllEv
.LEHE79:
	.loc 10 143 5 discriminator 6
	leaq	-1152(%r13), %rax
	movq	%rax, %rdi
	call	_ZN8RelationD1Ev
	leaq	-1152(%r13), %rax
	shrq	$3, %rax
	addq	$2147450880, %rax
	movl	$-117901064, (%rax)
	movl	$-117901064, 4(%rax)
	movl	$-117901064, 8(%rax)
	movl	$-117901064, 12(%rax)
	movw	$-1800, 16(%rax)
	leaq	-368(%r13), %rax
	movq	%rax, %rdi
	call	_ZNSt7__cxx1112basic_stringIcSt11char_traitsIcESaIcEED1Ev@PLT
	leaq	-368(%r13), %rax
	shrq	$3, %rax
	addq	$2147450880, %rax
	movl	$-117901064, (%rax)
	leaq	-1328(%r13), %rax
	movq	%rax, %rdi
	call	_ZNSaIcED1Ev@PLT
	leaq	-1328(%r13), %rax
	shrq	$3, %rax
	addq	$2147450880, %rax
	movb	$-8, (%rax)
	.loc 10 149 18 discriminator 6
	leaq	-944(%r13), %rax
	shrq	$3, %rax
	addq	$2147450880, %rax
	movl	$0, (%rax)
	movl	$0, 4(%rax)
	movl	$0, 8(%rax)
	movl	$0, 12(%rax)
	movw	$0, 16(%rax)
	.loc 10 144 5 discriminator 6
	leaq	-1216(%r13), %rax
	shrq	$3, %rax
	addq	$2147450880, %rax
	movw	$0, (%rax)
	movb	$0, 2(%rax)
	leaq	-304(%r13), %rax
	shrq	$3, %rax
	addq	$2147450880, %rax
	movl	$0, (%rax)
	movl	$0, 4(%rax)
	movl	$0, 8(%rax)
	movl	$0, 12(%rax)
	movl	$0, 16(%rax)
	movl	$0, 20(%rax)
	movb	$0, 24(%rax)
	leaq	-528(%r13), %rax
	shrq	$3, %rax
	addq	$2147450880, %rax
	movb	$5, (%rax)
	leaq	-528(%r13), %rax
	movq	%rax, %rcx
	movq	%rcx, %rax
	shrq	$3, %rax
	addq	$2147450880, %rax
	movzbl	(%rax), %eax
	testb	%al, %al
	setne	%dl
	testb	%al, %al
	setle	%al
	andl	%edx, %eax
	testb	%al, %al
	je	.L514
	.loc 10 144 5 is_stmt 0
	movq	%rcx, %rdi
	call	__asan_report_store1@PLT
.L514:
	.loc 10 144 5 discriminator 6
	movb	$0, -528(%r13)
	leaq	-528(%r13), %rax
	addq	$1, %rax
	movq	%rax, %rcx
	movq	%rcx, %rax
	shrq	$3, %rax
	addq	$2147450880, %rax
	movzbl	(%rax), %edx
	testb	%dl, %dl
	setne	%sil
	movq	%rcx, %rax
	andl	$7, %eax
	cmpb	%dl, %al
	setge	%al
	andl	%esi, %eax
	testb	%al, %al
	je	.L515
	.loc 10 144 5
	movq	%rcx, %rdi
	call	__asan_report_store1@PLT
.L515:
	.loc 10 144 5 discriminator 6
	movb	$0, -527(%r13)
	leaq	-528(%r13), %rax
	addq	$2, %rax
	movq	%rax, %rcx
	movq	%rcx, %rax
	shrq	$3, %rax
	addq	$2147450880, %rax
	movzbl	(%rax), %edx
	testb	%dl, %dl
	setne	%sil
	movq	%rcx, %rax
	andl	$7, %eax
	cmpb	%dl, %al
	setge	%al
	andl	%esi, %eax
	testb	%al, %al
	je	.L516
	.loc 10 144 5
	movq	%rcx, %rdi
	call	__asan_report_store1@PLT
.L516:
	.loc 10 144 5 discriminator 6
	movb	$0, -526(%r13)
	leaq	-528(%r13), %rax
	addq	$3, %rax
	movq	%rax, %rcx
	movq	%rcx, %rax
	shrq	$3, %rax
	addq	$2147450880, %rax
	movzbl	(%rax), %edx
	testb	%dl, %dl
	setne	%sil
	movq	%rcx, %rax
	andl	$7, %eax
	cmpb	%dl, %al
	setge	%al
	andl	%esi, %eax
	testb	%al, %al
	je	.L517
	.loc 10 144 5
	movq	%rcx, %rdi
	call	__asan_report_store1@PLT
.L517:
	.loc 10 144 5 discriminator 6
	movb	$0, -525(%r13)
	leaq	-528(%r13), %rax
	addq	$4, %rax
	movq	%rax, %rcx
	movq	%rcx, %rax
	shrq	$3, %rax
	addq	$2147450880, %rax
	movzbl	(%rax), %edx
	testb	%dl, %dl
	setne	%sil
	movq	%rcx, %rax
	andl	$7, %eax
	cmpb	%dl, %al
	setge	%al
	andl	%esi, %eax
	testb	%al, %al
	je	.L518
	.loc 10 144 5
	movq	%rcx, %rdi
	call	__asan_report_store1@PLT
.L518:
	.loc 10 144 5 discriminator 6
	movb	$0, -524(%r13)
	leaq	-528(%r13), %rax
	movq	%rax, -1504(%rbp)
	movq	$5, -1496(%rbp)
	leaq	-1312(%r13), %rax
	shrq	$3, %rax
	addq	$2147450880, %rax
	movb	$1, (%rax)
	leaq	-1312(%r13), %rax
	movq	%rax, %rdi
	call	_ZNSaIbEC1Ev
	leaq	-1312(%r13), %rsi
	movq	-1504(%rbp), %rax
	movq	-1496(%rbp), %rdx
	movq	%rax, %rcx
	movq	%rdx, %rbx
	movq	%rcx, %rdi
	leaq	-304(%r13), %rax
	movq	%rsi, %rcx
	movq	%rdi, %rsi
	movq	%rax, %rdi
.LEHB80:
	call	_ZNSt6vectorIbSaIbEEC1ESt16initializer_listIbERKS0_
.LEHE80:
	.loc 10 144 5 discriminator 2
	leaq	-496(%r13), %rax
	shrq	$3, %rax
	addq	$2147450880, %rax
	movb	$5, (%rax)
	leaq	-496(%r13), %rax
	movq	%rax, %rcx
	movq	%rcx, %rax
	shrq	$3, %rax
	addq	$2147450880, %rax
	movzbl	(%rax), %eax
	testb	%al, %al
	setne	%dl
	testb	%al, %al
	setle	%al
	andl	%edx, %eax
	testb	%al, %al
	je	.L519
	.loc 10 144 5
	movq	%rcx, %rdi
	call	__asan_report_store1@PLT
.L519:
	.loc 10 144 5 discriminator 2
	movb	$0, -496(%r13)
	leaq	-496(%r13), %rax
	addq	$1, %rax
	movq	%rax, %rcx
	movq	%rcx, %rax
	shrq	$3, %rax
	addq	$2147450880, %rax
	movzbl	(%rax), %edx
	testb	%dl, %dl
	setne	%sil
	movq	%rcx, %rax
	andl	$7, %eax
	cmpb	%dl, %al
	setge	%al
	andl	%esi, %eax
	testb	%al, %al
	je	.L520
	.loc 10 144 5
	movq	%rcx, %rdi
	call	__asan_report_store1@PLT
.L520:
	.loc 10 144 5 discriminator 2
	movb	$1, -495(%r13)
	leaq	-496(%r13), %rax
	addq	$2, %rax
	movq	%rax, %rcx
	movq	%rcx, %rax
	shrq	$3, %rax
	addq	$2147450880, %rax
	movzbl	(%rax), %edx
	testb	%dl, %dl
	setne	%sil
	movq	%rcx, %rax
	andl	$7, %eax
	cmpb	%dl, %al
	setge	%al
	andl	%esi, %eax
	testb	%al, %al
	je	.L521
	.loc 10 144 5
	movq	%rcx, %rdi
	call	__asan_report_store1@PLT
.L521:
	.loc 10 144 5 discriminator 2
	movb	$0, -494(%r13)
	leaq	-496(%r13), %rax
	addq	$3, %rax
	movq	%rax, %rcx
	movq	%rcx, %rax
	shrq	$3, %rax
	addq	$2147450880, %rax
	movzbl	(%rax), %edx
	testb	%dl, %dl
	setne	%sil
	movq	%rcx, %rax
	andl	$7, %eax
	cmpb	%dl, %al
	setge	%al
	andl	%esi, %eax
	testb	%al, %al
	je	.L522
	.loc 10 144 5
	movq	%rcx, %rdi
	call	__asan_report_store1@PLT
.L522:
	.loc 10 144 5 discriminator 2
	movb	$0, -493(%r13)
	leaq	-496(%r13), %rax
	addq	$4, %rax
	movq	%rax, %rcx
	movq	%rcx, %rax
	shrq	$3, %rax
	addq	$2147450880, %rax
	movzbl	(%rax), %edx
	testb	%dl, %dl
	setne	%sil
	movq	%rcx, %rax
	andl	$7, %eax
	cmpb	%dl, %al
	setge	%al
	andl	%esi, %eax
	testb	%al, %al
	je	.L523
	.loc 10 144 5
	movq	%rcx, %rdi
	call	__asan_report_store1@PLT
.L523:
	.loc 10 144 5 discriminator 2
	movb	$0, -492(%r13)
	leaq	-496(%r13), %rax
	movq	%rax, -1488(%rbp)
	movq	$5, -1480(%rbp)
	leaq	-1296(%r13), %rax
	shrq	$3, %rax
	addq	$2147450880, %rax
	movb	$1, (%rax)
	leaq	-1296(%r13), %rax
	movq	%rax, %rdi
	call	_ZNSaIbEC1Ev
	leaq	-1296(%r13), %rsi
	movq	-1488(%rbp), %rax
	movq	-1480(%rbp), %rdx
	movq	%rax, %rcx
	movq	%rdx, %rbx
	movq	%rcx, %rdi
	leaq	-304(%r13), %rax
	addq	$40, %rax
	movq	%rsi, %rcx
	movq	%rdi, %rsi
	movq	%rax, %rdi
.LEHB81:
	call	_ZNSt6vectorIbSaIbEEC1ESt16initializer_listIbERKS0_
.LEHE81:
	.loc 10 144 5 discriminator 4
	leaq	-464(%r13), %rax
	shrq	$3, %rax
	addq	$2147450880, %rax
	movb	$5, (%rax)
	leaq	-464(%r13), %rax
	movq	%rax, %rdx
	movq	%rdx, %rax
	shrq	$3, %rax
	addq	$2147450880, %rax
	movzbl	(%rax), %eax
	testb	%al, %al
	setne	%cl
	testb	%al, %al
	setle	%al
	andl	%ecx, %eax
	testb	%al, %al
	je	.L524
	.loc 10 144 5
	movq	%rdx, %rdi
	call	__asan_report_store1@PLT
.L524:
	.loc 10 144 5 discriminator 4
	movb	$1, -464(%r13)
	leaq	-464(%r13), %rax
	addq	$1, %rax
	movq	%rax, %rdx
	movq	%rdx, %rax
	shrq	$3, %rax
	addq	$2147450880, %rax
	movzbl	(%rax), %ecx
	testb	%cl, %cl
	setne	%sil
	movq	%rdx, %rax
	andl	$7, %eax
	cmpb	%cl, %al
	setge	%al
	andl	%esi, %eax
	testb	%al, %al
	je	.L525
	.loc 10 144 5
	movq	%rdx, %rdi
	call	__asan_report_store1@PLT
.L525:
	.loc 10 144 5 discriminator 4
	movb	$1, -463(%r13)
	leaq	-464(%r13), %rax
	addq	$2, %rax
	movq	%rax, %rdx
	movq	%rdx, %rax
	shrq	$3, %rax
	addq	$2147450880, %rax
	movzbl	(%rax), %ecx
	testb	%cl, %cl
	setne	%sil
	movq	%rdx, %rax
	andl	$7, %eax
	cmpb	%cl, %al
	setge	%al
	andl	%esi, %eax
	testb	%al, %al
	je	.L526
	.loc 10 144 5
	movq	%rdx, %rdi
	call	__asan_report_store1@PLT
.L526:
	.loc 10 144 5 discriminator 4
	movb	$1, -462(%r13)
	leaq	-464(%r13), %rax
	addq	$3, %rax
	movq	%rax, %rdx
	movq	%rdx, %rax
	shrq	$3, %rax
	addq	$2147450880, %rax
	movzbl	(%rax), %ecx
	testb	%cl, %cl
	setne	%sil
	movq	%rdx, %rax
	andl	$7, %eax
	cmpb	%cl, %al
	setge	%al
	andl	%esi, %eax
	testb	%al, %al
	je	.L527
	.loc 10 144 5
	movq	%rdx, %rdi
	call	__asan_report_store1@PLT
.L527:
	.loc 10 144 5 discriminator 4
	movb	$1, -461(%r13)
	leaq	-464(%r13), %rax
	addq	$4, %rax
	movq	%rax, %rdx
	movq	%rdx, %rax
	shrq	$3, %rax
	addq	$2147450880, %rax
	movzbl	(%rax), %ecx
	testb	%cl, %cl
	setne	%sil
	movq	%rdx, %rax
	andl	$7, %eax
	cmpb	%cl, %al
	setge	%al
	andl	%esi, %eax
	testb	%al, %al
	je	.L528
	.loc 10 144 5
	movq	%rdx, %rdi
	call	__asan_report_store1@PLT
.L528:
	.loc 10 144 5 discriminator 4
	movb	$0, -460(%r13)
	leaq	-464(%r13), %rax
	movq	%rax, -1472(%rbp)
	movq	$5, -1464(%rbp)
	leaq	-1280(%r13), %rax
	shrq	$3, %rax
	addq	$2147450880, %rax
	movb	$1, (%rax)
	leaq	-1280(%r13), %rax
	movq	%rax, %rdi
	call	_ZNSaIbEC1Ev
	leaq	-1280(%r13), %rax
	movq	-1472(%rbp), %rcx
	movq	-1464(%rbp), %rbx
	movq	%rcx, %rsi
	movq	%rbx, %rdi
	movq	%rbx, %r8
	leaq	-304(%r13), %rdx
	leaq	80(%rdx), %rdi
	movq	%rax, %rcx
	movq	%r8, %rdx
.LEHB82:
	call	_ZNSt6vectorIbSaIbEEC1ESt16initializer_listIbERKS0_
.LEHE82:
	.loc 10 144 5 discriminator 6
	leaq	-432(%r13), %rax
	shrq	$3, %rax
	addq	$2147450880, %rax
	movb	$5, (%rax)
	leaq	-432(%r13), %rax
	movq	%rax, %rdx
	movq	%rdx, %rax
	shrq	$3, %rax
	addq	$2147450880, %rax
	movzbl	(%rax), %eax
	testb	%al, %al
	setne	%cl
	testb	%al, %al
	setle	%al
	andl	%ecx, %eax
	testb	%al, %al
	je	.L529
	.loc 10 144 5
	movq	%rdx, %rdi
	call	__asan_report_store1@PLT
.L529:
	.loc 10 144 5 discriminator 6
	movb	$1, -432(%r13)
	leaq	-432(%r13), %rax
	addq	$1, %rax
	movq	%rax, %rdx
	shrq	$3, %rdx
	addq	$2147450880, %rdx
	movzbl	(%rdx), %edx
	testb	%dl, %dl
	setne	%cl
	movq	%rax, %rsi
	andl	$7, %esi
	cmpb	%dl, %sil
	setge	%dl
	andl	%ecx, %edx
	testb	%dl, %dl
	je	.L530
	.loc 10 144 5
	movq	%rax, %rdi
	call	__asan_report_store1@PLT
.L530:
	.loc 10 144 5 discriminator 6
	movb	$1, -431(%r13)
	leaq	-432(%r13), %rax
	addq	$2, %rax
	movq	%rax, %rdx
	shrq	$3, %rdx
	addq	$2147450880, %rdx
	movzbl	(%rdx), %edx
	testb	%dl, %dl
	setne	%cl
	movq	%rax, %rsi
	andl	$7, %esi
	cmpb	%dl, %sil
	setge	%dl
	andl	%ecx, %edx
	testb	%dl, %dl
	je	.L531
	.loc 10 144 5
	movq	%rax, %rdi
	call	__asan_report_store1@PLT
.L531:
	.loc 10 144 5 discriminator 6
	movb	$0, -430(%r13)
	leaq	-432(%r13), %rax
	addq	$3, %rax
	movq	%rax, %rdx
	shrq	$3, %rdx
	addq	$2147450880, %rdx
	movzbl	(%rdx), %edx
	testb	%dl, %dl
	setne	%cl
	movq	%rax, %rsi
	andl	$7, %esi
	cmpb	%dl, %sil
	setge	%dl
	andl	%ecx, %edx
	testb	%dl, %dl
	je	.L532
	.loc 10 144 5
	movq	%rax, %rdi
	call	__asan_report_store1@PLT
.L532:
	.loc 10 144 5 discriminator 6
	movb	$1, -429(%r13)
	leaq	-432(%r13), %rax
	addq	$4, %rax
	movq	%rax, %rdx
	shrq	$3, %rdx
	addq	$2147450880, %rdx
	movzbl	(%rdx), %edx
	testb	%dl, %dl
	setne	%cl
	movq	%rax, %rsi
	andl	$7, %esi
	cmpb	%dl, %sil
	setge	%dl
	andl	%ecx, %edx
	testb	%dl, %dl
	je	.L533
	.loc 10 144 5
	movq	%rax, %rdi
	call	__asan_report_store1@PLT
.L533:
	.loc 10 144 5 discriminator 6
	movb	$0, -428(%r13)
	leaq	-432(%r13), %rax
	movq	%rax, -1456(%rbp)
	movq	$5, -1448(%rbp)
	leaq	-1264(%r13), %rax
	shrq	$3, %rax
	addq	$2147450880, %rax
	movb	$1, (%rax)
	leaq	-1264(%r13), %rax
	movq	%rax, %rdi
	call	_ZNSaIbEC1Ev
	leaq	-1264(%r13), %rax
	movq	-1456(%rbp), %rcx
	movq	-1448(%rbp), %rbx
	movq	%rcx, %rsi
	movq	%rbx, %rdi
	movq	%rbx, %r8
	leaq	-304(%r13), %rdx
	leaq	120(%rdx), %rdi
	movq	%rax, %rcx
	movq	%r8, %rdx
.LEHB83:
	call	_ZNSt6vectorIbSaIbEEC1ESt16initializer_listIbERKS0_
.LEHE83:
	.loc 10 144 5 discriminator 8
	leaq	-400(%r13), %rax
	shrq	$3, %rax
	addq	$2147450880, %rax
	movb	$5, (%rax)
	leaq	-400(%r13), %rax
	movq	%rax, %rdx
	movq	%rdx, %rax
	shrq	$3, %rax
	addq	$2147450880, %rax
	movzbl	(%rax), %eax
	testb	%al, %al
	setne	%cl
	testb	%al, %al
	setle	%al
	andl	%ecx, %eax
	testb	%al, %al
	je	.L534
	.loc 10 144 5
	movq	%rdx, %rdi
	call	__asan_report_store1@PLT
.L534:
	.loc 10 144 5 discriminator 8
	movb	$1, -400(%r13)
	leaq	-400(%r13), %rax
	addq	$1, %rax
	movq	%rax, %rdx
	shrq	$3, %rdx
	addq	$2147450880, %rdx
	movzbl	(%rdx), %edx
	testb	%dl, %dl
	setne	%cl
	movq	%rax, %rsi
	andl	$7, %esi
	cmpb	%dl, %sil
	setge	%dl
	andl	%ecx, %edx
	testb	%dl, %dl
	je	.L535
	.loc 10 144 5
	movq	%rax, %rdi
	call	__asan_report_store1@PLT
.L535:
	.loc 10 144 5 discriminator 8
	movb	$1, -399(%r13)
	leaq	-400(%r13), %rax
	addq	$2, %rax
	movq	%rax, %rdx
	shrq	$3, %rdx
	addq	$2147450880, %rdx
	movzbl	(%rdx), %edx
	testb	%dl, %dl
	setne	%cl
	movq	%rax, %rsi
	andl	$7, %esi
	cmpb	%dl, %sil
	setge	%dl
	andl	%ecx, %edx
	testb	%dl, %dl
	je	.L536
	.loc 10 144 5
	movq	%rax, %rdi
	call	__asan_report_store1@PLT
.L536:
	.loc 10 144 5 discriminator 8
	movb	$1, -398(%r13)
	leaq	-400(%r13), %rax
	addq	$3, %rax
	movq	%rax, %rdx
	shrq	$3, %rdx
	addq	$2147450880, %rdx
	movzbl	(%rdx), %edx
	testb	%dl, %dl
	setne	%cl
	movq	%rax, %rsi
	andl	$7, %esi
	cmpb	%dl, %sil
	setge	%dl
	andl	%ecx, %edx
	testb	%dl, %dl
	je	.L537
	.loc 10 144 5
	movq	%rax, %rdi
	call	__asan_report_store1@PLT
.L537:
	.loc 10 144 5 discriminator 8
	movb	$1, -397(%r13)
	leaq	-400(%r13), %rax
	addq	$4, %rax
	movq	%rax, %rdx
	shrq	$3, %rdx
	addq	$2147450880, %rdx
	movzbl	(%rdx), %edx
	testb	%dl, %dl
	setne	%cl
	movq	%rax, %rsi
	andl	$7, %esi
	cmpb	%dl, %sil
	setge	%dl
	andl	%ecx, %edx
	testb	%dl, %dl
	je	.L538
	.loc 10 144 5
	movq	%rax, %rdi
	call	__asan_report_store1@PLT
.L538:
	.loc 10 144 5 discriminator 8
	movb	$0, -396(%r13)
	leaq	-400(%r13), %rax
	movq	%rax, -1440(%rbp)
	movq	$5, -1432(%rbp)
	leaq	-1248(%r13), %rax
	shrq	$3, %rax
	addq	$2147450880, %rax
	movb	$1, (%rax)
	leaq	-1248(%r13), %rax
	movq	%rax, %rdi
	call	_ZNSaIbEC1Ev
	leaq	-1248(%r13), %rax
	movq	-1440(%rbp), %rcx
	movq	-1432(%rbp), %rbx
	movq	%rcx, %rsi
	movq	%rbx, %rdi
	movq	%rbx, %r8
	leaq	-304(%r13), %rdx
	leaq	160(%rdx), %rdi
	movq	%rax, %rcx
	movq	%r8, %rdx
.LEHB84:
	call	_ZNSt6vectorIbSaIbEEC1ESt16initializer_listIbERKS0_
.LEHE84:
	.loc 10 144 5 discriminator 10
	leaq	-304(%r13), %rax
	movq	%rax, -1520(%rbp)
	movq	$5, -1512(%rbp)
	leaq	-1232(%r13), %rax
	shrq	$3, %rax
	addq	$2147450880, %rax
	movb	$1, (%rax)
	leaq	-1232(%r13), %rax
	movq	%rax, %rdi
	call	_ZNSaISt6vectorIbSaIbEEEC1Ev
	leaq	-1232(%r13), %rdx
	movq	-1520(%rbp), %rcx
	movq	-1512(%rbp), %rbx
	movq	%rcx, %rsi
	movq	%rbx, %rdi
	movq	%rbx, %rdi
	leaq	-1216(%r13), %rax
	movq	%rdx, %rcx
	movq	%rdi, %rdx
	movq	%rax, %rdi
.LEHB85:
	call	_ZNSt6vectorIS_IbSaIbEESaIS1_EEC1ESt16initializer_listIS1_ERKS2_
.LEHE85:
	.loc 10 144 5 discriminator 12
	leaq	-1216(%r13), %rdx
	leaq	-944(%r13), %rax
	movq	%rdx, %rsi
	movq	%rax, %rdi
.LEHB86:
	call	_ZN8RelationC1ESt6vectorIS0_IbSaIbEESaIS2_EE
.LEHE86:
	.loc 10 149 18 is_stmt 1
	leaq	-944(%r13), %rax
	movq	%rax, %rdi
.LEHB87:
	call	_ZN8Relation8judgeAllEv
.LEHE87:
	.loc 10 144 5
	leaq	-944(%r13), %rax
	movq	%rax, %rdi
	call	_ZN8RelationD1Ev
	leaq	-944(%r13), %rax
	shrq	$3, %rax
	addq	$2147450880, %rax
	movl	$-117901064, (%rax)
	movl	$-117901064, 4(%rax)
	movl	$-117901064, 8(%rax)
	movl	$-117901064, 12(%rax)
	movw	$-1800, 16(%rax)
	leaq	-1216(%r13), %rax
	movq	%rax, %rdi
	call	_ZNSt6vectorIS_IbSaIbEESaIS1_EED1Ev
	leaq	-1216(%r13), %rax
	shrq	$3, %rax
	addq	$2147450880, %rax
	movw	$-1800, (%rax)
	movb	$-8, 2(%rax)
	leaq	-1232(%r13), %rax
	movq	%rax, %rdi
	call	_ZNSaISt6vectorIbSaIbEEED1Ev
	leaq	-1232(%r13), %rax
	shrq	$3, %rax
	addq	$2147450880, %rax
	movb	$-8, (%rax)
	leaq	-304(%r13), %rbx
	addq	$200, %rbx
.L540:
	.loc 10 144 5 is_stmt 0 discriminator 14
	leaq	-304(%r13), %rax
	cmpq	%rax, %rbx
	je	.L539
	.loc 10 144 5 discriminator 16
	subq	$40, %rbx
	.loc 10 148 31 is_stmt 1 discriminator 16
