	.file	"main.cpp"
	.text
.Ltext0:
	.section	.text._ZnwmPv,"axG",@progbits,_ZnwmPv,comdat
	.weak	_ZnwmPv
	.type	_ZnwmPv, @function
_ZnwmPv:
.LFB38:
	.file 1 "/usr/include/c++/9/new"
	.loc 1 174 1
	.cfi_startproc
	endbr64
	pushq	%rbp
	.cfi_def_cfa_offset 16
	.cfi_offset 6, -16
	movq	%rsp, %rbp
	.cfi_def_cfa_register 6
	movq	%rdi, -8(%rbp)
	movq	%rsi, -16(%rbp)
	.loc 1 174 10
	movq	-16(%rbp), %rax
	.loc 1 174 15
	popq	%rbp
	.cfi_def_cfa 7, 8
	ret
	.cfi_endproc
.LFE38:
	.size	_ZnwmPv, .-_ZnwmPv
	.section	.text._ZdlPvS_,"axG",@progbits,_ZdlPvS_,comdat
	.weak	_ZdlPvS_
	.type	_ZdlPvS_, @function
_ZdlPvS_:
.LFB40:
	.loc 1 179 53
	.cfi_startproc
	endbr64
	pushq	%rbp
	.cfi_def_cfa_offset 16
	.cfi_offset 6, -16
	movq	%rsp, %rbp
	.cfi_def_cfa_register 6
	movq	%rdi, -8(%rbp)
	movq	%rsi, -16(%rbp)
	.loc 1 179 55
	nop
	popq	%rbp
	.cfi_def_cfa 7, 8
	ret
	.cfi_endproc
.LFE40:
	.size	_ZdlPvS_, .-_ZdlPvS_
	.section	.text._ZNSt11char_traitsIcE6lengthEPKc,"axG",@progbits,_ZNSt11char_traitsIcE6lengthEPKc,comdat
	.weak	_ZNSt11char_traitsIcE6lengthEPKc
	.type	_ZNSt11char_traitsIcE6lengthEPKc, @function
_ZNSt11char_traitsIcE6lengthEPKc:
.LFB402:
	.file 2 "/usr/include/c++/9/bits/char_traits.h"
	.loc 2 329 7
	.cfi_startproc
	endbr64
	pushq	%rbp
	.cfi_def_cfa_offset 16
	.cfi_offset 6, -16
	movq	%rsp, %rbp
	.cfi_def_cfa_register 6
	subq	$32, %rsp
	movq	%rdi, -24(%rbp)
	movq	-24(%rbp), %rax
	movq	%rax, -8(%rbp)
.LBB4:
.LBB5:
	.loc 2 236 46
	movl	$0, %eax
.LBE5:
.LBE4:
	.loc 2 332 2
	testb	%al, %al
	je	.L6
	.loc 2 333 52
	movq	-24(%rbp), %rax
	movq	%rax, %rdi
	call	_ZN9__gnu_cxx11char_traitsIcE6lengthEPKc
	.loc 2 333 56
	jmp	.L7
.L6:
	.loc 2 335 25
	movq	-24(%rbp), %rax
	movq	$-1, %rcx
	movq	%rax, %rdx
	movl	$0, %eax
	movq	%rdx, %rdi
	repnz scasb
	movq	%rcx, %rax
	notq	%rax
	subq	$1, %rax
	.loc 2 335 29
	nop
.L7:
	.loc 2 336 7
	leave
	.cfi_def_cfa 7, 8
	ret
	.cfi_endproc
.LFE402:
	.size	_ZNSt11char_traitsIcE6lengthEPKc, .-_ZNSt11char_traitsIcE6lengthEPKc
	.section	.text._ZStorSt13_Ios_OpenmodeS_,"axG",@progbits,_ZStorSt13_Ios_OpenmodeS_,comdat
	.weak	_ZStorSt13_Ios_OpenmodeS_
	.type	_ZStorSt13_Ios_OpenmodeS_, @function
_ZStorSt13_Ios_OpenmodeS_:
.LFB1423:
	.file 3 "/usr/include/c++/9/bits/ios_base.h"
	.loc 3 130 3
	.cfi_startproc
	endbr64
	pushq	%rbp
	.cfi_def_cfa_offset 16
	.cfi_offset 6, -16
	movq	%rsp, %rbp
	.cfi_def_cfa_register 6
	movl	%edi, -4(%rbp)
	movl	%esi, -8(%rbp)
	.loc 3 130 71
	movl	-4(%rbp), %eax
	orl	-8(%rbp), %eax
	.loc 3 130 74
	popq	%rbp
	.cfi_def_cfa 7, 8
	ret
	.cfi_endproc
.LFE1423:
	.size	_ZStorSt13_Ios_OpenmodeS_, .-_ZStorSt13_Ios_OpenmodeS_
	.local	_ZStL8__ioinit
	.comm	_ZStL8__ioinit,1,1
	.section	.text._ZNSt14_Bit_referenceC2EPmm,"axG",@progbits,_ZNSt14_Bit_referenceC5EPmm,comdat
	.align 2
	.weak	_ZNSt14_Bit_referenceC2EPmm
	.type	_ZNSt14_Bit_referenceC2EPmm, @function
_ZNSt14_Bit_referenceC2EPmm:
.LFB2033:
	.file 4 "/usr/include/c++/9/bits/stl_bvector.h"
	.loc 4 77 5
	.cfi_startproc
	endbr64
	pushq	%rbp
	.cfi_def_cfa_offset 16
	.cfi_offset 6, -16
	movq	%rsp, %rbp
	.cfi_def_cfa_register 6
	movq	%rdi, -8(%rbp)
	movq	%rsi, -16(%rbp)
	movq	%rdx, -24(%rbp)
.LBB6:
	.loc 4 78 29
	movq	-8(%rbp), %rax
	movq	-16(%rbp), %rdx
	movq	%rdx, (%rax)
	movq	-8(%rbp), %rax
	movq	-24(%rbp), %rdx
	movq	%rdx, 8(%rax)
.LBE6:
	.loc 4 78 33
	nop
	popq	%rbp
	.cfi_def_cfa 7, 8
	ret
	.cfi_endproc
.LFE2033:
	.size	_ZNSt14_Bit_referenceC2EPmm, .-_ZNSt14_Bit_referenceC2EPmm
	.weak	_ZNSt14_Bit_referenceC1EPmm
	.set	_ZNSt14_Bit_referenceC1EPmm,_ZNSt14_Bit_referenceC2EPmm
	.section	.text._ZNKSt14_Bit_referencecvbEv,"axG",@progbits,_ZNKSt14_Bit_referencecvbEv,comdat
	.align 2
	.weak	_ZNKSt14_Bit_referencecvbEv
	.type	_ZNKSt14_Bit_referencecvbEv, @function
_ZNKSt14_Bit_referencecvbEv:
.LFB2038:
	.loc 4 86 5
	.cfi_startproc
	endbr64
	pushq	%rbp
	.cfi_def_cfa_offset 16
	.cfi_offset 6, -16
	movq	%rsp, %rbp
	.cfi_def_cfa_register 6
	movq	%rdi, -8(%rbp)
	.loc 4 87 18
	movq	-8(%rbp), %rax
	movq	(%rax), %rax
	.loc 4 87 17
	movq	(%rax), %rdx
	.loc 4 87 25
	movq	-8(%rbp), %rax
	movq	8(%rax), %rax
	.loc 4 87 23
	andq	%rdx, %rax
	.loc 4 87 32
	testq	%rax, %rax
	setne	%al
	.loc 4 87 35
	popq	%rbp
	.cfi_def_cfa 7, 8
	ret
	.cfi_endproc
.LFE2038:
	.size	_ZNKSt14_Bit_referencecvbEv, .-_ZNKSt14_Bit_referencecvbEv
	.section	.text._ZNSt14_Bit_referenceaSEb,"axG",@progbits,_ZNSt14_Bit_referenceaSEb,comdat
	.align 2
	.weak	_ZNSt14_Bit_referenceaSEb
	.type	_ZNSt14_Bit_referenceaSEb, @function
_ZNSt14_Bit_referenceaSEb:
.LFB2039:
	.loc 4 90 5
	.cfi_startproc
	endbr64
	pushq	%rbp
	.cfi_def_cfa_offset 16
	.cfi_offset 6, -16
	movq	%rsp, %rbp
	.cfi_def_cfa_register 6
	movq	%rdi, -8(%rbp)
	movl	%esi, %eax
	movb	%al, -12(%rbp)
	.loc 4 92 7
	cmpb	$0, -12(%rbp)
	je	.L14
	.loc 4 93 3
	movq	-8(%rbp), %rax
	movq	(%rax), %rax
	.loc 4 93 8
	movq	(%rax), %rcx
	.loc 4 93 11
	movq	-8(%rbp), %rax
	movq	8(%rax), %rdx
	.loc 4 93 3
	movq	-8(%rbp), %rax
	movq	(%rax), %rax
	.loc 4 93 8
	orq	%rcx, %rdx
	movq	%rdx, (%rax)
	jmp	.L15
.L14:
	.loc 4 95 3
	movq	-8(%rbp), %rax
	movq	(%rax), %rax
	.loc 4 95 8
	movq	(%rax), %rdx
	.loc 4 95 12
	movq	-8(%rbp), %rax
	movq	8(%rax), %rax
	.loc 4 95 11
	notq	%rax
	movq	%rax, %rcx
	.loc 4 95 3
	movq	-8(%rbp), %rax
	movq	(%rax), %rax
	.loc 4 95 8
	andq	%rcx, %rdx
	movq	%rdx, (%rax)
.L15:
	.loc 4 96 15
	movq	-8(%rbp), %rax
	.loc 4 97 5
	popq	%rbp
	.cfi_def_cfa 7, 8
	ret
	.cfi_endproc
.LFE2039:
	.size	_ZNSt14_Bit_referenceaSEb, .-_ZNSt14_Bit_referenceaSEb
	.section	.text._ZNSt18_Bit_iterator_baseC2EPmj,"axG",@progbits,_ZNSt18_Bit_iterator_baseC5EPmj,comdat
	.align 2
	.weak	_ZNSt18_Bit_iterator_baseC2EPmj
	.type	_ZNSt18_Bit_iterator_baseC2EPmj, @function
_ZNSt18_Bit_iterator_baseC2EPmj:
.LFB2048:
	.loc 4 148 5
	.cfi_startproc
	endbr64
	pushq	%rbp
	.cfi_def_cfa_offset 16
	.cfi_offset 6, -16
	movq	%rsp, %rbp
	.cfi_def_cfa_register 6
	movq	%rdi, -8(%rbp)
	movq	%rsi, -16(%rbp)
	movl	%edx, -20(%rbp)
.LBB7:
	.loc 4 149 31
	movq	-8(%rbp), %rax
	movq	-16(%rbp), %rdx
	movq	%rdx, (%rax)
	movq	-8(%rbp), %rax
	movl	-20(%rbp), %edx
	movl	%edx, 8(%rax)
.LBE7:
	.loc 4 149 35
	nop
	popq	%rbp
	.cfi_def_cfa 7, 8
	ret
	.cfi_endproc
.LFE2048:
	.size	_ZNSt18_Bit_iterator_baseC2EPmj, .-_ZNSt18_Bit_iterator_baseC2EPmj
	.weak	_ZNSt18_Bit_iterator_baseC1EPmj
	.set	_ZNSt18_Bit_iterator_baseC1EPmj,_ZNSt18_Bit_iterator_baseC2EPmj
	.section	.text._ZNSt18_Bit_iterator_base10_M_bump_upEv,"axG",@progbits,_ZNSt18_Bit_iterator_base10_M_bump_upEv,comdat
	.align 2
	.weak	_ZNSt18_Bit_iterator_base10_M_bump_upEv
	.type	_ZNSt18_Bit_iterator_base10_M_bump_upEv, @function
_ZNSt18_Bit_iterator_base10_M_bump_upEv:
.LFB2050:
	.loc 4 152 5
	.cfi_startproc
	endbr64
	pushq	%rbp
	.cfi_def_cfa_offset 16
	.cfi_offset 6, -16
	movq	%rsp, %rbp
	.cfi_def_cfa_register 6
	movq	%rdi, -8(%rbp)
	.loc 4 154 11
	movq	-8(%rbp), %rax
	movl	8(%rax), %eax
	.loc 4 154 20
	leal	1(%rax), %ecx
	movq	-8(%rbp), %rdx
	movl	%ecx, 8(%rdx)
	.loc 4 154 23
	cmpl	$63, %eax
	sete	%al
	.loc 4 154 7
	testb	%al, %al
	je	.L20
	.loc 4 156 14
	movq	-8(%rbp), %rax
	movl	$0, 8(%rax)
	.loc 4 157 6
	movq	-8(%rbp), %rax
	movq	(%rax), %rax
	.loc 4 157 4
	leaq	8(%rax), %rdx
	movq	-8(%rbp), %rax
	movq	%rdx, (%rax)
.L20:
	.loc 4 159 5
	nop
	popq	%rbp
	.cfi_def_cfa 7, 8
	ret
	.cfi_endproc
.LFE2050:
	.size	_ZNSt18_Bit_iterator_base10_M_bump_upEv, .-_ZNSt18_Bit_iterator_base10_M_bump_upEv
	.section	.text._ZNSt18_Bit_iterator_base7_M_incrEl,"axG",@progbits,_ZNSt18_Bit_iterator_base7_M_incrEl,comdat
	.align 2
	.weak	_ZNSt18_Bit_iterator_base7_M_incrEl
	.type	_ZNSt18_Bit_iterator_base7_M_incrEl, @function
_ZNSt18_Bit_iterator_base7_M_incrEl:
.LFB2052:
	.loc 4 172 5
	.cfi_startproc
	endbr64
	pushq	%rbp
	.cfi_def_cfa_offset 16
	.cfi_offset 6, -16
	movq	%rsp, %rbp
	.cfi_def_cfa_register 6
	movq	%rdi, -24(%rbp)
	movq	%rsi, -32(%rbp)
	.loc 4 174 35
	movq	-24(%rbp), %rax
	movl	8(%rax), %eax
	movl	%eax, %edx
	.loc 4 174 23
	movq	-32(%rbp), %rax
	addq	%rdx, %rax
	movq	%rax, -8(%rbp)
	.loc 4 175 12
	movq	-24(%rbp), %rax
	movq	(%rax), %rdx
	.loc 4 175 19
	movq	-8(%rbp), %rax
	leaq	63(%rax), %rcx
	testq	%rax, %rax
	cmovs	%rcx, %rax
	sarq	$6, %rax
	.loc 4 175 12
	salq	$3, %rax
	addq	%rax, %rdx
	movq	-24(%rbp), %rax
	movq	%rdx, (%rax)
	.loc 4 176 11
	movq	-8(%rbp), %rax
	cqto
	shrq	$58, %rdx
	addq	%rdx, %rax
	andl	$63, %eax
	subq	%rdx, %rax
	movq	%rax, -8(%rbp)
	.loc 4 177 7
	cmpq	$0, -8(%rbp)
	jns	.L22
	.loc 4 179 8
	addq	$64, -8(%rbp)
	.loc 4 180 6
	movq	-24(%rbp), %rax
	movq	(%rax), %rax
	.loc 4 180 4
	leaq	-8(%rax), %rdx
	movq	-24(%rbp), %rax
	movq	%rdx, (%rax)
.L22:
	.loc 4 182 17
	movq	-8(%rbp), %rax
	movl	%eax, %edx
	movq	-24(%rbp), %rax
	movl	%edx, 8(%rax)
	.loc 4 183 5
	nop
	popq	%rbp
	.cfi_def_cfa 7, 8
	ret
	.cfi_endproc
.LFE2052:
	.size	_ZNSt18_Bit_iterator_base7_M_incrEl, .-_ZNSt18_Bit_iterator_base7_M_incrEl
	.section	.text._ZStmiRKSt18_Bit_iterator_baseS1_,"axG",@progbits,_ZStmiRKSt18_Bit_iterator_baseS1_,comdat
	.weak	_ZStmiRKSt18_Bit_iterator_baseS1_
	.type	_ZStmiRKSt18_Bit_iterator_baseS1_, @function
_ZStmiRKSt18_Bit_iterator_baseS1_:
.LFB2059:
	.loc 4 215 3
	.cfi_startproc
	endbr64
	pushq	%rbp
	.cfi_def_cfa_offset 16
	.cfi_offset 6, -16
	movq	%rsp, %rbp
	.cfi_def_cfa_register 6
	movq	%rdi, -8(%rbp)
	movq	%rsi, -16(%rbp)
	.loc 4 216 37
	movq	-8(%rbp), %rax
	movq	(%rax), %rdx
	.loc 4 216 48
	movq	-16(%rbp), %rax
	movq	(%rax), %rax
	.loc 4 216 42
	subq	%rax, %rdx
	movq	%rdx, %rax
	.loc 4 217 6
	leaq	0(,%rax,8), %rdx
	.loc 4 217 12
	movq	-8(%rbp), %rax
	movl	8(%rax), %eax
	movl	%eax, %eax
	.loc 4 217 6
	addq	%rax, %rdx
	.loc 4 217 28
	movq	-16(%rbp), %rax
	movl	8(%rax), %eax
	movl	%eax, %eax
	.loc 4 217 37
	subq	%rax, %rdx
	movq	%rdx, %rax
	.loc 4 218 3
	popq	%rbp
	.cfi_def_cfa 7, 8
	ret
	.cfi_endproc
.LFE2059:
	.size	_ZStmiRKSt18_Bit_iterator_baseS1_, .-_ZStmiRKSt18_Bit_iterator_baseS1_
	.section	.text._ZNSt13_Bit_iteratorC2Ev,"axG",@progbits,_ZNSt13_Bit_iteratorC5Ev,comdat
	.align 2
	.weak	_ZNSt13_Bit_iteratorC2Ev
	.type	_ZNSt13_Bit_iteratorC2Ev, @function
_ZNSt13_Bit_iteratorC2Ev:
.LFB2061:
	.loc 4 226 5
	.cfi_startproc
	endbr64
	pushq	%rbp
	.cfi_def_cfa_offset 16
	.cfi_offset 6, -16
	movq	%rsp, %rbp
	.cfi_def_cfa_register 6
	subq	$16, %rsp
	movq	%rdi, -8(%rbp)
.LBB8:
	.loc 4 226 46
	movq	-8(%rbp), %rax
	movl	$0, %edx
	movl	$0, %esi
	movq	%rax, %rdi
	call	_ZNSt18_Bit_iterator_baseC2EPmj
.LBE8:
	.loc 4 226 50
	nop
	leave
	.cfi_def_cfa 7, 8
	ret
	.cfi_endproc
.LFE2061:
	.size	_ZNSt13_Bit_iteratorC2Ev, .-_ZNSt13_Bit_iteratorC2Ev
	.weak	_ZNSt13_Bit_iteratorC1Ev
	.set	_ZNSt13_Bit_iteratorC1Ev,_ZNSt13_Bit_iteratorC2Ev
	.section	.text._ZNSt13_Bit_iteratorC2EPmj,"axG",@progbits,_ZNSt13_Bit_iteratorC5EPmj,comdat
	.align 2
	.weak	_ZNSt13_Bit_iteratorC2EPmj
	.type	_ZNSt13_Bit_iteratorC2EPmj, @function
_ZNSt13_Bit_iteratorC2EPmj:
.LFB2064:
	.loc 4 228 5
	.cfi_startproc
	endbr64
	pushq	%rbp
	.cfi_def_cfa_offset 16
	.cfi_offset 6, -16
	movq	%rsp, %rbp
	.cfi_def_cfa_register 6
	subq	$32, %rsp
	movq	%rdi, -8(%rbp)
	movq	%rsi, -16(%rbp)
	movl	%edx, -20(%rbp)
.LBB9:
	.loc 4 229 34
	movq	-8(%rbp), %rax
	movl	-20(%rbp), %edx
	movq	-16(%rbp), %rcx
	movq	%rcx, %rsi
	movq	%rax, %rdi
	call	_ZNSt18_Bit_iterator_baseC2EPmj
.LBE9:
	.loc 4 229 38
	nop
	leave
	.cfi_def_cfa 7, 8
	ret
	.cfi_endproc
.LFE2064:
	.size	_ZNSt13_Bit_iteratorC2EPmj, .-_ZNSt13_Bit_iteratorC2EPmj
	.weak	_ZNSt13_Bit_iteratorC1EPmj
	.set	_ZNSt13_Bit_iteratorC1EPmj,_ZNSt13_Bit_iteratorC2EPmj
	.section	.text._ZNKSt13_Bit_iteratordeEv,"axG",@progbits,_ZNKSt13_Bit_iteratordeEv,comdat
	.align 2
	.weak	_ZNKSt13_Bit_iteratordeEv
	.type	_ZNKSt13_Bit_iteratordeEv, @function
_ZNKSt13_Bit_iteratordeEv:
.LFB2067:
	.loc 4 236 5
	.cfi_startproc
	endbr64
	pushq	%rbp
	.cfi_def_cfa_offset 16
	.cfi_offset 6, -16
	movq	%rsp, %rbp
	.cfi_def_cfa_register 6
	subq	$48, %rsp
	movq	%rdi, -40(%rbp)
	.loc 4 236 5
	movq	%fs:40, %rax
	movq	%rax, -8(%rbp)
	xorl	%eax, %eax
	.loc 4 237 37
	movq	-40(%rbp), %rax
	movl	8(%rax), %eax
	.loc 4 237 14
	movl	$1, %edx
	movl	%eax, %ecx
	salq	%cl, %rdx
	.loc 4 237 24
	movq	-40(%rbp), %rax
	movq	(%rax), %rcx
	.loc 4 237 14
	leaq	-32(%rbp), %rax
	movq	%rcx, %rsi
	movq	%rax, %rdi
	call	_ZNSt14_Bit_referenceC1EPmm
	.loc 4 237 46
	movq	-32(%rbp), %rax
	movq	-24(%rbp), %rdx
	.loc 4 237 49
	movq	-8(%rbp), %rsi
	xorq	%fs:40, %rsi
	je	.L29
	call	__stack_chk_fail@PLT
.L29:
	leave
	.cfi_def_cfa 7, 8
	ret
	.cfi_endproc
.LFE2067:
	.size	_ZNKSt13_Bit_iteratordeEv, .-_ZNKSt13_Bit_iteratordeEv
	.section	.text._ZNSt13_Bit_iteratorppEv,"axG",@progbits,_ZNSt13_Bit_iteratorppEv,comdat
	.align 2
	.weak	_ZNSt13_Bit_iteratorppEv
	.type	_ZNSt13_Bit_iteratorppEv, @function
_ZNSt13_Bit_iteratorppEv:
.LFB2068:
	.loc 4 240 5
	.cfi_startproc
	endbr64
	pushq	%rbp
	.cfi_def_cfa_offset 16
	.cfi_offset 6, -16
	movq	%rsp, %rbp
	.cfi_def_cfa_register 6
	subq	$16, %rsp
	movq	%rdi, -8(%rbp)
	.loc 4 242 17
	movq	-8(%rbp), %rax
	movq	%rax, %rdi
	call	_ZNSt18_Bit_iterator_base10_M_bump_upEv
	.loc 4 243 15
	movq	-8(%rbp), %rax
	.loc 4 244 5
	leave
	.cfi_def_cfa 7, 8
	ret
	.cfi_endproc
.LFE2068:
	.size	_ZNSt13_Bit_iteratorppEv, .-_ZNSt13_Bit_iteratorppEv
	.section	.text._ZNSt13_Bit_iteratorpLEl,"axG",@progbits,_ZNSt13_Bit_iteratorpLEl,comdat
	.align 2
	.weak	_ZNSt13_Bit_iteratorpLEl
	.type	_ZNSt13_Bit_iteratorpLEl, @function
_ZNSt13_Bit_iteratorpLEl:
.LFB2072:
	.loc 4 270 5
	.cfi_startproc
	endbr64
	pushq	%rbp
	.cfi_def_cfa_offset 16
	.cfi_offset 6, -16
	movq	%rsp, %rbp
	.cfi_def_cfa_register 6
	subq	$16, %rsp
	movq	%rdi, -8(%rbp)
	movq	%rsi, -16(%rbp)
	.loc 4 272 14
	movq	-8(%rbp), %rax
	movq	-16(%rbp), %rdx
	movq	%rdx, %rsi
	movq	%rax, %rdi
	call	_ZNSt18_Bit_iterator_base7_M_incrEl
	.loc 4 273 15
	movq	-8(%rbp), %rax
	.loc 4 274 5
	leave
	.cfi_def_cfa 7, 8
	ret
	.cfi_endproc
.LFE2072:
	.size	_ZNSt13_Bit_iteratorpLEl, .-_ZNSt13_Bit_iteratorpLEl
	.section	.text._ZNKSt13_Bit_iteratorplEl,"axG",@progbits,_ZNKSt13_Bit_iteratorplEl,comdat
	.align 2
	.weak	_ZNKSt13_Bit_iteratorplEl
	.type	_ZNKSt13_Bit_iteratorplEl, @function
_ZNKSt13_Bit_iteratorplEl:
.LFB2074:
	.loc 4 284 5
	.cfi_startproc
	endbr64
	pushq	%rbp
	.cfi_def_cfa_offset 16
	.cfi_offset 6, -16
	movq	%rsp, %rbp
	.cfi_def_cfa_register 6
	subq	$80, %rsp
	movq	%rdi, -56(%rbp)
	movq	%rsi, -64(%rbp)
	.loc 4 284 5
	movq	%fs:40, %rax
	movq	%rax, -8(%rbp)
	xorl	%eax, %eax
	.loc 4 286 16
	movq	-56(%rbp), %rax
	movq	8(%rax), %rdx
	movq	(%rax), %rax
	movq	%rax, -48(%rbp)
	movq	%rdx, -40(%rbp)
	.loc 4 287 23
	movq	-64(%rbp), %rdx
	leaq	-48(%rbp), %rax
	movq	%rdx, %rsi
	movq	%rax, %rdi
	call	_ZNSt13_Bit_iteratorpLEl
	movq	8(%rax), %rdx
	movq	(%rax), %rax
	movq	%rax, -32(%rbp)
	movq	%rdx, -24(%rbp)
	movq	-32(%rbp), %rax
	movq	-24(%rbp), %rdx
	.loc 4 288 5
	movq	-8(%rbp), %rcx
	xorq	%fs:40, %rcx
	je	.L36
	call	__stack_chk_fail@PLT
.L36:
	leave
	.cfi_def_cfa 7, 8
	ret
	.cfi_endproc
.LFE2074:
	.size	_ZNKSt13_Bit_iteratorplEl, .-_ZNKSt13_Bit_iteratorplEl
	.section	.text._ZNSt19_Bit_const_iteratorC2EPmj,"axG",@progbits,_ZNSt19_Bit_const_iteratorC5EPmj,comdat
	.align 2
	.weak	_ZNSt19_Bit_const_iteratorC2EPmj
	.type	_ZNSt19_Bit_const_iteratorC2EPmj, @function
_ZNSt19_Bit_const_iteratorC2EPmj:
.LFB2082:
	.loc 4 315 5
	.cfi_startproc
	endbr64
	pushq	%rbp
	.cfi_def_cfa_offset 16
	.cfi_offset 6, -16
	movq	%rsp, %rbp
	.cfi_def_cfa_register 6
	subq	$32, %rsp
	movq	%rdi, -8(%rbp)
	movq	%rsi, -16(%rbp)
	movl	%edx, -20(%rbp)
.LBB10:
	.loc 4 316 34
	movq	-8(%rbp), %rax
	movl	-20(%rbp), %edx
	movq	-16(%rbp), %rcx
	movq	%rcx, %rsi
	movq	%rax, %rdi
	call	_ZNSt18_Bit_iterator_baseC2EPmj
.LBE10:
	.loc 4 316 38
	nop
	leave
	.cfi_def_cfa 7, 8
	ret
	.cfi_endproc
.LFE2082:
	.size	_ZNSt19_Bit_const_iteratorC2EPmj, .-_ZNSt19_Bit_const_iteratorC2EPmj
	.weak	_ZNSt19_Bit_const_iteratorC1EPmj
	.set	_ZNSt19_Bit_const_iteratorC1EPmj,_ZNSt19_Bit_const_iteratorC2EPmj
	.section	.text._ZNSt19_Bit_const_iteratorC2ERKSt13_Bit_iterator,"axG",@progbits,_ZNSt19_Bit_const_iteratorC5ERKSt13_Bit_iterator,comdat
	.align 2
	.weak	_ZNSt19_Bit_const_iteratorC2ERKSt13_Bit_iterator
	.type	_ZNSt19_Bit_const_iteratorC2ERKSt13_Bit_iterator, @function
_ZNSt19_Bit_const_iteratorC2ERKSt13_Bit_iterator:
.LFB2085:
	.loc 4 318 5
	.cfi_startproc
	endbr64
	pushq	%rbp
	.cfi_def_cfa_offset 16
	.cfi_offset 6, -16
	movq	%rsp, %rbp
	.cfi_def_cfa_register 6
	subq	$16, %rsp
	movq	%rdi, -8(%rbp)
	movq	%rsi, -16(%rbp)
.LBB11:
	.loc 4 319 49
	movq	-8(%rbp), %rax
	.loc 4 319 40
	movq	-16(%rbp), %rdx
	movl	8(%rdx), %edx
	.loc 4 319 30
	movq	-16(%rbp), %rcx
	movq	(%rcx), %rcx
	.loc 4 319 49
	movq	%rcx, %rsi
	movq	%rax, %rdi
	call	_ZNSt18_Bit_iterator_baseC2EPmj
.LBE11:
	.loc 4 319 53
	nop
	leave
	.cfi_def_cfa 7, 8
	ret
	.cfi_endproc
.LFE2085:
	.size	_ZNSt19_Bit_const_iteratorC2ERKSt13_Bit_iterator, .-_ZNSt19_Bit_const_iteratorC2ERKSt13_Bit_iterator
	.weak	_ZNSt19_Bit_const_iteratorC1ERKSt13_Bit_iterator
	.set	_ZNSt19_Bit_const_iteratorC1ERKSt13_Bit_iterator,_ZNSt19_Bit_const_iteratorC2ERKSt13_Bit_iterator
	.section	.text._ZNKSt19_Bit_const_iteratordeEv,"axG",@progbits,_ZNKSt19_Bit_const_iteratordeEv,comdat
	.align 2
	.weak	_ZNKSt19_Bit_const_iteratordeEv
	.type	_ZNKSt19_Bit_const_iteratordeEv, @function
_ZNKSt19_Bit_const_iteratordeEv:
.LFB2088:
	.loc 4 326 5
	.cfi_startproc
	endbr64
	pushq	%rbp
	.cfi_def_cfa_offset 16
	.cfi_offset 6, -16
	movq	%rsp, %rbp
	.cfi_def_cfa_register 6
	subq	$48, %rsp
	movq	%rdi, -40(%rbp)
	.loc 4 326 5
	movq	%fs:40, %rax
	movq	%rax, -8(%rbp)
	xorl	%eax, %eax
	.loc 4 327 42
	movq	-40(%rbp), %rax
	movl	8(%rax), %eax
	.loc 4 327 14
	movl	$1, %edx
	movl	%eax, %ecx
	salq	%cl, %rdx
	.loc 4 327 29
	movq	-40(%rbp), %rax
	movq	(%rax), %rcx
	.loc 4 327 14
	leaq	-32(%rbp), %rax
	movq	%rcx, %rsi
	movq	%rax, %rdi
	call	_ZNSt14_Bit_referenceC1EPmm
	.loc 4 327 51
	leaq	-32(%rbp), %rax
	movq	%rax, %rdi
	call	_ZNKSt14_Bit_referencecvbEv
	.loc 4 327 54
	movq	-8(%rbp), %rsi
	xorq	%fs:40, %rsi
	je	.L41
	call	__stack_chk_fail@PLT
.L41:
	leave
	.cfi_def_cfa 7, 8
	ret
	.cfi_endproc
.LFE2088:
	.size	_ZNKSt19_Bit_const_iteratordeEv, .-_ZNKSt19_Bit_const_iteratordeEv
	.section	.text._ZNSt19_Bit_const_iteratorppEv,"axG",@progbits,_ZNSt19_Bit_const_iteratorppEv,comdat
	.align 2
	.weak	_ZNSt19_Bit_const_iteratorppEv
	.type	_ZNSt19_Bit_const_iteratorppEv, @function
_ZNSt19_Bit_const_iteratorppEv:
.LFB2089:
	.loc 4 330 5
	.cfi_startproc
	endbr64
	pushq	%rbp
	.cfi_def_cfa_offset 16
	.cfi_offset 6, -16
	movq	%rsp, %rbp
	.cfi_def_cfa_register 6
	subq	$16, %rsp
	movq	%rdi, -8(%rbp)
	.loc 4 332 17
	movq	-8(%rbp), %rax
	movq	%rax, %rdi
	call	_ZNSt18_Bit_iterator_base10_M_bump_upEv
	.loc 4 333 15
	movq	-8(%rbp), %rax
	.loc 4 334 5
	leave
	.cfi_def_cfa 7, 8
	ret
	.cfi_endproc
.LFE2089:
	.size	_ZNSt19_Bit_const_iteratorppEv, .-_ZNSt19_Bit_const_iteratorppEv
	.section	.text._ZSt11setiosflagsSt13_Ios_Fmtflags,"axG",@progbits,_ZSt11setiosflagsSt13_Ios_Fmtflags,comdat
	.weak	_ZSt11setiosflagsSt13_Ios_Fmtflags
	.type	_ZSt11setiosflagsSt13_Ios_Fmtflags, @function
_ZSt11setiosflagsSt13_Ios_Fmtflags:
.LFB2767:
	.file 5 "/usr/include/c++/9/iomanip"
	.loc 5 97 3
	.cfi_startproc
	endbr64
	pushq	%rbp
	.cfi_def_cfa_offset 16
	.cfi_offset 6, -16
	movq	%rsp, %rbp
	.cfi_def_cfa_register 6
	movl	%edi, -4(%rbp)
	.loc 5 97 21
	movl	-4(%rbp), %eax
	.loc 5 97 24
	popq	%rbp
	.cfi_def_cfa 7, 8
	ret
	.cfi_endproc
.LFE2767:
	.size	_ZSt11setiosflagsSt13_Ios_Fmtflags, .-_ZSt11setiosflagsSt13_Ios_Fmtflags
	.section	.text._ZSt4setwi,"axG",@progbits,_ZSt4setwi,comdat
	.weak	_ZSt4setwi
	.type	_ZSt4setwi, @function
_ZSt4setwi:
.LFB2779:
	.loc 5 226 3
	.cfi_startproc
	endbr64
	pushq	%rbp
	.cfi_def_cfa_offset 16
	.cfi_offset 6, -16
	movq	%rsp, %rbp
	.cfi_def_cfa_register 6
	movl	%edi, -4(%rbp)
	.loc 5 226 18
	movl	-4(%rbp), %eax
	.loc 5 226 21
	popq	%rbp
	.cfi_def_cfa 7, 8
	ret
	.cfi_endproc
.LFE2779:
	.size	_ZSt4setwi, .-_ZSt4setwi
	.section	.text._ZNKSt6chrono8durationIlSt5ratioILl1ELl1000000000EEE5countEv,"axG",@progbits,_ZNKSt6chrono8durationIlSt5ratioILl1ELl1000000000EEE5countEv,comdat
	.align 2
	.weak	_ZNKSt6chrono8durationIlSt5ratioILl1ELl1000000000EEE5countEv
	.type	_ZNKSt6chrono8durationIlSt5ratioILl1ELl1000000000EEE5countEv, @function
_ZNKSt6chrono8durationIlSt5ratioILl1ELl1000000000EEE5countEv:
.LFB2882:
	.file 6 "/usr/include/c++/9/chrono"
	.loc 6 346 2
	.cfi_startproc
	endbr64
	pushq	%rbp
	.cfi_def_cfa_offset 16
	.cfi_offset 6, -16
	movq	%rsp, %rbp
	.cfi_def_cfa_register 6
	movq	%rdi, -8(%rbp)
	.loc 6 347 11
	movq	-8(%rbp), %rax
	movq	(%rax), %rax
	.loc 6 347 16
	popq	%rbp
	.cfi_def_cfa 7, 8
	ret
	.cfi_endproc
.LFE2882:
	.size	_ZNKSt6chrono8durationIlSt5ratioILl1ELl1000000000EEE5countEv, .-_ZNKSt6chrono8durationIlSt5ratioILl1ELl1000000000EEE5countEv
	.section	.text._ZNSt6chrono8durationIlSt5ratioILl1ELl1000000000EEE4zeroEv,"axG",@progbits,_ZNSt6chrono8durationIlSt5ratioILl1ELl1000000000EEE4zeroEv,comdat
	.weak	_ZNSt6chrono8durationIlSt5ratioILl1ELl1000000000EEE4zeroEv
	.type	_ZNSt6chrono8durationIlSt5ratioILl1ELl1000000000EEE4zeroEv, @function
_ZNSt6chrono8durationIlSt5ratioILl1ELl1000000000EEE4zeroEv:
.LFB2884:
	.loc 6 431 2
	.cfi_startproc
	endbr64
	pushq	%rbp
	.cfi_def_cfa_offset 16
	.cfi_offset 6, -16
	movq	%rsp, %rbp
	.cfi_def_cfa_register 6
	subq	$32, %rsp
	.loc 6 431 2
	movq	%fs:40, %rax
	movq	%rax, -8(%rbp)
	xorl	%eax, %eax
	.loc 6 432 46
	call	_ZNSt6chrono15duration_valuesIlE4zeroEv
	movq	%rax, -24(%rbp)
	.loc 6 432 48
	leaq	-24(%rbp), %rdx
	leaq	-16(%rbp), %rax
	movq	%rdx, %rsi
	movq	%rax, %rdi
	call	_ZNSt6chrono8durationIlSt5ratioILl1ELl1000000000EEEC1IlvEERKT_
	movq	-16(%rbp), %rax
	.loc 6 432 51
	movq	-8(%rbp), %rcx
	xorq	%fs:40, %rcx
	je	.L52
	call	__stack_chk_fail@PLT
.L52:
	leave
	.cfi_def_cfa 7, 8
	ret
	.cfi_endproc
.LFE2884:
	.size	_ZNSt6chrono8durationIlSt5ratioILl1ELl1000000000EEE4zeroEv, .-_ZNSt6chrono8durationIlSt5ratioILl1ELl1000000000EEE4zeroEv
	.section	.text._ZNSt6chrono8durationIlSt5ratioILl1ELl1000000000EEEC1IlvEERKT_,"axG",@progbits,_ZNSt6chrono8durationIlSt5ratioILl1ELl1000000000EEEC1IlvEERKT_,comdat
	.align 2
	.weak	_ZNSt6chrono8durationIlSt5ratioILl1ELl1000000000EEEC1IlvEERKT_
	.type	_ZNSt6chrono8durationIlSt5ratioILl1ELl1000000000EEEC1IlvEERKT_, @function
_ZNSt6chrono8durationIlSt5ratioILl1ELl1000000000EEEC1IlvEERKT_:
.LFB2887:
	.loc 6 331 23
	.cfi_startproc
	endbr64
	pushq	%rbp
	.cfi_def_cfa_offset 16
	.cfi_offset 6, -16
	movq	%rsp, %rbp
	.cfi_def_cfa_register 6
	movq	%rdi, -8(%rbp)
	movq	%rsi, -16(%rbp)
.LBB12:
	.loc 6 332 33
	movq	-16(%rbp), %rax
	movq	(%rax), %rdx
	movq	-8(%rbp), %rax
	movq	%rdx, (%rax)
.LBE12:
	.loc 6 332 37
	nop
	popq	%rbp
	.cfi_def_cfa 7, 8
	ret
	.cfi_endproc
.LFE2887:
	.size	_ZNSt6chrono8durationIlSt5ratioILl1ELl1000000000EEEC1IlvEERKT_, .-_ZNSt6chrono8durationIlSt5ratioILl1ELl1000000000EEEC1IlvEERKT_
	.section	.text._ZNSt6chrono15duration_valuesIlE4zeroEv,"axG",@progbits,_ZNSt6chrono15duration_valuesIlE4zeroEv,comdat
	.weak	_ZNSt6chrono15duration_valuesIlE4zeroEv
	.type	_ZNSt6chrono15duration_valuesIlE4zeroEv, @function
_ZNSt6chrono15duration_valuesIlE4zeroEv:
.LFB2889:
	.loc 6 276 2
	.cfi_startproc
	endbr64
	pushq	%rbp
	.cfi_def_cfa_offset 16
	.cfi_offset 6, -16
	movq	%rsp, %rbp
	.cfi_def_cfa_register 6
	.loc 6 277 17
	movl	$0, %eax
	.loc 6 277 20
	popq	%rbp
	.cfi_def_cfa 7, 8
	ret
	.cfi_endproc
.LFE2889:
	.size	_ZNSt6chrono15duration_valuesIlE4zeroEv, .-_ZNSt6chrono15duration_valuesIlE4zeroEv
	.section	.text._ZN5TimerC2Ev,"axG",@progbits,_ZN5TimerC5Ev,comdat
	.align 2
	.weak	_ZN5TimerC2Ev
	.type	_ZN5TimerC2Ev, @function
_ZN5TimerC2Ev:
.LFB2906:
	.file 7 "/home/fengsc/Desktop/cpp/CppTest/class/src/timeCount.h"
	.loc 7 13 5
	.cfi_startproc
	endbr64
	pushq	%rbp
	.cfi_def_cfa_offset 16
	.cfi_offset 6, -16
	movq	%rsp, %rbp
	.cfi_def_cfa_register 6
	pushq	%rbx
	subq	$24, %rsp
	.cfi_offset 3, -24
	movq	%rdi, -24(%rbp)
.LBB13:
	.loc 7 14 5
	movq	-24(%rbp), %rax
	movq	%rax, %rdi
	call	_ZNSt6chrono10time_pointINS_3_V212system_clockENS_8durationIlSt5ratioILl1ELl1000000000EEEEEC1Ev
	movq	-24(%rbp), %rax
	addq	$8, %rax
	movq	%rax, %rdi
	call	_ZNSt6chrono10time_pointINS_3_V212system_clockENS_8durationIlSt5ratioILl1ELl1000000000EEEEEC1Ev
	.loc 7 15 57
	movq	-24(%rbp), %rbx
	call	_ZNSt6chrono3_V212system_clock3nowEv@PLT
	movq	%rax, (%rbx)
.LBE13:
	.loc 7 16 5
	nop
	addq	$24, %rsp
	popq	%rbx
	popq	%rbp
	.cfi_def_cfa 7, 8
	ret
	.cfi_endproc
.LFE2906:
	.size	_ZN5TimerC2Ev, .-_ZN5TimerC2Ev
	.weak	_ZN5TimerC1Ev
	.set	_ZN5TimerC1Ev,_ZN5TimerC2Ev
	.section	.rodata
.LC0:
	.string	"Timer took "
.LC2:
	.string	"ms"
	.section	.text._ZN5TimerD2Ev,"axG",@progbits,_ZN5TimerD5Ev,comdat
	.align 2
	.weak	_ZN5TimerD2Ev
	.type	_ZN5TimerD2Ev, @function
_ZN5TimerD2Ev:
.LFB2909:
	.loc 7 17 5
	.cfi_startproc
	.cfi_personality 0x9b,DW.ref.__gxx_personality_v0
	.cfi_lsda 0x1b,.LLSDA2909
	endbr64
	pushq	%rbp
	.cfi_def_cfa_offset 16
	.cfi_offset 6, -16
	movq	%rsp, %rbp
	.cfi_def_cfa_register 6
	pushq	%rbx
	subq	$56, %rsp
	.cfi_offset 3, -24
	movq	%rdi, -56(%rbp)
	.loc 7 17 5
	movq	%fs:40, %rax
	movq	%rax, -24(%rbp)
	xorl	%eax, %eax
.LBB14:
	.loc 7 19 55
	movq	-56(%rbp), %rbx
	call	_ZNSt6chrono3_V212system_clock3nowEv@PLT
	movq	%rax, 8(%rbx)
	.loc 7 20 26
	movq	-56(%rbp), %rax
	.loc 7 20 20
	movq	-56(%rbp), %rdx
	addq	$8, %rdx
	.loc 7 20 26
	movq	%rax, %rsi
	movq	%rdx, %rdi
	call	_ZNSt6chronomiINS_3_V212system_clockENS_8durationIlSt5ratioILl1ELl1000000000EEEES6_EENSt11common_typeIJT0_T1_EE4typeERKNS_10time_pointIT_S8_EERKNSC_ISD_S9_EE
	movq	%rax, -32(%rbp)
	.loc 7 20 18
	leaq	-32(%rbp), %rdx
	leaq	-36(%rbp), %rax
	movq	%rdx, %rsi
	movq	%rax, %rdi
	call	_ZNSt6chrono8durationIfSt5ratioILl1ELl1EEEC1IlS1_ILl1ELl1000000000EEvEERKNS0_IT_T0_EE
	movq	-56(%rbp), %rax
	movss	-36(%rbp), %xmm0
	movss	%xmm0, 16(%rax)
	.loc 7 21 22
	leaq	.LC0(%rip), %rsi
	leaq	_ZSt4cout(%rip), %rdi
	call	_ZStlsISt11char_traitsIcEERSt13basic_ostreamIcT_ES5_PKc@PLT
	movq	%rax, %rbx
	.loc 7 21 53
	movq	-56(%rbp), %rax
	addq	$16, %rax
	movq	%rax, %rdi
	call	_ZNKSt6chrono8durationIfSt5ratioILl1ELl1EEE5countEv
	.loc 7 21 56
	movss	.LC1(%rip), %xmm1
	mulss	%xmm1, %xmm0
	movq	%rbx, %rdi
	call	_ZNSolsEf@PLT
	.loc 7 21 64
	leaq	.LC2(%rip), %rsi
	movq	%rax, %rdi
	call	_ZStlsISt11char_traitsIcEERSt13basic_ostreamIcT_ES5_PKc@PLT
	movq	%rax, %rdx
	.loc 7 21 77
	movq	_ZSt4endlIcSt11char_traitsIcEERSt13basic_ostreamIT_T0_ES6_@GOTPCREL(%rip), %rax
	movq	%rax, %rsi
	movq	%rdx, %rdi
	call	_ZNSolsEPFRSoS_E@PLT
.LBE14:
	.loc 7 22 5
	nop
	movq	-24(%rbp), %rax
	xorq	%fs:40, %rax
	je	.L58
	call	__stack_chk_fail@PLT
.L58:
	addq	$56, %rsp
	popq	%rbx
	popq	%rbp
	.cfi_def_cfa 7, 8
	ret
	.cfi_endproc
.LFE2909:
	.globl	__gxx_personality_v0
	.section	.gcc_except_table._ZN5TimerD2Ev,"aG",@progbits,_ZN5TimerD5Ev,comdat
.LLSDA2909:
	.byte	0xff
	.byte	0xff
	.byte	0x1
	.uleb128 .LLSDACSE2909-.LLSDACSB2909
.LLSDACSB2909:
.LLSDACSE2909:
	.section	.text._ZN5TimerD2Ev,"axG",@progbits,_ZN5TimerD5Ev,comdat
	.size	_ZN5TimerD2Ev, .-_ZN5TimerD2Ev
	.weak	_ZN5TimerD1Ev
	.set	_ZN5TimerD1Ev,_ZN5TimerD2Ev
	.section	.text._ZN6MatrixIbED2Ev,"axG",@progbits,_ZN6MatrixIbED5Ev,comdat
	.align 2
	.weak	_ZN6MatrixIbED2Ev
	.type	_ZN6MatrixIbED2Ev, @function
_ZN6MatrixIbED2Ev:
.LFB2950:
	.file 8 "../src/Matrix.h"
	.loc 8 16 8
	.cfi_startproc
	endbr64
	pushq	%rbp
	.cfi_def_cfa_offset 16
	.cfi_offset 6, -16
	movq	%rsp, %rbp
	.cfi_def_cfa_register 6
	subq	$16, %rsp
	movq	%rdi, -8(%rbp)
.LBB15:
	.loc 8 16 8
	movq	-8(%rbp), %rax
	movq	%rax, %rdi
	call	_ZNSt6vectorIS_IbSaIbEESaIS1_EED1Ev
.LBE15:
	nop
	leave
	.cfi_def_cfa 7, 8
	ret
	.cfi_endproc
.LFE2950:
	.size	_ZN6MatrixIbED2Ev, .-_ZN6MatrixIbED2Ev
	.weak	_ZN6MatrixIbED1Ev
	.set	_ZN6MatrixIbED1Ev,_ZN6MatrixIbED2Ev
	.section	.text._ZN6MatrixIiED2Ev,"axG",@progbits,_ZN6MatrixIiED5Ev,comdat
	.align 2
	.weak	_ZN6MatrixIiED2Ev
	.type	_ZN6MatrixIiED2Ev, @function
_ZN6MatrixIiED2Ev:
.LFB2953:
	.loc 8 16 8
	.cfi_startproc
	endbr64
	pushq	%rbp
	.cfi_def_cfa_offset 16
	.cfi_offset 6, -16
	movq	%rsp, %rbp
	.cfi_def_cfa_register 6
	subq	$16, %rsp
	movq	%rdi, -8(%rbp)
.LBB16:
	.loc 8 16 8
	movq	-8(%rbp), %rax
	movq	%rax, %rdi
	call	_ZNSt6vectorIS_IiSaIiEESaIS1_EED1Ev
.LBE16:
	nop
	leave
	.cfi_def_cfa 7, 8
	ret
	.cfi_endproc
.LFE2953:
	.size	_ZN6MatrixIiED2Ev, .-_ZN6MatrixIiED2Ev
	.weak	_ZN6MatrixIiED1Ev
	.set	_ZN6MatrixIiED1Ev,_ZN6MatrixIiED2Ev
	.section	.rodata
	.align 8
.LC3:
	.string	"(1,4)(2,1)(2,3)(3,1)(3,4)(4,3)"
.LC4:
	.string	"(a,b)(b,d)(d,c)(c,a)"
	.text
	.globl	main
	.type	main, @function
main:
.LFB2948:
	.file 9 "../main.cpp"
	.loc 9 9 1
	.cfi_startproc
	.cfi_personality 0x9b,DW.ref.__gxx_personality_v0
	.cfi_lsda 0x1b,.LLSDA2948
	endbr64
	pushq	%rbp
	.cfi_def_cfa_offset 16
	.cfi_offset 6, -16
	movq	%rsp, %rbp
	.cfi_def_cfa_register 6
	pushq	%r15
	pushq	%r14
	pushq	%r13
	pushq	%r12
	pushq	%rbx
	subq	$584, %rsp
	.cfi_offset 15, -24
	.cfi_offset 14, -32
	.cfi_offset 13, -40
	.cfi_offset 12, -48
	.cfi_offset 3, -56
	.loc 9 9 1
	movq	%fs:40, %rax
	movq	%rax, -56(%rbp)
	xorl	%eax, %eax
	.loc 9 10 11
	leaq	-624(%rbp), %rax
	movq	%rax, %rdi
	call	_ZN5TimerC1Ev
	.loc 9 11 49
	movb	$49, -60(%rbp)
	movb	$50, -59(%rbp)
	movb	$51, -58(%rbp)
	movb	$52, -57(%rbp)
	leaq	-60(%rbp), %rax
	movq	%rax, %r14
	movl	$4, %r15d
	leaq	-176(%rbp), %rax
	movq	%rax, %rdi
	call	_ZNSaIcEC1Ev@PLT
	leaq	-176(%rbp), %rdx
	movq	%r14, %rsi
	movq	%r15, %rdi
	movq	%r14, %rcx
	movq	%r15, %rbx
	movq	%rbx, %rdi
	leaq	-592(%rbp), %rax
	movq	%rdx, %rcx
	movq	%rdi, %rdx
	movq	%rax, %rdi
.LEHB0:
	call	_ZNSt6vectorIcSaIcEEC1ESt16initializer_listIcERKS0_
.LEHE0:
	leaq	-176(%rbp), %rax
	movq	%rax, %rdi
	call	_ZNSaIcED1Ev@PLT
	.loc 9 12 62
	leaq	-256(%rbp), %rax
	movq	%rax, %rdi
	call	_ZNSaIcEC1Ev@PLT
	leaq	-256(%rbp), %rdx
	leaq	-96(%rbp), %rax
	leaq	.LC3(%rip), %rsi
	movq	%rax, %rdi
.LEHB1:
	call	_ZNSt7__cxx1112basic_stringIcSt11char_traitsIcESaIcEEC1IS3_EEPKcRKS3_
.LEHE1:
	.loc 9 12 62 is_stmt 0 discriminator 1
	leaq	-176(%rbp), %rax
	leaq	-96(%rbp), %rdx
	movq	%rdx, %rsi
	movq	%rax, %rdi
.LEHB2:
	call	_ZN11GraphMatrixIccE7getPairERKNSt7__cxx1112basic_stringIcSt11char_traitsIcESaIcEEE
.LEHE2:
	.loc 9 12 96 is_stmt 1 discriminator 2
	leaq	-176(%rbp), %rdx
	leaq	-592(%rbp), %rsi
	leaq	-336(%rbp), %rax
	movl	$1, %ecx
	movq	%rax, %rdi
.LEHB3:
	call	_ZN11GraphMatrixIccEC1ERKSt6vectorIcSaIcEERKS1_ISt4pairIccESaIS7_EE4._86
.LEHE3:
	leaq	-176(%rbp), %rax
	movq	%rax, %rdi
	call	_ZNSt6vectorISt4pairIccESaIS1_EED1Ev
	leaq	-96(%rbp), %rax
	movq	%rax, %rdi
	call	_ZNSt7__cxx1112basic_stringIcSt11char_traitsIcESaIcEED1Ev@PLT
	leaq	-256(%rbp), %rax
	movq	%rax, %rdi
	call	_ZNSaIcED1Ev@PLT
	.loc 9 13 29
	leaq	-176(%rbp), %rax
	leaq	-336(%rbp), %rdx
	movq	%rdx, %rsi
	movq	%rax, %rdi
.LEHB4:
	call	_ZN11GraphMatrixIccE14adjacentMatrixEv
.LEHE4:
	.loc 9 13 30 discriminator 1
	leaq	-176(%rbp), %rax
	movq	%rax, %rsi
	leaq	_ZSt4cout(%rip), %rdi
.LEHB5:
	call	_ZlsIbERSoS0_RK6MatrixIT_E
	movq	%rax, %rdx
	.loc 9 13 35 discriminator 1
	movq	_ZSt4endlIcSt11char_traitsIcEERSt13basic_ostreamIT_T0_ES6_@GOTPCREL(%rip), %rax
	movq	%rax, %rsi
	movq	%rdx, %rdi
	call	_ZNSolsEPFRSoS_E@PLT
.LEHE5:
	.loc 9 13 29 discriminator 5
	leaq	-176(%rbp), %rax
	movq	%rax, %rdi
	call	_ZN6MatrixIbED1Ev
	.file 10 "../src/GraphMatrix.h"
	.loc 10 110 75 discriminator 5
	movb	$1, -176(%rbp)
	.loc 9 14 13 discriminator 5
	leaq	-176(%rbp), %rdx
	leaq	-336(%rbp), %rax
	movq	%rdx, %r8
	movl	$1, %ecx
	movl	$3, %edx
	movl	$2, %esi
	movq	%rax, %rdi
.LEHB6:
	call	_ZN11GraphMatrixIccE6insertEiiiRKc
	.loc 9 15 29
	leaq	-176(%rbp), %rax
	leaq	-336(%rbp), %rdx
	movq	%rdx, %rsi
	movq	%rax, %rdi
	call	_ZN11GraphMatrixIccE14adjacentMatrixEv
.LEHE6:
	.loc 9 15 30 discriminator 1
	leaq	-176(%rbp), %rax
	movq	%rax, %rsi
	leaq	_ZSt4cout(%rip), %rdi
.LEHB7:
	call	_ZlsIbERSoS0_RK6MatrixIT_E
	movq	%rax, %rdx
	.loc 9 15 35 discriminator 1
	movq	_ZSt4endlIcSt11char_traitsIcEERSt13basic_ostreamIT_T0_ES6_@GOTPCREL(%rip), %rax
	movq	%rax, %rsi
	movq	%rdx, %rdi
	call	_ZNSolsEPFRSoS_E@PLT
.LEHE7:
	.loc 9 15 29 discriminator 5
	leaq	-176(%rbp), %rax
	movq	%rax, %rdi
	call	_ZN6MatrixIbED1Ev
	.loc 9 16 19 discriminator 5
	movb	$49, -176(%rbp)
	.loc 9 16 14 discriminator 5
	movb	$52, -256(%rbp)
	.loc 9 16 13 discriminator 5
	leaq	-176(%rbp), %rdx
	leaq	-256(%rbp), %rcx
	leaq	-336(%rbp), %rax
	movq	%rcx, %rsi
	movq	%rax, %rdi
.LEHB8:
	call	_ZN11GraphMatrixIccE6insertERKcS2_
	.loc 9 17 29 discriminator 2
	leaq	-176(%rbp), %rax
	leaq	-336(%rbp), %rdx
	movq	%rdx, %rsi
	movq	%rax, %rdi
	call	_ZN11GraphMatrixIccE14adjacentMatrixEv
.LEHE8:
	.loc 9 17 30 discriminator 1
	leaq	-176(%rbp), %rax
	movq	%rax, %rsi
	leaq	_ZSt4cout(%rip), %rdi
.LEHB9:
	call	_ZlsIbERSoS0_RK6MatrixIT_E
	movq	%rax, %rdx
	.loc 9 17 35 discriminator 1
	movq	_ZSt4endlIcSt11char_traitsIcEERSt13basic_ostreamIT_T0_ES6_@GOTPCREL(%rip), %rax
	movq	%rax, %rsi
	movq	%rdx, %rdi
	call	_ZNSolsEPFRSoS_E@PLT
.LEHE9:
	.loc 9 17 29 discriminator 5
	leaq	-176(%rbp), %rax
	movq	%rax, %rdi
	call	_ZN6MatrixIbED1Ev
	.loc 9 18 14 discriminator 5
	movb	$50, -176(%rbp)
	.loc 9 18 13 discriminator 5
	leaq	-176(%rbp), %rdx
	leaq	-336(%rbp), %rax
	movq	%rdx, %rsi
	movq	%rax, %rdi
.LEHB10:
	call	_ZN11GraphMatrixIccE6removeERKc
	.loc 9 19 29 discriminator 2
	leaq	-176(%rbp), %rax
	leaq	-336(%rbp), %rdx
	movq	%rdx, %rsi
	movq	%rax, %rdi
	call	_ZN11GraphMatrixIccE14adjacentMatrixEv
.LEHE10:
	.loc 9 19 30 discriminator 1
	leaq	-176(%rbp), %rax
	movq	%rax, %rsi
	leaq	_ZSt4cout(%rip), %rdi
.LEHB11:
	call	_ZlsIbERSoS0_RK6MatrixIT_E
	movq	%rax, %rdx
	.loc 9 19 35 discriminator 1
	movq	_ZSt4endlIcSt11char_traitsIcEERSt13basic_ostreamIT_T0_ES6_@GOTPCREL(%rip), %rax
	movq	%rax, %rsi
	movq	%rdx, %rdi
	call	_ZNSolsEPFRSoS_E@PLT
.LEHE11:
	.loc 9 19 29 discriminator 5
	leaq	-176(%rbp), %rax
	movq	%rax, %rdi
	call	_ZN6MatrixIbED1Ev
	.loc 9 20 14 discriminator 5
	movb	$49, -176(%rbp)
	.loc 9 20 13 discriminator 5
	leaq	-176(%rbp), %rdx
	leaq	-336(%rbp), %rax
	movq	%rdx, %rsi
	movq	%rax, %rdi
.LEHB12:
	call	_ZN11GraphMatrixIccE6insertERKc
	.loc 9 21 39 discriminator 2
	leaq	-528(%rbp), %rax
	leaq	-336(%rbp), %rdx
	movq	%rdx, %rsi
	movq	%rax, %rdi
	call	_ZN11GraphMatrixIccE14adjacentMatrixEv
.LEHE12:
	.loc 9 22 20
	leaq	-176(%rbp), %rax
	leaq	-528(%rbp), %rcx
	movl	$10, %edx
	movq	%rcx, %rsi
	movq	%rax, %rdi
.LEHB13:
	call	_ZN6MatrixIbE5powerEm
.LEHE13:
	.loc 9 22 23 discriminator 1
	leaq	-176(%rbp), %rax
	movq	%rax, %rsi
	leaq	_ZSt4cout(%rip), %rdi
.LEHB14:
	call	_ZlsIbERSoS0_RK6MatrixIT_E
	movq	%rax, %rdx
	.loc 9 22 28 discriminator 1
	movq	_ZSt4endlIcSt11char_traitsIcEERSt13basic_ostreamIT_T0_ES6_@GOTPCREL(%rip), %rax
	movq	%rax, %rsi
	movq	%rdx, %rdi
	call	_ZNSolsEPFRSoS_E@PLT
.LEHE14:
	.loc 9 22 20 discriminator 5
	leaq	-176(%rbp), %rax
	movq	%rax, %rdi
	call	_ZN6MatrixIbED1Ev
	.loc 9 23 16 discriminator 5
	leaq	-528(%rbp), %rax
	movl	$0, %esi
	movq	%rax, %rdi
	call	_ZN6MatrixIbEixEm
	.loc 9 23 19 discriminator 5
	movl	$2, %esi
	movq	%rax, %rdi
	call	_ZNSt6vectorIbSaIbEEixEm
	movq	%rax, -176(%rbp)
	movq	%rdx, -168(%rbp)
	leaq	-176(%rbp), %rax
	movq	%rax, %rdi
	call	_ZNKSt14_Bit_referencecvbEv
	movzbl	%al, %eax
	movl	%eax, %esi
	leaq	_ZSt4cout(%rip), %rdi
.LEHB15:
	call	_ZNSolsEb@PLT
	movq	%rax, %rdx
	.loc 9 23 24 discriminator 5
	movq	_ZSt4endlIcSt11char_traitsIcEERSt13basic_ostreamIT_T0_ES6_@GOTPCREL(%rip), %rax
	movq	%rax, %rsi
	movq	%rdx, %rdi
	call	_ZNSolsEPFRSoS_E@PLT
	.loc 9 24 33 discriminator 4
	leaq	-176(%rbp), %rax
	leaq	-336(%rbp), %rdx
	movq	%rdx, %rsi
	movq	%rax, %rdi
	call	_ZN11GraphMatrixIccE18reachabilityMatrixEv
.LEHE15:
	.loc 9 24 34 discriminator 1
	leaq	-176(%rbp), %rax
	movq	%rax, %rsi
	leaq	_ZSt4cout(%rip), %rdi
.LEHB16:
	call	_ZlsIbERSoS0_RK6MatrixIT_E
	movq	%rax, %rdx
	.loc 9 24 39 discriminator 1
	movq	_ZSt4endlIcSt11char_traitsIcEERSt13basic_ostreamIT_T0_ES6_@GOTPCREL(%rip), %rax
	movq	%rax, %rsi
	movq	%rdx, %rdi
	call	_ZNSolsEPFRSoS_E@PLT
.LEHE16:
	.loc 9 24 33 discriminator 5
	leaq	-176(%rbp), %rax
	movq	%rax, %rdi
	call	_ZN6MatrixIbED1Ev
	.loc 9 25 63 discriminator 5
	leaq	-384(%rbp), %rax
	movq	%rax, %rdi
	call	_ZNSaIcEC1Ev@PLT
	leaq	-384(%rbp), %rdx
	leaq	-96(%rbp), %rax
	leaq	.LC3(%rip), %rsi
	movq	%rax, %rdi
.LEHB17:
	call	_ZNSt7__cxx1112basic_stringIcSt11char_traitsIcESaIcEEC1IS3_EEPKcRKS3_
.LEHE17:
	.loc 9 25 63 is_stmt 0 discriminator 1
	leaq	-176(%rbp), %rax
	leaq	-96(%rbp), %rdx
	movq	%rdx, %rsi
	movq	%rax, %rdi
.LEHB18:
	call	_ZN11GraphMatrixIccE7getPairERKNSt7__cxx1112basic_stringIcSt11char_traitsIcESaIcEEE
.LEHE18:
	.loc 9 25 97 is_stmt 1 discriminator 2
	leaq	-176(%rbp), %rdx
	leaq	-592(%rbp), %rsi
	leaq	-256(%rbp), %rax
	movl	$1, %ecx
	movq	%rax, %rdi
.LEHB19:
	call	_ZN11GraphMatrixIccEC1ERKSt6vectorIcSaIcEERKS1_ISt4pairIccESaIS7_EE4._86
.LEHE19:
	leaq	-176(%rbp), %rax
	movq	%rax, %rdi
	call	_ZNSt6vectorISt4pairIccESaIS1_EED1Ev
	leaq	-96(%rbp), %rax
	movq	%rax, %rdi
	call	_ZNSt7__cxx1112basic_stringIcSt11char_traitsIcESaIcEED1Ev@PLT
	leaq	-384(%rbp), %rax
	movq	%rax, %rdi
	call	_ZNSaIcED1Ev@PLT
	.loc 9 26 24
	leaq	-176(%rbp), %rax
	leaq	-256(%rbp), %rdx
	movq	%rdx, %rsi
	movq	%rax, %rdi
.LEHB20:
	call	_ZN11GraphMatrixIccE8WarshallEv
.LEHE20:
	.loc 9 26 25 discriminator 1
	leaq	-176(%rbp), %rax
	movq	%rax, %rsi
	leaq	_ZSt4cout(%rip), %rdi
.LEHB21:
	call	_ZlsIbERSoS0_RK6MatrixIT_E
	movq	%rax, %rdx
	.loc 9 26 30 discriminator 1
	movq	_ZSt4endlIcSt11char_traitsIcEERSt13basic_ostreamIT_T0_ES6_@GOTPCREL(%rip), %rax
	movq	%rax, %rsi
	movq	%rdx, %rdi
	call	_ZNSolsEPFRSoS_E@PLT
.LEHE21:
	.loc 9 26 24 discriminator 5
	leaq	-176(%rbp), %rax
	movq	%rax, %rdi
	call	_ZN6MatrixIbED1Ev
	.loc 9 27 34 discriminator 5
	leaq	-176(%rbp), %rax
	leaq	-256(%rbp), %rdx
	movq	%rdx, %rsi
	movq	%rax, %rdi
.LEHB22:
	call	_ZN11GraphMatrixIccE18reachabilityMatrixEv
.LEHE22:
	.loc 9 27 35 discriminator 1
	leaq	-176(%rbp), %rax
	movq	%rax, %rsi
	leaq	_ZSt4cout(%rip), %rdi
.LEHB23:
	call	_ZlsIbERSoS0_RK6MatrixIT_E
	movq	%rax, %rdx
	.loc 9 27 40 discriminator 1
	movq	_ZSt4endlIcSt11char_traitsIcEERSt13basic_ostreamIT_T0_ES6_@GOTPCREL(%rip), %rax
	movq	%rax, %rsi
	movq	%rdx, %rdi
	call	_ZNSolsEPFRSoS_E@PLT
.LEHE23:
	.loc 9 27 34 discriminator 5
	leaq	-176(%rbp), %rax
	movq	%rax, %rdi
	call	_ZN6MatrixIbED1Ev
	.loc 9 28 33 discriminator 5
	movb	$49, -176(%rbp)
	.loc 9 28 28 discriminator 5
	movb	$52, -384(%rbp)
	.loc 9 28 36 discriminator 5
	leaq	-176(%rbp), %rdx
	leaq	-384(%rbp), %rcx
	leaq	-256(%rbp), %rax
	movq	%rcx, %rsi
	movq	%rax, %rdi
.LEHB24:
	call	_ZN11GraphMatrixIccE11minDistanceERKcS2_
	movl	%eax, %esi
	leaq	_ZSt4cout(%rip), %rdi
	call	_ZNSolsEi@PLT
	.loc 9 28 36 is_stmt 0 discriminator 2
	movq	%rax, %rdx
	.loc 9 28 41 is_stmt 1 discriminator 2
	movq	_ZSt4endlIcSt11char_traitsIcEERSt13basic_ostreamIT_T0_ES6_@GOTPCREL(%rip), %rax
	movq	%rax, %rsi
	movq	%rdx, %rdi
	call	_ZNSolsEPFRSoS_E@PLT
.LEHE24:
	.loc 9 29 29 discriminator 6
	movb	$49, -176(%rbp)
	.loc 9 29 32 discriminator 6
	leaq	-176(%rbp), %rdx
	leaq	-256(%rbp), %rax
	movq	%rdx, %rsi
	movq	%rax, %rdi
.LEHB25:
	call	_ZN11GraphMatrixIccE12LengthOfLoopERKc
	movl	%eax, %esi
	leaq	_ZSt4cout(%rip), %rdi
	call	_ZNSolsEi@PLT
	.loc 9 29 32 is_stmt 0 discriminator 2
	movq	%rax, %rdx
	.loc 9 29 37 is_stmt 1 discriminator 2
	movq	_ZSt4endlIcSt11char_traitsIcEERSt13basic_ostreamIT_T0_ES6_@GOTPCREL(%rip), %rax
	movq	%rax, %rsi
	movq	%rdx, %rdi
	call	_ZNSolsEPFRSoS_E@PLT
.LEHE25:
	.loc 9 30 31 discriminator 6
	movb	$51, -176(%rbp)
	.loc 9 30 26 discriminator 6
	movb	$49, -384(%rbp)
	.loc 9 30 37 discriminator 6
	leaq	-176(%rbp), %rdx
	leaq	-384(%rbp), %rsi
	leaq	-256(%rbp), %rax
	movl	$4, %ecx
	movq	%rax, %rdi
.LEHB26:
	call	_ZN11GraphMatrixIccE9sumOfPathERKcS2_i
	movl	%eax, %esi
	leaq	_ZSt4cout(%rip), %rdi
	call	_ZNSolsEi@PLT
	.loc 9 30 37 is_stmt 0 discriminator 2
	movq	%rax, %rdx
	.loc 9 30 42 is_stmt 1 discriminator 2
	movq	_ZSt4endlIcSt11char_traitsIcEERSt13basic_ostreamIT_T0_ES6_@GOTPCREL(%rip), %rax
	movq	%rax, %rsi
	movq	%rdx, %rdi
	call	_ZNSolsEPFRSoS_E@PLT
.LEHE26:
	.loc 9 31 47 discriminator 6
	movb	$97, -60(%rbp)
	movb	$98, -59(%rbp)
	movb	$99, -58(%rbp)
	movb	$100, -57(%rbp)
	leaq	-60(%rbp), %rax
	movq	%rax, %r12
	movl	$4, %r13d
	leaq	-176(%rbp), %rax
	movq	%rax, %rdi
	call	_ZNSaIcEC1Ev@PLT
	leaq	-176(%rbp), %rdx
	movq	%r12, %rsi
	movq	%r13, %rdi
	movq	%r12, %rcx
	movq	%r13, %rbx
	movq	%rbx, %rdi
	leaq	-560(%rbp), %rax
	movq	%rdx, %rcx
	movq	%rdi, %rdx
	movq	%rax, %rdi
.LEHB27:
	call	_ZNSt6vectorIcSaIcEEC1ESt16initializer_listIcERKS0_
.LEHE27:
	leaq	-176(%rbp), %rax
	movq	%rax, %rdi
	call	_ZNSaIcED1Ev@PLT
	.loc 9 32 64
	leaq	-432(%rbp), %rax
	movq	%rax, %rdi
	call	_ZNSaIcEC1Ev@PLT
	leaq	-432(%rbp), %rdx
	leaq	-96(%rbp), %rax
	leaq	.LC4(%rip), %rsi
	movq	%rax, %rdi
.LEHB28:
	call	_ZNSt7__cxx1112basic_stringIcSt11char_traitsIcESaIcEEC1IS3_EEPKcRKS3_
.LEHE28:
	.loc 9 32 64 is_stmt 0 discriminator 1
	leaq	-384(%rbp), %rax
	leaq	-96(%rbp), %rdx
	movq	%rdx, %rsi
	movq	%rax, %rdi
.LEHB29:
	call	_ZN11GraphMatrixIccE7getPairERKNSt7__cxx1112basic_stringIcSt11char_traitsIcESaIcEEE
.LEHE29:
	.loc 9 32 100 is_stmt 1 discriminator 2
	leaq	-384(%rbp), %rdx
	leaq	-560(%rbp), %rsi
	leaq	-176(%rbp), %rax
	movl	$0, %ecx
	movq	%rax, %rdi
.LEHB30:
	call	_ZN11GraphMatrixIccEC1ERKSt6vectorIcSaIcEERKS1_ISt4pairIccESaIS7_EE4._86
.LEHE30:
	leaq	-384(%rbp), %rax
	movq	%rax, %rdi
	call	_ZNSt6vectorISt4pairIccESaIS1_EED1Ev
	leaq	-96(%rbp), %rax
	movq	%rax, %rdi
	call	_ZNSt7__cxx1112basic_stringIcSt11char_traitsIcESaIcEED1Ev@PLT
	leaq	-432(%rbp), %rax
	movq	%rax, %rdi
	call	_ZNSaIcED1Ev@PLT
	.loc 9 33 30
	leaq	-384(%rbp), %rax
	leaq	-176(%rbp), %rdx
	movq	%rdx, %rsi
	movq	%rax, %rdi
.LEHB31:
	call	_ZN11GraphMatrixIccE14adjacentMatrixEv
.LEHE31:
	.loc 9 33 31 discriminator 1
	leaq	-384(%rbp), %rax
	movq	%rax, %rsi
	leaq	_ZSt4cout(%rip), %rdi
.LEHB32:
	call	_ZlsIbERSoS0_RK6MatrixIT_E
	movq	%rax, %rdx
	.loc 9 33 36 discriminator 1
	movq	_ZSt4endlIcSt11char_traitsIcEERSt13basic_ostreamIT_T0_ES6_@GOTPCREL(%rip), %rax
	movq	%rax, %rsi
	movq	%rdx, %rdi
	call	_ZNSolsEPFRSoS_E@PLT
.LEHE32:
	.loc 9 33 30 discriminator 5
	leaq	-384(%rbp), %rax
	movq	%rax, %rdi
	call	_ZN6MatrixIbED1Ev
	.loc 9 34 31 discriminator 5
	movb	$100, -384(%rbp)
	.loc 9 34 26 discriminator 5
	movb	$97, -432(%rbp)
	.loc 9 34 37 discriminator 5
	leaq	-384(%rbp), %rdx
	leaq	-432(%rbp), %rsi
	leaq	-176(%rbp), %rax
	movl	$4, %ecx
	movq	%rax, %rdi
.LEHB33:
	call	_ZN11GraphMatrixIccE9sumOfPathERKcS2_i
	movl	%eax, %esi
	leaq	_ZSt4cout(%rip), %rdi
	call	_ZNSolsEi@PLT
	.loc 9 34 37 is_stmt 0 discriminator 2
	movq	%rax, %rdx
	.loc 9 34 42 is_stmt 1 discriminator 2
	movq	_ZSt4endlIcSt11char_traitsIcEERSt13basic_ostreamIT_T0_ES6_@GOTPCREL(%rip), %rax
	movq	%rax, %rsi
	movq	%rdx, %rdi
	call	_ZNSolsEPFRSoS_E@PLT
.LEHE33:
	.loc 9 35 30 discriminator 6
	leaq	-480(%rbp), %rax
	leaq	-176(%rbp), %rdx
	movq	%rdx, %rsi
	movq	%rax, %rdi
.LEHB34:
	call	_ZN11GraphMatrixIccE14adjacentMatrixEv
.LEHE34:
	.loc 9 35 39 discriminator 1
	leaq	-432(%rbp), %rax
	leaq	-480(%rbp), %rdx
	movq	%rdx, %rsi
	movq	%rax, %rdi
.LEHB35:
	call	_ZN6MatrixIbE6getIntEv
.LEHE35:
	.loc 9 35 47 discriminator 3
	leaq	-384(%rbp), %rax
	leaq	-432(%rbp), %rcx
	movl	$4, %edx
	movq	%rcx, %rsi
	movq	%rax, %rdi
.LEHB36:
	call	_ZN6MatrixIiE5powerEm
.LEHE36:
	.loc 9 35 49 discriminator 5
	leaq	-384(%rbp), %rax
	movq	%rax, %rsi
	leaq	_ZSt4cout(%rip), %rdi
.LEHB37:
	call	_ZlsIiERSoS0_RK6MatrixIT_E
	movq	%rax, %rdx
	.loc 9 35 54 discriminator 5
	movq	_ZSt4endlIcSt11char_traitsIcEERSt13basic_ostreamIT_T0_ES6_@GOTPCREL(%rip), %rax
	movq	%rax, %rsi
	movq	%rdx, %rdi
	call	_ZNSolsEPFRSoS_E@PLT
.LEHE37:
	.loc 9 35 47 discriminator 9
	leaq	-384(%rbp), %rax
	movq	%rax, %rdi
	call	_ZN6MatrixIiED1Ev
	.loc 9 35 39 discriminator 9
	leaq	-432(%rbp), %rax
	movq	%rax, %rdi
	call	_ZN6MatrixIiED1Ev
	.loc 9 35 30 discriminator 9
	leaq	-480(%rbp), %rax
	movq	%rax, %rdi
	call	_ZN6MatrixIbED1Ev
	.loc 9 36 34 discriminator 9
	leaq	-384(%rbp), %rax
	leaq	-176(%rbp), %rdx
	movq	%rdx, %rsi
	movq	%rax, %rdi
.LEHB38:
	call	_ZN11GraphMatrixIccE18reachabilityMatrixEv
.LEHE38:
	.loc 9 36 35 discriminator 1
	leaq	-384(%rbp), %rax
	movq	%rax, %rsi
	leaq	_ZSt4cout(%rip), %rdi
.LEHB39:
	call	_ZlsIbERSoS0_RK6MatrixIT_E
.LEHE39:
	.loc 9 36 34 discriminator 3
	leaq	-384(%rbp), %rax
	movq	%rax, %rdi
	call	_ZN6MatrixIbED1Ev
	.loc 9 32 100 discriminator 3
	leaq	-176(%rbp), %rax
	movq	%rax, %rdi
	call	_ZN11GraphMatrixIccED1Ev
	.loc 9 31 47 discriminator 3
	leaq	-560(%rbp), %rax
	movq	%rax, %rdi
	call	_ZNSt6vectorIcSaIcEED1Ev
	.loc 9 25 97 discriminator 3
	leaq	-256(%rbp), %rax
	movq	%rax, %rdi
	call	_ZN11GraphMatrixIccED1Ev
	.loc 9 21 39 discriminator 3
	leaq	-528(%rbp), %rax
	movq	%rax, %rdi
	call	_ZN6MatrixIbED1Ev
	.loc 9 12 96 discriminator 3
	leaq	-336(%rbp), %rax
	movq	%rax, %rdi
	call	_ZN11GraphMatrixIccED1Ev
	.loc 9 11 49 discriminator 3
	leaq	-592(%rbp), %rax
	movq	%rax, %rdi
	call	_ZNSt6vectorIcSaIcEED1Ev
	.loc 9 10 11 discriminator 3
	leaq	-624(%rbp), %rax
	movq	%rax, %rdi
	call	_ZN5TimerD1Ev
	.loc 9 37 1 discriminator 3
	movl	$0, %eax
	movq	-56(%rbp), %rcx
	xorq	%fs:40, %rcx
	je	.L97
	jmp	.L129
.L98:
	endbr64
	movq	%rax, %rbx
	leaq	-176(%rbp), %rax
	movq	%rax, %rdi
	call	_ZNSaIcED1Ev@PLT
	jmp	.L64
.L101:
	endbr64
	movq	%rax, %rbx
	leaq	-176(%rbp), %rax
	movq	%rax, %rdi
	call	_ZNSt6vectorISt4pairIccESaIS1_EED1Ev
	jmp	.L66
.L100:
	endbr64
	movq	%rax, %rbx
.L66:
	leaq	-96(%rbp), %rax
	movq	%rax, %rdi
	call	_ZNSt7__cxx1112basic_stringIcSt11char_traitsIcESaIcEED1Ev@PLT
	jmp	.L67
.L99:
	endbr64
	movq	%rax, %rbx
.L67:
	leaq	-256(%rbp), %rax
	movq	%rax, %rdi
	call	_ZNSaIcED1Ev@PLT
	jmp	.L68
.L103:
	endbr64
	movq	%rax, %rbx
	.loc 9 13 29
	leaq	-176(%rbp), %rax
	movq	%rax, %rdi
	call	_ZN6MatrixIbED1Ev
	jmp	.L70
.L104:
	endbr64
	movq	%rax, %rbx
	.loc 9 15 29
	leaq	-176(%rbp), %rax
	movq	%rax, %rdi
	call	_ZN6MatrixIbED1Ev
	jmp	.L70
.L105:
	endbr64
	movq	%rax, %rbx
	.loc 9 17 29
	leaq	-176(%rbp), %rax
	movq	%rax, %rdi
	call	_ZN6MatrixIbED1Ev
	jmp	.L70
.L106:
	endbr64
	movq	%rax, %rbx
	.loc 9 19 29
	leaq	-176(%rbp), %rax
	movq	%rax, %rdi
	call	_ZN6MatrixIbED1Ev
	jmp	.L70
.L108:
	endbr64
	movq	%rax, %rbx
	.loc 9 22 20
	leaq	-176(%rbp), %rax
	movq	%rax, %rdi
	call	_ZN6MatrixIbED1Ev
	jmp	.L75
.L109:
	endbr64
	movq	%rax, %rbx
	.loc 9 24 33
	leaq	-176(%rbp), %rax
	movq	%rax, %rdi
	call	_ZN6MatrixIbED1Ev
	jmp	.L75
.L112:
	endbr64
	movq	%rax, %rbx
	leaq	-176(%rbp), %rax
	movq	%rax, %rdi
	call	_ZNSt6vectorISt4pairIccESaIS1_EED1Ev
	jmp	.L78
.L111:
	endbr64
	movq	%rax, %rbx
.L78:
	leaq	-96(%rbp), %rax
	movq	%rax, %rdi
	call	_ZNSt7__cxx1112basic_stringIcSt11char_traitsIcESaIcEED1Ev@PLT
	jmp	.L79
.L110:
	endbr64
	movq	%rax, %rbx
.L79:
	leaq	-384(%rbp), %rax
	movq	%rax, %rdi
	call	_ZNSaIcED1Ev@PLT
	jmp	.L75
.L114:
	endbr64
	movq	%rax, %rbx
	.loc 9 26 24
	leaq	-176(%rbp), %rax
	movq	%rax, %rdi
	call	_ZN6MatrixIbED1Ev
	jmp	.L81
.L115:
	endbr64
	movq	%rax, %rbx
	.loc 9 27 34
	leaq	-176(%rbp), %rax
	movq	%rax, %rdi
	call	_ZN6MatrixIbED1Ev
	jmp	.L81
.L116:
	endbr64
	movq	%rax, %rbx
	jmp	.L81
.L117:
	endbr64
	movq	%rax, %rbx
	jmp	.L81
.L118:
	endbr64
	movq	%rax, %rbx
	leaq	-176(%rbp), %rax
	movq	%rax, %rdi
	call	_ZNSaIcED1Ev@PLT
	jmp	.L81
.L121:
	endbr64
	movq	%rax, %rbx
	leaq	-384(%rbp), %rax
	movq	%rax, %rdi
	call	_ZNSt6vectorISt4pairIccESaIS1_EED1Ev
	jmp	.L87
.L120:
	endbr64
	movq	%rax, %rbx
.L87:
	leaq	-96(%rbp), %rax
	movq	%rax, %rdi
	call	_ZNSt7__cxx1112basic_stringIcSt11char_traitsIcESaIcEED1Ev@PLT
	jmp	.L88
.L119:
	endbr64
	movq	%rax, %rbx
.L88:
	leaq	-432(%rbp), %rax
	movq	%rax, %rdi
	call	_ZNSaIcED1Ev@PLT
	jmp	.L89
.L123:
	endbr64
	movq	%rax, %rbx
	.loc 9 33 30
	leaq	-384(%rbp), %rax
	movq	%rax, %rdi
	call	_ZN6MatrixIbED1Ev
	jmp	.L91
.L124:
	endbr64
	movq	%rax, %rbx
	jmp	.L91
.L127:
	endbr64
	movq	%rax, %rbx
	.loc 9 35 47
	leaq	-384(%rbp), %rax
	movq	%rax, %rdi
	call	_ZN6MatrixIiED1Ev
	jmp	.L94
.L126:
	endbr64
	movq	%rax, %rbx
.L94:
	.loc 9 35 39 discriminator 4
	leaq	-432(%rbp), %rax
	movq	%rax, %rdi
	call	_ZN6MatrixIiED1Ev
	jmp	.L95
.L125:
	endbr64
	movq	%rax, %rbx
.L95:
	.loc 9 35 30 discriminator 2
	leaq	-480(%rbp), %rax
	movq	%rax, %rdi
	call	_ZN6MatrixIbED1Ev
	jmp	.L91
.L128:
	endbr64
	movq	%rax, %rbx
	.loc 9 36 34
	leaq	-384(%rbp), %rax
	movq	%rax, %rdi
	call	_ZN6MatrixIbED1Ev
	jmp	.L91
.L122:
	endbr64
	movq	%rax, %rbx
.L91:
	.loc 9 32 100
	leaq	-176(%rbp), %rax
	movq	%rax, %rdi
	call	_ZN11GraphMatrixIccED1Ev
.L89:
	.loc 9 31 47
	leaq	-560(%rbp), %rax
	movq	%rax, %rdi
	call	_ZNSt6vectorIcSaIcEED1Ev
	jmp	.L81
.L113:
	endbr64
	movq	%rax, %rbx
.L81:
	.loc 9 25 97
	leaq	-256(%rbp), %rax
	movq	%rax, %rdi
	call	_ZN11GraphMatrixIccED1Ev
	jmp	.L75
.L107:
	endbr64
	movq	%rax, %rbx
.L75:
	.loc 9 21 39
	leaq	-528(%rbp), %rax
	movq	%rax, %rdi
	call	_ZN6MatrixIbED1Ev
	jmp	.L70
.L102:
	endbr64
	movq	%rax, %rbx
.L70:
	.loc 9 12 96
	leaq	-336(%rbp), %rax
	movq	%rax, %rdi
	call	_ZN11GraphMatrixIccED1Ev
.L68:
	.loc 9 11 49
	leaq	-592(%rbp), %rax
	movq	%rax, %rdi
	call	_ZNSt6vectorIcSaIcEED1Ev
.L64:
	.loc 9 10 11
	leaq	-624(%rbp), %rax
	movq	%rax, %rdi
	call	_ZN5TimerD1Ev
	movq	%rbx, %rax
	movq	%rax, %rdi
.LEHB40:
	call	_Unwind_Resume@PLT
.LEHE40:
.L129:
	.loc 9 37 1
	call	__stack_chk_fail@PLT
.L97:
	addq	$584, %rsp
	popq	%rbx
	popq	%r12
	popq	%r13
	popq	%r14
	popq	%r15
	popq	%rbp
	.cfi_def_cfa 7, 8
	ret
	.cfi_endproc
.LFE2948:
	.section	.gcc_except_table,"a",@progbits
.LLSDA2948:
	.byte	0xff
	.byte	0xff
	.byte	0x1
	.uleb128 .LLSDACSE2948-.LLSDACSB2948
.LLSDACSB2948:
	.uleb128 .LEHB0-.LFB2948
	.uleb128 .LEHE0-.LEHB0
	.uleb128 .L98-.LFB2948
	.uleb128 0
	.uleb128 .LEHB1-.LFB2948
	.uleb128 .LEHE1-.LEHB1
	.uleb128 .L99-.LFB2948
	.uleb128 0
	.uleb128 .LEHB2-.LFB2948
	.uleb128 .LEHE2-.LEHB2
	.uleb128 .L100-.LFB2948
	.uleb128 0
	.uleb128 .LEHB3-.LFB2948
	.uleb128 .LEHE3-.LEHB3
	.uleb128 .L101-.LFB2948
	.uleb128 0
	.uleb128 .LEHB4-.LFB2948
	.uleb128 .LEHE4-.LEHB4
	.uleb128 .L102-.LFB2948
	.uleb128 0
	.uleb128 .LEHB5-.LFB2948
	.uleb128 .LEHE5-.LEHB5
	.uleb128 .L103-.LFB2948
	.uleb128 0
	.uleb128 .LEHB6-.LFB2948
	.uleb128 .LEHE6-.LEHB6
	.uleb128 .L102-.LFB2948
	.uleb128 0
	.uleb128 .LEHB7-.LFB2948
	.uleb128 .LEHE7-.LEHB7
	.uleb128 .L104-.LFB2948
	.uleb128 0
	.uleb128 .LEHB8-.LFB2948
	.uleb128 .LEHE8-.LEHB8
	.uleb128 .L102-.LFB2948
	.uleb128 0
	.uleb128 .LEHB9-.LFB2948
	.uleb128 .LEHE9-.LEHB9
	.uleb128 .L105-.LFB2948
	.uleb128 0
	.uleb128 .LEHB10-.LFB2948
	.uleb128 .LEHE10-.LEHB10
	.uleb128 .L102-.LFB2948
	.uleb128 0
	.uleb128 .LEHB11-.LFB2948
	.uleb128 .LEHE11-.LEHB11
	.uleb128 .L106-.LFB2948
	.uleb128 0
	.uleb128 .LEHB12-.LFB2948
	.uleb128 .LEHE12-.LEHB12
	.uleb128 .L102-.LFB2948
	.uleb128 0
	.uleb128 .LEHB13-.LFB2948
	.uleb128 .LEHE13-.LEHB13
	.uleb128 .L107-.LFB2948
	.uleb128 0
	.uleb128 .LEHB14-.LFB2948
	.uleb128 .LEHE14-.LEHB14
	.uleb128 .L108-.LFB2948
	.uleb128 0
	.uleb128 .LEHB15-.LFB2948
	.uleb128 .LEHE15-.LEHB15
	.uleb128 .L107-.LFB2948
	.uleb128 0
	.uleb128 .LEHB16-.LFB2948
	.uleb128 .LEHE16-.LEHB16
	.uleb128 .L109-.LFB2948
	.uleb128 0
	.uleb128 .LEHB17-.LFB2948
	.uleb128 .LEHE17-.LEHB17
	.uleb128 .L110-.LFB2948
	.uleb128 0
	.uleb128 .LEHB18-.LFB2948
	.uleb128 .LEHE18-.LEHB18
	.uleb128 .L111-.LFB2948
	.uleb128 0
	.uleb128 .LEHB19-.LFB2948
	.uleb128 .LEHE19-.LEHB19
	.uleb128 .L112-.LFB2948
	.uleb128 0
	.uleb128 .LEHB20-.LFB2948
	.uleb128 .LEHE20-.LEHB20
	.uleb128 .L113-.LFB2948
	.uleb128 0
	.uleb128 .LEHB21-.LFB2948
	.uleb128 .LEHE21-.LEHB21
	.uleb128 .L114-.LFB2948
	.uleb128 0
	.uleb128 .LEHB22-.LFB2948
	.uleb128 .LEHE22-.LEHB22
	.uleb128 .L113-.LFB2948
	.uleb128 0
	.uleb128 .LEHB23-.LFB2948
	.uleb128 .LEHE23-.LEHB23
	.uleb128 .L115-.LFB2948
	.uleb128 0
	.uleb128 .LEHB24-.LFB2948
	.uleb128 .LEHE24-.LEHB24
	.uleb128 .L116-.LFB2948
	.uleb128 0
	.uleb128 .LEHB25-.LFB2948
	.uleb128 .LEHE25-.LEHB25
	.uleb128 .L113-.LFB2948
	.uleb128 0
	.uleb128 .LEHB26-.LFB2948
	.uleb128 .LEHE26-.LEHB26
	.uleb128 .L117-.LFB2948
	.uleb128 0
	.uleb128 .LEHB27-.LFB2948
	.uleb128 .LEHE27-.LEHB27
	.uleb128 .L118-.LFB2948
	.uleb128 0
	.uleb128 .LEHB28-.LFB2948
	.uleb128 .LEHE28-.LEHB28
	.uleb128 .L119-.LFB2948
	.uleb128 0
	.uleb128 .LEHB29-.LFB2948
	.uleb128 .LEHE29-.LEHB29
	.uleb128 .L120-.LFB2948
	.uleb128 0
	.uleb128 .LEHB30-.LFB2948
	.uleb128 .LEHE30-.LEHB30
	.uleb128 .L121-.LFB2948
	.uleb128 0
	.uleb128 .LEHB31-.LFB2948
	.uleb128 .LEHE31-.LEHB31
	.uleb128 .L122-.LFB2948
	.uleb128 0
	.uleb128 .LEHB32-.LFB2948
	.uleb128 .LEHE32-.LEHB32
	.uleb128 .L123-.LFB2948
	.uleb128 0
	.uleb128 .LEHB33-.LFB2948
	.uleb128 .LEHE33-.LEHB33
	.uleb128 .L124-.LFB2948
	.uleb128 0
	.uleb128 .LEHB34-.LFB2948
	.uleb128 .LEHE34-.LEHB34
	.uleb128 .L122-.LFB2948
	.uleb128 0
	.uleb128 .LEHB35-.LFB2948
	.uleb128 .LEHE35-.LEHB35
	.uleb128 .L125-.LFB2948
	.uleb128 0
	.uleb128 .LEHB36-.LFB2948
	.uleb128 .LEHE36-.LEHB36
	.uleb128 .L126-.LFB2948
	.uleb128 0
	.uleb128 .LEHB37-.LFB2948
	.uleb128 .LEHE37-.LEHB37
	.uleb128 .L127-.LFB2948
	.uleb128 0
	.uleb128 .LEHB38-.LFB2948
	.uleb128 .LEHE38-.LEHB38
	.uleb128 .L122-.LFB2948
	.uleb128 0
	.uleb128 .LEHB39-.LFB2948
	.uleb128 .LEHE39-.LEHB39
	.uleb128 .L128-.LFB2948
	.uleb128 0
	.uleb128 .LEHB40-.LFB2948
	.uleb128 .LEHE40-.LEHB40
	.uleb128 0
	.uleb128 0
.LLSDACSE2948:
	.text
	.size	main, .-main
	.section	.text._ZN9__gnu_cxx11char_traitsIcE2eqERKcS3_,"axG",@progbits,_ZN9__gnu_cxx11char_traitsIcE2eqERKcS3_,comdat
	.weak	_ZN9__gnu_cxx11char_traitsIcE2eqERKcS3_
	.type	_ZN9__gnu_cxx11char_traitsIcE2eqERKcS3_, @function
_ZN9__gnu_cxx11char_traitsIcE2eqERKcS3_:
.LFB2958:
	.loc 2 100 7
	.cfi_startproc
	endbr64
	pushq	%rbp
	.cfi_def_cfa_offset 16
	.cfi_offset 6, -16
	movq	%rsp, %rbp
	.cfi_def_cfa_register 6
	movq	%rdi, -8(%rbp)
	movq	%rsi, -16(%rbp)
	.loc 2 101 21
	movq	-8(%rbp), %rax
	movzbl	(%rax), %edx
	movq	-16(%rbp), %rax
	movzbl	(%rax), %eax
	.loc 2 101 24
	cmpb	%al, %dl
	sete	%al
	.loc 2 101 30
	popq	%rbp
	.cfi_def_cfa 7, 8
	ret
	.cfi_endproc
.LFE2958:
	.size	_ZN9__gnu_cxx11char_traitsIcE2eqERKcS3_, .-_ZN9__gnu_cxx11char_traitsIcE2eqERKcS3_
	.section	.text._ZN9__gnu_cxx11char_traitsIcE6lengthEPKc,"axG",@progbits,_ZN9__gnu_cxx11char_traitsIcE6lengthEPKc,comdat
	.align 2
	.weak	_ZN9__gnu_cxx11char_traitsIcE6lengthEPKc
	.type	_ZN9__gnu_cxx11char_traitsIcE6lengthEPKc, @function
_ZN9__gnu_cxx11char_traitsIcE6lengthEPKc:
.LFB2957:
	.loc 2 161 5
	.cfi_startproc
	endbr64
	pushq	%rbp
	.cfi_def_cfa_offset 16
	.cfi_offset 6, -16
	movq	%rsp, %rbp
	.cfi_def_cfa_register 6
	subq	$48, %rsp
	movq	%rdi, -40(%rbp)
	.loc 2 161 5
	movq	%fs:40, %rax
	movq	%rax, -8(%rbp)
	xorl	%eax, %eax
	.loc 2 164 19
	movq	$0, -16(%rbp)
.L134:
	.loc 2 165 17
	movb	$0, -17(%rbp)
	.loc 2 165 21
	movq	-40(%rbp), %rdx
	movq	-16(%rbp), %rax
	addq	%rax, %rdx
	.loc 2 165 17
	leaq	-17(%rbp), %rax
	movq	%rax, %rsi
	movq	%rdx, %rdi
	call	_ZN9__gnu_cxx11char_traitsIcE2eqERKcS3_
	.loc 2 165 14
	xorl	$1, %eax
	testb	%al, %al
	je	.L133
	.loc 2 166 9
	addq	$1, -16(%rbp)
	.loc 2 165 7
	jmp	.L134
.L133:
	.loc 2 167 14
	movq	-16(%rbp), %rax
	.loc 2 168 5
	movq	-8(%rbp), %rcx
	xorq	%fs:40, %rcx
	je	.L136
	call	__stack_chk_fail@PLT
.L136:
	leave
	.cfi_def_cfa 7, 8
	ret
	.cfi_endproc
.LFE2957:
	.size	_ZN9__gnu_cxx11char_traitsIcE6lengthEPKc, .-_ZN9__gnu_cxx11char_traitsIcE6lengthEPKc
	.section	.text._ZNSt7__cxx1112basic_stringIcSt11char_traitsIcESaIcEE12_Alloc_hiderD2Ev,"axG",@progbits,_ZNSt7__cxx1112basic_stringIcSt11char_traitsIcESaIcEE12_Alloc_hiderD5Ev,comdat
	.align 2
	.weak	_ZNSt7__cxx1112basic_stringIcSt11char_traitsIcESaIcEE12_Alloc_hiderD2Ev
	.type	_ZNSt7__cxx1112basic_stringIcSt11char_traitsIcESaIcEE12_Alloc_hiderD2Ev, @function
_ZNSt7__cxx1112basic_stringIcSt11char_traitsIcESaIcEE12_Alloc_hiderD2Ev:
.LFB3060:
	.file 11 "/usr/include/c++/9/bits/basic_string.h"
	.loc 11 150 14
	.cfi_startproc
	endbr64
	pushq	%rbp
	.cfi_def_cfa_offset 16
	.cfi_offset 6, -16
	movq	%rsp, %rbp
	.cfi_def_cfa_register 6
	subq	$16, %rsp
	movq	%rdi, -8(%rbp)
.LBB17:
	.loc 11 150 14
	movq	-8(%rbp), %rax
	movq	%rax, %rdi
	call	_ZNSaIcED2Ev@PLT
.LBE17:
	nop
	leave
	.cfi_def_cfa 7, 8
	ret
	.cfi_endproc
.LFE3060:
	.size	_ZNSt7__cxx1112basic_stringIcSt11char_traitsIcESaIcEE12_Alloc_hiderD2Ev, .-_ZNSt7__cxx1112basic_stringIcSt11char_traitsIcESaIcEE12_Alloc_hiderD2Ev
	.weak	_ZNSt7__cxx1112basic_stringIcSt11char_traitsIcESaIcEE12_Alloc_hiderD1Ev
	.set	_ZNSt7__cxx1112basic_stringIcSt11char_traitsIcESaIcEE12_Alloc_hiderD1Ev,_ZNSt7__cxx1112basic_stringIcSt11char_traitsIcESaIcEE12_Alloc_hiderD2Ev
	.section	.text._ZNKSt6chrono10time_pointINS_3_V212system_clockENS_8durationIlSt5ratioILl1ELl1000000000EEEEE16time_since_epochEv,"axG",@progbits,_ZNKSt6chrono10time_pointINS_3_V212system_clockENS_8durationIlSt5ratioILl1ELl1000000000EEEEE16time_since_epochEv,comdat
	.align 2
	.weak	_ZNKSt6chrono10time_pointINS_3_V212system_clockENS_8durationIlSt5ratioILl1ELl1000000000EEEEE16time_since_epochEv
	.type	_ZNKSt6chrono10time_pointINS_3_V212system_clockENS_8durationIlSt5ratioILl1ELl1000000000EEEEE16time_since_epochEv, @function
_ZNKSt6chrono10time_pointINS_3_V212system_clockENS_8durationIlSt5ratioILl1ELl1000000000EEEEE16time_since_epochEv:
.LFB3221:
	.loc 6 649 2
	.cfi_startproc
	endbr64
	pushq	%rbp
	.cfi_def_cfa_offset 16
	.cfi_offset 6, -16
	movq	%rsp, %rbp
	.cfi_def_cfa_register 6
	movq	%rdi, -8(%rbp)
	.loc 6 650 11
	movq	-8(%rbp), %rax
	movq	(%rax), %rax
	.loc 6 650 16
	popq	%rbp
	.cfi_def_cfa 7, 8
	ret
	.cfi_endproc
.LFE3221:
	.size	_ZNKSt6chrono10time_pointINS_3_V212system_clockENS_8durationIlSt5ratioILl1ELl1000000000EEEEE16time_since_epochEv, .-_ZNKSt6chrono10time_pointINS_3_V212system_clockENS_8durationIlSt5ratioILl1ELl1000000000EEEEE16time_since_epochEv
	.section	.text._ZNSt6chrono10time_pointINS_3_V212system_clockENS_8durationIlSt5ratioILl1ELl1000000000EEEEEC2Ev,"axG",@progbits,_ZNSt6chrono10time_pointINS_3_V212system_clockENS_8durationIlSt5ratioILl1ELl1000000000EEEEEC5Ev,comdat
	.align 2
	.weak	_ZNSt6chrono10time_pointINS_3_V212system_clockENS_8durationIlSt5ratioILl1ELl1000000000EEEEEC2Ev
	.type	_ZNSt6chrono10time_pointINS_3_V212system_clockENS_8durationIlSt5ratioILl1ELl1000000000EEEEEC2Ev, @function
_ZNSt6chrono10time_pointINS_3_V212system_clockENS_8durationIlSt5ratioILl1ELl1000000000EEEEEC2Ev:
.LFB3250:
	.loc 6 633 12
	.cfi_startproc
	endbr64
	pushq	%rbp
	.cfi_def_cfa_offset 16
	.cfi_offset 6, -16
	movq	%rsp, %rbp
	.cfi_def_cfa_register 6
	pushq	%rbx
	subq	$24, %rsp
	.cfi_offset 3, -24
	movq	%rdi, -24(%rbp)
.LBB18:
	.loc 6 633 45
	movq	-24(%rbp), %rbx
	call	_ZNSt6chrono8durationIlSt5ratioILl1ELl1000000000EEE4zeroEv
	movq	%rax, (%rbx)
.LBE18:
	.loc 6 634 4
	nop
	addq	$24, %rsp
	popq	%rbx
	popq	%rbp
	.cfi_def_cfa 7, 8
	ret
	.cfi_endproc
.LFE3250:
	.size	_ZNSt6chrono10time_pointINS_3_V212system_clockENS_8durationIlSt5ratioILl1ELl1000000000EEEEEC2Ev, .-_ZNSt6chrono10time_pointINS_3_V212system_clockENS_8durationIlSt5ratioILl1ELl1000000000EEEEEC2Ev
	.weak	_ZNSt6chrono10time_pointINS_3_V212system_clockENS_8durationIlSt5ratioILl1ELl1000000000EEEEEC1Ev
	.set	_ZNSt6chrono10time_pointINS_3_V212system_clockENS_8durationIlSt5ratioILl1ELl1000000000EEEEEC1Ev,_ZNSt6chrono10time_pointINS_3_V212system_clockENS_8durationIlSt5ratioILl1ELl1000000000EEEEEC2Ev
	.section	.text._ZNSt6chronomiINS_3_V212system_clockENS_8durationIlSt5ratioILl1ELl1000000000EEEES6_EENSt11common_typeIJT0_T1_EE4typeERKNS_10time_pointIT_S8_EERKNSC_ISD_S9_EE,"axG",@progbits,_ZNSt6chronomiINS_3_V212system_clockENS_8durationIlSt5ratioILl1ELl1000000000EEEES6_EENSt11common_typeIJT0_T1_EE4typeERKNS_10time_pointIT_S8_EERKNSC_ISD_S9_EE,comdat
	.weak	_ZNSt6chronomiINS_3_V212system_clockENS_8durationIlSt5ratioILl1ELl1000000000EEEES6_EENSt11common_typeIJT0_T1_EE4typeERKNS_10time_pointIT_S8_EERKNSC_ISD_S9_EE
	.type	_ZNSt6chronomiINS_3_V212system_clockENS_8durationIlSt5ratioILl1ELl1000000000EEEES6_EENSt11common_typeIJT0_T1_EE4typeERKNS_10time_pointIT_S8_EERKNSC_ISD_S9_EE, @function
_ZNSt6chronomiINS_3_V212system_clockENS_8durationIlSt5ratioILl1ELl1000000000EEEES6_EENSt11common_typeIJT0_T1_EE4typeERKNS_10time_pointIT_S8_EERKNSC_ISD_S9_EE:
.LFB3252:
	.loc 6 762 7
	.cfi_startproc
	endbr64
	pushq	%rbp
	.cfi_def_cfa_offset 16
	.cfi_offset 6, -16
	movq	%rsp, %rbp
	.cfi_def_cfa_register 6
	subq	$48, %rsp
	movq	%rdi, -40(%rbp)
	movq	%rsi, -48(%rbp)
	.loc 6 762 7
	movq	%fs:40, %rax
	movq	%rax, -8(%rbp)
	xorl	%eax, %eax
	.loc 6 764 41
	movq	-48(%rbp), %rax
	movq	%rax, %rdi
	call	_ZNKSt6chrono10time_pointINS_3_V212system_clockENS_8durationIlSt5ratioILl1ELl1000000000EEEEE16time_since_epochEv
	movq	%rax, -16(%rbp)
	movq	-40(%rbp), %rax
	movq	%rax, %rdi
	call	_ZNKSt6chrono10time_pointINS_3_V212system_clockENS_8durationIlSt5ratioILl1ELl1000000000EEEEE16time_since_epochEv
	movq	%rax, -24(%rbp)
	leaq	-16(%rbp), %rdx
	leaq	-24(%rbp), %rax
	movq	%rdx, %rsi
	movq	%rax, %rdi
	call	_ZNSt6chronomiIlSt5ratioILl1ELl1000000000EElS2_EENSt11common_typeIJNS_8durationIT_T0_EENS4_IT1_T2_EEEE4typeERKS7_RKSA_
	.loc 6 764 69
	movq	-8(%rbp), %rcx
	xorq	%fs:40, %rcx
	je	.L143
	call	__stack_chk_fail@PLT
.L143:
	leave
	.cfi_def_cfa 7, 8
	ret
	.cfi_endproc
.LFE3252:
	.size	_ZNSt6chronomiINS_3_V212system_clockENS_8durationIlSt5ratioILl1ELl1000000000EEEES6_EENSt11common_typeIJT0_T1_EE4typeERKNS_10time_pointIT_S8_EERKNSC_ISD_S9_EE, .-_ZNSt6chronomiINS_3_V212system_clockENS_8durationIlSt5ratioILl1ELl1000000000EEEES6_EENSt11common_typeIJT0_T1_EE4typeERKNS_10time_pointIT_S8_EERKNSC_ISD_S9_EE
	.section	.text._ZNSt6chrono8durationIfSt5ratioILl1ELl1EEEC2IlS1_ILl1ELl1000000000EEvEERKNS0_IT_T0_EE,"axG",@progbits,_ZNSt6chrono8durationIfSt5ratioILl1ELl1EEEC5IlS1_ILl1ELl1000000000EEvEERKNS0_IT_T0_EE,comdat
	.align 2
	.weak	_ZNSt6chrono8durationIfSt5ratioILl1ELl1EEEC2IlS1_ILl1ELl1000000000EEvEERKNS0_IT_T0_EE
	.type	_ZNSt6chrono8durationIfSt5ratioILl1ELl1EEEC2IlS1_ILl1ELl1000000000EEvEERKNS0_IT_T0_EE, @function
_ZNSt6chrono8durationIfSt5ratioILl1ELl1EEEC2IlS1_ILl1ELl1000000000EEvEERKNS0_IT_T0_EE:
.LFB3254:
	.loc 6 338 14
	.cfi_startproc
	endbr64
	pushq	%rbp
	.cfi_def_cfa_offset 16
	.cfi_offset 6, -16
	movq	%rsp, %rbp
	.cfi_def_cfa_register 6
	subq	$32, %rsp
	movq	%rdi, -24(%rbp)
	movq	%rsi, -32(%rbp)
	.loc 6 338 14
	movq	%fs:40, %rax
	movq	%rax, -8(%rbp)
	xorl	%eax, %eax
.LBB19:
	.loc 6 339 33
	movq	-32(%rbp), %rax
	movq	%rax, %rdi
	call	_ZNSt6chrono13duration_castINS_8durationIfSt5ratioILl1ELl1EEEElS2_ILl1ELl1000000000EEEENSt9enable_ifIXsrNS_13__is_durationIT_EE5valueES8_E4typeERKNS1_IT0_T1_EE
	movss	%xmm0, -12(%rbp)
	.loc 6 339 46
	leaq	-12(%rbp), %rax
	movq	%rax, %rdi
	call	_ZNKSt6chrono8durationIfSt5ratioILl1ELl1EEE5countEv
	movd	%xmm0, %eax
	movq	-24(%rbp), %rdx
	movl	%eax, (%rdx)
.LBE19:
	.loc 6 339 50
	nop
	movq	-8(%rbp), %rax
	xorq	%fs:40, %rax
	je	.L145
	call	__stack_chk_fail@PLT
.L145:
	leave
	.cfi_def_cfa 7, 8
	ret
	.cfi_endproc
.LFE3254:
	.size	_ZNSt6chrono8durationIfSt5ratioILl1ELl1EEEC2IlS1_ILl1ELl1000000000EEvEERKNS0_IT_T0_EE, .-_ZNSt6chrono8durationIfSt5ratioILl1ELl1EEEC2IlS1_ILl1ELl1000000000EEvEERKNS0_IT_T0_EE
	.weak	_ZNSt6chrono8durationIfSt5ratioILl1ELl1EEEC1IlS1_ILl1ELl1000000000EEvEERKNS0_IT_T0_EE
	.set	_ZNSt6chrono8durationIfSt5ratioILl1ELl1EEEC1IlS1_ILl1ELl1000000000EEvEERKNS0_IT_T0_EE,_ZNSt6chrono8durationIfSt5ratioILl1ELl1EEEC2IlS1_ILl1ELl1000000000EEvEERKNS0_IT_T0_EE
	.section	.text._ZNKSt6chrono8durationIfSt5ratioILl1ELl1EEE5countEv,"axG",@progbits,_ZNKSt6chrono8durationIfSt5ratioILl1ELl1EEE5countEv,comdat
	.align 2
	.weak	_ZNKSt6chrono8durationIfSt5ratioILl1ELl1EEE5countEv
	.type	_ZNKSt6chrono8durationIfSt5ratioILl1ELl1EEE5countEv, @function
_ZNKSt6chrono8durationIfSt5ratioILl1ELl1EEE5countEv:
.LFB3257:
	.loc 6 346 2
	.cfi_startproc
	endbr64
	pushq	%rbp
	.cfi_def_cfa_offset 16
	.cfi_offset 6, -16
	movq	%rsp, %rbp
	.cfi_def_cfa_register 6
	movq	%rdi, -8(%rbp)
	.loc 6 347 11
	movq	-8(%rbp), %rax
	movss	(%rax), %xmm0
	.loc 6 347 16
	popq	%rbp
	.cfi_def_cfa 7, 8
	ret
	.cfi_endproc
.LFE3257:
	.size	_ZNKSt6chrono8durationIfSt5ratioILl1ELl1EEE5countEv, .-_ZNKSt6chrono8durationIfSt5ratioILl1ELl1EEE5countEv
	.section	.text._ZNSt6vectorIcSaIcEEC2ESt16initializer_listIcERKS0_,"axG",@progbits,_ZNSt6vectorIcSaIcEEC5ESt16initializer_listIcERKS0_,comdat
	.align 2
	.weak	_ZNSt6vectorIcSaIcEEC2ESt16initializer_listIcERKS0_
	.type	_ZNSt6vectorIcSaIcEEC2ESt16initializer_listIcERKS0_, @function
_ZNSt6vectorIcSaIcEEC2ESt16initializer_listIcERKS0_:
.LFB3262:
	.file 12 "/usr/include/c++/9/bits/stl_vector.h"
	.loc 12 622 7
	.cfi_startproc
	.cfi_personality 0x9b,DW.ref.__gxx_personality_v0
	.cfi_lsda 0x1b,.LLSDA3262
	endbr64
	pushq	%rbp
	.cfi_def_cfa_offset 16
	.cfi_offset 6, -16
	movq	%rsp, %rbp
	.cfi_def_cfa_register 6
	pushq	%rbx
	subq	$56, %rsp
	.cfi_offset 3, -24
	movq	%rdi, -40(%rbp)
	movq	%rsi, %rax
	movq	%rdx, %rsi
	movq	%rsi, %rdx
	movq	%rax, -64(%rbp)
	movq	%rdx, -56(%rbp)
	movq	%rcx, -48(%rbp)
	.loc 12 622 7
	movq	%fs:40, %rax
	movq	%rax, -24(%rbp)
	xorl	%eax, %eax
.LBB20:
	.loc 12 624 18
	movq	-40(%rbp), %rax
	movq	-48(%rbp), %rdx
	movq	%rdx, %rsi
	movq	%rax, %rdi
	call	_ZNSt12_Vector_baseIcSaIcEEC2ERKS0_
	.loc 12 626 2
	leaq	-64(%rbp), %rax
	movq	%rax, %rdi
	call	_ZNKSt16initializer_listIcE3endEv
	movq	%rax, %rbx
	leaq	-64(%rbp), %rax
	movq	%rax, %rdi
	call	_ZNKSt16initializer_listIcE5beginEv
	movq	%rax, %rcx
	movq	-40(%rbp), %rax
	movq	%rbx, %rdx
	movq	%rcx, %rsi
	movq	%rax, %rdi
.LEHB41:
	call	_ZNSt6vectorIcSaIcEE19_M_range_initializeIPKcEEvT_S5_St20forward_iterator_tag
.LEHE41:
.LBE20:
	.loc 12 628 7
	jmp	.L152
.L151:
	endbr64
	movq	%rax, %rbx
.LBB21:
	.loc 12 624 18
	movq	-40(%rbp), %rax
	movq	%rax, %rdi
	call	_ZNSt12_Vector_baseIcSaIcEED2Ev
	movq	%rbx, %rax
	movq	%rax, %rdi
.LEHB42:
	call	_Unwind_Resume@PLT
.LEHE42:
.L152:
.LBE21:
	.loc 12 628 7
	movq	-24(%rbp), %rax
	xorq	%fs:40, %rax
	je	.L150
	call	__stack_chk_fail@PLT
.L150:
	addq	$56, %rsp
	popq	%rbx
	popq	%rbp
	.cfi_def_cfa 7, 8
	ret
	.cfi_endproc
.LFE3262:
	.section	.gcc_except_table
.LLSDA3262:
	.byte	0xff
	.byte	0xff
	.byte	0x1
	.uleb128 .LLSDACSE3262-.LLSDACSB3262
.LLSDACSB3262:
	.uleb128 .LEHB41-.LFB3262
	.uleb128 .LEHE41-.LEHB41
	.uleb128 .L151-.LFB3262
	.uleb128 0
	.uleb128 .LEHB42-.LFB3262
	.uleb128 .LEHE42-.LEHB42
	.uleb128 0
	.uleb128 0
.LLSDACSE3262:
	.section	.text._ZNSt6vectorIcSaIcEEC2ESt16initializer_listIcERKS0_,"axG",@progbits,_ZNSt6vectorIcSaIcEEC5ESt16initializer_listIcERKS0_,comdat
	.size	_ZNSt6vectorIcSaIcEEC2ESt16initializer_listIcERKS0_, .-_ZNSt6vectorIcSaIcEEC2ESt16initializer_listIcERKS0_
	.weak	_ZNSt6vectorIcSaIcEEC1ESt16initializer_listIcERKS0_
	.set	_ZNSt6vectorIcSaIcEEC1ESt16initializer_listIcERKS0_,_ZNSt6vectorIcSaIcEEC2ESt16initializer_listIcERKS0_
	.section	.text._ZNSt6vectorIcSaIcEED2Ev,"axG",@progbits,_ZNSt6vectorIcSaIcEED5Ev,comdat
	.align 2
	.weak	_ZNSt6vectorIcSaIcEED2Ev
	.type	_ZNSt6vectorIcSaIcEED2Ev, @function
_ZNSt6vectorIcSaIcEED2Ev:
.LFB3265:
	.loc 12 675 7
	.cfi_startproc
	.cfi_personality 0x9b,DW.ref.__gxx_personality_v0
	.cfi_lsda 0x1b,.LLSDA3265
	endbr64
	pushq	%rbp
	.cfi_def_cfa_offset 16
	.cfi_offset 6, -16
	movq	%rsp, %rbp
	.cfi_def_cfa_register 6
	subq	$16, %rsp
	movq	%rdi, -8(%rbp)
.LBB22:
	.loc 12 678 28
	movq	-8(%rbp), %rax
	movq	%rax, %rdi
	call	_ZNSt12_Vector_baseIcSaIcEE19_M_get_Tp_allocatorEv
	movq	%rax, %rdx
	.loc 12 677 15
	movq	-8(%rbp), %rax
	movq	8(%rax), %rcx
	movq	-8(%rbp), %rax
	movq	(%rax), %rax
	movq	%rcx, %rsi
	movq	%rax, %rdi
	call	_ZSt8_DestroyIPccEvT_S1_RSaIT0_E
	.loc 12 680 7
	movq	-8(%rbp), %rax
	movq	%rax, %rdi
	call	_ZNSt12_Vector_baseIcSaIcEED2Ev
.LBE22:
	nop
	leave
	.cfi_def_cfa 7, 8
	ret
	.cfi_endproc
.LFE3265:
	.section	.gcc_except_table
.LLSDA3265:
	.byte	0xff
	.byte	0xff
	.byte	0x1
	.uleb128 .LLSDACSE3265-.LLSDACSB3265
.LLSDACSB3265:
.LLSDACSE3265:
	.section	.text._ZNSt6vectorIcSaIcEED2Ev,"axG",@progbits,_ZNSt6vectorIcSaIcEED5Ev,comdat
	.size	_ZNSt6vectorIcSaIcEED2Ev, .-_ZNSt6vectorIcSaIcEED2Ev
	.weak	_ZNSt6vectorIcSaIcEED1Ev
	.set	_ZNSt6vectorIcSaIcEED1Ev,_ZNSt6vectorIcSaIcEED2Ev
	.section	.text._ZN11GraphMatrixIccE7getPairERKNSt7__cxx1112basic_stringIcSt11char_traitsIcESaIcEEE,"axG",@progbits,_ZN11GraphMatrixIccE7getPairERKNSt7__cxx1112basic_stringIcSt11char_traitsIcESaIcEEE,comdat
	.weak	_ZN11GraphMatrixIccE7getPairERKNSt7__cxx1112basic_stringIcSt11char_traitsIcESaIcEEE
	.type	_ZN11GraphMatrixIccE7getPairERKNSt7__cxx1112basic_stringIcSt11char_traitsIcESaIcEEE, @function
_ZN11GraphMatrixIccE7getPairERKNSt7__cxx1112basic_stringIcSt11char_traitsIcESaIcEEE:
.LFB3267:
	.loc 10 127 33
	.cfi_startproc
	endbr64
	pushq	%rbp
	.cfi_def_cfa_offset 16
	.cfi_offset 6, -16
	movq	%rsp, %rbp
	.cfi_def_cfa_register 6
	subq	$32, %rsp
	movq	%rdi, -24(%rbp)
	movq	%rsi, -32(%rbp)
	.loc 10 127 33
	movq	%fs:40, %rax
	movq	%rax, -8(%rbp)
	xorl	%eax, %eax
	.loc 10 129 43
	movq	-24(%rbp), %rax
	movq	-32(%rbp), %rdx
	movq	%rdx, %rsi
	movq	%rax, %rdi
	call	_ZN6MatrixIbE7getPairIcEESt6vectorISt4pairIT_S4_ESaIS5_EERKNSt7__cxx1112basic_stringIcSt11char_traitsIcESaIcEEE
	.loc 10 130 5
	movq	-8(%rbp), %rax
	xorq	%fs:40, %rax
	je	.L156
	call	__stack_chk_fail@PLT
.L156:
	movq	-24(%rbp), %rax
	leave
	.cfi_def_cfa 7, 8
	ret
	.cfi_endproc
.LFE3267:
	.size	_ZN11GraphMatrixIccE7getPairERKNSt7__cxx1112basic_stringIcSt11char_traitsIcESaIcEEE, .-_ZN11GraphMatrixIccE7getPairERKNSt7__cxx1112basic_stringIcSt11char_traitsIcESaIcEEE
	.section	.text._ZNSt7__cxx1112basic_stringIcSt11char_traitsIcESaIcEEC2IS3_EEPKcRKS3_,"axG",@progbits,_ZNSt7__cxx1112basic_stringIcSt11char_traitsIcESaIcEEC5IS3_EEPKcRKS3_,comdat
	.align 2
	.weak	_ZNSt7__cxx1112basic_stringIcSt11char_traitsIcESaIcEEC2IS3_EEPKcRKS3_
	.type	_ZNSt7__cxx1112basic_stringIcSt11char_traitsIcESaIcEEC2IS3_EEPKcRKS3_, @function
_ZNSt7__cxx1112basic_stringIcSt11char_traitsIcESaIcEEC2IS3_EEPKcRKS3_:
.LFB3269:
	.loc 11 525 7
	.cfi_startproc
	.cfi_personality 0x9b,DW.ref.__gxx_personality_v0
	.cfi_lsda 0x1b,.LLSDA3269
	endbr64
	pushq	%rbp
	.cfi_def_cfa_offset 16
	.cfi_offset 6, -16
	movq	%rsp, %rbp
	.cfi_def_cfa_register 6
	pushq	%rbx
	subq	$40, %rsp
	.cfi_offset 3, -24
	movq	%rdi, -24(%rbp)
	movq	%rsi, -32(%rbp)
	movq	%rdx, -40(%rbp)
.LBB23:
	.loc 11 526 41
	movq	-24(%rbp), %rbx
	movq	-24(%rbp), %rax
	movq	%rax, %rdi
.LEHB43:
	call	_ZNSt7__cxx1112basic_stringIcSt11char_traitsIcESaIcEE13_M_local_dataEv@PLT
	movq	%rax, %rcx
	movq	-40(%rbp), %rax
	movq	%rax, %rdx
	movq	%rcx, %rsi
	movq	%rbx, %rdi
	call	_ZNSt7__cxx1112basic_stringIcSt11char_traitsIcESaIcEE12_Alloc_hiderC1EPcRKS3_@PLT
.LEHE43:
	.loc 11 527 9
	cmpq	$0, -32(%rbp)
	je	.L158
	.loc 11 527 58 discriminator 1
	movq	-32(%rbp), %rax
	movq	%rax, %rdi
.LEHB44:
	call	_ZNSt11char_traitsIcE6lengthEPKc
	.loc 11 527 9 discriminator 1
	movq	-32(%rbp), %rdx
	addq	%rdx, %rax
	jmp	.L159
.L158:
	.loc 11 527 9 is_stmt 0 discriminator 2
	movq	-32(%rbp), %rax
	subq	$1, %rax
.L159:
	.loc 11 527 9 discriminator 5
	movq	-32(%rbp), %rsi
	movq	-24(%rbp), %rcx
	movq	%rax, %rdx
	movq	%rcx, %rdi
	call	_ZNSt7__cxx1112basic_stringIcSt11char_traitsIcESaIcEE12_M_constructIPKcEEvT_S8_
.LEHE44:
.LBE23:
	.loc 11 527 77 is_stmt 1
	jmp	.L162
.L161:
	endbr64
	movq	%rax, %rbx
.LBB24:
	.loc 11 526 41
	movq	-24(%rbp), %rax
	movq	%rax, %rdi
	call	_ZNSt7__cxx1112basic_stringIcSt11char_traitsIcESaIcEE12_Alloc_hiderD1Ev
	movq	%rbx, %rax
	movq	%rax, %rdi
.LEHB45:
	call	_Unwind_Resume@PLT
.LEHE45:
.L162:
.LBE24:
	.loc 11 527 77
	addq	$40, %rsp
	popq	%rbx
	popq	%rbp
	.cfi_def_cfa 7, 8
	ret
	.cfi_endproc
.LFE3269:
	.section	.gcc_except_table
.LLSDA3269:
	.byte	0xff
	.byte	0xff
	.byte	0x1
	.uleb128 .LLSDACSE3269-.LLSDACSB3269
.LLSDACSB3269:
	.uleb128 .LEHB43-.LFB3269
	.uleb128 .LEHE43-.LEHB43
	.uleb128 0
	.uleb128 0
	.uleb128 .LEHB44-.LFB3269
	.uleb128 .LEHE44-.LEHB44
	.uleb128 .L161-.LFB3269
	.uleb128 0
	.uleb128 .LEHB45-.LFB3269
	.uleb128 .LEHE45-.LEHB45
	.uleb128 0
	.uleb128 0
.LLSDACSE3269:
	.section	.text._ZNSt7__cxx1112basic_stringIcSt11char_traitsIcESaIcEEC2IS3_EEPKcRKS3_,"axG",@progbits,_ZNSt7__cxx1112basic_stringIcSt11char_traitsIcESaIcEEC5IS3_EEPKcRKS3_,comdat
	.size	_ZNSt7__cxx1112basic_stringIcSt11char_traitsIcESaIcEEC2IS3_EEPKcRKS3_, .-_ZNSt7__cxx1112basic_stringIcSt11char_traitsIcESaIcEEC2IS3_EEPKcRKS3_
	.weak	_ZNSt7__cxx1112basic_stringIcSt11char_traitsIcESaIcEEC1IS3_EEPKcRKS3_
	.set	_ZNSt7__cxx1112basic_stringIcSt11char_traitsIcESaIcEEC1IS3_EEPKcRKS3_,_ZNSt7__cxx1112basic_stringIcSt11char_traitsIcESaIcEEC2IS3_EEPKcRKS3_
	.section	.text._ZNSt6vectorISt4pairIccESaIS1_EED2Ev,"axG",@progbits,_ZNSt6vectorISt4pairIccESaIS1_EED5Ev,comdat
	.align 2
	.weak	_ZNSt6vectorISt4pairIccESaIS1_EED2Ev
	.type	_ZNSt6vectorISt4pairIccESaIS1_EED2Ev, @function
_ZNSt6vectorISt4pairIccESaIS1_EED2Ev:
.LFB3272:
	.loc 12 675 7
	.cfi_startproc
	.cfi_personality 0x9b,DW.ref.__gxx_personality_v0
	.cfi_lsda 0x1b,.LLSDA3272
	endbr64
	pushq	%rbp
	.cfi_def_cfa_offset 16
	.cfi_offset 6, -16
	movq	%rsp, %rbp
	.cfi_def_cfa_register 6
	subq	$16, %rsp
	movq	%rdi, -8(%rbp)
.LBB25:
	.loc 12 678 28
	movq	-8(%rbp), %rax
	movq	%rax, %rdi
	call	_ZNSt12_Vector_baseISt4pairIccESaIS1_EE19_M_get_Tp_allocatorEv
	movq	%rax, %rdx
	.loc 12 677 15
	movq	-8(%rbp), %rax
	movq	8(%rax), %rcx
	movq	-8(%rbp), %rax
	movq	(%rax), %rax
	movq	%rcx, %rsi
	movq	%rax, %rdi
	call	_ZSt8_DestroyIPSt4pairIccES1_EvT_S3_RSaIT0_E
	.loc 12 680 7
	movq	-8(%rbp), %rax
	movq	%rax, %rdi
	call	_ZNSt12_Vector_baseISt4pairIccESaIS1_EED2Ev
.LBE25:
	nop
	leave
	.cfi_def_cfa 7, 8
	ret
	.cfi_endproc
.LFE3272:
	.section	.gcc_except_table
.LLSDA3272:
	.byte	0xff
	.byte	0xff
	.byte	0x1
	.uleb128 .LLSDACSE3272-.LLSDACSB3272
.LLSDACSB3272:
.LLSDACSE3272:
	.section	.text._ZNSt6vectorISt4pairIccESaIS1_EED2Ev,"axG",@progbits,_ZNSt6vectorISt4pairIccESaIS1_EED5Ev,comdat
	.size	_ZNSt6vectorISt4pairIccESaIS1_EED2Ev, .-_ZNSt6vectorISt4pairIccESaIS1_EED2Ev
	.weak	_ZNSt6vectorISt4pairIccESaIS1_EED1Ev
	.set	_ZNSt6vectorISt4pairIccESaIS1_EED1Ev,_ZNSt6vectorISt4pairIccESaIS1_EED2Ev
	.text
	.align 2
	.type	_ZN11GraphMatrixIccEC2ERKSt6vectorIcSaIcEERKS1_ISt4pairIccESaIS7_EE4._86, @function
_ZN11GraphMatrixIccEC2ERKSt6vectorIcSaIcEERKS1_ISt4pairIccESaIS7_EE4._86:
.LFB3275:
	.loc 10 44 5
	.cfi_startproc
	.cfi_personality 0x9b,DW.ref.__gxx_personality_v0
	.cfi_lsda 0x1b,.LLSDA3275
	pushq	%rbp
	.cfi_def_cfa_offset 16
	.cfi_offset 6, -16
	movq	%rsp, %rbp
	.cfi_def_cfa_register 6
	pushq	%r12
	pushq	%rbx
	subq	$96, %rsp
	.cfi_offset 12, -24
	.cfi_offset 3, -32
	movq	%rdi, -88(%rbp)
	movq	%rsi, -96(%rbp)
	movq	%rdx, -104(%rbp)
	movl	%ecx, -108(%rbp)
	.loc 10 44 5
	movq	%fs:40, %rax
	movq	%rax, -24(%rbp)
	xorl	%eax, %eax
.LBB26:
	.loc 10 45 166
	movq	-88(%rbp), %rax
	movq	%rax, %rdi
	call	_ZN5GraphIccEC2Ev
	leaq	16+_ZTV11GraphMatrixIccE(%rip), %rdx
	movq	-88(%rbp), %rax
	movq	%rdx, (%rax)
	movq	-88(%rbp), %rax
	leaq	16(%rax), %rbx
	leaq	-56(%rbp), %rax
	movq	%rax, %rdi
	call	_ZNSaIP6VertexIcEEC1Ev
	movq	$0, -48(%rbp)
	movq	-96(%rbp), %rax
	movq	%rax, %rdi
	call	_ZNKSt6vectorIcSaIcEE4sizeEv
	movq	%rax, %rsi
	leaq	-56(%rbp), %rdx
	leaq	-48(%rbp), %rax
	movq	%rdx, %rcx
	movq	%rax, %rdx
	movq	%rbx, %rdi
.LEHB46:
	call	_ZNSt6vectorIP6VertexIcESaIS2_EEC1EmRKS2_RKS3_
.LEHE46:
	.loc 10 45 166 is_stmt 0 discriminator 2
	leaq	-56(%rbp), %rax
	movq	%rax, %rdi
	call	_ZNSaIP6VertexIcEED1Ev
	movq	-88(%rbp), %rax
	leaq	40(%rax), %rbx
	leaq	-73(%rbp), %rax
	movq	%rax, %rdi
	call	_ZNSaISt6vectorIP4EdgeIcESaIS2_EEEC1Ev
	leaq	-74(%rbp), %rax
	movq	%rax, %rdi
	call	_ZNSaIP4EdgeIcEEC1Ev
	movq	$0, -56(%rbp)
	movq	-104(%rbp), %rax
	movq	%rax, %rdi
	call	_ZNKSt6vectorISt4pairIccESaIS1_EE4sizeEv
	movq	%rax, %rsi
	leaq	-74(%rbp), %rcx
	leaq	-56(%rbp), %rdx
	leaq	-48(%rbp), %rax
	movq	%rax, %rdi
.LEHB47:
	call	_ZNSt6vectorIP4EdgeIcESaIS2_EEC1EmRKS2_RKS3_
.LEHE47:
	.loc 10 45 166 discriminator 4
	movq	-104(%rbp), %rax
	movq	%rax, %rdi
	call	_ZNKSt6vectorISt4pairIccESaIS1_EE4sizeEv
	movq	%rax, %rsi
	leaq	-73(%rbp), %rdx
	leaq	-48(%rbp), %rax
	movq	%rdx, %rcx
	movq	%rax, %rdx
	movq	%rbx, %rdi
.LEHB48:
	call	_ZNSt6vectorIS_IP4EdgeIcESaIS2_EESaIS4_EEC1EmRKS4_RKS5_
.LEHE48:
	.loc 10 45 166 discriminator 6
	leaq	-48(%rbp), %rax
	movq	%rax, %rdi
	call	_ZNSt6vectorIP4EdgeIcESaIS2_EED1Ev
	leaq	-74(%rbp), %rax
	movq	%rax, %rdi
	call	_ZNSaIP4EdgeIcEED1Ev
	leaq	-73(%rbp), %rax
	movq	%rax, %rdi
	call	_ZNSaISt6vectorIP4EdgeIcESaIS2_EEED1Ev
	movq	-88(%rbp), %rax
	movl	-108(%rbp), %edx
	movl	%edx, 64(%rax)
.LBB27:
	.loc 10 47 17 is_stmt 1 discriminator 6
	movq	-96(%rbp), %rax
	movq	%rax, %rdi
	call	_ZNKSt6vectorIcSaIcEE4sizeEv
	.loc 10 47 9 discriminator 6
	movl	%eax, %edx
	movq	-88(%rbp), %rax
	movl	%edx, 8(%rax)
	.loc 10 48 17 discriminator 6
	movq	-104(%rbp), %rax
	movq	%rax, %rdi
	call	_ZNKSt6vectorISt4pairIccESaIS1_EE4sizeEv
	.loc 10 48 9 discriminator 6
	movl	%eax, %edx
	movq	-88(%rbp), %rax
	movl	%edx, 12(%rax)
.LBB28:
	.loc 10 49 18 discriminator 6
	movl	$0, -72(%rbp)
.L166:
	.loc 10 49 35 discriminator 2
	movq	-88(%rbp), %rax
	movl	8(%rax), %eax
	.loc 10 49 27 discriminator 2
	cmpl	%eax, -72(%rbp)
	jge	.L165
	.loc 10 50 44
	movl	-72(%rbp), %eax
	movslq	%eax, %rdx
	movq	-96(%rbp), %rax
	movq	%rdx, %rsi
	movq	%rax, %rdi
	call	_ZNKSt6vectorIcSaIcEEixEm
	movq	%rax, %r12
	.loc 10 50 20
	movl	$32, %edi
.LEHB49:
	call	_Znwm@PLT
	movq	%rax, %rbx
	movq	%r12, %rsi
	movq	%rbx, %rdi
	call	_ZN6VertexIcEC1ERKc
	.loc 10 50 14
	movq	-88(%rbp), %rax
	leaq	16(%rax), %rdx
	movl	-72(%rbp), %eax
	cltq
	movq	%rax, %rsi
	movq	%rdx, %rdi
	call	_ZNSt6vectorIP6VertexIcESaIS2_EEixEm
	.loc 10 50 13
	movq	%rbx, (%rax)
	.loc 10 49 9
	addl	$1, -72(%rbp)
	jmp	.L166
.L165:
.LBE28:
.LBB29:
	.loc 10 51 22
	movl	$0, -68(%rbp)
.L169:
	.loc 10 51 45 discriminator 1
	movq	-88(%rbp), %rax
	movl	12(%rax), %eax
	.loc 10 51 37 discriminator 1
	cmpl	%eax, -68(%rbp)
	jge	.L180
	.loc 10 52 32
	movl	-68(%rbp), %eax
	movslq	%eax, %rdx
	movq	-104(%rbp), %rax
	movq	%rdx, %rsi
	movq	%rax, %rdi
	call	_ZNKSt6vectorISt4pairIccESaIS1_EEixEm
	.loc 10 52 36
	movzbl	(%rax), %eax
	movsbl	%al, %ebx
	.loc 10 52 53
	movq	-96(%rbp), %rax
	movl	$0, %esi
	movq	%rax, %rdi
	call	_ZNKSt6vectorIcSaIcEEixEm
	.loc 10 52 42
	movzbl	(%rax), %eax
	movsbl	%al, %eax
	.loc 10 52 58
	subl	%eax, %ebx
	movl	%ebx, %eax
	movl	%eax, -64(%rbp)
	.loc 10 52 72
	movl	-68(%rbp), %eax
	movslq	%eax, %rdx
	movq	-104(%rbp), %rax
	movq	%rdx, %rsi
	movq	%rax, %rdi
	call	_ZNKSt6vectorISt4pairIccESaIS1_EEixEm
	.loc 10 52 76
	movzbl	1(%rax), %eax
	movsbl	%al, %ebx
	.loc 10 52 94
	movq	-96(%rbp), %rax
	movl	$0, %esi
	movq	%rax, %rdi
	call	_ZNKSt6vectorIcSaIcEEixEm
	.loc 10 52 83
	movzbl	(%rax), %eax
	movsbl	%al, %eax
	.loc 10 52 58
	subl	%eax, %ebx
	movl	%ebx, %eax
	movl	%eax, -60(%rbp)
	movl	-64(%rbp), %eax
	cmpl	-60(%rbp), %eax
	setne	%al
	.loc 10 52 17
	testb	%al, %al
	je	.L168
	.loc 10 30 28
	movb	$1, -48(%rbp)
	leaq	-48(%rbp), %rbx
	.loc 10 54 31
	movl	$12, %edi
	call	_Znwm@PLT
	movq	%rax, %r12
	movl	$1, %edx
	movq	%rbx, %rsi
	movq	%r12, %rdi
	call	_ZN4EdgeIcEC1ERKci
	.loc 10 54 22
	movq	-88(%rbp), %rax
	leaq	40(%rax), %rdx
	movl	-64(%rbp), %eax
	cltq
	movq	%rax, %rsi
	movq	%rdx, %rdi
	call	_ZNSt6vectorIS_IP4EdgeIcESaIS2_EESaIS4_EEixEm
	movq	%rax, %rdx
	.loc 10 54 25
	movl	-60(%rbp), %eax
	cltq
	movq	%rax, %rsi
	movq	%rdx, %rdi
	call	_ZNSt6vectorIP4EdgeIcESaIS2_EEixEm
	.loc 10 54 21
	movq	%r12, (%rax)
	.loc 10 55 25
	movq	-88(%rbp), %rax
	movl	64(%rax), %eax
	.loc 10 55 21
	testl	%eax, %eax
	jne	.L168
	.loc 10 30 28
	movb	$1, -48(%rbp)
	leaq	-48(%rbp), %rbx
	.loc 10 56 35
	movl	$12, %edi
	call	_Znwm@PLT
.LEHE49:
	movq	%rax, %r12
	movl	$1, %edx
	movq	%rbx, %rsi
	movq	%r12, %rdi
	call	_ZN4EdgeIcEC1ERKci
	.loc 10 56 26
	movq	-88(%rbp), %rax
	leaq	40(%rax), %rdx
	movl	-60(%rbp), %eax
	cltq
	movq	%rax, %rsi
	movq	%rdx, %rdi
	call	_ZNSt6vectorIS_IP4EdgeIcESaIS2_EESaIS4_EEixEm
	movq	%rax, %rdx
	.loc 10 56 29
	movl	-64(%rbp), %eax
	cltq
	movq	%rax, %rsi
	movq	%rdx, %rdi
	call	_ZNSt6vectorIP4EdgeIcESaIS2_EEixEm
	.loc 10 56 25
	movq	%r12, (%rax)
.L168:
	.loc 10 51 13 discriminator 2
	addl	$1, -68(%rbp)
	jmp	.L169
.L176:
	endbr64
	movq	%rax, %rbx
.LBE29:
.LBE27:
	.loc 10 45 166
	leaq	-56(%rbp), %rax
	movq	%rax, %rdi
	call	_ZNSaIP6VertexIcEED1Ev
	movq	%rbx, %rax
	movq	%rax, %rdi
.LEHB50:
	call	_Unwind_Resume@PLT
.L178:
	endbr64
	movq	%rax, %rbx
	leaq	-48(%rbp), %rax
	movq	%rax, %rdi
	call	_ZNSt6vectorIP4EdgeIcESaIS2_EED1Ev
	jmp	.L172
.L177:
	endbr64
	movq	%rax, %rbx
.L172:
	.loc 10 45 166 is_stmt 0 discriminator 3
	leaq	-74(%rbp), %rax
	movq	%rax, %rdi
	call	_ZNSaIP4EdgeIcEED1Ev
	leaq	-73(%rbp), %rax
	movq	%rax, %rdi
	call	_ZNSaISt6vectorIP4EdgeIcESaIS2_EEED1Ev
	jmp	.L173
.L179:
	endbr64
	movq	%rax, %rbx
	.loc 10 45 166
	movq	-88(%rbp), %rax
	addq	$40, %rax
	movq	%rax, %rdi
	call	_ZNSt6vectorIS_IP4EdgeIcESaIS2_EESaIS4_EED1Ev
.L173:
	movq	-88(%rbp), %rax
	addq	$16, %rax
	movq	%rax, %rdi
	call	_ZNSt6vectorIP6VertexIcESaIS2_EED1Ev
	movq	%rbx, %rax
	movq	%rax, %rdi
	call	_Unwind_Resume@PLT
.LEHE50:
.L180:
.LBE26:
	.loc 10 58 5 is_stmt 1
	nop
	movq	-24(%rbp), %rax
	xorq	%fs:40, %rax
	je	.L175
	call	__stack_chk_fail@PLT
.L175:
	addq	$96, %rsp
	popq	%rbx
	popq	%r12
	popq	%rbp
	.cfi_def_cfa 7, 8
	ret
	.cfi_endproc
.LFE3275:
	.section	.gcc_except_table
.LLSDA3275:
	.byte	0xff
	.byte	0xff
	.byte	0x1
	.uleb128 .LLSDACSE3275-.LLSDACSB3275
.LLSDACSB3275:
	.uleb128 .LEHB46-.LFB3275
	.uleb128 .LEHE46-.LEHB46
	.uleb128 .L176-.LFB3275
	.uleb128 0
	.uleb128 .LEHB47-.LFB3275
	.uleb128 .LEHE47-.LEHB47
	.uleb128 .L177-.LFB3275
	.uleb128 0
	.uleb128 .LEHB48-.LFB3275
	.uleb128 .LEHE48-.LEHB48
	.uleb128 .L178-.LFB3275
	.uleb128 0
	.uleb128 .LEHB49-.LFB3275
	.uleb128 .LEHE49-.LEHB49
	.uleb128 .L179-.LFB3275
	.uleb128 0
	.uleb128 .LEHB50-.LFB3275
	.uleb128 .LEHE50-.LEHB50
	.uleb128 0
	.uleb128 0
.LLSDACSE3275:
	.text
	.size	_ZN11GraphMatrixIccEC2ERKSt6vectorIcSaIcEERKS1_ISt4pairIccESaIS7_EE4._86, .-_ZN11GraphMatrixIccEC2ERKSt6vectorIcSaIcEERKS1_ISt4pairIccESaIS7_EE4._86
	.set	_ZN11GraphMatrixIccEC1ERKSt6vectorIcSaIcEERKS1_ISt4pairIccESaIS7_EE4._86,_ZN11GraphMatrixIccEC2ERKSt6vectorIcSaIcEERKS1_ISt4pairIccESaIS7_EE4._86
	.section	.text._ZN11GraphMatrixIccED2Ev,"axG",@progbits,_ZN11GraphMatrixIccED5Ev,comdat
	.align 2
	.weak	_ZN11GraphMatrixIccED2Ev
	.type	_ZN11GraphMatrixIccED2Ev, @function
_ZN11GraphMatrixIccED2Ev:
.LFB3278:
	.loc 10 59 5
	.cfi_startproc
	endbr64
	pushq	%rbp
	.cfi_def_cfa_offset 16
	.cfi_offset 6, -16
	movq	%rsp, %rbp
	.cfi_def_cfa_register 6
	subq	$32, %rsp
	movq	%rdi, -24(%rbp)
.LBB30:
	.loc 10 67 5
	leaq	16+_ZTV11GraphMatrixIccE(%rip), %rdx
	movq	-24(%rbp), %rax
	movq	%rdx, (%rax)
.LBB31:
.LBB32:
	.loc 10 61 18
	movl	$0, -8(%rbp)
.L187:
	.loc 10 61 35 discriminator 1
	movq	-24(%rbp), %rax
	movl	8(%rax), %eax
	.loc 10 61 27 discriminator 1
	cmpl	%eax, -8(%rbp)
	jge	.L182
.LBB33:
	.loc 10 63 21
	movq	-24(%rbp), %rax
	leaq	16(%rax), %rdx
	movl	-8(%rbp), %eax
	cltq
	movq	%rax, %rsi
	movq	%rdx, %rdi
	call	_ZNSt6vectorIP6VertexIcESaIS2_EEixEm
	.loc 10 63 13
	movq	(%rax), %rax
	testq	%rax, %rax
	je	.L183
	.loc 10 63 13 is_stmt 0 discriminator 1
	movl	$32, %esi
	movq	%rax, %rdi
	call	_ZdlPvm@PLT
.L183:
.LBB34:
	.loc 10 64 22 is_stmt 1
	movl	$0, -4(%rbp)
.L186:
	.loc 10 64 39 discriminator 1
	movq	-24(%rbp), %rax
	movl	8(%rax), %eax
	.loc 10 64 31 discriminator 1
	cmpl	%eax, -4(%rbp)
	jge	.L184
	.loc 10 65 25
	movq	-24(%rbp), %rax
	leaq	40(%rax), %rdx
	movl	-8(%rbp), %eax
	cltq
	movq	%rax, %rsi
	movq	%rdx, %rdi
	call	_ZNSt6vectorIS_IP4EdgeIcESaIS2_EESaIS4_EEixEm
	movq	%rax, %rdx
	.loc 10 65 28
	movl	-4(%rbp), %eax
	cltq
	movq	%rax, %rsi
	movq	%rdx, %rdi
	call	_ZNSt6vectorIP4EdgeIcESaIS2_EEixEm
	.loc 10 65 17
	movq	(%rax), %rax
	testq	%rax, %rax
	je	.L185
	.loc 10 65 17 is_stmt 0 discriminator 1
	movl	$12, %esi
	movq	%rax, %rdi
	call	_ZdlPvm@PLT
.L185:
	.loc 10 64 13 is_stmt 1 discriminator 2
	addl	$1, -4(%rbp)
	jmp	.L186
.L184:
.LBE34:
.LBE33:
	.loc 10 61 9 discriminator 2
	addl	$1, -8(%rbp)
	jmp	.L187
.L182:
.LBE32:
.LBE31:
	.loc 10 67 5
	movq	-24(%rbp), %rax
	addq	$40, %rax
	movq	%rax, %rdi
	call	_ZNSt6vectorIS_IP4EdgeIcESaIS2_EESaIS4_EED1Ev
	movq	-24(%rbp), %rax
	addq	$16, %rax
	movq	%rax, %rdi
	call	_ZNSt6vectorIP6VertexIcESaIS2_EED1Ev
.LBE30:
	nop
	leave
	.cfi_def_cfa 7, 8
	ret
	.cfi_endproc
.LFE3278:
	.size	_ZN11GraphMatrixIccED2Ev, .-_ZN11GraphMatrixIccED2Ev
	.weak	_ZN11GraphMatrixIccED1Ev
	.set	_ZN11GraphMatrixIccED1Ev,_ZN11GraphMatrixIccED2Ev
	.section	.text._ZNSt12_Vector_baseISt6vectorIbSaIbEESaIS2_EE12_Vector_implD2Ev,"axG",@progbits,_ZNSt12_Vector_baseISt6vectorIbSaIbEESaIS2_EE12_Vector_implD5Ev,comdat
	.align 2
	.weak	_ZNSt12_Vector_baseISt6vectorIbSaIbEESaIS2_EE12_Vector_implD2Ev
	.type	_ZNSt12_Vector_baseISt6vectorIbSaIbEESaIS2_EE12_Vector_implD2Ev, @function
_ZNSt12_Vector_baseISt6vectorIbSaIbEESaIS2_EE12_Vector_implD2Ev:
.LFB3285:
	.loc 12 125 14
	.cfi_startproc
	endbr64
	pushq	%rbp
	.cfi_def_cfa_offset 16
	.cfi_offset 6, -16
	movq	%rsp, %rbp
	.cfi_def_cfa_register 6
	subq	$16, %rsp
	movq	%rdi, -8(%rbp)
.LBB35:
	.loc 12 125 14
	movq	-8(%rbp), %rax
	movq	%rax, %rdi
	call	_ZNSaISt6vectorIbSaIbEEED2Ev
.LBE35:
	nop
	leave
	.cfi_def_cfa 7, 8
	ret
	.cfi_endproc
.LFE3285:
	.size	_ZNSt12_Vector_baseISt6vectorIbSaIbEESaIS2_EE12_Vector_implD2Ev, .-_ZNSt12_Vector_baseISt6vectorIbSaIbEESaIS2_EE12_Vector_implD2Ev
	.weak	_ZNSt12_Vector_baseISt6vectorIbSaIbEESaIS2_EE12_Vector_implD1Ev
	.set	_ZNSt12_Vector_baseISt6vectorIbSaIbEESaIS2_EE12_Vector_implD1Ev,_ZNSt12_Vector_baseISt6vectorIbSaIbEESaIS2_EE12_Vector_implD2Ev
	.section	.text._ZNSt12_Vector_baseISt6vectorIbSaIbEESaIS2_EEC2EOS4_,"axG",@progbits,_ZNSt12_Vector_baseISt6vectorIbSaIbEESaIS2_EEC5EOS4_,comdat
	.align 2
	.weak	_ZNSt12_Vector_baseISt6vectorIbSaIbEESaIS2_EEC2EOS4_
	.type	_ZNSt12_Vector_baseISt6vectorIbSaIbEESaIS2_EEC2EOS4_, @function
_ZNSt12_Vector_baseISt6vectorIbSaIbEESaIS2_EEC2EOS4_:
.LFB3287:
	.loc 12 305 7
	.cfi_startproc
	endbr64
	pushq	%rbp
	.cfi_def_cfa_offset 16
	.cfi_offset 6, -16
	movq	%rsp, %rbp
	.cfi_def_cfa_register 6
	subq	$16, %rsp
	movq	%rdi, -8(%rbp)
	movq	%rsi, -16(%rbp)
.LBB36:
	.loc 12 305 7
	movq	-8(%rbp), %rax
	movq	-16(%rbp), %rdx
	movq	%rdx, %rsi
	movq	%rax, %rdi
	call	_ZNSt12_Vector_baseISt6vectorIbSaIbEESaIS2_EE12_Vector_implC1EOS5_
.LBE36:
	nop
	leave
	.cfi_def_cfa 7, 8
	ret
	.cfi_endproc
.LFE3287:
	.size	_ZNSt12_Vector_baseISt6vectorIbSaIbEESaIS2_EEC2EOS4_, .-_ZNSt12_Vector_baseISt6vectorIbSaIbEESaIS2_EEC2EOS4_
	.weak	_ZNSt12_Vector_baseISt6vectorIbSaIbEESaIS2_EEC1EOS4_
	.set	_ZNSt12_Vector_baseISt6vectorIbSaIbEESaIS2_EEC1EOS4_,_ZNSt12_Vector_baseISt6vectorIbSaIbEESaIS2_EEC2EOS4_
	.section	.text._ZNSt6vectorIS_IbSaIbEESaIS1_EEC2EOS3_,"axG",@progbits,_ZNSt6vectorIS_IbSaIbEESaIS1_EEC5EOS3_,comdat
	.align 2
	.weak	_ZNSt6vectorIS_IbSaIbEESaIS1_EEC2EOS3_
	.type	_ZNSt6vectorIS_IbSaIbEESaIS1_EEC2EOS3_, @function
_ZNSt6vectorIS_IbSaIbEESaIS1_EEC2EOS3_:
.LFB3289:
	.loc 12 569 7
	.cfi_startproc
	endbr64
	pushq	%rbp
	.cfi_def_cfa_offset 16
	.cfi_offset 6, -16
	movq	%rsp, %rbp
	.cfi_def_cfa_register 6
	subq	$16, %rsp
	movq	%rdi, -8(%rbp)
	movq	%rsi, -16(%rbp)
.LBB37:
	.loc 12 569 7
	movq	-8(%rbp), %rax
	movq	-16(%rbp), %rdx
	movq	%rdx, %rsi
	movq	%rax, %rdi
	call	_ZNSt12_Vector_baseISt6vectorIbSaIbEESaIS2_EEC2EOS4_
.LBE37:
	nop
	leave
	.cfi_def_cfa 7, 8
	ret
	.cfi_endproc
.LFE3289:
	.size	_ZNSt6vectorIS_IbSaIbEESaIS1_EEC2EOS3_, .-_ZNSt6vectorIS_IbSaIbEESaIS1_EEC2EOS3_
	.weak	_ZNSt6vectorIS_IbSaIbEESaIS1_EEC1EOS3_
	.set	_ZNSt6vectorIS_IbSaIbEESaIS1_EEC1EOS3_,_ZNSt6vectorIS_IbSaIbEESaIS1_EEC2EOS3_
	.section	.text._ZN6MatrixIbEC2EOS0_,"axG",@progbits,_ZN6MatrixIbEC5EOS0_,comdat
	.align 2
	.weak	_ZN6MatrixIbEC2EOS0_
	.type	_ZN6MatrixIbEC2EOS0_, @function
_ZN6MatrixIbEC2EOS0_:
.LFB3291:
	.loc 8 16 8
	.cfi_startproc
	endbr64
	pushq	%rbp
	.cfi_def_cfa_offset 16
	.cfi_offset 6, -16
	movq	%rsp, %rbp
	.cfi_def_cfa_register 6
	subq	$16, %rsp
	movq	%rdi, -8(%rbp)
	movq	%rsi, -16(%rbp)
.LBB38:
	.loc 8 16 8
	movq	-8(%rbp), %rax
	movq	-16(%rbp), %rdx
	movq	%rdx, %rsi
	movq	%rax, %rdi
	call	_ZNSt6vectorIS_IbSaIbEESaIS1_EEC1EOS3_
	movq	-16(%rbp), %rax
	movq	24(%rax), %rdx
	movq	-8(%rbp), %rax
	movq	%rdx, 24(%rax)
	movq	-16(%rbp), %rax
	movq	32(%rax), %rdx
	movq	-8(%rbp), %rax
	movq	%rdx, 32(%rax)
.LBE38:
	nop
	leave
	.cfi_def_cfa 7, 8
	ret
	.cfi_endproc
.LFE3291:
	.size	_ZN6MatrixIbEC2EOS0_, .-_ZN6MatrixIbEC2EOS0_
	.weak	_ZN6MatrixIbEC1EOS0_
	.set	_ZN6MatrixIbEC1EOS0_,_ZN6MatrixIbEC2EOS0_
	.section	.text._ZN11GraphMatrixIccE14adjacentMatrixEv,"axG",@progbits,_ZN11GraphMatrixIccE14adjacentMatrixEv,comdat
	.align 2
	.weak	_ZN11GraphMatrixIccE14adjacentMatrixEv
	.type	_ZN11GraphMatrixIccE14adjacentMatrixEv, @function
_ZN11GraphMatrixIccE14adjacentMatrixEv:
.LFB3280:
	.loc 10 236 14
	.cfi_startproc
	endbr64
	pushq	%rbp
	.cfi_def_cfa_offset 16
	.cfi_offset 6, -16
	movq	%rsp, %rbp
	.cfi_def_cfa_register 6
	subq	$64, %rsp
	movq	%rdi, -56(%rbp)
	movq	%rsi, -64(%rbp)
	.loc 10 236 14
	movq	%fs:40, %rax
	movq	%rax, -8(%rbp)
	xorl	%eax, %eax
	.loc 10 238 37
	movq	-64(%rbp), %rax
	movl	8(%rax), %eax
	.loc 10 238 18
	movslq	%eax, %rdx
	.loc 10 238 28
	movq	-64(%rbp), %rax
	movl	8(%rax), %eax
	.loc 10 238 18
	movslq	%eax, %rcx
	movq	-56(%rbp), %rax
	movq	%rcx, %rsi
	movq	%rax, %rdi
	call	_ZN6MatrixIbEC1Emm
.LBB39:
	.loc 10 239 14
	movl	$0, -40(%rbp)
.L197:
	.loc 10 239 31 discriminator 1
	movq	-64(%rbp), %rax
	movl	8(%rax), %eax
	.loc 10 239 23 discriminator 1
	cmpl	%eax, -40(%rbp)
	jge	.L200
.LBB40:
.LBB41:
	.loc 10 240 18
	movl	$0, -36(%rbp)
.L196:
	.loc 10 240 35 discriminator 1
	movq	-64(%rbp), %rax
	movl	8(%rax), %eax
	.loc 10 240 27 discriminator 1
	cmpl	%eax, -36(%rbp)
	jge	.L194
	.loc 10 241 18
	movq	-64(%rbp), %rax
	leaq	40(%rax), %rdx
	movl	-40(%rbp), %eax
	cltq
	movq	%rax, %rsi
	movq	%rdx, %rdi
	call	_ZNSt6vectorIS_IP4EdgeIcESaIS2_EESaIS4_EEixEm
	movq	%rax, %rdx
	.loc 10 241 21
	movl	-36(%rbp), %eax
	cltq
	movq	%rax, %rsi
	movq	%rdx, %rdi
	call	_ZNSt6vectorIP4EdgeIcESaIS2_EEixEm
	.loc 10 241 13
	movq	(%rax), %rax
	testq	%rax, %rax
	setne	%al
	testb	%al, %al
	je	.L195
	.loc 10 242 34
	movq	-56(%rbp), %rax
	movl	-40(%rbp), %edx
	movslq	%edx, %rdx
	movq	%rdx, %rsi
	movq	%rax, %rdi
	call	_ZNSt6vectorIS_IbSaIbEESaIS1_EEixEm
	movq	%rax, %rdx
	movl	-36(%rbp), %eax
	cltq
	movq	%rax, %rsi
	movq	%rdx, %rdi
	call	_ZNSt6vectorIbSaIbEEixEm
	movq	%rax, -32(%rbp)
	movq	%rdx, -24(%rbp)
	leaq	-32(%rbp), %rax
	movl	$1, %esi
	movq	%rax, %rdi
	call	_ZNSt14_Bit_referenceaSEb
.L195:
	.loc 10 240 9 discriminator 2
	addl	$1, -36(%rbp)
	jmp	.L196
.L194:
.LBE41:
.LBE40:
	.loc 10 239 5 discriminator 2
	addl	$1, -40(%rbp)
	jmp	.L197
.L200:
.LBE39:
	.loc 10 243 12
	nop
	.loc 10 244 1
	movq	-8(%rbp), %rax
	xorq	%fs:40, %rax
	je	.L199
	call	__stack_chk_fail@PLT
.L199:
	movq	-56(%rbp), %rax
	leave
	.cfi_def_cfa 7, 8
	ret
	.cfi_endproc
.LFE3280:
	.size	_ZN11GraphMatrixIccE14adjacentMatrixEv, .-_ZN11GraphMatrixIccE14adjacentMatrixEv
	.section	.text._ZNSt6vectorIS_IbSaIbEESaIS1_EED2Ev,"axG",@progbits,_ZNSt6vectorIS_IbSaIbEESaIS1_EED5Ev,comdat
	.align 2
	.weak	_ZNSt6vectorIS_IbSaIbEESaIS1_EED2Ev
	.type	_ZNSt6vectorIS_IbSaIbEESaIS1_EED2Ev, @function
_ZNSt6vectorIS_IbSaIbEESaIS1_EED2Ev:
.LFB3294:
	.loc 12 675 7
	.cfi_startproc
	.cfi_personality 0x9b,DW.ref.__gxx_personality_v0
	.cfi_lsda 0x1b,.LLSDA3294
	endbr64
	pushq	%rbp
	.cfi_def_cfa_offset 16
	.cfi_offset 6, -16
	movq	%rsp, %rbp
	.cfi_def_cfa_register 6
	subq	$16, %rsp
	movq	%rdi, -8(%rbp)
.LBB42:
	.loc 12 678 28
	movq	-8(%rbp), %rax
	movq	%rax, %rdi
	call	_ZNSt12_Vector_baseISt6vectorIbSaIbEESaIS2_EE19_M_get_Tp_allocatorEv
	movq	%rax, %rdx
	.loc 12 677 15
	movq	-8(%rbp), %rax
	movq	8(%rax), %rcx
	movq	-8(%rbp), %rax
	movq	(%rax), %rax
	movq	%rcx, %rsi
	movq	%rax, %rdi
	call	_ZSt8_DestroyIPSt6vectorIbSaIbEES2_EvT_S4_RSaIT0_E
	.loc 12 680 7
	movq	-8(%rbp), %rax
	movq	%rax, %rdi
	call	_ZNSt12_Vector_baseISt6vectorIbSaIbEESaIS2_EED2Ev
.LBE42:
	nop
	leave
	.cfi_def_cfa 7, 8
	ret
	.cfi_endproc
.LFE3294:
	.section	.gcc_except_table
.LLSDA3294:
	.byte	0xff
	.byte	0xff
	.byte	0x1
	.uleb128 .LLSDACSE3294-.LLSDACSB3294
.LLSDACSB3294:
.LLSDACSE3294:
	.section	.text._ZNSt6vectorIS_IbSaIbEESaIS1_EED2Ev,"axG",@progbits,_ZNSt6vectorIS_IbSaIbEESaIS1_EED5Ev,comdat
	.size	_ZNSt6vectorIS_IbSaIbEESaIS1_EED2Ev, .-_ZNSt6vectorIS_IbSaIbEESaIS1_EED2Ev
	.weak	_ZNSt6vectorIS_IbSaIbEESaIS1_EED1Ev
	.set	_ZNSt6vectorIS_IbSaIbEESaIS1_EED1Ev,_ZNSt6vectorIS_IbSaIbEESaIS1_EED2Ev
	.section	.text._ZlsIbERSoS0_RK6MatrixIT_E,"axG",@progbits,_ZlsIbERSoS0_RK6MatrixIT_E,comdat
	.weak	_ZlsIbERSoS0_RK6MatrixIT_E
	.type	_ZlsIbERSoS0_RK6MatrixIT_E, @function
_ZlsIbERSoS0_RK6MatrixIT_E:
.LFB3296:
	.loc 8 213 15
	.cfi_startproc
	endbr64
	pushq	%rbp
	.cfi_def_cfa_offset 16
	.cfi_offset 6, -16
	movq	%rsp, %rbp
	.cfi_def_cfa_register 6
	pushq	%rbx
	subq	$40, %rsp
	.cfi_offset 3, -24
	movq	%rdi, -40(%rbp)
	movq	%rsi, -48(%rbp)
.LBB43:
	.loc 8 215 17
	movq	$0, -32(%rbp)
.L206:
	.loc 8 215 30 discriminator 1
	movq	-48(%rbp), %rax
	movq	24(%rax), %rax
	.loc 8 215 26 discriminator 1
	cmpq	%rax, -32(%rbp)
	jnb	.L203
.LBB44:
.LBB45:
	.loc 8 217 21
	movq	$0, -24(%rbp)
.L205:
	.loc 8 217 34 discriminator 3
	movq	-48(%rbp), %rax
	movq	32(%rax), %rax
	.loc 8 217 30 discriminator 3
	cmpq	%rax, -24(%rbp)
	jnb	.L204
	.loc 8 218 33 discriminator 2
	movl	$2, %edi
	call	_ZSt4setwi
	movl	%eax, %edx
	movq	-40(%rbp), %rax
	movl	%edx, %esi
	movq	%rax, %rdi
	call	_ZStlsIcSt11char_traitsIcEERSt13basic_ostreamIT_T0_ES6_St5_Setw@PLT
	movq	%rax, %rbx
	movl	$32, %edi
	call	_ZSt11setiosflagsSt13_Ios_Fmtflags
	movl	%eax, %esi
	movq	%rbx, %rdi
	call	_ZStlsIcSt11char_traitsIcEERSt13basic_ostreamIT_T0_ES6_St12_Setiosflags@PLT
	movq	%rax, %rbx
	.loc 8 218 80 discriminator 2
	movq	-48(%rbp), %rax
	movq	-32(%rbp), %rdx
	movq	%rdx, %rsi
	movq	%rax, %rdi
	call	_ZNKSt6vectorIS_IbSaIbEESaIS1_EEixEm
	movq	%rax, %rdx
	.loc 8 218 83 discriminator 2
	movq	-24(%rbp), %rax
	movq	%rax, %rsi
	movq	%rdx, %rdi
	call	_ZNKSt6vectorIbSaIbEEixEm
	.loc 8 218 69 discriminator 2
	movzbl	%al, %eax
	movl	%eax, %esi
	movq	%rbx, %rdi
	call	_ZNSolsEb@PLT
	.loc 8 218 87 discriminator 2
	movl	$32, %esi
	movq	%rax, %rdi
	call	_ZStlsISt11char_traitsIcEERSt13basic_ostreamIcT_ES5_c@PLT
	.loc 8 217 9 discriminator 2
	addq	$1, -24(%rbp)
	jmp	.L205
.L204:
.LBE45:
	.loc 8 219 13 discriminator 2
	movq	-40(%rbp), %rax
	movq	_ZSt4endlIcSt11char_traitsIcEERSt13basic_ostreamIT_T0_ES6_@GOTPCREL(%rip), %rdx
	movq	%rdx, %rsi
	movq	%rax, %rdi
	call	_ZNSolsEPFRSoS_E@PLT
.LBE44:
	.loc 8 215 5 discriminator 2
	addq	$1, -32(%rbp)
	jmp	.L206
.L203:
.LBE43:
	.loc 8 221 12
	movq	-40(%rbp), %rax
	.loc 8 222 1
	addq	$40, %rsp
	popq	%rbx
	popq	%rbp
	.cfi_def_cfa 7, 8
	ret
	.cfi_endproc
.LFE3296:
	.size	_ZlsIbERSoS0_RK6MatrixIT_E, .-_ZlsIbERSoS0_RK6MatrixIT_E
	.section	.text._ZN11GraphMatrixIccE6insertEiiiRKc,"axG",@progbits,_ZN11GraphMatrixIccE6insertEiiiRKc,comdat
	.align 2
	.weak	_ZN11GraphMatrixIccE6insertEiiiRKc
	.type	_ZN11GraphMatrixIccE6insertEiiiRKc, @function
_ZN11GraphMatrixIccE6insertEiiiRKc:
.LFB3297:
	.loc 10 198 6
	.cfi_startproc
	endbr64
	pushq	%rbp
	.cfi_def_cfa_offset 16
	.cfi_offset 6, -16
	movq	%rsp, %rbp
	.cfi_def_cfa_register 6
	pushq	%rbx
	subq	$40, %rsp
	.cfi_offset 3, -24
	movq	%rdi, -24(%rbp)
	movl	%esi, -28(%rbp)
	movl	%edx, -32(%rbp)
	movl	%ecx, -36(%rbp)
	movq	%r8, -48(%rbp)
	.loc 10 200 22
	movq	-24(%rbp), %rax
	movq	(%rax), %rax
	addq	$120, %rax
	movq	(%rax), %r8
	movl	-32(%rbp), %edx
	movl	-28(%rbp), %ecx
	movq	-24(%rbp), %rax
	movl	%ecx, %esi
	movq	%rax, %rdi
	call	*%r8
.LVL0:
	.loc 10 200 59
	testb	%al, %al
	jne	.L209
	.loc 10 200 22 discriminator 2
	cmpl	$0, -28(%rbp)
	js	.L209
	.loc 10 200 44 discriminator 4
	movq	-24(%rbp), %rax
	movl	8(%rax), %eax
	.loc 10 200 31 discriminator 4
	cmpl	%eax, -28(%rbp)
	jge	.L209
	.loc 10 200 50 discriminator 6
	cmpl	$0, -32(%rbp)
	js	.L209
	.loc 10 200 72 discriminator 8
	movq	-24(%rbp), %rax
	movl	8(%rax), %eax
	.loc 10 200 59 discriminator 8
	cmpl	%eax, -32(%rbp)
	jl	.L210
.L209:
	.loc 10 200 59 is_stmt 0 discriminator 9
	movl	$1, %eax
	jmp	.L211
.L210:
	.loc 10 200 59 discriminator 10
	movl	$0, %eax
.L211:
	.loc 10 200 5 is_stmt 1 discriminator 12
	testb	%al, %al
	jne	.L214
	.loc 10 202 15
	movl	$12, %edi
	call	_Znwm@PLT
	movq	%rax, %rbx
	movl	-36(%rbp), %edx
	movq	-48(%rbp), %rax
	movq	%rax, %rsi
	movq	%rbx, %rdi
	call	_ZN4EdgeIcEC1ERKci
	.loc 10 202 6
	movq	-24(%rbp), %rax
	leaq	40(%rax), %rdx
	movl	-28(%rbp), %eax
	cltq
	movq	%rax, %rsi
	movq	%rdx, %rdi
	call	_ZNSt6vectorIS_IP4EdgeIcESaIS2_EESaIS4_EEixEm
	movq	%rax, %rdx
	.loc 10 202 9
	movl	-32(%rbp), %eax
	cltq
	movq	%rax, %rsi
	movq	%rdx, %rdi
	call	_ZNSt6vectorIP4EdgeIcESaIS2_EEixEm
	.loc 10 202 5
	movq	%rbx, (%rax)
	.loc 10 203 11
	movq	-24(%rbp), %rax
	movl	12(%rax), %eax
	.loc 10 203 5
	leal	1(%rax), %edx
	movq	-24(%rbp), %rax
	movl	%edx, 12(%rax)
	.loc 10 204 6
	movq	-24(%rbp), %rax
	leaq	16(%rax), %rdx
	movl	-32(%rbp), %eax
	cltq
	movq	%rax, %rsi
	movq	%rdx, %rdi
	call	_ZNSt6vectorIP6VertexIcESaIS2_EEixEm
	.loc 10 204 11
	movq	(%rax), %rax
	movl	4(%rax), %edx
	.loc 10 204 5
	addl	$1, %edx
	movl	%edx, 4(%rax)
	.loc 10 205 6
	movq	-24(%rbp), %rax
	leaq	16(%rax), %rdx
	movl	-28(%rbp), %eax
	cltq
	movq	%rax, %rsi
	movq	%rdx, %rdi
	call	_ZNSt6vectorIP6VertexIcESaIS2_EEixEm
	.loc 10 205 11
	movq	(%rax), %rax
	movl	8(%rax), %edx
	.loc 10 205 5
	addl	$1, %edx
	movl	%edx, 8(%rax)
	.loc 10 206 9
	movq	-24(%rbp), %rax
	movl	64(%rax), %eax
	.loc 10 206 5
	testl	%eax, %eax
	jne	.L208
	.loc 10 208 19
	movl	$12, %edi
	call	_Znwm@PLT
	movq	%rax, %rbx
	movl	-36(%rbp), %edx
	movq	-48(%rbp), %rax
	movq	%rax, %rsi
	movq	%rbx, %rdi
	call	_ZN4EdgeIcEC1ERKci
	.loc 10 208 10
	movq	-24(%rbp), %rax
	leaq	40(%rax), %rdx
	movl	-32(%rbp), %eax
	cltq
	movq	%rax, %rsi
	movq	%rdx, %rdi
	call	_ZNSt6vectorIS_IP4EdgeIcESaIS2_EESaIS4_EEixEm
	movq	%rax, %rdx
	.loc 10 208 13
	movl	-28(%rbp), %eax
	cltq
	movq	%rax, %rsi
	movq	%rdx, %rdi
	call	_ZNSt6vectorIP4EdgeIcESaIS2_EEixEm
	.loc 10 208 9
	movq	%rbx, (%rax)
	.loc 10 209 10
	movq	-24(%rbp), %rax
	leaq	16(%rax), %rdx
	movl	-28(%rbp), %eax
	cltq
	movq	%rax, %rsi
	movq	%rdx, %rdi
	call	_ZNSt6vectorIP6VertexIcESaIS2_EEixEm
	.loc 10 209 15
	movq	(%rax), %rax
	movl	4(%rax), %edx
	.loc 10 209 9
	addl	$1, %edx
	movl	%edx, 4(%rax)
	.loc 10 210 10
	movq	-24(%rbp), %rax
	leaq	16(%rax), %rdx
	movl	-32(%rbp), %eax
	cltq
	movq	%rax, %rsi
	movq	%rdx, %rdi
	call	_ZNSt6vectorIP6VertexIcESaIS2_EEixEm
	.loc 10 210 15
	movq	(%rax), %rax
	movl	8(%rax), %edx
	.loc 10 210 9
	addl	$1, %edx
	movl	%edx, 8(%rax)
	jmp	.L208
.L214:
	.loc 10 201 9
	nop
.L208:
	.loc 10 212 1
	addq	$40, %rsp
	popq	%rbx
	popq	%rbp
	.cfi_def_cfa 7, 8
	ret
	.cfi_endproc
.LFE3297:
	.size	_ZN11GraphMatrixIccE6insertEiiiRKc, .-_ZN11GraphMatrixIccE6insertEiiiRKc
	.section	.text._ZN11GraphMatrixIccE6insertERKcS2_,"axG",@progbits,_ZN11GraphMatrixIccE6insertERKcS2_,comdat
	.align 2
	.weak	_ZN11GraphMatrixIccE6insertERKcS2_
	.type	_ZN11GraphMatrixIccE6insertERKcS2_, @function
_ZN11GraphMatrixIccE6insertERKcS2_:
.LFB3298:
	.loc 10 111 18
	.cfi_startproc
	endbr64
	pushq	%rbp
	.cfi_def_cfa_offset 16
	.cfi_offset 6, -16
	movq	%rsp, %rbp
	.cfi_def_cfa_register 6
	pushq	%r12
	pushq	%rbx
	subq	$48, %rsp
	.cfi_offset 12, -24
	.cfi_offset 3, -32
	movq	%rdi, -40(%rbp)
	movq	%rsi, -48(%rbp)
	movq	%rdx, -56(%rbp)
	.loc 10 111 18
	movq	%fs:40, %rax
	movq	%rax, -24(%rbp)
	xorl	%eax, %eax
	.loc 10 113 9
	movq	-40(%rbp), %rax
	movq	(%rax), %rax
	subq	$-128, %rax
	movq	(%rax), %rbx
	.loc 10 110 75
	movb	$1, -25(%rbp)
	.loc 10 113 9
	movq	-40(%rbp), %rax
	movq	(%rax), %rax
	addq	$8, %rax
	movq	(%rax), %rcx
	movq	-56(%rbp), %rdx
	movq	-40(%rbp), %rax
	movq	%rdx, %rsi
	movq	%rax, %rdi
	call	*%rcx
.LVL1:
	movl	%eax, %r12d
	movq	-40(%rbp), %rax
	movq	(%rax), %rax
	addq	$8, %rax
	movq	(%rax), %rcx
	movq	-48(%rbp), %rdx
	movq	-40(%rbp), %rax
	movq	%rdx, %rsi
	movq	%rax, %rdi
	call	*%rcx
.LVL2:
	movl	%eax, %esi
	leaq	-25(%rbp), %rdx
	movq	-40(%rbp), %rax
	movq	%rdx, %r8
	movl	$1, %ecx
	movl	%r12d, %edx
	movq	%rax, %rdi
	call	*%rbx
.LVL3:
	.loc 10 114 5
	nop
	movq	-24(%rbp), %rax
	xorq	%fs:40, %rax
	je	.L216
	call	__stack_chk_fail@PLT
.L216:
	addq	$48, %rsp
	popq	%rbx
	popq	%r12
	popq	%rbp
	.cfi_def_cfa 7, 8
	ret
	.cfi_endproc
.LFE3298:
	.size	_ZN11GraphMatrixIccE6insertERKcS2_, .-_ZN11GraphMatrixIccE6insertERKcS2_
	.section	.text._ZN11GraphMatrixIccE6removeERKc,"axG",@progbits,_ZN11GraphMatrixIccE6removeERKc,comdat
	.align 2
	.weak	_ZN11GraphMatrixIccE6removeERKc
	.type	_ZN11GraphMatrixIccE6removeERKc, @function
_ZN11GraphMatrixIccE6removeERKc:
.LFB3299:
	.loc 10 94 17
	.cfi_startproc
	endbr64
	pushq	%rbp
	.cfi_def_cfa_offset 16
	.cfi_offset 6, -16
	movq	%rsp, %rbp
	.cfi_def_cfa_register 6
	subq	$32, %rsp
	movq	%rdi, -24(%rbp)
	movq	%rsi, -32(%rbp)
	.loc 10 96 13
	movq	-24(%rbp), %rax
	movq	(%rax), %rax
	addq	$112, %rax
	movq	(%rax), %rcx
	movq	-32(%rbp), %rdx
	movq	-24(%rbp), %rax
	movq	%rdx, %rsi
	movq	%rax, %rdi
	call	*%rcx
.LVL4:
	xorl	$1, %eax
	.loc 10 96 9
	testb	%al, %al
	je	.L218
	.loc 10 97 21
	movl	$-1, %eax
	jmp	.L219
.L218:
	.loc 10 98 13
	movq	-24(%rbp), %rax
	movq	(%rax), %rax
	addq	$8, %rax
	movq	(%rax), %rcx
	movq	-32(%rbp), %rdx
	movq	-24(%rbp), %rax
	movq	%rdx, %rsi
	movq	%rax, %rdi
	call	*%rcx
.LVL5:
	movl	%eax, -4(%rbp)
	.loc 10 99 9
	movq	-24(%rbp), %rax
	movq	(%rax), %rax
	addq	$16, %rax
	movq	(%rax), %rcx
	movl	-4(%rbp), %edx
	movq	-24(%rbp), %rax
	movl	%edx, %esi
	movq	%rax, %rdi
	call	*%rcx
.LVL6:
	.loc 10 100 16
	movl	-4(%rbp), %eax
.L219:
	.loc 10 101 5
	leave
	.cfi_def_cfa 7, 8
	ret
	.cfi_endproc
.LFE3299:
	.size	_ZN11GraphMatrixIccE6removeERKc, .-_ZN11GraphMatrixIccE6removeERKc
	.section	.text._ZN11GraphMatrixIccE6insertERKc,"axG",@progbits,_ZN11GraphMatrixIccE6insertERKc,comdat
	.align 2
	.weak	_ZN11GraphMatrixIccE6insertERKc
	.type	_ZN11GraphMatrixIccE6insertERKc, @function
_ZN11GraphMatrixIccE6insertERKc:
.LFB3300:
	.loc 10 133 5
	.cfi_startproc
	.cfi_personality 0x9b,DW.ref.__gxx_personality_v0
	.cfi_lsda 0x1b,.LLSDA3300
	endbr64
	pushq	%rbp
	.cfi_def_cfa_offset 16
	.cfi_offset 6, -16
	movq	%rsp, %rbp
	.cfi_def_cfa_register 6
	pushq	%r12
	pushq	%rbx
	subq	$64, %rsp
	.cfi_offset 12, -24
	.cfi_offset 3, -32
	movq	%rdi, -72(%rbp)
	movq	%rsi, -80(%rbp)
	.loc 10 133 5
	movq	%fs:40, %rax
	movq	%rax, -24(%rbp)
	xorl	%eax, %eax
	.loc 10 135 5
	movq	-72(%rbp), %rax
	movq	(%rax), %rax
	addq	$112, %rax
	movq	(%rax), %rcx
	movq	-80(%rbp), %rdx
	movq	-72(%rbp), %rax
	movq	%rdx, %rsi
	movq	%rax, %rdi
.LEHB51:
	call	*%rcx
.LVL7:
	testb	%al, %al
	je	.L221
	.loc 10 136 17
	movl	$-1, %eax
	jmp	.L222
.L221:
.LBB46:
	.loc 10 137 14
	movl	$0, -60(%rbp)
.L224:
	.loc 10 137 31 discriminator 2
	movq	-72(%rbp), %rax
	movl	8(%rax), %eax
	.loc 10 137 23 discriminator 2
	cmpl	%eax, -60(%rbp)
	jge	.L223
	.loc 10 138 10
	movq	-72(%rbp), %rax
	leaq	40(%rax), %rdx
	movl	-60(%rbp), %eax
	cltq
	movq	%rax, %rsi
	movq	%rdx, %rdi
	call	_ZNSt6vectorIS_IP4EdgeIcESaIS2_EESaIS4_EEixEm
	movq	%rax, %rdx
	.loc 10 138 27
	movq	$0, -48(%rbp)
	.loc 10 138 9
	leaq	-48(%rbp), %rax
	movq	%rax, %rsi
	movq	%rdx, %rdi
	call	_ZNSt6vectorIP4EdgeIcESaIS2_EE12emplace_backIJDnEEERS2_DpOT_
.LEHE51:
	.loc 10 137 5
	addl	$1, -60(%rbp)
	jmp	.L224
.L223:
.LBE46:
	.loc 10 139 11
	movq	-72(%rbp), %rax
	movl	8(%rax), %eax
	.loc 10 139 5
	leal	1(%rax), %edx
	movq	-72(%rbp), %rax
	movl	%edx, 8(%rax)
	.loc 10 140 5
	movq	-72(%rbp), %rax
	leaq	40(%rax), %rbx
	leaq	-61(%rbp), %rax
	movq	%rax, %rdi
	call	_ZNSaIP4EdgeIcEEC1Ev
	movq	$0, -56(%rbp)
	.loc 10 140 46
	movq	-72(%rbp), %rax
	movl	8(%rax), %eax
	.loc 10 140 5
	movslq	%eax, %rsi
	leaq	-61(%rbp), %rcx
	leaq	-56(%rbp), %rdx
	leaq	-48(%rbp), %rax
	movq	%rax, %rdi
.LEHB52:
	call	_ZNSt6vectorIP4EdgeIcESaIS2_EEC1EmRKS2_RKS3_
.LEHE52:
	.loc 10 140 5 is_stmt 0 discriminator 2
	leaq	-48(%rbp), %rax
	movq	%rax, %rsi
	movq	%rbx, %rdi
.LEHB53:
	call	_ZNSt6vectorIS_IP4EdgeIcESaIS2_EESaIS4_EE12emplace_backIJS4_EEERS4_DpOT_
.LEHE53:
	.loc 10 140 5 discriminator 4
	leaq	-48(%rbp), %rax
	movq	%rax, %rdi
	call	_ZNSt6vectorIP4EdgeIcESaIS2_EED1Ev
	leaq	-61(%rbp), %rax
	movq	%rax, %rdi
	call	_ZNSaIP4EdgeIcEED1Ev
	.loc 10 141 5 is_stmt 1 discriminator 4
	movq	-72(%rbp), %rax
	leaq	16(%rax), %rbx
	.loc 10 141 20 discriminator 4
	movl	$32, %edi
.LEHB54:
	call	_Znwm@PLT
	movq	%rax, %r12
	movq	-80(%rbp), %rax
	movq	%rax, %rsi
	movq	%r12, %rdi
	call	_ZN6VertexIcEC1ERKc
	.loc 10 141 5 discriminator 4
	movq	%r12, -48(%rbp)
	leaq	-48(%rbp), %rax
	movq	%rax, %rsi
	movq	%rbx, %rdi
	call	_ZNSt6vectorIP6VertexIcESaIS2_EE12emplace_backIJS2_EEERS2_DpOT_
	.loc 10 142 21 discriminator 4
	movq	-72(%rbp), %rax
	addq	$16, %rax
	movq	%rax, %rdi
	call	_ZNKSt6vectorIP6VertexIcESaIS2_EE4sizeEv
	subl	$1, %eax
.L222:
	.loc 10 143 1
	movq	-24(%rbp), %rcx
	xorq	%fs:40, %rcx
	je	.L227
	jmp	.L230
.L229:
	endbr64
	movq	%rax, %rbx
	.loc 10 140 5
	leaq	-48(%rbp), %rax
	movq	%rax, %rdi
	call	_ZNSt6vectorIP4EdgeIcESaIS2_EED1Ev
	jmp	.L226
.L228:
	endbr64
	movq	%rax, %rbx
.L226:
	.loc 10 140 5 is_stmt 0 discriminator 1
	leaq	-61(%rbp), %rax
	movq	%rax, %rdi
	call	_ZNSaIP4EdgeIcEED1Ev
	movq	%rbx, %rax
	movq	%rax, %rdi
	call	_Unwind_Resume@PLT
.LEHE54:
.L230:
	.loc 10 143 1 is_stmt 1
	call	__stack_chk_fail@PLT
.L227:
	addq	$64, %rsp
	popq	%rbx
	popq	%r12
	popq	%rbp
	.cfi_def_cfa 7, 8
	ret
	.cfi_endproc
.LFE3300:
	.section	.gcc_except_table
.LLSDA3300:
	.byte	0xff
	.byte	0xff
	.byte	0x1
	.uleb128 .LLSDACSE3300-.LLSDACSB3300
.LLSDACSB3300:
	.uleb128 .LEHB51-.LFB3300
	.uleb128 .LEHE51-.LEHB51
	.uleb128 0
	.uleb128 0
	.uleb128 .LEHB52-.LFB3300
	.uleb128 .LEHE52-.LEHB52
	.uleb128 .L228-.LFB3300
	.uleb128 0
	.uleb128 .LEHB53-.LFB3300
	.uleb128 .LEHE53-.LEHB53
	.uleb128 .L229-.LFB3300
	.uleb128 0
	.uleb128 .LEHB54-.LFB3300
	.uleb128 .LEHE54-.LEHB54
	.uleb128 0
	.uleb128 0
.LLSDACSE3300:
	.section	.text._ZN11GraphMatrixIccE6insertERKc,"axG",@progbits,_ZN11GraphMatrixIccE6insertERKc,comdat
	.size	_ZN11GraphMatrixIccE6insertERKc, .-_ZN11GraphMatrixIccE6insertERKc
	.section	.text._ZN6MatrixIbEC2ERKS0_,"axG",@progbits,_ZN6MatrixIbEC5ERKS0_,comdat
	.align 2
	.weak	_ZN6MatrixIbEC2ERKS0_
	.type	_ZN6MatrixIbEC2ERKS0_, @function
_ZN6MatrixIbEC2ERKS0_:
.LFB3303:
	.loc 8 16 8
	.cfi_startproc
	endbr64
	pushq	%rbp
	.cfi_def_cfa_offset 16
	.cfi_offset 6, -16
	movq	%rsp, %rbp
	.cfi_def_cfa_register 6
	subq	$16, %rsp
	movq	%rdi, -8(%rbp)
	movq	%rsi, -16(%rbp)
.LBB47:
	.loc 8 16 8
	movq	-8(%rbp), %rax
	movq	-16(%rbp), %rdx
	movq	%rdx, %rsi
	movq	%rax, %rdi
	call	_ZNSt6vectorIS_IbSaIbEESaIS1_EEC1ERKS3_
	movq	-16(%rbp), %rax
	movq	24(%rax), %rdx
	movq	-8(%rbp), %rax
	movq	%rdx, 24(%rax)
	movq	-16(%rbp), %rax
	movq	32(%rax), %rdx
	movq	-8(%rbp), %rax
	movq	%rdx, 32(%rax)
.LBE47:
	nop
	leave
	.cfi_def_cfa 7, 8
	ret
	.cfi_endproc
.LFE3303:
	.size	_ZN6MatrixIbEC2ERKS0_, .-_ZN6MatrixIbEC2ERKS0_
	.weak	_ZN6MatrixIbEC1ERKS0_
	.set	_ZN6MatrixIbEC1ERKS0_,_ZN6MatrixIbEC2ERKS0_
	.section	.rodata
.LC5:
	.string	"can not do power"
	.section	.text._ZN6MatrixIbE5powerEm,"axG",@progbits,_ZN6MatrixIbE5powerEm,comdat
	.align 2
	.weak	_ZN6MatrixIbE5powerEm
	.type	_ZN6MatrixIbE5powerEm, @function
_ZN6MatrixIbE5powerEm:
.LFB3301:
	.loc 8 115 11
	.cfi_startproc
	.cfi_personality 0x9b,DW.ref.__gxx_personality_v0
	.cfi_lsda 0x1b,.LLSDA3301
	endbr64
	pushq	%rbp
	.cfi_def_cfa_offset 16
	.cfi_offset 6, -16
	movq	%rsp, %rbp
	.cfi_def_cfa_register 6
	pushq	%rbx
	subq	$136, %rsp
	.cfi_offset 3, -24
	movq	%rdi, -120(%rbp)
	movq	%rsi, -128(%rbp)
	movq	%rdx, -136(%rbp)
	.loc 8 115 11
	movq	%fs:40, %rax
	movq	%rax, -24(%rbp)
	xorl	%eax, %eax
	.loc 8 117 9
	movq	-128(%rbp), %rax
	movq	24(%rax), %rdx
	.loc 8 117 16
	movq	-128(%rbp), %rax
	movq	32(%rax), %rax
	.loc 8 117 5
	cmpq	%rax, %rdx
	je	.L233
	.loc 8 119 19
	leaq	.LC5(%rip), %rsi
	leaq	_ZSt4cerr(%rip), %rdi
.LEHB55:
	call	_ZStlsISt11char_traitsIcEERSt13basic_ostreamIcT_ES5_PKc@PLT
	movq	%rax, %rdx
	.loc 8 119 41
	movq	_ZSt4endlIcSt11char_traitsIcEERSt13basic_ostreamIT_T0_ES6_@GOTPCREL(%rip), %rax
	movq	%rax, %rsi
	movq	%rdx, %rdi
	call	_ZNSolsEPFRSoS_E@PLT
	.loc 8 120 13
	movl	$1, %edi
	call	exit@PLT
.L233:
	.loc 8 122 12
	movq	-128(%rbp), %rdx
	leaq	-112(%rbp), %rax
	movq	%rdx, %rsi
	movq	%rax, %rdi
	call	_ZN6MatrixIbEC1ERKS0_
.LEHE55:
	.loc 8 123 5
	cmpq	$0, -136(%rbp)
	jne	.L234
	.loc 8 124 26
	movq	-128(%rbp), %rax
	movq	24(%rax), %rdx
	movq	-120(%rbp), %rax
	movq	%rdx, %rsi
	movq	%rax, %rdi
.LEHB56:
	call	_ZN6MatrixIbEC1Em
	jmp	.L235
.L234:
	.loc 8 127 9
	subq	$1, -136(%rbp)
.L237:
	.loc 8 128 9
	movq	-136(%rbp), %rax
	leaq	-1(%rax), %rdx
	movq	%rdx, -136(%rbp)
	testq	%rax, %rax
	setne	%al
	testb	%al, %al
	je	.L236
	.loc 8 129 13
	leaq	-64(%rbp), %rax
	movq	-128(%rbp), %rdx
	leaq	-112(%rbp), %rcx
	movq	%rcx, %rsi
	movq	%rax, %rdi
	call	_ZN6MatrixIbEmLERKS0_
.LEHE56:
	.loc 8 129 13 is_stmt 0 discriminator 1
	leaq	-64(%rbp), %rax
	movq	%rax, %rdi
	call	_ZN6MatrixIbED1Ev
	.loc 8 128 9 is_stmt 1 discriminator 1
	jmp	.L237
.L236:
	.loc 8 131 12
	leaq	-112(%rbp), %rdx
	movq	-120(%rbp), %rax
	movq	%rdx, %rsi
	movq	%rax, %rdi
	call	_ZN6MatrixIbEC1EOS0_
.L235:
	.loc 8 122 12
	leaq	-112(%rbp), %rax
	movq	%rax, %rdi
	call	_ZN6MatrixIbED1Ev
	.loc 8 132 1
	movq	-24(%rbp), %rax
	xorq	%fs:40, %rax
	je	.L240
	jmp	.L242
.L241:
	endbr64
	movq	%rax, %rbx
	.loc 8 122 12
	leaq	-112(%rbp), %rax
	movq	%rax, %rdi
	call	_ZN6MatrixIbED1Ev
	movq	%rbx, %rax
	movq	%rax, %rdi
.LEHB57:
	call	_Unwind_Resume@PLT
.LEHE57:
.L242:
	.loc 8 132 1
	call	__stack_chk_fail@PLT
.L240:
	movq	-120(%rbp), %rax
	addq	$136, %rsp
	popq	%rbx
	popq	%rbp
	.cfi_def_cfa 7, 8
	ret
	.cfi_endproc
.LFE3301:
	.section	.gcc_except_table
.LLSDA3301:
	.byte	0xff
	.byte	0xff
	.byte	0x1
	.uleb128 .LLSDACSE3301-.LLSDACSB3301
.LLSDACSB3301:
	.uleb128 .LEHB55-.LFB3301
	.uleb128 .LEHE55-.LEHB55
	.uleb128 0
	.uleb128 0
	.uleb128 .LEHB56-.LFB3301
	.uleb128 .LEHE56-.LEHB56
	.uleb128 .L241-.LFB3301
	.uleb128 0
	.uleb128 .LEHB57-.LFB3301
	.uleb128 .LEHE57-.LEHB57
	.uleb128 0
	.uleb128 0
.LLSDACSE3301:
	.section	.text._ZN6MatrixIbE5powerEm,"axG",@progbits,_ZN6MatrixIbE5powerEm,comdat
	.size	_ZN6MatrixIbE5powerEm, .-_ZN6MatrixIbE5powerEm
	.section	.text._ZN6MatrixIbEixEm,"axG",@progbits,_ZN6MatrixIbEixEm,comdat
	.align 2
	.weak	_ZN6MatrixIbEixEm
	.type	_ZN6MatrixIbEixEm, @function
_ZN6MatrixIbEixEm:
.LFB3305:
	.loc 8 83 12
	.cfi_startproc
	endbr64
	pushq	%rbp
	.cfi_def_cfa_offset 16
	.cfi_offset 6, -16
	movq	%rsp, %rbp
	.cfi_def_cfa_register 6
	subq	$16, %rsp
	movq	%rdi, -8(%rbp)
	movq	%rsi, -16(%rbp)
	.loc 8 85 18
	movq	-8(%rbp), %rax
	movq	-16(%rbp), %rdx
	movq	%rdx, %rsi
	movq	%rax, %rdi
	call	_ZNSt6vectorIS_IbSaIbEESaIS1_EEixEm
	.loc 8 86 1
	leave
	.cfi_def_cfa 7, 8
	ret
	.cfi_endproc
.LFE3305:
	.size	_ZN6MatrixIbEixEm, .-_ZN6MatrixIbEixEm
	.section	.text._ZNSt6vectorIbSaIbEEixEm,"axG",@progbits,_ZNSt6vectorIbSaIbEEixEm,comdat
	.align 2
	.weak	_ZNSt6vectorIbSaIbEEixEm
	.type	_ZNSt6vectorIbSaIbEEixEm, @function
_ZNSt6vectorIbSaIbEEixEm:
.LFB3306:
	.loc 4 886 7
	.cfi_startproc
	endbr64
	pushq	%rbp
	.cfi_def_cfa_offset 16
	.cfi_offset 6, -16
	movq	%rsp, %rbp
	.cfi_def_cfa_register 6
	subq	$48, %rsp
	movq	%rdi, -40(%rbp)
	movq	%rsi, -48(%rbp)
	.loc 4 886 7
	movq	%fs:40, %rax
	movq	%rax, -8(%rbp)
	xorl	%eax, %eax
	.loc 4 888 9
	movq	-48(%rbp), %rax
	andl	$63, %eax
	movl	%eax, %edx
	.loc 4 888 42
	movq	-40(%rbp), %rax
	movq	(%rax), %rax
	.loc 4 889 11
	movq	-48(%rbp), %rcx
	shrq	$6, %rcx
	.loc 4 889 5
	salq	$3, %rcx
	.loc 4 888 9
	addq	%rax, %rcx
	leaq	-32(%rbp), %rax
	movq	%rcx, %rsi
	movq	%rax, %rdi
	call	_ZNSt13_Bit_iteratorC1EPmj
	leaq	-32(%rbp), %rax
	movq	%rax, %rdi
	call	_ZNKSt13_Bit_iteratordeEv
	.loc 4 890 7
	movq	-8(%rbp), %rsi
	xorq	%fs:40, %rsi
	je	.L247
	call	__stack_chk_fail@PLT
.L247:
	leave
	.cfi_def_cfa 7, 8
	ret
	.cfi_endproc
.LFE3306:
	.size	_ZNSt6vectorIbSaIbEEixEm, .-_ZNSt6vectorIbSaIbEEixEm
	.section	.text._ZN11GraphMatrixIccE18reachabilityMatrixEv,"axG",@progbits,_ZN11GraphMatrixIccE18reachabilityMatrixEv,comdat
	.align 2
	.weak	_ZN11GraphMatrixIccE18reachabilityMatrixEv
	.type	_ZN11GraphMatrixIccE18reachabilityMatrixEv, @function
_ZN11GraphMatrixIccE18reachabilityMatrixEv:
.LFB3308:
	.loc 10 266 14
	.cfi_startproc
	.cfi_personality 0x9b,DW.ref.__gxx_personality_v0
	.cfi_lsda 0x1b,.LLSDA3308
	endbr64
	pushq	%rbp
	.cfi_def_cfa_offset 16
	.cfi_offset 6, -16
	movq	%rsp, %rbp
	.cfi_def_cfa_register 6
	pushq	%rbx
	subq	$120, %rsp
	.cfi_offset 3, -24
	movq	%rdi, -120(%rbp)
	movq	%rsi, -128(%rbp)
	.loc 10 266 14
	movq	%fs:40, %rax
	movq	%rax, -24(%rbp)
	xorl	%eax, %eax
	.loc 10 273 44
	movq	-128(%rbp), %rax
	movl	8(%rax), %eax
	.loc 10 273 45
	movslq	%eax, %rdx
	leaq	-64(%rbp), %rax
	movq	%rdx, %rsi
	movq	%rax, %rdi
.LEHB58:
	call	_ZN6MatrixIbEC1Em
.LEHE58:
	leaq	-112(%rbp), %rax
	movq	-128(%rbp), %rdx
	movq	%rdx, %rsi
	movq	%rax, %rdi
.LEHB59:
	call	_ZN11GraphMatrixIccE8WarshallEv
.LEHE59:
	.loc 10 273 45 is_stmt 0 discriminator 2
	movq	-120(%rbp), %rax
	leaq	-64(%rbp), %rdx
	leaq	-112(%rbp), %rcx
	movq	%rcx, %rsi
	movq	%rax, %rdi
.LEHB60:
	call	_ZN6MatrixIbEorERKS0_
.LEHE60:
	.loc 10 273 45
	leaq	-112(%rbp), %rax
	movq	%rax, %rdi
	call	_ZN6MatrixIbED1Ev
	leaq	-64(%rbp), %rax
	movq	%rax, %rdi
	call	_ZN6MatrixIbED1Ev
	.loc 10 274 1 is_stmt 1
	movq	-24(%rbp), %rax
	xorq	%fs:40, %rax
	je	.L252
	jmp	.L255
.L254:
	endbr64
	movq	%rax, %rbx
	.loc 10 273 45
	leaq	-112(%rbp), %rax
	movq	%rax, %rdi
	call	_ZN6MatrixIbED1Ev
	jmp	.L251
.L253:
	endbr64
	movq	%rax, %rbx
.L251:
	.loc 10 273 45 is_stmt 0 discriminator 1
	leaq	-64(%rbp), %rax
	movq	%rax, %rdi
	call	_ZN6MatrixIbED1Ev
	movq	%rbx, %rax
	movq	%rax, %rdi
.LEHB61:
	call	_Unwind_Resume@PLT
.LEHE61:
.L255:
	.loc 10 274 1 is_stmt 1
	call	__stack_chk_fail@PLT
.L252:
	movq	-120(%rbp), %rax
	addq	$120, %rsp
	popq	%rbx
	popq	%rbp
	.cfi_def_cfa 7, 8
	ret
	.cfi_endproc
.LFE3308:
	.section	.gcc_except_table
.LLSDA3308:
	.byte	0xff
	.byte	0xff
	.byte	0x1
	.uleb128 .LLSDACSE3308-.LLSDACSB3308
.LLSDACSB3308:
	.uleb128 .LEHB58-.LFB3308
	.uleb128 .LEHE58-.LEHB58
	.uleb128 0
	.uleb128 0
	.uleb128 .LEHB59-.LFB3308
	.uleb128 .LEHE59-.LEHB59
	.uleb128 .L253-.LFB3308
	.uleb128 0
	.uleb128 .LEHB60-.LFB3308
	.uleb128 .LEHE60-.LEHB60
	.uleb128 .L254-.LFB3308
	.uleb128 0
	.uleb128 .LEHB61-.LFB3308
	.uleb128 .LEHE61-.LEHB61
	.uleb128 0
	.uleb128 0
.LLSDACSE3308:
	.section	.text._ZN11GraphMatrixIccE18reachabilityMatrixEv,"axG",@progbits,_ZN11GraphMatrixIccE18reachabilityMatrixEv,comdat
	.size	_ZN11GraphMatrixIccE18reachabilityMatrixEv, .-_ZN11GraphMatrixIccE18reachabilityMatrixEv
	.section	.text._ZN11GraphMatrixIccE8WarshallEv,"axG",@progbits,_ZN11GraphMatrixIccE8WarshallEv,comdat
	.align 2
	.weak	_ZN11GraphMatrixIccE8WarshallEv
	.type	_ZN11GraphMatrixIccE8WarshallEv, @function
_ZN11GraphMatrixIccE8WarshallEv:
.LFB3309:
	.loc 10 256 14
	.cfi_startproc
	endbr64
	pushq	%rbp
	.cfi_def_cfa_offset 16
	.cfi_offset 6, -16
	movq	%rsp, %rbp
	.cfi_def_cfa_register 6
	pushq	%r12
	pushq	%rbx
	subq	$112, %rsp
	.cfi_offset 12, -24
	.cfi_offset 3, -32
	movq	%rdi, -120(%rbp)
	movq	%rsi, -128(%rbp)
	.loc 10 256 14
	movq	%fs:40, %rax
	movq	%rax, -24(%rbp)
	xorl	%eax, %eax
	.loc 10 258 18
	movq	-120(%rbp), %rax
	movq	-128(%rbp), %rdx
	movq	%rdx, %rsi
	movq	%rax, %rdi
	call	_ZN11GraphMatrixIccE14adjacentMatrixEv
.LBB48:
	.loc 10 259 14
	movl	$0, -108(%rbp)
.L262:
	.loc 10 259 31 discriminator 1
	movq	-128(%rbp), %rax
	movl	8(%rax), %eax
	.loc 10 259 23 discriminator 1
	cmpl	%eax, -108(%rbp)
	jge	.L265
.LBB49:
.LBB50:
	.loc 10 260 18
	movl	$0, -104(%rbp)
.L261:
	.loc 10 260 35 discriminator 1
	movq	-128(%rbp), %rax
	movl	8(%rax), %eax
	.loc 10 260 27 discriminator 1
	cmpl	%eax, -104(%rbp)
	jge	.L258
.LBB51:
.LBB52:
	.loc 10 261 22
	movl	$0, -100(%rbp)
.L260:
	.loc 10 261 39 discriminator 3
	movq	-128(%rbp), %rax
	movl	8(%rax), %eax
	.loc 10 261 31 discriminator 3
	cmpl	%eax, -100(%rbp)
	jge	.L259
	.loc 10 262 39 discriminator 2
	movl	-104(%rbp), %eax
	movslq	%eax, %rdx
	movq	-120(%rbp), %rax
	movq	%rdx, %rsi
	movq	%rax, %rdi
	call	_ZN6MatrixIbEixEm
	movq	%rax, %rdx
	movl	-100(%rbp), %eax
	cltq
	movq	%rax, %rsi
	movq	%rdx, %rdi
	call	_ZNSt6vectorIbSaIbEEixEm
	movq	%rax, -80(%rbp)
	movq	%rdx, -72(%rbp)
	leaq	-80(%rbp), %rax
	movq	%rax, %rdi
	call	_ZNKSt14_Bit_referencecvbEv
	movzbl	%al, %ebx
	.loc 10 262 52 discriminator 2
	movl	-104(%rbp), %eax
	movslq	%eax, %rdx
	movq	-120(%rbp), %rax
	movq	%rdx, %rsi
	movq	%rax, %rdi
	call	_ZN6MatrixIbEixEm
	movq	%rax, %rdx
	movl	-108(%rbp), %eax
	cltq
	movq	%rax, %rsi
	movq	%rdx, %rdi
	call	_ZNSt6vectorIbSaIbEEixEm
	movq	%rax, -64(%rbp)
	movq	%rdx, -56(%rbp)
	leaq	-64(%rbp), %rax
	movq	%rax, %rdi
	call	_ZNKSt14_Bit_referencecvbEv
	movzbl	%al, %r12d
	movl	-108(%rbp), %eax
	movslq	%eax, %rdx
	movq	-120(%rbp), %rax
	movq	%rdx, %rsi
	movq	%rax, %rdi
	call	_ZN6MatrixIbEixEm
	movq	%rax, %rdx
	movl	-100(%rbp), %eax
	cltq
	movq	%rax, %rsi
	movq	%rdx, %rdi
	call	_ZNSt6vectorIbSaIbEEixEm
	movq	%rax, -48(%rbp)
	movq	%rdx, -40(%rbp)
	leaq	-48(%rbp), %rax
	movq	%rax, %rdi
	call	_ZNKSt14_Bit_referencecvbEv
	movzbl	%al, %eax
	andl	%r12d, %eax
	.loc 10 262 39 discriminator 2
	orl	%ebx, %eax
	.loc 10 262 27 discriminator 2
	testl	%eax, %eax
	setne	%al
	movzbl	%al, %ebx
	movl	-104(%rbp), %eax
	movslq	%eax, %rdx
	movq	-120(%rbp), %rax
	movq	%rdx, %rsi
	movq	%rax, %rdi
	call	_ZN6MatrixIbEixEm
	movq	%rax, %rdx
	movl	-100(%rbp), %eax
	cltq
	movq	%rax, %rsi
	movq	%rdx, %rdi
	call	_ZNSt6vectorIbSaIbEEixEm
	movq	%rax, -96(%rbp)
	movq	%rdx, -88(%rbp)
	leaq	-96(%rbp), %rax
	movl	%ebx, %esi
	movq	%rax, %rdi
	call	_ZNSt14_Bit_referenceaSEb
	.loc 10 261 13 discriminator 2
	addl	$1, -100(%rbp)
	jmp	.L260
.L259:
.LBE52:
.LBE51:
	.loc 10 260 9 discriminator 2
	addl	$1, -104(%rbp)
	jmp	.L261
.L258:
.LBE50:
.LBE49:
	.loc 10 259 5 discriminator 2
	addl	$1, -108(%rbp)
	jmp	.L262
.L265:
.LBE48:
	.loc 10 263 12
	nop
	.loc 10 264 1
	movq	-24(%rbp), %rax
	xorq	%fs:40, %rax
	je	.L264
	call	__stack_chk_fail@PLT
.L264:
	movq	-120(%rbp), %rax
	addq	$112, %rsp
	popq	%rbx
	popq	%r12
	popq	%rbp
	.cfi_def_cfa 7, 8
	ret
	.cfi_endproc
.LFE3309:
	.size	_ZN11GraphMatrixIccE8WarshallEv, .-_ZN11GraphMatrixIccE8WarshallEv
	.section	.text._ZN11GraphMatrixIccE11minDistanceERKcS2_,"axG",@progbits,_ZN11GraphMatrixIccE11minDistanceERKcS2_,comdat
	.align 2
	.weak	_ZN11GraphMatrixIccE11minDistanceERKcS2_
	.type	_ZN11GraphMatrixIccE11minDistanceERKcS2_, @function
_ZN11GraphMatrixIccE11minDistanceERKcS2_:
.LFB3310:
	.loc 10 276 5
	.cfi_startproc
	.cfi_personality 0x9b,DW.ref.__gxx_personality_v0
	.cfi_lsda 0x1b,.LLSDA3310
	endbr64
	pushq	%rbp
	.cfi_def_cfa_offset 16
	.cfi_offset 6, -16
	movq	%rsp, %rbp
	.cfi_def_cfa_register 6
	pushq	%rbx
	subq	$168, %rsp
	.cfi_offset 3, -24
	movq	%rdi, -152(%rbp)
	movq	%rsi, -160(%rbp)
	movq	%rdx, -168(%rbp)
	.loc 10 276 5
	movq	%fs:40, %rax
	movq	%rax, -24(%rbp)
	xorl	%eax, %eax
	.loc 10 278 9
	movq	-152(%rbp), %rax
	movq	(%rax), %rax
	addq	$8, %rax
	movq	(%rax), %rcx
	movq	-160(%rbp), %rdx
	movq	-152(%rbp), %rax
	movq	%rdx, %rsi
	movq	%rax, %rdi
.LEHB62:
	call	*%rcx
.LVL8:
	movl	%eax, -136(%rbp)
	.loc 10 278 21
	movq	-152(%rbp), %rax
	movq	(%rax), %rax
	addq	$8, %rax
	movq	(%rax), %rcx
	movq	-168(%rbp), %rdx
	movq	-152(%rbp), %rax
	movq	%rdx, %rsi
	movq	%rax, %rdi
	call	*%rcx
.LVL9:
	movl	%eax, -132(%rbp)
	.loc 10 279 5
	movl	-136(%rbp), %eax
	cmpl	-132(%rbp), %eax
	jne	.L267
	.loc 10 280 16
	movl	$0, %ebx
	jmp	.L277
.L267:
	.loc 10 281 5
	cmpl	$0, -136(%rbp)
	js	.L269
	.loc 10 281 15 discriminator 1
	cmpl	$0, -132(%rbp)
	jns	.L270
.L269:
	.loc 10 282 16
	movl	$2147483647, %ebx
	jmp	.L277
.L270:
	.loc 10 283 5
	movq	-152(%rbp), %rax
	movq	(%rax), %rax
	addq	$120, %rax
	movq	(%rax), %r8
	movl	-132(%rbp), %edx
	movl	-136(%rbp), %ecx
	movq	-152(%rbp), %rax
	movl	%ecx, %esi
	movq	%rax, %rdi
	call	*%r8
.LVL10:
	testb	%al, %al
	je	.L271
	.loc 10 284 16
	movl	$1, %ebx
	jmp	.L277
.L271:
	.loc 10 285 18
	leaq	-112(%rbp), %rax
	movq	-152(%rbp), %rdx
	movq	%rdx, %rsi
	movq	%rax, %rdi
	call	_ZN11GraphMatrixIccE14adjacentMatrixEv
.LEHE62:
	.loc 10 286 12
	movl	$2, -140(%rbp)
.L274:
	.loc 10 286 27 discriminator 1
	movq	-152(%rbp), %rax
	movl	8(%rax), %eax
	.loc 10 286 19 discriminator 1
	cmpl	%eax, -140(%rbp)
	jge	.L272
	.loc 10 287 30
	movl	-140(%rbp), %eax
	movslq	%eax, %rdx
	leaq	-64(%rbp), %rax
	leaq	-112(%rbp), %rcx
	movq	%rcx, %rsi
	movq	%rax, %rdi
.LEHB63:
	call	_ZN6MatrixIbE5powerEm
.LEHE63:
	.loc 10 287 30 is_stmt 0 discriminator 1
	movl	-136(%rbp), %eax
	movslq	%eax, %rdx
	leaq	-64(%rbp), %rax
	movq	%rdx, %rsi
	movq	%rax, %rdi
	call	_ZN6MatrixIbEixEm
	movq	%rax, %rdx
	movl	-132(%rbp), %eax
	cltq
	movq	%rax, %rsi
	movq	%rdx, %rdi
	call	_ZNSt6vectorIbSaIbEEixEm
	movq	%rax, -128(%rbp)
	movq	%rdx, -120(%rbp)
	leaq	-128(%rbp), %rax
	movq	%rax, %rdi
	call	_ZNKSt14_Bit_referencecvbEv
	movzbl	%al, %eax
	cmpl	$1, %eax
	sete	%bl
	leaq	-64(%rbp), %rax
	movq	%rax, %rdi
	call	_ZN6MatrixIbED1Ev
	.loc 10 287 9 is_stmt 1 discriminator 1
	testb	%bl, %bl
	jne	.L282
	.loc 10 286 5 discriminator 2
	addl	$1, -140(%rbp)
	jmp	.L274
.L282:
	.loc 10 288 13
	nop
.L272:
	.loc 10 289 24
	movq	-152(%rbp), %rax
	movl	8(%rax), %eax
	.loc 10 289 27
	cmpl	%eax, -140(%rbp)
	je	.L275
	.loc 10 289 27 is_stmt 0 discriminator 1
	movl	-140(%rbp), %ebx
	jmp	.L276
.L275:
	.loc 10 289 27 discriminator 2
	movl	$2147483647, %ebx
.L276:
	.loc 10 285 18 is_stmt 1 discriminator 4
	leaq	-112(%rbp), %rax
	movq	%rax, %rdi
	call	_ZN6MatrixIbED1Ev
.L277:
	movl	%ebx, %eax
	.loc 10 290 1 discriminator 1
	movq	-24(%rbp), %rcx
	xorq	%fs:40, %rcx
	je	.L279
	jmp	.L281
.L280:
	endbr64
	movq	%rax, %rbx
	.loc 10 285 18
	leaq	-112(%rbp), %rax
	movq	%rax, %rdi
	call	_ZN6MatrixIbED1Ev
	movq	%rbx, %rax
	movq	%rax, %rdi
.LEHB64:
	call	_Unwind_Resume@PLT
.LEHE64:
.L281:
	.loc 10 290 1
	call	__stack_chk_fail@PLT
.L279:
	addq	$168, %rsp
	popq	%rbx
	popq	%rbp
	.cfi_def_cfa 7, 8
	ret
	.cfi_endproc
.LFE3310:
	.section	.gcc_except_table
.LLSDA3310:
	.byte	0xff
	.byte	0xff
	.byte	0x1
	.uleb128 .LLSDACSE3310-.LLSDACSB3310
.LLSDACSB3310:
	.uleb128 .LEHB62-.LFB3310
	.uleb128 .LEHE62-.LEHB62
	.uleb128 0
	.uleb128 0
	.uleb128 .LEHB63-.LFB3310
	.uleb128 .LEHE63-.LEHB63
	.uleb128 .L280-.LFB3310
	.uleb128 0
	.uleb128 .LEHB64-.LFB3310
	.uleb128 .LEHE64-.LEHB64
	.uleb128 0
	.uleb128 0
.LLSDACSE3310:
	.section	.text._ZN11GraphMatrixIccE11minDistanceERKcS2_,"axG",@progbits,_ZN11GraphMatrixIccE11minDistanceERKcS2_,comdat
	.size	_ZN11GraphMatrixIccE11minDistanceERKcS2_, .-_ZN11GraphMatrixIccE11minDistanceERKcS2_
	.section	.text._ZN11GraphMatrixIccE12LengthOfLoopERKc,"axG",@progbits,_ZN11GraphMatrixIccE12LengthOfLoopERKc,comdat
	.align 2
	.weak	_ZN11GraphMatrixIccE12LengthOfLoopERKc
	.type	_ZN11GraphMatrixIccE12LengthOfLoopERKc, @function
_ZN11GraphMatrixIccE12LengthOfLoopERKc:
.LFB3311:
	.loc 10 292 5
	.cfi_startproc
	.cfi_personality 0x9b,DW.ref.__gxx_personality_v0
	.cfi_lsda 0x1b,.LLSDA3311
	endbr64
	pushq	%rbp
	.cfi_def_cfa_offset 16
	.cfi_offset 6, -16
	movq	%rsp, %rbp
	.cfi_def_cfa_register 6
	pushq	%rbx
	subq	$152, %rsp
	.cfi_offset 3, -24
	movq	%rdi, -152(%rbp)
	movq	%rsi, -160(%rbp)
	.loc 10 292 5
	movq	%fs:40, %rax
	movq	%rax, -24(%rbp)
	xorl	%eax, %eax
	.loc 10 294 9
	movq	-152(%rbp), %rax
	movq	(%rax), %rax
	addq	$8, %rax
	movq	(%rax), %rcx
	movq	-160(%rbp), %rdx
	movq	-152(%rbp), %rax
	movq	%rdx, %rsi
	movq	%rax, %rdi
.LEHB65:
	call	*%rcx
.LVL11:
	movl	%eax, -132(%rbp)
	.loc 10 295 5
	cmpl	$0, -132(%rbp)
	jns	.L284
	.loc 10 296 16
	movl	$2147483647, %ebx
	jmp	.L291
.L284:
	.loc 10 297 18
	leaq	-112(%rbp), %rax
	movq	-152(%rbp), %rdx
	movq	%rdx, %rsi
	movq	%rax, %rdi
	call	_ZN11GraphMatrixIccE14adjacentMatrixEv
.LEHE65:
	.loc 10 298 12
	movl	$2, -136(%rbp)
.L288:
	.loc 10 298 28 discriminator 1
	movq	-152(%rbp), %rax
	movl	8(%rax), %eax
	.loc 10 298 19 discriminator 1
	cmpl	%eax, -136(%rbp)
	jg	.L286
	.loc 10 299 30
	movl	-136(%rbp), %eax
	movslq	%eax, %rdx
	leaq	-64(%rbp), %rax
	leaq	-112(%rbp), %rcx
	movq	%rcx, %rsi
	movq	%rax, %rdi
.LEHB66:
	call	_ZN6MatrixIbE5powerEm
.LEHE66:
	.loc 10 299 30 is_stmt 0 discriminator 1
	movl	-132(%rbp), %eax
	movslq	%eax, %rdx
	leaq	-64(%rbp), %rax
	movq	%rdx, %rsi
	movq	%rax, %rdi
	call	_ZN6MatrixIbEixEm
	movq	%rax, %rdx
	movl	-132(%rbp), %eax
	cltq
	movq	%rax, %rsi
	movq	%rdx, %rdi
	call	_ZNSt6vectorIbSaIbEEixEm
	movq	%rax, -128(%rbp)
	movq	%rdx, -120(%rbp)
	leaq	-128(%rbp), %rax
	movq	%rax, %rdi
	call	_ZNKSt14_Bit_referencecvbEv
	movzbl	%al, %eax
	cmpl	$1, %eax
	sete	%bl
	leaq	-64(%rbp), %rax
	movq	%rax, %rdi
	call	_ZN6MatrixIbED1Ev
	.loc 10 299 9 is_stmt 1 discriminator 1
	testb	%bl, %bl
	jne	.L296
	.loc 10 298 5 discriminator 2
	addl	$1, -136(%rbp)
	jmp	.L288
.L296:
	.loc 10 300 13
	nop
.L286:
	.loc 10 301 24
	movq	-152(%rbp), %rax
	movl	8(%rax), %eax
	.loc 10 301 26
	addl	$1, %eax
	.loc 10 301 31
	cmpl	%eax, -136(%rbp)
	je	.L289
	.loc 10 301 31 is_stmt 0 discriminator 1
	movl	-136(%rbp), %ebx
	jmp	.L290
.L289:
	.loc 10 301 31 discriminator 2
	movl	$2147483647, %ebx
.L290:
	.loc 10 297 18 is_stmt 1 discriminator 4
	leaq	-112(%rbp), %rax
	movq	%rax, %rdi
	call	_ZN6MatrixIbED1Ev
.L291:
	movl	%ebx, %eax
	.loc 10 302 1 discriminator 1
	movq	-24(%rbp), %rcx
	xorq	%fs:40, %rcx
	je	.L293
	jmp	.L295
.L294:
	endbr64
	movq	%rax, %rbx
	.loc 10 297 18
	leaq	-112(%rbp), %rax
	movq	%rax, %rdi
	call	_ZN6MatrixIbED1Ev
	movq	%rbx, %rax
	movq	%rax, %rdi
.LEHB67:
	call	_Unwind_Resume@PLT
.LEHE67:
.L295:
	.loc 10 302 1
	call	__stack_chk_fail@PLT
.L293:
	addq	$152, %rsp
	popq	%rbx
	popq	%rbp
	.cfi_def_cfa 7, 8
	ret
	.cfi_endproc
.LFE3311:
	.section	.gcc_except_table
.LLSDA3311:
	.byte	0xff
	.byte	0xff
	.byte	0x1
	.uleb128 .LLSDACSE3311-.LLSDACSB3311
.LLSDACSB3311:
	.uleb128 .LEHB65-.LFB3311
	.uleb128 .LEHE65-.LEHB65
	.uleb128 0
	.uleb128 0
	.uleb128 .LEHB66-.LFB3311
	.uleb128 .LEHE66-.LEHB66
	.uleb128 .L294-.LFB3311
	.uleb128 0
	.uleb128 .LEHB67-.LFB3311
	.uleb128 .LEHE67-.LEHB67
	.uleb128 0
	.uleb128 0
.LLSDACSE3311:
	.section	.text._ZN11GraphMatrixIccE12LengthOfLoopERKc,"axG",@progbits,_ZN11GraphMatrixIccE12LengthOfLoopERKc,comdat
	.size	_ZN11GraphMatrixIccE12LengthOfLoopERKc, .-_ZN11GraphMatrixIccE12LengthOfLoopERKc
	.section	.text._ZN11GraphMatrixIccE9sumOfPathERKcS2_i,"axG",@progbits,_ZN11GraphMatrixIccE9sumOfPathERKcS2_i,comdat
	.align 2
	.weak	_ZN11GraphMatrixIccE9sumOfPathERKcS2_i
	.type	_ZN11GraphMatrixIccE9sumOfPathERKcS2_i, @function
_ZN11GraphMatrixIccE9sumOfPathERKcS2_i:
.LFB3312:
	.loc 10 304 5
	.cfi_startproc
	.cfi_personality 0x9b,DW.ref.__gxx_personality_v0
	.cfi_lsda 0x1b,.LLSDA3312
	endbr64
	pushq	%rbp
	.cfi_def_cfa_offset 16
	.cfi_offset 6, -16
	movq	%rsp, %rbp
	.cfi_def_cfa_register 6
	pushq	%rbx
	subq	$200, %rsp
	.cfi_offset 3, -24
	movq	%rdi, -184(%rbp)
	movq	%rsi, -192(%rbp)
	movq	%rdx, -200(%rbp)
	movl	%ecx, -204(%rbp)
	.loc 10 304 5
	movq	%fs:40, %rax
	movq	%rax, -24(%rbp)
	xorl	%eax, %eax
	.loc 10 306 9
	movq	-184(%rbp), %rax
	movq	(%rax), %rax
	addq	$8, %rax
	movq	(%rax), %rcx
	movq	-192(%rbp), %rdx
	movq	-184(%rbp), %rax
	movq	%rdx, %rsi
	movq	%rax, %rdi
.LEHB68:
	call	*%rcx
.LVL12:
	movl	%eax, -168(%rbp)
	.loc 10 306 21
	movq	-184(%rbp), %rax
	movq	(%rax), %rax
	addq	$8, %rax
	movq	(%rax), %rcx
	movq	-200(%rbp), %rdx
	movq	-184(%rbp), %rax
	movq	%rdx, %rsi
	movq	%rax, %rdi
	call	*%rcx
.LVL13:
	movl	%eax, -164(%rbp)
	.loc 10 307 5
	cmpl	$0, -168(%rbp)
	js	.L298
	.loc 10 307 15 discriminator 1
	cmpl	$0, -164(%rbp)
	jns	.L299
.L298:
	.loc 10 308 16
	movl	$0, %ebx
	jmp	.L305
.L299:
	.loc 10 309 17
	leaq	-64(%rbp), %rax
	movq	-184(%rbp), %rdx
	movq	%rdx, %rsi
	movq	%rax, %rdi
	call	_ZN11GraphMatrixIccE14adjacentMatrixEv
.LEHE68:
	leaq	-160(%rbp), %rax
	leaq	-64(%rbp), %rdx
	movq	%rdx, %rsi
	movq	%rax, %rdi
.LEHB69:
	call	_ZN6MatrixIbE6getIntEv
.LEHE69:
	leaq	-64(%rbp), %rax
	movq	%rax, %rdi
	call	_ZN6MatrixIbED1Ev
.LBB53:
	.loc 10 310 5
	cmpl	$0, -204(%rbp)
	je	.L301
	.loc 10 311 33
	movl	-204(%rbp), %eax
	movslq	%eax, %rdx
	leaq	-112(%rbp), %rax
	leaq	-160(%rbp), %rcx
	movq	%rcx, %rsi
	movq	%rax, %rdi
.LEHB70:
	call	_ZN6MatrixIiE5powerEm
	.loc 10 311 33 is_stmt 0 discriminator 1
	movl	-168(%rbp), %eax
	movslq	%eax, %rdx
	leaq	-112(%rbp), %rax
	movq	%rdx, %rsi
	movq	%rax, %rdi
	call	_ZN6MatrixIiEixEm
	movq	%rax, %rdx
	movl	-164(%rbp), %eax
	cltq
	movq	%rax, %rsi
	movq	%rdx, %rdi
	call	_ZNSt6vectorIiSaIiEEixEm
	movl	(%rax), %ebx
	leaq	-112(%rbp), %rax
	movq	%rax, %rdi
	call	_ZN6MatrixIiED1Ev
	jmp	.L302
.L301:
.LBB54:
.LBB55:
	.loc 10 313 18 is_stmt 1
	movl	$1, -172(%rbp)
.L304:
	.loc 10 313 36 discriminator 2
	movq	-184(%rbp), %rax
	movl	8(%rax), %eax
	.loc 10 313 27 discriminator 2
	cmpl	%eax, -172(%rbp)
	jg	.L303
	.loc 10 314 17
	movl	-172(%rbp), %eax
	movslq	%eax, %rdx
	leaq	-64(%rbp), %rax
	leaq	-160(%rbp), %rcx
	movq	%rcx, %rsi
	movq	%rax, %rdi
	call	_ZN6MatrixIiE5powerEm
.LEHE70:
	.loc 10 314 17 is_stmt 0 discriminator 1
	movl	-168(%rbp), %eax
	movslq	%eax, %rdx
	leaq	-64(%rbp), %rax
	movq	%rdx, %rsi
	movq	%rax, %rdi
	call	_ZN6MatrixIiEixEm
	movq	%rax, %rdx
	movl	-164(%rbp), %eax
	cltq
	movq	%rax, %rsi
	movq	%rdx, %rdi
	call	_ZNSt6vectorIiSaIiEEixEm
	.loc 10 314 13 is_stmt 1 discriminator 1
	movl	(%rax), %eax
	addl	%eax, -204(%rbp)
	.loc 10 314 17 discriminator 1
	leaq	-64(%rbp), %rax
	movq	%rax, %rdi
	call	_ZN6MatrixIiED1Ev
	.loc 10 313 9 discriminator 1
	addl	$1, -172(%rbp)
	jmp	.L304
.L303:
.LBE55:
.LBE54:
.LBE53:
	.loc 10 315 12
	movl	-204(%rbp), %ebx
.L302:
	.loc 10 309 17
	leaq	-160(%rbp), %rax
	movq	%rax, %rdi
	call	_ZN6MatrixIiED1Ev
.L305:
	movl	%ebx, %eax
	.loc 10 316 1 discriminator 1
	movq	-24(%rbp), %rbx
	xorq	%fs:40, %rbx
	je	.L308
	jmp	.L311
.L309:
	endbr64
	movq	%rax, %rbx
	leaq	-64(%rbp), %rax
	movq	%rax, %rdi
	call	_ZN6MatrixIbED1Ev
	movq	%rbx, %rax
	movq	%rax, %rdi
.LEHB71:
	call	_Unwind_Resume@PLT
.L310:
	endbr64
	movq	%rax, %rbx
	.loc 10 309 17
	leaq	-160(%rbp), %rax
	movq	%rax, %rdi
	call	_ZN6MatrixIiED1Ev
	movq	%rbx, %rax
	movq	%rax, %rdi
	call	_Unwind_Resume@PLT
.LEHE71:
.L311:
	.loc 10 316 1
	call	__stack_chk_fail@PLT
.L308:
	addq	$200, %rsp
	popq	%rbx
	popq	%rbp
	.cfi_def_cfa 7, 8
	ret
	.cfi_endproc
.LFE3312:
	.section	.gcc_except_table
.LLSDA3312:
	.byte	0xff
	.byte	0xff
	.byte	0x1
	.uleb128 .LLSDACSE3312-.LLSDACSB3312
.LLSDACSB3312:
	.uleb128 .LEHB68-.LFB3312
	.uleb128 .LEHE68-.LEHB68
	.uleb128 0
	.uleb128 0
	.uleb128 .LEHB69-.LFB3312
	.uleb128 .LEHE69-.LEHB69
	.uleb128 .L309-.LFB3312
	.uleb128 0
	.uleb128 .LEHB70-.LFB3312
	.uleb128 .LEHE70-.LEHB70
	.uleb128 .L310-.LFB3312
	.uleb128 0
	.uleb128 .LEHB71-.LFB3312
	.uleb128 .LEHE71-.LEHB71
	.uleb128 0
	.uleb128 0
.LLSDACSE3312:
	.section	.text._ZN11GraphMatrixIccE9sumOfPathERKcS2_i,"axG",@progbits,_ZN11GraphMatrixIccE9sumOfPathERKcS2_i,comdat
	.size	_ZN11GraphMatrixIccE9sumOfPathERKcS2_i, .-_ZN11GraphMatrixIccE9sumOfPathERKcS2_i
	.section	.text._ZNSt12_Vector_baseISt6vectorIiSaIiEESaIS2_EE12_Vector_implD2Ev,"axG",@progbits,_ZNSt12_Vector_baseISt6vectorIiSaIiEESaIS2_EE12_Vector_implD5Ev,comdat
	.align 2
	.weak	_ZNSt12_Vector_baseISt6vectorIiSaIiEESaIS2_EE12_Vector_implD2Ev
	.type	_ZNSt12_Vector_baseISt6vectorIiSaIiEESaIS2_EE12_Vector_implD2Ev, @function
_ZNSt12_Vector_baseISt6vectorIiSaIiEESaIS2_EE12_Vector_implD2Ev:
.LFB3318:
	.loc 12 125 14
	.cfi_startproc
	endbr64
	pushq	%rbp
	.cfi_def_cfa_offset 16
	.cfi_offset 6, -16
	movq	%rsp, %rbp
	.cfi_def_cfa_register 6
	subq	$16, %rsp
	movq	%rdi, -8(%rbp)
.LBB56:
	.loc 12 125 14
	movq	-8(%rbp), %rax
	movq	%rax, %rdi
	call	_ZNSaISt6vectorIiSaIiEEED2Ev
.LBE56:
	nop
	leave
	.cfi_def_cfa 7, 8
	ret
	.cfi_endproc
.LFE3318:
	.size	_ZNSt12_Vector_baseISt6vectorIiSaIiEESaIS2_EE12_Vector_implD2Ev, .-_ZNSt12_Vector_baseISt6vectorIiSaIiEESaIS2_EE12_Vector_implD2Ev
	.weak	_ZNSt12_Vector_baseISt6vectorIiSaIiEESaIS2_EE12_Vector_implD1Ev
	.set	_ZNSt12_Vector_baseISt6vectorIiSaIiEESaIS2_EE12_Vector_implD1Ev,_ZNSt12_Vector_baseISt6vectorIiSaIiEESaIS2_EE12_Vector_implD2Ev
	.section	.text._ZNSt12_Vector_baseISt6vectorIiSaIiEESaIS2_EEC2EOS4_,"axG",@progbits,_ZNSt12_Vector_baseISt6vectorIiSaIiEESaIS2_EEC5EOS4_,comdat
	.align 2
	.weak	_ZNSt12_Vector_baseISt6vectorIiSaIiEESaIS2_EEC2EOS4_
	.type	_ZNSt12_Vector_baseISt6vectorIiSaIiEESaIS2_EEC2EOS4_, @function
_ZNSt12_Vector_baseISt6vectorIiSaIiEESaIS2_EEC2EOS4_:
.LFB3320:
	.loc 12 305 7
	.cfi_startproc
	endbr64
	pushq	%rbp
	.cfi_def_cfa_offset 16
	.cfi_offset 6, -16
	movq	%rsp, %rbp
	.cfi_def_cfa_register 6
	subq	$16, %rsp
	movq	%rdi, -8(%rbp)
	movq	%rsi, -16(%rbp)
.LBB57:
	.loc 12 305 7
	movq	-8(%rbp), %rax
	movq	-16(%rbp), %rdx
	movq	%rdx, %rsi
	movq	%rax, %rdi
	call	_ZNSt12_Vector_baseISt6vectorIiSaIiEESaIS2_EE12_Vector_implC1EOS5_
.LBE57:
	nop
	leave
	.cfi_def_cfa 7, 8
	ret
	.cfi_endproc
.LFE3320:
	.size	_ZNSt12_Vector_baseISt6vectorIiSaIiEESaIS2_EEC2EOS4_, .-_ZNSt12_Vector_baseISt6vectorIiSaIiEESaIS2_EEC2EOS4_
	.weak	_ZNSt12_Vector_baseISt6vectorIiSaIiEESaIS2_EEC1EOS4_
	.set	_ZNSt12_Vector_baseISt6vectorIiSaIiEESaIS2_EEC1EOS4_,_ZNSt12_Vector_baseISt6vectorIiSaIiEESaIS2_EEC2EOS4_
	.section	.text._ZNSt6vectorIS_IiSaIiEESaIS1_EEC2EOS3_,"axG",@progbits,_ZNSt6vectorIS_IiSaIiEESaIS1_EEC5EOS3_,comdat
	.align 2
	.weak	_ZNSt6vectorIS_IiSaIiEESaIS1_EEC2EOS3_
	.type	_ZNSt6vectorIS_IiSaIiEESaIS1_EEC2EOS3_, @function
_ZNSt6vectorIS_IiSaIiEESaIS1_EEC2EOS3_:
.LFB3322:
	.loc 12 569 7
	.cfi_startproc
	endbr64
	pushq	%rbp
	.cfi_def_cfa_offset 16
	.cfi_offset 6, -16
	movq	%rsp, %rbp
	.cfi_def_cfa_register 6
	subq	$16, %rsp
	movq	%rdi, -8(%rbp)
	movq	%rsi, -16(%rbp)
.LBB58:
	.loc 12 569 7
	movq	-8(%rbp), %rax
	movq	-16(%rbp), %rdx
	movq	%rdx, %rsi
	movq	%rax, %rdi
	call	_ZNSt12_Vector_baseISt6vectorIiSaIiEESaIS2_EEC2EOS4_
.LBE58:
	nop
	leave
	.cfi_def_cfa 7, 8
	ret
	.cfi_endproc
.LFE3322:
	.size	_ZNSt6vectorIS_IiSaIiEESaIS1_EEC2EOS3_, .-_ZNSt6vectorIS_IiSaIiEESaIS1_EEC2EOS3_
	.weak	_ZNSt6vectorIS_IiSaIiEESaIS1_EEC1EOS3_
	.set	_ZNSt6vectorIS_IiSaIiEESaIS1_EEC1EOS3_,_ZNSt6vectorIS_IiSaIiEESaIS1_EEC2EOS3_
	.section	.text._ZN6MatrixIiEC2EOS0_,"axG",@progbits,_ZN6MatrixIiEC5EOS0_,comdat
	.align 2
	.weak	_ZN6MatrixIiEC2EOS0_
	.type	_ZN6MatrixIiEC2EOS0_, @function
_ZN6MatrixIiEC2EOS0_:
.LFB3324:
	.loc 8 16 8
	.cfi_startproc
	endbr64
	pushq	%rbp
	.cfi_def_cfa_offset 16
	.cfi_offset 6, -16
	movq	%rsp, %rbp
	.cfi_def_cfa_register 6
	subq	$16, %rsp
	movq	%rdi, -8(%rbp)
	movq	%rsi, -16(%rbp)
.LBB59:
	.loc 8 16 8
	movq	-8(%rbp), %rax
	movq	-16(%rbp), %rdx
	movq	%rdx, %rsi
	movq	%rax, %rdi
	call	_ZNSt6vectorIS_IiSaIiEESaIS1_EEC1EOS3_
	movq	-16(%rbp), %rax
	movq	24(%rax), %rdx
	movq	-8(%rbp), %rax
	movq	%rdx, 24(%rax)
	movq	-16(%rbp), %rax
	movq	32(%rax), %rdx
	movq	-8(%rbp), %rax
	movq	%rdx, 32(%rax)
.LBE59:
	nop
	leave
	.cfi_def_cfa 7, 8
	ret
	.cfi_endproc
.LFE3324:
	.size	_ZN6MatrixIiEC2EOS0_, .-_ZN6MatrixIiEC2EOS0_
	.weak	_ZN6MatrixIiEC1EOS0_
	.set	_ZN6MatrixIiEC1EOS0_,_ZN6MatrixIiEC2EOS0_
	.section	.text._ZN6MatrixIbE6getIntEv,"axG",@progbits,_ZN6MatrixIbE6getIntEv,comdat
	.align 2
	.weak	_ZN6MatrixIbE6getIntEv
	.type	_ZN6MatrixIbE6getIntEv, @function
_ZN6MatrixIbE6getIntEv:
.LFB3313:
	.loc 8 224 13
	.cfi_startproc
	endbr64
	pushq	%rbp
	.cfi_def_cfa_offset 16
	.cfi_offset 6, -16
	movq	%rsp, %rbp
	.cfi_def_cfa_register 6
	pushq	%rbx
	subq	$72, %rsp
	.cfi_offset 3, -24
	movq	%rdi, -72(%rbp)
	movq	%rsi, -80(%rbp)
	.loc 8 224 13
	movq	%fs:40, %rax
	movq	%rax, -24(%rbp)
	xorl	%eax, %eax
	.loc 8 226 17
	movq	-80(%rbp), %rax
	movq	32(%rax), %rdx
	movq	-80(%rbp), %rax
	movq	24(%rax), %rcx
	movq	-72(%rbp), %rax
	movq	%rcx, %rsi
	movq	%rax, %rdi
	call	_ZN6MatrixIiEC1Emm
.LBB60:
	.loc 8 227 14
	movl	$0, -56(%rbp)
.L320:
	.loc 8 227 21 discriminator 1
	movl	-56(%rbp), %eax
	movslq	%eax, %rdx
	.loc 8 227 25 discriminator 1
	movq	-80(%rbp), %rax
	movq	24(%rax), %rax
	.loc 8 227 23 discriminator 1
	cmpq	%rax, %rdx
	jnb	.L323
.LBB61:
.LBB62:
	.loc 8 228 18
	movl	$0, -52(%rbp)
.L319:
	.loc 8 228 25 discriminator 3
	movl	-52(%rbp), %eax
	movslq	%eax, %rdx
	.loc 8 228 29 discriminator 3
	movq	-80(%rbp), %rax
	movq	32(%rax), %rax
	.loc 8 228 27 discriminator 3
	cmpq	%rax, %rdx
	jnb	.L318
	.loc 8 229 31 discriminator 2
	movq	-80(%rbp), %rax
	movl	-56(%rbp), %edx
	movslq	%edx, %rdx
	movq	%rdx, %rsi
	movq	%rax, %rdi
	call	_ZNSt6vectorIS_IbSaIbEESaIS1_EEixEm
	movq	%rax, %rdx
	.loc 8 229 34 discriminator 2
	movl	-52(%rbp), %eax
	cltq
	movq	%rax, %rsi
	movq	%rdx, %rdi
	call	_ZNSt6vectorIbSaIbEEixEm
	movq	%rax, -48(%rbp)
	movq	%rdx, -40(%rbp)
	.loc 8 229 23 discriminator 2
	leaq	-48(%rbp), %rax
	movq	%rax, %rdi
	call	_ZNKSt14_Bit_referencecvbEv
	movzbl	%al, %ebx
	movl	-56(%rbp), %eax
	movslq	%eax, %rdx
	movq	-72(%rbp), %rax
	movq	%rdx, %rsi
	movq	%rax, %rdi
	call	_ZN6MatrixIiEixEm
	movq	%rax, %rdx
	movl	-52(%rbp), %eax
	cltq
	movq	%rax, %rsi
	movq	%rdx, %rdi
	call	_ZNSt6vectorIiSaIiEEixEm
	.loc 8 229 13 discriminator 2
	movl	%ebx, (%rax)
	.loc 8 228 9 discriminator 2
	addl	$1, -52(%rbp)
	jmp	.L319
.L318:
.LBE62:
.LBE61:
	.loc 8 227 5 discriminator 2
	addl	$1, -56(%rbp)
	jmp	.L320
.L323:
.LBE60:
	.loc 8 230 12
	nop
	.loc 8 231 1
	movq	-24(%rbp), %rax
	xorq	%fs:40, %rax
	je	.L322
	call	__stack_chk_fail@PLT
.L322:
	movq	-72(%rbp), %rax
	addq	$72, %rsp
	popq	%rbx
	popq	%rbp
	.cfi_def_cfa 7, 8
	ret
	.cfi_endproc
.LFE3313:
	.size	_ZN6MatrixIbE6getIntEv, .-_ZN6MatrixIbE6getIntEv
	.section	.text._ZNSt6vectorIS_IiSaIiEESaIS1_EED2Ev,"axG",@progbits,_ZNSt6vectorIS_IiSaIiEESaIS1_EED5Ev,comdat
	.align 2
	.weak	_ZNSt6vectorIS_IiSaIiEESaIS1_EED2Ev
	.type	_ZNSt6vectorIS_IiSaIiEESaIS1_EED2Ev, @function
_ZNSt6vectorIS_IiSaIiEESaIS1_EED2Ev:
.LFB3327:
	.loc 12 675 7
	.cfi_startproc
	.cfi_personality 0x9b,DW.ref.__gxx_personality_v0
	.cfi_lsda 0x1b,.LLSDA3327
	endbr64
	pushq	%rbp
	.cfi_def_cfa_offset 16
	.cfi_offset 6, -16
	movq	%rsp, %rbp
	.cfi_def_cfa_register 6
	subq	$16, %rsp
	movq	%rdi, -8(%rbp)
.LBB63:
	.loc 12 678 28
	movq	-8(%rbp), %rax
	movq	%rax, %rdi
	call	_ZNSt12_Vector_baseISt6vectorIiSaIiEESaIS2_EE19_M_get_Tp_allocatorEv
	movq	%rax, %rdx
	.loc 12 677 15
	movq	-8(%rbp), %rax
	movq	8(%rax), %rcx
	movq	-8(%rbp), %rax
	movq	(%rax), %rax
	movq	%rcx, %rsi
	movq	%rax, %rdi
	call	_ZSt8_DestroyIPSt6vectorIiSaIiEES2_EvT_S4_RSaIT0_E
	.loc 12 680 7
	movq	-8(%rbp), %rax
	movq	%rax, %rdi
	call	_ZNSt12_Vector_baseISt6vectorIiSaIiEESaIS2_EED2Ev
.LBE63:
	nop
	leave
	.cfi_def_cfa 7, 8
	ret
	.cfi_endproc
.LFE3327:
	.section	.gcc_except_table
.LLSDA3327:
	.byte	0xff
	.byte	0xff
	.byte	0x1
	.uleb128 .LLSDACSE3327-.LLSDACSB3327
.LLSDACSB3327:
.LLSDACSE3327:
	.section	.text._ZNSt6vectorIS_IiSaIiEESaIS1_EED2Ev,"axG",@progbits,_ZNSt6vectorIS_IiSaIiEESaIS1_EED5Ev,comdat
	.size	_ZNSt6vectorIS_IiSaIiEESaIS1_EED2Ev, .-_ZNSt6vectorIS_IiSaIiEESaIS1_EED2Ev
	.weak	_ZNSt6vectorIS_IiSaIiEESaIS1_EED1Ev
	.set	_ZNSt6vectorIS_IiSaIiEESaIS1_EED1Ev,_ZNSt6vectorIS_IiSaIiEESaIS1_EED2Ev
	.section	.text._ZN6MatrixIiEC2ERKS0_,"axG",@progbits,_ZN6MatrixIiEC5ERKS0_,comdat
	.align 2
	.weak	_ZN6MatrixIiEC2ERKS0_
	.type	_ZN6MatrixIiEC2ERKS0_, @function
_ZN6MatrixIiEC2ERKS0_:
.LFB3331:
	.loc 8 16 8
	.cfi_startproc
	endbr64
	pushq	%rbp
	.cfi_def_cfa_offset 16
	.cfi_offset 6, -16
	movq	%rsp, %rbp
	.cfi_def_cfa_register 6
	subq	$16, %rsp
	movq	%rdi, -8(%rbp)
	movq	%rsi, -16(%rbp)
.LBB64:
	.loc 8 16 8
	movq	-8(%rbp), %rax
	movq	-16(%rbp), %rdx
	movq	%rdx, %rsi
	movq	%rax, %rdi
	call	_ZNSt6vectorIS_IiSaIiEESaIS1_EEC1ERKS3_
	movq	-16(%rbp), %rax
	movq	24(%rax), %rdx
	movq	-8(%rbp), %rax
	movq	%rdx, 24(%rax)
	movq	-16(%rbp), %rax
	movq	32(%rax), %rdx
	movq	-8(%rbp), %rax
	movq	%rdx, 32(%rax)
.LBE64:
	nop
	leave
	.cfi_def_cfa 7, 8
	ret
	.cfi_endproc
.LFE3331:
	.size	_ZN6MatrixIiEC2ERKS0_, .-_ZN6MatrixIiEC2ERKS0_
	.weak	_ZN6MatrixIiEC1ERKS0_
	.set	_ZN6MatrixIiEC1ERKS0_,_ZN6MatrixIiEC2ERKS0_
	.section	.text._ZN6MatrixIiE5powerEm,"axG",@progbits,_ZN6MatrixIiE5powerEm,comdat
	.align 2
	.weak	_ZN6MatrixIiE5powerEm
	.type	_ZN6MatrixIiE5powerEm, @function
_ZN6MatrixIiE5powerEm:
.LFB3329:
	.loc 8 115 11
	.cfi_startproc
	.cfi_personality 0x9b,DW.ref.__gxx_personality_v0
	.cfi_lsda 0x1b,.LLSDA3329
	endbr64
	pushq	%rbp
	.cfi_def_cfa_offset 16
	.cfi_offset 6, -16
	movq	%rsp, %rbp
	.cfi_def_cfa_register 6
	pushq	%rbx
	subq	$136, %rsp
	.cfi_offset 3, -24
	movq	%rdi, -120(%rbp)
	movq	%rsi, -128(%rbp)
	movq	%rdx, -136(%rbp)
	.loc 8 115 11
	movq	%fs:40, %rax
	movq	%rax, -24(%rbp)
	xorl	%eax, %eax
	.loc 8 117 9
	movq	-128(%rbp), %rax
	movq	24(%rax), %rdx
	.loc 8 117 16
	movq	-128(%rbp), %rax
	movq	32(%rax), %rax
	.loc 8 117 5
	cmpq	%rax, %rdx
	je	.L327
	.loc 8 119 19
	leaq	.LC5(%rip), %rsi
	leaq	_ZSt4cerr(%rip), %rdi
.LEHB72:
	call	_ZStlsISt11char_traitsIcEERSt13basic_ostreamIcT_ES5_PKc@PLT
	movq	%rax, %rdx
	.loc 8 119 41
	movq	_ZSt4endlIcSt11char_traitsIcEERSt13basic_ostreamIT_T0_ES6_@GOTPCREL(%rip), %rax
	movq	%rax, %rsi
	movq	%rdx, %rdi
	call	_ZNSolsEPFRSoS_E@PLT
	.loc 8 120 13
	movl	$1, %edi
	call	exit@PLT
.L327:
	.loc 8 122 12
	movq	-128(%rbp), %rdx
	leaq	-112(%rbp), %rax
	movq	%rdx, %rsi
	movq	%rax, %rdi
	call	_ZN6MatrixIiEC1ERKS0_
.LEHE72:
	.loc 8 123 5
	cmpq	$0, -136(%rbp)
	jne	.L328
	.loc 8 124 26
	movq	-128(%rbp), %rax
	movq	24(%rax), %rdx
	movq	-120(%rbp), %rax
	movq	%rdx, %rsi
	movq	%rax, %rdi
.LEHB73:
	call	_ZN6MatrixIiEC1Em
	jmp	.L329
.L328:
	.loc 8 127 9
	subq	$1, -136(%rbp)
.L331:
	.loc 8 128 9
	movq	-136(%rbp), %rax
	leaq	-1(%rax), %rdx
	movq	%rdx, -136(%rbp)
	testq	%rax, %rax
	setne	%al
	testb	%al, %al
	je	.L330
	.loc 8 129 13
	leaq	-64(%rbp), %rax
	movq	-128(%rbp), %rdx
	leaq	-112(%rbp), %rcx
	movq	%rcx, %rsi
	movq	%rax, %rdi
	call	_ZN6MatrixIiEmLERKS0_
.LEHE73:
	.loc 8 129 13 is_stmt 0 discriminator 1
	leaq	-64(%rbp), %rax
	movq	%rax, %rdi
	call	_ZN6MatrixIiED1Ev
	.loc 8 128 9 is_stmt 1 discriminator 1
	jmp	.L331
.L330:
	.loc 8 131 12
	leaq	-112(%rbp), %rdx
	movq	-120(%rbp), %rax
	movq	%rdx, %rsi
	movq	%rax, %rdi
	call	_ZN6MatrixIiEC1EOS0_
.L329:
	.loc 8 122 12
	leaq	-112(%rbp), %rax
	movq	%rax, %rdi
	call	_ZN6MatrixIiED1Ev
	.loc 8 132 1
	movq	-24(%rbp), %rax
	xorq	%fs:40, %rax
	je	.L334
	jmp	.L336
.L335:
	endbr64
	movq	%rax, %rbx
	.loc 8 122 12
	leaq	-112(%rbp), %rax
	movq	%rax, %rdi
	call	_ZN6MatrixIiED1Ev
	movq	%rbx, %rax
	movq	%rax, %rdi
.LEHB74:
	call	_Unwind_Resume@PLT
.LEHE74:
.L336:
	.loc 8 132 1
	call	__stack_chk_fail@PLT
.L334:
	movq	-120(%rbp), %rax
	addq	$136, %rsp
	popq	%rbx
	popq	%rbp
	.cfi_def_cfa 7, 8
	ret
	.cfi_endproc
.LFE3329:
	.section	.gcc_except_table
.LLSDA3329:
	.byte	0xff
	.byte	0xff
	.byte	0x1
	.uleb128 .LLSDACSE3329-.LLSDACSB3329
.LLSDACSB3329:
	.uleb128 .LEHB72-.LFB3329
	.uleb128 .LEHE72-.LEHB72
	.uleb128 0
	.uleb128 0
	.uleb128 .LEHB73-.LFB3329
	.uleb128 .LEHE73-.LEHB73
	.uleb128 .L335-.LFB3329
	.uleb128 0
	.uleb128 .LEHB74-.LFB3329
	.uleb128 .LEHE74-.LEHB74
	.uleb128 0
	.uleb128 0
.LLSDACSE3329:
	.section	.text._ZN6MatrixIiE5powerEm,"axG",@progbits,_ZN6MatrixIiE5powerEm,comdat
	.size	_ZN6MatrixIiE5powerEm, .-_ZN6MatrixIiE5powerEm
	.section	.text._ZlsIiERSoS0_RK6MatrixIT_E,"axG",@progbits,_ZlsIiERSoS0_RK6MatrixIT_E,comdat
	.weak	_ZlsIiERSoS0_RK6MatrixIT_E
	.type	_ZlsIiERSoS0_RK6MatrixIT_E, @function
_ZlsIiERSoS0_RK6MatrixIT_E:
.LFB3333:
	.loc 8 213 15
	.cfi_startproc
	endbr64
	pushq	%rbp
	.cfi_def_cfa_offset 16
	.cfi_offset 6, -16
	movq	%rsp, %rbp
	.cfi_def_cfa_register 6
	pushq	%rbx
	subq	$40, %rsp
	.cfi_offset 3, -24
	movq	%rdi, -40(%rbp)
	movq	%rsi, -48(%rbp)
.LBB65:
	.loc 8 215 17
	movq	$0, -32(%rbp)
.L341:
	.loc 8 215 30 discriminator 1
	movq	-48(%rbp), %rax
	movq	24(%rax), %rax
	.loc 8 215 26 discriminator 1
	cmpq	%rax, -32(%rbp)
	jnb	.L338
.LBB66:
.LBB67:
	.loc 8 217 21
	movq	$0, -24(%rbp)
.L340:
	.loc 8 217 34 discriminator 3
	movq	-48(%rbp), %rax
	movq	32(%rax), %rax
	.loc 8 217 30 discriminator 3
	cmpq	%rax, -24(%rbp)
	jnb	.L339
	.loc 8 218 33 discriminator 2
	movl	$2, %edi
	call	_ZSt4setwi
	movl	%eax, %edx
	movq	-40(%rbp), %rax
	movl	%edx, %esi
	movq	%rax, %rdi
	call	_ZStlsIcSt11char_traitsIcEERSt13basic_ostreamIT_T0_ES6_St5_Setw@PLT
	movq	%rax, %rbx
	movl	$32, %edi
	call	_ZSt11setiosflagsSt13_Ios_Fmtflags
	movl	%eax, %esi
	movq	%rbx, %rdi
	call	_ZStlsIcSt11char_traitsIcEERSt13basic_ostreamIT_T0_ES6_St12_Setiosflags@PLT
	movq	%rax, %rbx
	.loc 8 218 80 discriminator 2
	movq	-48(%rbp), %rax
	movq	-32(%rbp), %rdx
	movq	%rdx, %rsi
	movq	%rax, %rdi
	call	_ZNKSt6vectorIS_IiSaIiEESaIS1_EEixEm
	movq	%rax, %rdx
	.loc 8 218 83 discriminator 2
	movq	-24(%rbp), %rax
	movq	%rax, %rsi
	movq	%rdx, %rdi
	call	_ZNKSt6vectorIiSaIiEEixEm
	.loc 8 218 87 discriminator 2
	movl	(%rax), %eax
	movl	%eax, %esi
	movq	%rbx, %rdi
	call	_ZNSolsEi@PLT
	movl	$32, %esi
	movq	%rax, %rdi
	call	_ZStlsISt11char_traitsIcEERSt13basic_ostreamIcT_ES5_c@PLT
	.loc 8 217 9 discriminator 2
	addq	$1, -24(%rbp)
	jmp	.L340
.L339:
.LBE67:
	.loc 8 219 13 discriminator 2
	movq	-40(%rbp), %rax
	movq	_ZSt4endlIcSt11char_traitsIcEERSt13basic_ostreamIT_T0_ES6_@GOTPCREL(%rip), %rdx
	movq	%rdx, %rsi
	movq	%rax, %rdi
	call	_ZNSolsEPFRSoS_E@PLT
.LBE66:
	.loc 8 215 5 discriminator 2
	addq	$1, -32(%rbp)
	jmp	.L341
.L338:
.LBE65:
	.loc 8 221 12
	movq	-40(%rbp), %rax
	.loc 8 222 1
	addq	$40, %rsp
	popq	%rbx
	popq	%rbp
	.cfi_def_cfa 7, 8
	ret
	.cfi_endproc
.LFE3333:
	.size	_ZlsIiERSoS0_RK6MatrixIT_E, .-_ZlsIiERSoS0_RK6MatrixIT_E
	.section	.text._ZNSt7__cxx1112basic_stringIcSt11char_traitsIcESaIcEE12_M_constructIPKcEEvT_S8_,"axG",@progbits,_ZNSt7__cxx1112basic_stringIcSt11char_traitsIcESaIcEE12_M_constructIPKcEEvT_S8_,comdat
	.align 2
	.weak	_ZNSt7__cxx1112basic_stringIcSt11char_traitsIcESaIcEE12_M_constructIPKcEEvT_S8_
	.type	_ZNSt7__cxx1112basic_stringIcSt11char_traitsIcESaIcEE12_M_constructIPKcEEvT_S8_, @function
_ZNSt7__cxx1112basic_stringIcSt11char_traitsIcESaIcEE12_M_constructIPKcEEvT_S8_:
.LFB3356:
	.loc 11 263 9
	.cfi_startproc
	endbr64
	pushq	%rbp
	.cfi_def_cfa_offset 16
	.cfi_offset 6, -16
	movq	%rsp, %rbp
	.cfi_def_cfa_register 6
	subq	$32, %rsp
	movq	%rdi, -8(%rbp)
	movq	%rsi, -16(%rbp)
	movq	%rdx, -24(%rbp)
	.loc 11 266 4
	movq	-24(%rbp), %rdx
	movq	-16(%rbp), %rcx
	movq	-8(%rbp), %rax
	movq	%rcx, %rsi
	movq	%rax, %rdi
	call	_ZNSt7__cxx1112basic_stringIcSt11char_traitsIcESaIcEE16_M_construct_auxIPKcEEvT_S8_St12__false_type
	.loc 11 267 9
	nop
	leave
	.cfi_def_cfa 7, 8
	ret
	.cfi_endproc
.LFE3356:
	.size	_ZNSt7__cxx1112basic_stringIcSt11char_traitsIcESaIcEE12_M_constructIPKcEEvT_S8_, .-_ZNSt7__cxx1112basic_stringIcSt11char_traitsIcESaIcEE12_M_constructIPKcEEvT_S8_
	.section	.text._ZNSt6chronomiIlSt5ratioILl1ELl1000000000EElS2_EENSt11common_typeIJNS_8durationIT_T0_EENS4_IT1_T2_EEEE4typeERKS7_RKSA_,"axG",@progbits,_ZNSt6chronomiIlSt5ratioILl1ELl1000000000EElS2_EENSt11common_typeIJNS_8durationIT_T0_EENS4_IT1_T2_EEEE4typeERKS7_RKSA_,comdat
	.weak	_ZNSt6chronomiIlSt5ratioILl1ELl1000000000EElS2_EENSt11common_typeIJNS_8durationIT_T0_EENS4_IT1_T2_EEEE4typeERKS7_RKSA_
	.type	_ZNSt6chronomiIlSt5ratioILl1ELl1000000000EElS2_EENSt11common_typeIJNS_8durationIT_T0_EENS4_IT1_T2_EEEE4typeERKS7_RKSA_, @function
_ZNSt6chronomiIlSt5ratioILl1ELl1000000000EElS2_EENSt11common_typeIJNS_8durationIT_T0_EENS4_IT1_T2_EEEE4typeERKS7_RKSA_:
.LFB3411:
	.loc 6 463 7
	.cfi_startproc
	endbr64
	pushq	%rbp
	.cfi_def_cfa_offset 16
	.cfi_offset 6, -16
	movq	%rsp, %rbp
	.cfi_def_cfa_register 6
	pushq	%rbx
	subq	$72, %rsp
	.cfi_offset 3, -24
	movq	%rdi, -72(%rbp)
	movq	%rsi, -80(%rbp)
	.loc 6 463 7
	movq	%fs:40, %rax
	movq	%rax, -24(%rbp)
	xorl	%eax, %eax
	.loc 6 469 34
	movq	-72(%rbp), %rax
	movq	(%rax), %rax
	movq	%rax, -56(%rbp)
	leaq	-56(%rbp), %rax
	movq	%rax, %rdi
	call	_ZNKSt6chrono8durationIlSt5ratioILl1ELl1000000000EEE5countEv
	movq	%rax, %rbx
	movq	-80(%rbp), %rax
	movq	(%rax), %rax
	movq	%rax, -48(%rbp)
	leaq	-48(%rbp), %rax
	movq	%rax, %rdi
	call	_ZNKSt6chrono8durationIlSt5ratioILl1ELl1000000000EEE5countEv
	subq	%rax, %rbx
	movq	%rbx, %rax
	movq	%rax, -40(%rbp)
	.loc 6 469 55
	leaq	-40(%rbp), %rdx
	leaq	-32(%rbp), %rax
	movq	%rdx, %rsi
	movq	%rax, %rdi
	call	_ZNSt6chrono8durationIlSt5ratioILl1ELl1000000000EEEC1IlvEERKT_
	movq	-32(%rbp), %rax
	.loc 6 470 7
	movq	-24(%rbp), %rcx
	xorq	%fs:40, %rcx
	je	.L346
	call	__stack_chk_fail@PLT
.L346:
	addq	$72, %rsp
	popq	%rbx
	popq	%rbp
	.cfi_def_cfa 7, 8
	ret
	.cfi_endproc
.LFE3411:
	.size	_ZNSt6chronomiIlSt5ratioILl1ELl1000000000EElS2_EENSt11common_typeIJNS_8durationIT_T0_EENS4_IT1_T2_EEEE4typeERKS7_RKSA_, .-_ZNSt6chronomiIlSt5ratioILl1ELl1000000000EElS2_EENSt11common_typeIJNS_8durationIT_T0_EENS4_IT1_T2_EEEE4typeERKS7_RKSA_
	.section	.text._ZNSt6chrono13duration_castINS_8durationIfSt5ratioILl1ELl1EEEElS2_ILl1ELl1000000000EEEENSt9enable_ifIXsrNS_13__is_durationIT_EE5valueES8_E4typeERKNS1_IT0_T1_EE,"axG",@progbits,_ZNSt6chrono13duration_castINS_8durationIfSt5ratioILl1ELl1EEEElS2_ILl1ELl1000000000EEEENSt9enable_ifIXsrNS_13__is_durationIT_EE5valueES8_E4typeERKNS1_IT0_T1_EE,comdat
	.weak	_ZNSt6chrono13duration_castINS_8durationIfSt5ratioILl1ELl1EEEElS2_ILl1ELl1000000000EEEENSt9enable_ifIXsrNS_13__is_durationIT_EE5valueES8_E4typeERKNS1_IT0_T1_EE
	.type	_ZNSt6chrono13duration_castINS_8durationIfSt5ratioILl1ELl1EEEElS2_ILl1ELl1000000000EEEENSt9enable_ifIXsrNS_13__is_durationIT_EE5valueES8_E4typeERKNS1_IT0_T1_EE, @function
_ZNSt6chrono13duration_castINS_8durationIfSt5ratioILl1ELl1EEEElS2_ILl1ELl1000000000EEEENSt9enable_ifIXsrNS_13__is_durationIT_EE5valueES8_E4typeERKNS1_IT0_T1_EE:
.LFB3412:
	.loc 6 191 7
	.cfi_startproc
	endbr64
	pushq	%rbp
	.cfi_def_cfa_offset 16
	.cfi_offset 6, -16
	movq	%rsp, %rbp
	.cfi_def_cfa_register 6
	subq	$16, %rsp
	movq	%rdi, -8(%rbp)
	.loc 6 200 21
	movq	-8(%rbp), %rax
	movq	%rax, %rdi
	call	_ZNSt6chrono20__duration_cast_implINS_8durationIfSt5ratioILl1ELl1EEEES2_ILl1ELl1000000000EEfLb1ELb0EE6__castIlS5_EES4_RKNS1_IT_T0_EE
	.loc 6 201 7
	leave
	.cfi_def_cfa 7, 8
	ret
	.cfi_endproc
.LFE3412:
	.size	_ZNSt6chrono13duration_castINS_8durationIfSt5ratioILl1ELl1EEEElS2_ILl1ELl1000000000EEEENSt9enable_ifIXsrNS_13__is_durationIT_EE5valueES8_E4typeERKNS1_IT0_T1_EE, .-_ZNSt6chrono13duration_castINS_8durationIfSt5ratioILl1ELl1EEEElS2_ILl1ELl1000000000EEEENSt9enable_ifIXsrNS_13__is_durationIT_EE5valueES8_E4typeERKNS1_IT0_T1_EE
	.section	.text._ZNSt12_Vector_baseIcSaIcEE12_Vector_implD2Ev,"axG",@progbits,_ZNSt12_Vector_baseIcSaIcEE12_Vector_implD5Ev,comdat
	.align 2
	.weak	_ZNSt12_Vector_baseIcSaIcEE12_Vector_implD2Ev
	.type	_ZNSt12_Vector_baseIcSaIcEE12_Vector_implD2Ev, @function
_ZNSt12_Vector_baseIcSaIcEE12_Vector_implD2Ev:
.LFB3418:
	.loc 12 125 14
	.cfi_startproc
	endbr64
	pushq	%rbp
	.cfi_def_cfa_offset 16
	.cfi_offset 6, -16
	movq	%rsp, %rbp
	.cfi_def_cfa_register 6
	subq	$16, %rsp
	movq	%rdi, -8(%rbp)
.LBB68:
	.loc 12 125 14
	movq	-8(%rbp), %rax
	movq	%rax, %rdi
	call	_ZNSaIcED2Ev@PLT
.LBE68:
	nop
	leave
	.cfi_def_cfa 7, 8
	ret
	.cfi_endproc
.LFE3418:
	.size	_ZNSt12_Vector_baseIcSaIcEE12_Vector_implD2Ev, .-_ZNSt12_Vector_baseIcSaIcEE12_Vector_implD2Ev
	.weak	_ZNSt12_Vector_baseIcSaIcEE12_Vector_implD1Ev
	.set	_ZNSt12_Vector_baseIcSaIcEE12_Vector_implD1Ev,_ZNSt12_Vector_baseIcSaIcEE12_Vector_implD2Ev
	.section	.text._ZNSt12_Vector_baseIcSaIcEEC2ERKS0_,"axG",@progbits,_ZNSt12_Vector_baseIcSaIcEEC5ERKS0_,comdat
	.align 2
	.weak	_ZNSt12_Vector_baseIcSaIcEEC2ERKS0_
	.type	_ZNSt12_Vector_baseIcSaIcEEC2ERKS0_, @function
_ZNSt12_Vector_baseIcSaIcEEC2ERKS0_:
.LFB3420:
	.loc 12 290 7
	.cfi_startproc
	endbr64
	pushq	%rbp
	.cfi_def_cfa_offset 16
	.cfi_offset 6, -16
	movq	%rsp, %rbp
	.cfi_def_cfa_register 6
	subq	$16, %rsp
	movq	%rdi, -8(%rbp)
	movq	%rsi, -16(%rbp)
.LBB69:
	.loc 12 291 20
	movq	-8(%rbp), %rax
	movq	-16(%rbp), %rdx
	movq	%rdx, %rsi
	movq	%rax, %rdi
	call	_ZNSt12_Vector_baseIcSaIcEE12_Vector_implC1ERKS0_
.LBE69:
	.loc 12 291 24
	nop
	leave
	.cfi_def_cfa 7, 8
	ret
	.cfi_endproc
.LFE3420:
	.size	_ZNSt12_Vector_baseIcSaIcEEC2ERKS0_, .-_ZNSt12_Vector_baseIcSaIcEEC2ERKS0_
	.weak	_ZNSt12_Vector_baseIcSaIcEEC1ERKS0_
	.set	_ZNSt12_Vector_baseIcSaIcEEC1ERKS0_,_ZNSt12_Vector_baseIcSaIcEEC2ERKS0_
	.section	.text._ZNSt12_Vector_baseIcSaIcEED2Ev,"axG",@progbits,_ZNSt12_Vector_baseIcSaIcEED5Ev,comdat
	.align 2
	.weak	_ZNSt12_Vector_baseIcSaIcEED2Ev
	.type	_ZNSt12_Vector_baseIcSaIcEED2Ev, @function
_ZNSt12_Vector_baseIcSaIcEED2Ev:
.LFB3423:
	.loc 12 330 7
	.cfi_startproc
	.cfi_personality 0x9b,DW.ref.__gxx_personality_v0
	.cfi_lsda 0x1b,.LLSDA3423
	endbr64
	pushq	%rbp
	.cfi_def_cfa_offset 16
	.cfi_offset 6, -16
	movq	%rsp, %rbp
	.cfi_def_cfa_register 6
	subq	$16, %rsp
	movq	%rdi, -8(%rbp)
.LBB70:
	.loc 12 333 17
	movq	-8(%rbp), %rax
	movq	16(%rax), %rdx
	.loc 12 333 45
	movq	-8(%rbp), %rax
	movq	(%rax), %rax
	.loc 12 333 35
	subq	%rax, %rdx
	movq	%rdx, %rax
	.loc 12 332 2
	movq	%rax, %rdx
	movq	-8(%rbp), %rax
	movq	(%rax), %rcx
	movq	-8(%rbp), %rax
	movq	%rcx, %rsi
	movq	%rax, %rdi
	call	_ZNSt12_Vector_baseIcSaIcEE13_M_deallocateEPcm
	.loc 12 334 7
	movq	-8(%rbp), %rax
	movq	%rax, %rdi
	call	_ZNSt12_Vector_baseIcSaIcEE12_Vector_implD1Ev
.LBE70:
	nop
	leave
	.cfi_def_cfa 7, 8
	ret
	.cfi_endproc
.LFE3423:
	.section	.gcc_except_table
.LLSDA3423:
	.byte	0xff
	.byte	0xff
	.byte	0x1
	.uleb128 .LLSDACSE3423-.LLSDACSB3423
.LLSDACSB3423:
.LLSDACSE3423:
	.section	.text._ZNSt12_Vector_baseIcSaIcEED2Ev,"axG",@progbits,_ZNSt12_Vector_baseIcSaIcEED5Ev,comdat
	.size	_ZNSt12_Vector_baseIcSaIcEED2Ev, .-_ZNSt12_Vector_baseIcSaIcEED2Ev
	.weak	_ZNSt12_Vector_baseIcSaIcEED1Ev
	.set	_ZNSt12_Vector_baseIcSaIcEED1Ev,_ZNSt12_Vector_baseIcSaIcEED2Ev
	.section	.text._ZNKSt16initializer_listIcE5beginEv,"axG",@progbits,_ZNKSt16initializer_listIcE5beginEv,comdat
	.align 2
	.weak	_ZNKSt16initializer_listIcE5beginEv
	.type	_ZNKSt16initializer_listIcE5beginEv, @function
_ZNKSt16initializer_listIcE5beginEv:
.LFB3425:
	.file 13 "/usr/include/c++/9/initializer_list"
	.loc 13 75 7
	.cfi_startproc
	endbr64
	pushq	%rbp
	.cfi_def_cfa_offset 16
	.cfi_offset 6, -16
	movq	%rsp, %rbp
	.cfi_def_cfa_register 6
	movq	%rdi, -8(%rbp)
	.loc 13 75 39
	movq	-8(%rbp), %rax
	movq	(%rax), %rax
	.loc 13 75 49
	popq	%rbp
	.cfi_def_cfa 7, 8
	ret
	.cfi_endproc
.LFE3425:
	.size	_ZNKSt16initializer_listIcE5beginEv, .-_ZNKSt16initializer_listIcE5beginEv
	.section	.text._ZNKSt16initializer_listIcE3endEv,"axG",@progbits,_ZNKSt16initializer_listIcE3endEv,comdat
	.align 2
	.weak	_ZNKSt16initializer_listIcE3endEv
	.type	_ZNKSt16initializer_listIcE3endEv, @function
_ZNKSt16initializer_listIcE3endEv:
.LFB3426:
	.loc 13 79 7
	.cfi_startproc
	endbr64
	pushq	%rbp
	.cfi_def_cfa_offset 16
	.cfi_offset 6, -16
	movq	%rsp, %rbp
	.cfi_def_cfa_register 6
	pushq	%rbx
	subq	$24, %rsp
	.cfi_offset 3, -24
	movq	%rdi, -24(%rbp)
	.loc 13 79 45
	movq	-24(%rbp), %rax
	movq	%rax, %rdi
	call	_ZNKSt16initializer_listIcE5beginEv
	movq	%rax, %rbx
	movq	-24(%rbp), %rax
	movq	%rax, %rdi
	call	_ZNKSt16initializer_listIcE4sizeEv
	.loc 13 79 52
	addq	%rbx, %rax
	.loc 13 79 55
	addq	$24, %rsp
	popq	%rbx
	popq	%rbp
	.cfi_def_cfa 7, 8
	ret
	.cfi_endproc
.LFE3426:
	.size	_ZNKSt16initializer_listIcE3endEv, .-_ZNKSt16initializer_listIcE3endEv
	.section	.text._ZSt8distanceIPKcENSt15iterator_traitsIT_E15difference_typeES3_S3_,"axG",@progbits,_ZSt8distanceIPKcENSt15iterator_traitsIT_E15difference_typeES3_S3_,comdat
	.weak	_ZSt8distanceIPKcENSt15iterator_traitsIT_E15difference_typeES3_S3_
	.type	_ZSt8distanceIPKcENSt15iterator_traitsIT_E15difference_typeES3_S3_, @function
_ZSt8distanceIPKcENSt15iterator_traitsIT_E15difference_typeES3_S3_:
.LFB3428:
	.file 14 "/usr/include/c++/9/bits/stl_iterator_base_funcs.h"
	.loc 14 138 5
	.cfi_startproc
	endbr64
	pushq	%rbp
	.cfi_def_cfa_offset 16
	.cfi_offset 6, -16
	movq	%rsp, %rbp
	.cfi_def_cfa_register 6
	subq	$16, %rsp
	movq	%rdi, -8(%rbp)
	movq	%rsi, -16(%rbp)
	.loc 14 142 33
	leaq	-8(%rbp), %rax
	movq	%rax, %rdi
	call	_ZSt19__iterator_categoryIPKcENSt15iterator_traitsIT_E17iterator_categoryERKS3_
	.loc 14 141 29
	movq	-8(%rbp), %rax
	movq	-16(%rbp), %rdx
	movq	%rdx, %rsi
	movq	%rax, %rdi
	call	_ZSt10__distanceIPKcENSt15iterator_traitsIT_E15difference_typeES3_S3_St26random_access_iterator_tag
	.loc 14 143 5
	leave
	.cfi_def_cfa 7, 8
	ret
	.cfi_endproc
.LFE3428:
	.size	_ZSt8distanceIPKcENSt15iterator_traitsIT_E15difference_typeES3_S3_, .-_ZSt8distanceIPKcENSt15iterator_traitsIT_E15difference_typeES3_S3_
	.section	.text._ZNSt6vectorIcSaIcEE19_M_range_initializeIPKcEEvT_S5_St20forward_iterator_tag,"axG",@progbits,_ZNSt6vectorIcSaIcEE19_M_range_initializeIPKcEEvT_S5_St20forward_iterator_tag,comdat
	.align 2
	.weak	_ZNSt6vectorIcSaIcEE19_M_range_initializeIPKcEEvT_S5_St20forward_iterator_tag
	.type	_ZNSt6vectorIcSaIcEE19_M_range_initializeIPKcEEvT_S5_St20forward_iterator_tag, @function
_ZNSt6vectorIcSaIcEE19_M_range_initializeIPKcEEvT_S5_St20forward_iterator_tag:
.LFB3427:
	.loc 12 1574 2
	.cfi_startproc
	endbr64
	pushq	%rbp
	.cfi_def_cfa_offset 16
	.cfi_offset 6, -16
	movq	%rsp, %rbp
	.cfi_def_cfa_register 6
	pushq	%rbx
	subq	$56, %rsp
	.cfi_offset 3, -24
	movq	%rdi, -40(%rbp)
	movq	%rsi, -48(%rbp)
	movq	%rdx, -56(%rbp)
	.loc 12 1577 39
	movq	-56(%rbp), %rdx
	movq	-48(%rbp), %rax
	movq	%rdx, %rsi
	movq	%rax, %rdi
	call	_ZSt8distanceIPKcENSt15iterator_traitsIT_E15difference_typeES3_S3_
	.loc 12 1577 20
	movq	%rax, -24(%rbp)
	.loc 12 1579 6
	movq	-40(%rbp), %rbx
	.loc 12 1579 68
	movq	-40(%rbp), %rax
	movq	%rax, %rdi
	call	_ZNSt12_Vector_baseIcSaIcEE19_M_get_Tp_allocatorEv
	movq	%rax, %rdx
	.loc 12 1579 6
	movq	-24(%rbp), %rax
	movq	%rdx, %rsi
	movq	%rax, %rdi
	call	_ZNSt6vectorIcSaIcEE17_S_check_init_lenEmRKS0_
	movq	%rax, %rsi
	movq	%rbx, %rdi
	call	_ZNSt12_Vector_baseIcSaIcEE11_M_allocateEm
	.loc 12 1578 4
	movq	-40(%rbp), %rdx
	movq	%rax, (%rdx)
	.loc 12 1580 52
	movq	-40(%rbp), %rax
	movq	(%rax), %rdx
	.loc 12 1580 61
	movq	-24(%rbp), %rax
	addq	%rax, %rdx
	.loc 12 1580 4
	movq	-40(%rbp), %rax
	movq	%rdx, 16(%rax)
	.loc 12 1584 25
	movq	-40(%rbp), %rax
	movq	%rax, %rdi
	call	_ZNSt12_Vector_baseIcSaIcEE19_M_get_Tp_allocatorEv
	movq	%rax, %rcx
	.loc 12 1582 33
	movq	-40(%rbp), %rax
	movq	(%rax), %rdx
	movq	-56(%rbp), %rsi
	movq	-48(%rbp), %rax
	movq	%rax, %rdi
	call	_ZSt22__uninitialized_copy_aIPKcPccET0_T_S4_S3_RSaIT1_E
	.loc 12 1581 4
	movq	-40(%rbp), %rdx
	movq	%rax, 8(%rdx)
	.loc 12 1585 2
	nop
	addq	$56, %rsp
	popq	%rbx
	popq	%rbp
	.cfi_def_cfa 7, 8
	ret
	.cfi_endproc
.LFE3427:
	.size	_ZNSt6vectorIcSaIcEE19_M_range_initializeIPKcEEvT_S5_St20forward_iterator_tag, .-_ZNSt6vectorIcSaIcEE19_M_range_initializeIPKcEEvT_S5_St20forward_iterator_tag
	.section	.text._ZNSt12_Vector_baseIcSaIcEE19_M_get_Tp_allocatorEv,"axG",@progbits,_ZNSt12_Vector_baseIcSaIcEE19_M_get_Tp_allocatorEv,comdat
	.align 2
	.weak	_ZNSt12_Vector_baseIcSaIcEE19_M_get_Tp_allocatorEv
	.type	_ZNSt12_Vector_baseIcSaIcEE19_M_get_Tp_allocatorEv, @function
_ZNSt12_Vector_baseIcSaIcEE19_M_get_Tp_allocatorEv:
.LFB3429:
	.loc 12 273 7
	.cfi_startproc
	endbr64
	pushq	%rbp
	.cfi_def_cfa_offset 16
	.cfi_offset 6, -16
	movq	%rsp, %rbp
	.cfi_def_cfa_register 6
	movq	%rdi, -8(%rbp)
	.loc 12 274 22
	movq	-8(%rbp), %rax
	.loc 12 274 31
	popq	%rbp
	.cfi_def_cfa 7, 8
	ret
	.cfi_endproc
.LFE3429:
	.size	_ZNSt12_Vector_baseIcSaIcEE19_M_get_Tp_allocatorEv, .-_ZNSt12_Vector_baseIcSaIcEE19_M_get_Tp_allocatorEv
	.section	.text._ZSt8_DestroyIPccEvT_S1_RSaIT0_E,"axG",@progbits,_ZSt8_DestroyIPccEvT_S1_RSaIT0_E,comdat
	.weak	_ZSt8_DestroyIPccEvT_S1_RSaIT0_E
	.type	_ZSt8_DestroyIPccEvT_S1_RSaIT0_E, @function
_ZSt8_DestroyIPccEvT_S1_RSaIT0_E:
.LFB3430:
	.file 15 "/usr/include/c++/9/bits/stl_construct.h"
	.loc 15 203 5
	.cfi_startproc
	endbr64
	pushq	%rbp
	.cfi_def_cfa_offset 16
	.cfi_offset 6, -16
	movq	%rsp, %rbp
	.cfi_def_cfa_register 6
	subq	$32, %rsp
	movq	%rdi, -8(%rbp)
	movq	%rsi, -16(%rbp)
	movq	%rdx, -24(%rbp)
	.loc 15 206 15
	movq	-16(%rbp), %rdx
	movq	-8(%rbp), %rax
	movq	%rdx, %rsi
	movq	%rax, %rdi
	call	_ZSt8_DestroyIPcEvT_S1_
	.loc 15 207 5
	nop
	leave
	.cfi_def_cfa 7, 8
	ret
	.cfi_endproc
.LFE3430:
	.size	_ZSt8_DestroyIPccEvT_S1_RSaIT0_E, .-_ZSt8_DestroyIPccEvT_S1_RSaIT0_E
	.section	.text._ZNSt12_Vector_baseISt4pairIccESaIS1_EE12_Vector_implD2Ev,"axG",@progbits,_ZNSt12_Vector_baseISt4pairIccESaIS1_EE12_Vector_implD5Ev,comdat
	.align 2
	.weak	_ZNSt12_Vector_baseISt4pairIccESaIS1_EE12_Vector_implD2Ev
	.type	_ZNSt12_Vector_baseISt4pairIccESaIS1_EE12_Vector_implD2Ev, @function
_ZNSt12_Vector_baseISt4pairIccESaIS1_EE12_Vector_implD2Ev:
.LFB3435:
	.loc 12 125 14
	.cfi_startproc
	endbr64
	pushq	%rbp
	.cfi_def_cfa_offset 16
	.cfi_offset 6, -16
	movq	%rsp, %rbp
	.cfi_def_cfa_register 6
	subq	$16, %rsp
	movq	%rdi, -8(%rbp)
.LBB71:
	.loc 12 125 14
	movq	-8(%rbp), %rax
	movq	%rax, %rdi
	call	_ZNSaISt4pairIccEED2Ev
.LBE71:
	nop
	leave
	.cfi_def_cfa 7, 8
	ret
	.cfi_endproc
.LFE3435:
	.size	_ZNSt12_Vector_baseISt4pairIccESaIS1_EE12_Vector_implD2Ev, .-_ZNSt12_Vector_baseISt4pairIccESaIS1_EE12_Vector_implD2Ev
	.weak	_ZNSt12_Vector_baseISt4pairIccESaIS1_EE12_Vector_implD1Ev
	.set	_ZNSt12_Vector_baseISt4pairIccESaIS1_EE12_Vector_implD1Ev,_ZNSt12_Vector_baseISt4pairIccESaIS1_EE12_Vector_implD2Ev
	.section	.text._ZNSt12_Vector_baseISt4pairIccESaIS1_EEC2Ev,"axG",@progbits,_ZNSt12_Vector_baseISt4pairIccESaIS1_EEC5Ev,comdat
	.align 2
	.weak	_ZNSt12_Vector_baseISt4pairIccESaIS1_EEC2Ev
	.type	_ZNSt12_Vector_baseISt4pairIccESaIS1_EEC2Ev, @function
_ZNSt12_Vector_baseISt4pairIccESaIS1_EEC2Ev:
.LFB3437:
	.loc 12 285 7
	.cfi_startproc
	endbr64
	pushq	%rbp
	.cfi_def_cfa_offset 16
	.cfi_offset 6, -16
	movq	%rsp, %rbp
	.cfi_def_cfa_register 6
	subq	$16, %rsp
	movq	%rdi, -8(%rbp)
.LBB72:
	.loc 12 285 7
	movq	-8(%rbp), %rax
	movq	%rax, %rdi
	call	_ZNSt12_Vector_baseISt4pairIccESaIS1_EE12_Vector_implC1Ev
.LBE72:
	nop
	leave
	.cfi_def_cfa 7, 8
	ret
	.cfi_endproc
.LFE3437:
	.size	_ZNSt12_Vector_baseISt4pairIccESaIS1_EEC2Ev, .-_ZNSt12_Vector_baseISt4pairIccESaIS1_EEC2Ev
	.weak	_ZNSt12_Vector_baseISt4pairIccESaIS1_EEC1Ev
	.set	_ZNSt12_Vector_baseISt4pairIccESaIS1_EEC1Ev,_ZNSt12_Vector_baseISt4pairIccESaIS1_EEC2Ev
	.section	.text._ZNSt6vectorISt4pairIccESaIS1_EEC2Ev,"axG",@progbits,_ZNSt6vectorISt4pairIccESaIS1_EEC5Ev,comdat
	.align 2
	.weak	_ZNSt6vectorISt4pairIccESaIS1_EEC2Ev
	.type	_ZNSt6vectorISt4pairIccESaIS1_EEC2Ev, @function
_ZNSt6vectorISt4pairIccESaIS1_EEC2Ev:
.LFB3439:
	.loc 12 484 7
	.cfi_startproc
	endbr64
	pushq	%rbp
	.cfi_def_cfa_offset 16
	.cfi_offset 6, -16
	movq	%rsp, %rbp
	.cfi_def_cfa_register 6
	subq	$16, %rsp
	movq	%rdi, -8(%rbp)
.LBB73:
	.loc 12 484 7
	movq	-8(%rbp), %rax
	movq	%rax, %rdi
	call	_ZNSt12_Vector_baseISt4pairIccESaIS1_EEC2Ev
.LBE73:
	nop
	leave
	.cfi_def_cfa 7, 8
	ret
	.cfi_endproc
.LFE3439:
	.size	_ZNSt6vectorISt4pairIccESaIS1_EEC2Ev, .-_ZNSt6vectorISt4pairIccESaIS1_EEC2Ev
	.weak	_ZNSt6vectorISt4pairIccESaIS1_EEC1Ev
	.set	_ZNSt6vectorISt4pairIccESaIS1_EEC1Ev,_ZNSt6vectorISt4pairIccESaIS1_EEC2Ev
	.section	.text._ZN6MatrixIbE7getPairIcEESt6vectorISt4pairIT_S4_ESaIS5_EERKNSt7__cxx1112basic_stringIcSt11char_traitsIcESaIcEEE,"axG",@progbits,_ZN6MatrixIbE7getPairIcEESt6vectorISt4pairIT_S4_ESaIS5_EERKNSt7__cxx1112basic_stringIcSt11char_traitsIcESaIcEEE,comdat
	.weak	_ZN6MatrixIbE7getPairIcEESt6vectorISt4pairIT_S4_ESaIS5_EERKNSt7__cxx1112basic_stringIcSt11char_traitsIcESaIcEEE
	.type	_ZN6MatrixIbE7getPairIcEESt6vectorISt4pairIT_S4_ESaIS5_EERKNSt7__cxx1112basic_stringIcSt11char_traitsIcESaIcEEE, @function
_ZN6MatrixIbE7getPairIcEESt6vectorISt4pairIT_S4_ESaIS5_EERKNSt7__cxx1112basic_stringIcSt11char_traitsIcESaIcEEE:
.LFB3431:
	.loc 8 61 31
	.cfi_startproc
	.cfi_personality 0x9b,DW.ref.__gxx_personality_v0
	.cfi_lsda 0x1b,.LLSDA3431
	endbr64
	pushq	%rbp
	.cfi_def_cfa_offset 16
	.cfi_offset 6, -16
	movq	%rsp, %rbp
	.cfi_def_cfa_register 6
	pushq	%rbx
	subq	$440, %rsp
	.cfi_offset 3, -24
	movq	%rdi, -440(%rbp)
	movq	%rsi, -448(%rbp)
	.loc 8 61 31
	movq	%fs:40, %rax
	movq	%rax, -24(%rbp)
	xorl	%eax, %eax
	.loc 8 63 27
	movl	$8, %esi
	movl	$16, %edi
	call	_ZStorSt13_Ios_OpenmodeS_
	movl	%eax, %edx
	movq	-448(%rbp), %rcx
	leaq	-416(%rbp), %rax
	movq	%rcx, %rsi
	movq	%rax, %rdi
.LEHB75:
	call	_ZNSt7__cxx1118basic_stringstreamIcSt11char_traitsIcESaIcEEC1ERKNS_12basic_stringIcS2_S3_EESt13_Ios_Openmode@PLT
.LEHE75:
	.loc 8 64 28
	movq	-440(%rbp), %rax
	movq	%rax, %rdi
	call	_ZNSt6vectorISt4pairIccESaIS1_EEC1Ev
	.loc 8 65 20
	movw	$0, -418(%rbp)
.L367:
	.loc 8 67 52
	leaq	-419(%rbp), %rdx
	leaq	-416(%rbp), %rax
	movq	%rdx, %rsi
	movq	%rax, %rdi
.LEHB76:
	call	_ZStrsIcSt11char_traitsIcEERSt13basic_istreamIT_T0_ES6_RS3_@PLT
	movq	%rax, %rdx
	leaq	-418(%rbp), %rax
	movq	%rax, %rsi
	movq	%rdx, %rdi
	call	_ZStrsIcSt11char_traitsIcEERSt13basic_istreamIT_T0_ES6_RS3_@PLT
	.loc 8 67 52 is_stmt 0 discriminator 1
	movq	%rax, %rdx
	leaq	-419(%rbp), %rax
	movq	%rax, %rsi
	movq	%rdx, %rdi
	call	_ZStrsIcSt11char_traitsIcEERSt13basic_istreamIT_T0_ES6_RS3_@PLT
	.loc 8 67 52 discriminator 2
	movq	%rax, %rdx
	leaq	-418(%rbp), %rax
	addq	$1, %rax
	movq	%rax, %rsi
	movq	%rdx, %rdi
	call	_ZStrsIcSt11char_traitsIcEERSt13basic_istreamIT_T0_ES6_RS3_@PLT
	.loc 8 67 52 discriminator 3
	movq	%rax, %rdx
	leaq	-419(%rbp), %rax
	movq	%rax, %rsi
	movq	%rdx, %rdi
	call	_ZStrsIcSt11char_traitsIcEERSt13basic_istreamIT_T0_ES6_RS3_@PLT
	.loc 8 67 9 is_stmt 1 discriminator 4
	movq	(%rax), %rdx
	subq	$24, %rdx
	movq	(%rdx), %rdx
	addq	%rdx, %rax
	movq	%rax, %rdi
	call	_ZNKSt9basic_iosIcSt11char_traitsIcEEcvbEv@PLT
	.loc 8 67 9 is_stmt 0 discriminator 5
	testb	%al, %al
	je	.L374
	.loc 8 68 13 is_stmt 1
	leaq	-418(%rbp), %rdx
	movq	-440(%rbp), %rax
	movq	%rdx, %rsi
	movq	%rax, %rdi
	call	_ZNSt6vectorISt4pairIccESaIS1_EE12emplace_backIJRS1_EEES5_DpOT_
.LEHE76:
	.loc 8 67 9
	jmp	.L367
.L374:
	.loc 8 69 16
	nop
	.loc 8 63 27
	leaq	-416(%rbp), %rax
	movq	%rax, %rdi
	call	_ZNSt7__cxx1118basic_stringstreamIcSt11char_traitsIcESaIcEED1Ev@PLT
	.loc 8 69 16
	nop
	.loc 8 70 5
	movq	-24(%rbp), %rax
	xorq	%fs:40, %rax
	je	.L370
	jmp	.L373
.L371:
	endbr64
	movq	%rax, %rbx
	movq	-440(%rbp), %rax
	movq	%rax, %rdi
	call	_ZNSt6vectorISt4pairIccESaIS1_EED1Ev
	.loc 8 63 27
	leaq	-416(%rbp), %rax
	movq	%rax, %rdi
	call	_ZNSt7__cxx1118basic_stringstreamIcSt11char_traitsIcESaIcEED1Ev@PLT
	movq	%rbx, %rax
	movq	%rax, %rdi
.LEHB77:
	call	_Unwind_Resume@PLT
.LEHE77:
.L373:
	.loc 8 70 5
	call	__stack_chk_fail@PLT
.L370:
	movq	-440(%rbp), %rax
	addq	$440, %rsp
	popq	%rbx
	popq	%rbp
	.cfi_def_cfa 7, 8
	ret
	.cfi_endproc
.LFE3431:
	.section	.gcc_except_table
.LLSDA3431:
	.byte	0xff
	.byte	0xff
	.byte	0x1
	.uleb128 .LLSDACSE3431-.LLSDACSB3431
.LLSDACSB3431:
	.uleb128 .LEHB75-.LFB3431
	.uleb128 .LEHE75-.LEHB75
	.uleb128 0
	.uleb128 0
	.uleb128 .LEHB76-.LFB3431
	.uleb128 .LEHE76-.LEHB76
	.uleb128 .L371-.LFB3431
	.uleb128 0
	.uleb128 .LEHB77-.LFB3431
	.uleb128 .LEHE77-.LEHB77
	.uleb128 0
	.uleb128 0
.LLSDACSE3431:
	.section	.text._ZN6MatrixIbE7getPairIcEESt6vectorISt4pairIT_S4_ESaIS5_EERKNSt7__cxx1112basic_stringIcSt11char_traitsIcESaIcEEE,"axG",@progbits,_ZN6MatrixIbE7getPairIcEESt6vectorISt4pairIT_S4_ESaIS5_EERKNSt7__cxx1112basic_stringIcSt11char_traitsIcESaIcEEE,comdat
	.size	_ZN6MatrixIbE7getPairIcEESt6vectorISt4pairIT_S4_ESaIS5_EERKNSt7__cxx1112basic_stringIcSt11char_traitsIcESaIcEEE, .-_ZN6MatrixIbE7getPairIcEESt6vectorISt4pairIT_S4_ESaIS5_EERKNSt7__cxx1112basic_stringIcSt11char_traitsIcESaIcEEE
	.section	.text._ZNSt12_Vector_baseISt4pairIccESaIS1_EED2Ev,"axG",@progbits,_ZNSt12_Vector_baseISt4pairIccESaIS1_EED5Ev,comdat
	.align 2
	.weak	_ZNSt12_Vector_baseISt4pairIccESaIS1_EED2Ev
	.type	_ZNSt12_Vector_baseISt4pairIccESaIS1_EED2Ev, @function
_ZNSt12_Vector_baseISt4pairIccESaIS1_EED2Ev:
.LFB3451:
	.loc 12 330 7
	.cfi_startproc
	.cfi_personality 0x9b,DW.ref.__gxx_personality_v0
	.cfi_lsda 0x1b,.LLSDA3451
	endbr64
	pushq	%rbp
	.cfi_def_cfa_offset 16
	.cfi_offset 6, -16
	movq	%rsp, %rbp
	.cfi_def_cfa_register 6
	subq	$16, %rsp
	movq	%rdi, -8(%rbp)
.LBB74:
	.loc 12 333 17
	movq	-8(%rbp), %rax
	movq	16(%rax), %rdx
	.loc 12 333 45
	movq	-8(%rbp), %rax
	movq	(%rax), %rax
	.loc 12 333 35
	subq	%rax, %rdx
	movq	%rdx, %rax
	sarq	%rax
	.loc 12 332 2
	movq	%rax, %rdx
	movq	-8(%rbp), %rax
	movq	(%rax), %rcx
	movq	-8(%rbp), %rax
	movq	%rcx, %rsi
	movq	%rax, %rdi
	call	_ZNSt12_Vector_baseISt4pairIccESaIS1_EE13_M_deallocateEPS1_m
	.loc 12 334 7
	movq	-8(%rbp), %rax
	movq	%rax, %rdi
	call	_ZNSt12_Vector_baseISt4pairIccESaIS1_EE12_Vector_implD1Ev
.LBE74:
	nop
	leave
	.cfi_def_cfa 7, 8
	ret
	.cfi_endproc
.LFE3451:
	.section	.gcc_except_table
.LLSDA3451:
	.byte	0xff
	.byte	0xff
	.byte	0x1
	.uleb128 .LLSDACSE3451-.LLSDACSB3451
.LLSDACSB3451:
.LLSDACSE3451:
	.section	.text._ZNSt12_Vector_baseISt4pairIccESaIS1_EED2Ev,"axG",@progbits,_ZNSt12_Vector_baseISt4pairIccESaIS1_EED5Ev,comdat
	.size	_ZNSt12_Vector_baseISt4pairIccESaIS1_EED2Ev, .-_ZNSt12_Vector_baseISt4pairIccESaIS1_EED2Ev
	.weak	_ZNSt12_Vector_baseISt4pairIccESaIS1_EED1Ev
	.set	_ZNSt12_Vector_baseISt4pairIccESaIS1_EED1Ev,_ZNSt12_Vector_baseISt4pairIccESaIS1_EED2Ev
	.section	.text._ZNSt12_Vector_baseISt4pairIccESaIS1_EE19_M_get_Tp_allocatorEv,"axG",@progbits,_ZNSt12_Vector_baseISt4pairIccESaIS1_EE19_M_get_Tp_allocatorEv,comdat
	.align 2
	.weak	_ZNSt12_Vector_baseISt4pairIccESaIS1_EE19_M_get_Tp_allocatorEv
	.type	_ZNSt12_Vector_baseISt4pairIccESaIS1_EE19_M_get_Tp_allocatorEv, @function
_ZNSt12_Vector_baseISt4pairIccESaIS1_EE19_M_get_Tp_allocatorEv:
.LFB3453:
	.loc 12 273 7
	.cfi_startproc
	endbr64
	pushq	%rbp
	.cfi_def_cfa_offset 16
	.cfi_offset 6, -16
	movq	%rsp, %rbp
	.cfi_def_cfa_register 6
	movq	%rdi, -8(%rbp)
	.loc 12 274 22
	movq	-8(%rbp), %rax
	.loc 12 274 31
	popq	%rbp
	.cfi_def_cfa 7, 8
	ret
	.cfi_endproc
.LFE3453:
	.size	_ZNSt12_Vector_baseISt4pairIccESaIS1_EE19_M_get_Tp_allocatorEv, .-_ZNSt12_Vector_baseISt4pairIccESaIS1_EE19_M_get_Tp_allocatorEv
	.section	.text._ZSt8_DestroyIPSt4pairIccES1_EvT_S3_RSaIT0_E,"axG",@progbits,_ZSt8_DestroyIPSt4pairIccES1_EvT_S3_RSaIT0_E,comdat
	.weak	_ZSt8_DestroyIPSt4pairIccES1_EvT_S3_RSaIT0_E
	.type	_ZSt8_DestroyIPSt4pairIccES1_EvT_S3_RSaIT0_E, @function
_ZSt8_DestroyIPSt4pairIccES1_EvT_S3_RSaIT0_E:
.LFB3454:
	.loc 15 203 5
	.cfi_startproc
	endbr64
	pushq	%rbp
	.cfi_def_cfa_offset 16
	.cfi_offset 6, -16
	movq	%rsp, %rbp
	.cfi_def_cfa_register 6
	subq	$32, %rsp
	movq	%rdi, -8(%rbp)
	movq	%rsi, -16(%rbp)
	movq	%rdx, -24(%rbp)
	.loc 15 206 15
	movq	-16(%rbp), %rdx
	movq	-8(%rbp), %rax
	movq	%rdx, %rsi
	movq	%rax, %rdi
	call	_ZSt8_DestroyIPSt4pairIccEEvT_S3_
	.loc 15 207 5
	nop
	leave
	.cfi_def_cfa 7, 8
	ret
	.cfi_endproc
.LFE3454:
	.size	_ZSt8_DestroyIPSt4pairIccES1_EvT_S3_RSaIT0_E, .-_ZSt8_DestroyIPSt4pairIccES1_EvT_S3_RSaIT0_E
	.section	.text._ZNKSt6vectorIcSaIcEE4sizeEv,"axG",@progbits,_ZNKSt6vectorIcSaIcEE4sizeEv,comdat
	.align 2
	.weak	_ZNKSt6vectorIcSaIcEE4sizeEv
	.type	_ZNKSt6vectorIcSaIcEE4sizeEv, @function
_ZNKSt6vectorIcSaIcEE4sizeEv:
.LFB3455:
	.loc 12 915 7
	.cfi_startproc
	endbr64
	pushq	%rbp
	.cfi_def_cfa_offset 16
	.cfi_offset 6, -16
	movq	%rsp, %rbp
	.cfi_def_cfa_register 6
	movq	%rdi, -8(%rbp)
	.loc 12 916 40
	movq	-8(%rbp), %rax
	movq	8(%rax), %rdx
	.loc 12 916 66
	movq	-8(%rbp), %rax
	movq	(%rax), %rax
	.loc 12 916 50
	subq	%rax, %rdx
	movq	%rdx, %rax
	.loc 12 916 77
	popq	%rbp
	.cfi_def_cfa 7, 8
	ret
	.cfi_endproc
.LFE3455:
	.size	_ZNKSt6vectorIcSaIcEE4sizeEv, .-_ZNKSt6vectorIcSaIcEE4sizeEv
	.section	.text._ZNKSt6vectorISt4pairIccESaIS1_EE4sizeEv,"axG",@progbits,_ZNKSt6vectorISt4pairIccESaIS1_EE4sizeEv,comdat
	.align 2
	.weak	_ZNKSt6vectorISt4pairIccESaIS1_EE4sizeEv
	.type	_ZNKSt6vectorISt4pairIccESaIS1_EE4sizeEv, @function
_ZNKSt6vectorISt4pairIccESaIS1_EE4sizeEv:
.LFB3456:
	.loc 12 915 7
	.cfi_startproc
	endbr64
	pushq	%rbp
	.cfi_def_cfa_offset 16
	.cfi_offset 6, -16
	movq	%rsp, %rbp
	.cfi_def_cfa_register 6
	movq	%rdi, -8(%rbp)
	.loc 12 916 40
	movq	-8(%rbp), %rax
	movq	8(%rax), %rdx
	.loc 12 916 66
	movq	-8(%rbp), %rax
	movq	(%rax), %rax
	.loc 12 916 50
	subq	%rax, %rdx
	movq	%rdx, %rax
	sarq	%rax
	.loc 12 916 77
	popq	%rbp
	.cfi_def_cfa 7, 8
	ret
	.cfi_endproc
.LFE3456:
	.size	_ZNKSt6vectorISt4pairIccESaIS1_EE4sizeEv, .-_ZNKSt6vectorISt4pairIccESaIS1_EE4sizeEv
	.section	.text._ZNSaIP4EdgeIcEEC2Ev,"axG",@progbits,_ZNSaIP4EdgeIcEEC5Ev,comdat
	.align 2
	.weak	_ZNSaIP4EdgeIcEEC2Ev
	.type	_ZNSaIP4EdgeIcEEC2Ev, @function
_ZNSaIP4EdgeIcEEC2Ev:
.LFB3458:
	.file 16 "/usr/include/c++/9/bits/allocator.h"
	.loc 16 138 7
	.cfi_startproc
	endbr64
	pushq	%rbp
	.cfi_def_cfa_offset 16
	.cfi_offset 6, -16
	movq	%rsp, %rbp
	.cfi_def_cfa_register 6
	subq	$16, %rsp
	movq	%rdi, -8(%rbp)
.LBB75:
	.loc 16 138 28
	movq	-8(%rbp), %rax
	movq	%rax, %rdi
	call	_ZN9__gnu_cxx13new_allocatorIP4EdgeIcEEC2Ev
.LBE75:
	.loc 16 138 30
	nop
	leave
	.cfi_def_cfa 7, 8
	ret
	.cfi_endproc
.LFE3458:
	.size	_ZNSaIP4EdgeIcEEC2Ev, .-_ZNSaIP4EdgeIcEEC2Ev
	.weak	_ZNSaIP4EdgeIcEEC1Ev
	.set	_ZNSaIP4EdgeIcEEC1Ev,_ZNSaIP4EdgeIcEEC2Ev
	.section	.text._ZNSaIP4EdgeIcEED2Ev,"axG",@progbits,_ZNSaIP4EdgeIcEED5Ev,comdat
	.align 2
	.weak	_ZNSaIP4EdgeIcEED2Ev
	.type	_ZNSaIP4EdgeIcEED2Ev, @function
_ZNSaIP4EdgeIcEED2Ev:
.LFB3461:
	.loc 16 153 7
	.cfi_startproc
	endbr64
	pushq	%rbp
	.cfi_def_cfa_offset 16
	.cfi_offset 6, -16
	movq	%rsp, %rbp
	.cfi_def_cfa_register 6
	subq	$16, %rsp
	movq	%rdi, -8(%rbp)
.LBB76:
	.loc 16 153 31
	movq	-8(%rbp), %rax
	movq	%rax, %rdi
	call	_ZN9__gnu_cxx13new_allocatorIP4EdgeIcEED2Ev
.LBE76:
	nop
	leave
	.cfi_def_cfa 7, 8
	ret
	.cfi_endproc
.LFE3461:
	.size	_ZNSaIP4EdgeIcEED2Ev, .-_ZNSaIP4EdgeIcEED2Ev
	.weak	_ZNSaIP4EdgeIcEED1Ev
	.set	_ZNSaIP4EdgeIcEED1Ev,_ZNSaIP4EdgeIcEED2Ev
	.section	.text._ZNSt6vectorIP4EdgeIcESaIS2_EEC2EmRKS2_RKS3_,"axG",@progbits,_ZNSt6vectorIP4EdgeIcESaIS2_EEC5EmRKS2_RKS3_,comdat
	.align 2
	.weak	_ZNSt6vectorIP4EdgeIcESaIS2_EEC2EmRKS2_RKS3_
	.type	_ZNSt6vectorIP4EdgeIcESaIS2_EEC2EmRKS2_RKS3_, @function
_ZNSt6vectorIP4EdgeIcESaIS2_EEC2EmRKS2_RKS3_:
.LFB3464:
	.loc 12 519 7
	.cfi_startproc
	.cfi_personality 0x9b,DW.ref.__gxx_personality_v0
	.cfi_lsda 0x1b,.LLSDA3464
	endbr64
	pushq	%rbp
	.cfi_def_cfa_offset 16
	.cfi_offset 6, -16
	movq	%rsp, %rbp
	.cfi_def_cfa_register 6
	pushq	%rbx
	subq	$40, %rsp
	.cfi_offset 3, -24
	movq	%rdi, -24(%rbp)
	movq	%rsi, -32(%rbp)
	movq	%rdx, -40(%rbp)
	movq	%rcx, -48(%rbp)
.LBB77:
	.loc 12 521 47
	movq	-24(%rbp), %rbx
	movq	-48(%rbp), %rdx
	movq	-32(%rbp), %rax
	movq	%rdx, %rsi
	movq	%rax, %rdi
.LEHB78:
	call	_ZNSt6vectorIP4EdgeIcESaIS2_EE17_S_check_init_lenEmRKS3_
	movq	%rax, %rcx
	movq	-48(%rbp), %rax
	movq	%rax, %rdx
	movq	%rcx, %rsi
	movq	%rbx, %rdi
	call	_ZNSt12_Vector_baseIP4EdgeIcESaIS2_EEC2EmRKS3_
.LEHE78:
	.loc 12 522 9
	movq	-40(%rbp), %rdx
	movq	-32(%rbp), %rcx
	movq	-24(%rbp), %rax
	movq	%rcx, %rsi
	movq	%rax, %rdi
.LEHB79:
	call	_ZNSt6vectorIP4EdgeIcESaIS2_EE18_M_fill_initializeEmRKS2_
.LEHE79:
.LBE77:
	.loc 12 522 43
	jmp	.L388
.L387:
	endbr64
	movq	%rax, %rbx
.LBB78:
	.loc 12 521 47
	movq	-24(%rbp), %rax
	movq	%rax, %rdi
	call	_ZNSt12_Vector_baseIP4EdgeIcESaIS2_EED2Ev
	movq	%rbx, %rax
	movq	%rax, %rdi
.LEHB80:
	call	_Unwind_Resume@PLT
.LEHE80:
.L388:
.LBE78:
	.loc 12 522 43
	addq	$40, %rsp
	popq	%rbx
	popq	%rbp
	.cfi_def_cfa 7, 8
	ret
	.cfi_endproc
.LFE3464:
	.section	.gcc_except_table
.LLSDA3464:
	.byte	0xff
	.byte	0xff
	.byte	0x1
	.uleb128 .LLSDACSE3464-.LLSDACSB3464
.LLSDACSB3464:
	.uleb128 .LEHB78-.LFB3464
	.uleb128 .LEHE78-.LEHB78
	.uleb128 0
	.uleb128 0
	.uleb128 .LEHB79-.LFB3464
	.uleb128 .LEHE79-.LEHB79
	.uleb128 .L387-.LFB3464
	.uleb128 0
	.uleb128 .LEHB80-.LFB3464
	.uleb128 .LEHE80-.LEHB80
	.uleb128 0
	.uleb128 0
.LLSDACSE3464:
	.section	.text._ZNSt6vectorIP4EdgeIcESaIS2_EEC2EmRKS2_RKS3_,"axG",@progbits,_ZNSt6vectorIP4EdgeIcESaIS2_EEC5EmRKS2_RKS3_,comdat
	.size	_ZNSt6vectorIP4EdgeIcESaIS2_EEC2EmRKS2_RKS3_, .-_ZNSt6vectorIP4EdgeIcESaIS2_EEC2EmRKS2_RKS3_
	.weak	_ZNSt6vectorIP4EdgeIcESaIS2_EEC1EmRKS2_RKS3_
	.set	_ZNSt6vectorIP4EdgeIcESaIS2_EEC1EmRKS2_RKS3_,_ZNSt6vectorIP4EdgeIcESaIS2_EEC2EmRKS2_RKS3_
	.section	.text._ZNSt6vectorIP4EdgeIcESaIS2_EED2Ev,"axG",@progbits,_ZNSt6vectorIP4EdgeIcESaIS2_EED5Ev,comdat
	.align 2
	.weak	_ZNSt6vectorIP4EdgeIcESaIS2_EED2Ev
	.type	_ZNSt6vectorIP4EdgeIcESaIS2_EED2Ev, @function
_ZNSt6vectorIP4EdgeIcESaIS2_EED2Ev:
.LFB3467:
	.loc 12 675 7
	.cfi_startproc
	.cfi_personality 0x9b,DW.ref.__gxx_personality_v0
	.cfi_lsda 0x1b,.LLSDA3467
	endbr64
	pushq	%rbp
	.cfi_def_cfa_offset 16
	.cfi_offset 6, -16
	movq	%rsp, %rbp
	.cfi_def_cfa_register 6
	subq	$16, %rsp
	movq	%rdi, -8(%rbp)
.LBB79:
	.loc 12 678 28
	movq	-8(%rbp), %rax
	movq	%rax, %rdi
	call	_ZNSt12_Vector_baseIP4EdgeIcESaIS2_EE19_M_get_Tp_allocatorEv
	movq	%rax, %rdx
	.loc 12 677 15
	movq	-8(%rbp), %rax
	movq	8(%rax), %rcx
	movq	-8(%rbp), %rax
	movq	(%rax), %rax
	movq	%rcx, %rsi
	movq	%rax, %rdi
	call	_ZSt8_DestroyIPP4EdgeIcES2_EvT_S4_RSaIT0_E
	.loc 12 680 7
	movq	-8(%rbp), %rax
	movq	%rax, %rdi
	call	_ZNSt12_Vector_baseIP4EdgeIcESaIS2_EED2Ev
.LBE79:
	nop
	leave
	.cfi_def_cfa 7, 8
	ret
	.cfi_endproc
.LFE3467:
	.section	.gcc_except_table
.LLSDA3467:
	.byte	0xff
	.byte	0xff
	.byte	0x1
	.uleb128 .LLSDACSE3467-.LLSDACSB3467
.LLSDACSB3467:
.LLSDACSE3467:
	.section	.text._ZNSt6vectorIP4EdgeIcESaIS2_EED2Ev,"axG",@progbits,_ZNSt6vectorIP4EdgeIcESaIS2_EED5Ev,comdat
	.size	_ZNSt6vectorIP4EdgeIcESaIS2_EED2Ev, .-_ZNSt6vectorIP4EdgeIcESaIS2_EED2Ev
	.weak	_ZNSt6vectorIP4EdgeIcESaIS2_EED1Ev
	.set	_ZNSt6vectorIP4EdgeIcESaIS2_EED1Ev,_ZNSt6vectorIP4EdgeIcESaIS2_EED2Ev
	.section	.text._ZN5GraphIccEC2Ev,"axG",@progbits,_ZN5GraphIccEC5Ev,comdat
	.align 2
	.weak	_ZN5GraphIccEC2Ev
	.type	_ZN5GraphIccEC2Ev, @function
_ZN5GraphIccEC2Ev:
.LFB3470:
	.file 17 "../src/Graph.h"
	.loc 17 42 5
	.cfi_startproc
	endbr64
	pushq	%rbp
	.cfi_def_cfa_offset 16
	.cfi_offset 6, -16
	movq	%rsp, %rbp
	.cfi_def_cfa_register 6
	movq	%rdi, -8(%rbp)
.LBB80:
	.loc 17 42 24
	leaq	16+_ZTV5GraphIccE(%rip), %rdx
	movq	-8(%rbp), %rax
	movq	%rdx, (%rax)
	movq	-8(%rbp), %rax
	movl	$0, 8(%rax)
	movq	-8(%rbp), %rax
	movl	$0, 12(%rax)
.LBE80:
	.loc 17 42 27
	nop
	popq	%rbp
	.cfi_def_cfa 7, 8
	ret
	.cfi_endproc
.LFE3470:
	.size	_ZN5GraphIccEC2Ev, .-_ZN5GraphIccEC2Ev
	.weak	_ZN5GraphIccEC1Ev
	.set	_ZN5GraphIccEC1Ev,_ZN5GraphIccEC2Ev
	.section	.text._ZNSaIP6VertexIcEEC2Ev,"axG",@progbits,_ZNSaIP6VertexIcEEC5Ev,comdat
	.align 2
	.weak	_ZNSaIP6VertexIcEEC2Ev
	.type	_ZNSaIP6VertexIcEEC2Ev, @function
_ZNSaIP6VertexIcEEC2Ev:
.LFB3473:
	.loc 16 138 7
	.cfi_startproc
	endbr64
	pushq	%rbp
	.cfi_def_cfa_offset 16
	.cfi_offset 6, -16
	movq	%rsp, %rbp
	.cfi_def_cfa_register 6
	subq	$16, %rsp
	movq	%rdi, -8(%rbp)
.LBB81:
	.loc 16 138 28
	movq	-8(%rbp), %rax
	movq	%rax, %rdi
	call	_ZN9__gnu_cxx13new_allocatorIP6VertexIcEEC2Ev
.LBE81:
	.loc 16 138 30
	nop
	leave
	.cfi_def_cfa 7, 8
	ret
	.cfi_endproc
.LFE3473:
	.size	_ZNSaIP6VertexIcEEC2Ev, .-_ZNSaIP6VertexIcEEC2Ev
	.weak	_ZNSaIP6VertexIcEEC1Ev
	.set	_ZNSaIP6VertexIcEEC1Ev,_ZNSaIP6VertexIcEEC2Ev
	.section	.text._ZNSaIP6VertexIcEED2Ev,"axG",@progbits,_ZNSaIP6VertexIcEED5Ev,comdat
	.align 2
	.weak	_ZNSaIP6VertexIcEED2Ev
	.type	_ZNSaIP6VertexIcEED2Ev, @function
_ZNSaIP6VertexIcEED2Ev:
.LFB3476:
	.loc 16 153 7
	.cfi_startproc
	endbr64
	pushq	%rbp
	.cfi_def_cfa_offset 16
	.cfi_offset 6, -16
	movq	%rsp, %rbp
	.cfi_def_cfa_register 6
	subq	$16, %rsp
	movq	%rdi, -8(%rbp)
.LBB82:
	.loc 16 153 31
	movq	-8(%rbp), %rax
	movq	%rax, %rdi
	call	_ZN9__gnu_cxx13new_allocatorIP6VertexIcEED2Ev
.LBE82:
	nop
	leave
	.cfi_def_cfa 7, 8
	ret
	.cfi_endproc
.LFE3476:
	.size	_ZNSaIP6VertexIcEED2Ev, .-_ZNSaIP6VertexIcEED2Ev
	.weak	_ZNSaIP6VertexIcEED1Ev
	.set	_ZNSaIP6VertexIcEED1Ev,_ZNSaIP6VertexIcEED2Ev
	.section	.text._ZNSt6vectorIP6VertexIcESaIS2_EEC2EmRKS2_RKS3_,"axG",@progbits,_ZNSt6vectorIP6VertexIcESaIS2_EEC5EmRKS2_RKS3_,comdat
	.align 2
	.weak	_ZNSt6vectorIP6VertexIcESaIS2_EEC2EmRKS2_RKS3_
	.type	_ZNSt6vectorIP6VertexIcESaIS2_EEC2EmRKS2_RKS3_, @function
_ZNSt6vectorIP6VertexIcESaIS2_EEC2EmRKS2_RKS3_:
.LFB3479:
	.loc 12 519 7
	.cfi_startproc
	.cfi_personality 0x9b,DW.ref.__gxx_personality_v0
	.cfi_lsda 0x1b,.LLSDA3479
	endbr64
	pushq	%rbp
	.cfi_def_cfa_offset 16
	.cfi_offset 6, -16
	movq	%rsp, %rbp
	.cfi_def_cfa_register 6
	pushq	%rbx
	subq	$40, %rsp
	.cfi_offset 3, -24
	movq	%rdi, -24(%rbp)
	movq	%rsi, -32(%rbp)
	movq	%rdx, -40(%rbp)
	movq	%rcx, -48(%rbp)
.LBB83:
	.loc 12 521 47
	movq	-24(%rbp), %rbx
	movq	-48(%rbp), %rdx
	movq	-32(%rbp), %rax
	movq	%rdx, %rsi
	movq	%rax, %rdi
.LEHB81:
	call	_ZNSt6vectorIP6VertexIcESaIS2_EE17_S_check_init_lenEmRKS3_
	movq	%rax, %rcx
	movq	-48(%rbp), %rax
	movq	%rax, %rdx
	movq	%rcx, %rsi
	movq	%rbx, %rdi
	call	_ZNSt12_Vector_baseIP6VertexIcESaIS2_EEC2EmRKS3_
.LEHE81:
	.loc 12 522 9
	movq	-40(%rbp), %rdx
	movq	-32(%rbp), %rcx
	movq	-24(%rbp), %rax
	movq	%rcx, %rsi
	movq	%rax, %rdi
.LEHB82:
	call	_ZNSt6vectorIP6VertexIcESaIS2_EE18_M_fill_initializeEmRKS2_
.LEHE82:
.LBE83:
	.loc 12 522 43
	jmp	.L396
.L395:
	endbr64
	movq	%rax, %rbx
.LBB84:
	.loc 12 521 47
	movq	-24(%rbp), %rax
	movq	%rax, %rdi
	call	_ZNSt12_Vector_baseIP6VertexIcESaIS2_EED2Ev
	movq	%rbx, %rax
	movq	%rax, %rdi
.LEHB83:
	call	_Unwind_Resume@PLT
.LEHE83:
.L396:
.LBE84:
	.loc 12 522 43
	addq	$40, %rsp
	popq	%rbx
	popq	%rbp
	.cfi_def_cfa 7, 8
	ret
	.cfi_endproc
.LFE3479:
	.section	.gcc_except_table
.LLSDA3479:
	.byte	0xff
	.byte	0xff
	.byte	0x1
	.uleb128 .LLSDACSE3479-.LLSDACSB3479
.LLSDACSB3479:
	.uleb128 .LEHB81-.LFB3479
	.uleb128 .LEHE81-.LEHB81
	.uleb128 0
	.uleb128 0
	.uleb128 .LEHB82-.LFB3479
	.uleb128 .LEHE82-.LEHB82
	.uleb128 .L395-.LFB3479
	.uleb128 0
	.uleb128 .LEHB83-.LFB3479
	.uleb128 .LEHE83-.LEHB83
	.uleb128 0
	.uleb128 0
.LLSDACSE3479:
	.section	.text._ZNSt6vectorIP6VertexIcESaIS2_EEC2EmRKS2_RKS3_,"axG",@progbits,_ZNSt6vectorIP6VertexIcESaIS2_EEC5EmRKS2_RKS3_,comdat
	.size	_ZNSt6vectorIP6VertexIcESaIS2_EEC2EmRKS2_RKS3_, .-_ZNSt6vectorIP6VertexIcESaIS2_EEC2EmRKS2_RKS3_
	.weak	_ZNSt6vectorIP6VertexIcESaIS2_EEC1EmRKS2_RKS3_
	.set	_ZNSt6vectorIP6VertexIcESaIS2_EEC1EmRKS2_RKS3_,_ZNSt6vectorIP6VertexIcESaIS2_EEC2EmRKS2_RKS3_
	.section	.text._ZNSt6vectorIP6VertexIcESaIS2_EED2Ev,"axG",@progbits,_ZNSt6vectorIP6VertexIcESaIS2_EED5Ev,comdat
	.align 2
	.weak	_ZNSt6vectorIP6VertexIcESaIS2_EED2Ev
	.type	_ZNSt6vectorIP6VertexIcESaIS2_EED2Ev, @function
_ZNSt6vectorIP6VertexIcESaIS2_EED2Ev:
.LFB3482:
	.loc 12 675 7
	.cfi_startproc
	.cfi_personality 0x9b,DW.ref.__gxx_personality_v0
	.cfi_lsda 0x1b,.LLSDA3482
	endbr64
	pushq	%rbp
	.cfi_def_cfa_offset 16
	.cfi_offset 6, -16
	movq	%rsp, %rbp
	.cfi_def_cfa_register 6
	subq	$16, %rsp
	movq	%rdi, -8(%rbp)
.LBB85:
	.loc 12 678 28
	movq	-8(%rbp), %rax
	movq	%rax, %rdi
	call	_ZNSt12_Vector_baseIP6VertexIcESaIS2_EE19_M_get_Tp_allocatorEv
	movq	%rax, %rdx
	.loc 12 677 15
	movq	-8(%rbp), %rax
	movq	8(%rax), %rcx
	movq	-8(%rbp), %rax
	movq	(%rax), %rax
	movq	%rcx, %rsi
	movq	%rax, %rdi
	call	_ZSt8_DestroyIPP6VertexIcES2_EvT_S4_RSaIT0_E
	.loc 12 680 7
	movq	-8(%rbp), %rax
	movq	%rax, %rdi
	call	_ZNSt12_Vector_baseIP6VertexIcESaIS2_EED2Ev
.LBE85:
	nop
	leave
	.cfi_def_cfa 7, 8
	ret
	.cfi_endproc
.LFE3482:
	.section	.gcc_except_table
.LLSDA3482:
	.byte	0xff
	.byte	0xff
	.byte	0x1
	.uleb128 .LLSDACSE3482-.LLSDACSB3482
.LLSDACSB3482:
.LLSDACSE3482:
	.section	.text._ZNSt6vectorIP6VertexIcESaIS2_EED2Ev,"axG",@progbits,_ZNSt6vectorIP6VertexIcESaIS2_EED5Ev,comdat
	.size	_ZNSt6vectorIP6VertexIcESaIS2_EED2Ev, .-_ZNSt6vectorIP6VertexIcESaIS2_EED2Ev
	.weak	_ZNSt6vectorIP6VertexIcESaIS2_EED1Ev
	.set	_ZNSt6vectorIP6VertexIcESaIS2_EED1Ev,_ZNSt6vectorIP6VertexIcESaIS2_EED2Ev
	.section	.text._ZNSaISt6vectorIP4EdgeIcESaIS2_EEEC2Ev,"axG",@progbits,_ZNSaISt6vectorIP4EdgeIcESaIS2_EEEC5Ev,comdat
	.align 2
	.weak	_ZNSaISt6vectorIP4EdgeIcESaIS2_EEEC2Ev
	.type	_ZNSaISt6vectorIP4EdgeIcESaIS2_EEEC2Ev, @function
_ZNSaISt6vectorIP4EdgeIcESaIS2_EEEC2Ev:
.LFB3485:
	.loc 16 138 7
	.cfi_startproc
	endbr64
	pushq	%rbp
	.cfi_def_cfa_offset 16
	.cfi_offset 6, -16
	movq	%rsp, %rbp
	.cfi_def_cfa_register 6
	subq	$16, %rsp
	movq	%rdi, -8(%rbp)
.LBB86:
	.loc 16 138 28
	movq	-8(%rbp), %rax
	movq	%rax, %rdi
	call	_ZN9__gnu_cxx13new_allocatorISt6vectorIP4EdgeIcESaIS4_EEEC2Ev
.LBE86:
	.loc 16 138 30
	nop
	leave
	.cfi_def_cfa 7, 8
	ret
	.cfi_endproc
.LFE3485:
	.size	_ZNSaISt6vectorIP4EdgeIcESaIS2_EEEC2Ev, .-_ZNSaISt6vectorIP4EdgeIcESaIS2_EEEC2Ev
	.weak	_ZNSaISt6vectorIP4EdgeIcESaIS2_EEEC1Ev
	.set	_ZNSaISt6vectorIP4EdgeIcESaIS2_EEEC1Ev,_ZNSaISt6vectorIP4EdgeIcESaIS2_EEEC2Ev
	.section	.text._ZNSaISt6vectorIP4EdgeIcESaIS2_EEED2Ev,"axG",@progbits,_ZNSaISt6vectorIP4EdgeIcESaIS2_EEED5Ev,comdat
	.align 2
	.weak	_ZNSaISt6vectorIP4EdgeIcESaIS2_EEED2Ev
	.type	_ZNSaISt6vectorIP4EdgeIcESaIS2_EEED2Ev, @function
_ZNSaISt6vectorIP4EdgeIcESaIS2_EEED2Ev:
.LFB3488:
	.loc 16 153 7
	.cfi_startproc
	endbr64
	pushq	%rbp
	.cfi_def_cfa_offset 16
	.cfi_offset 6, -16
	movq	%rsp, %rbp
	.cfi_def_cfa_register 6
	subq	$16, %rsp
	movq	%rdi, -8(%rbp)
.LBB87:
	.loc 16 153 31
	movq	-8(%rbp), %rax
	movq	%rax, %rdi
	call	_ZN9__gnu_cxx13new_allocatorISt6vectorIP4EdgeIcESaIS4_EEED2Ev
.LBE87:
	nop
	leave
	.cfi_def_cfa 7, 8
	ret
	.cfi_endproc
.LFE3488:
	.size	_ZNSaISt6vectorIP4EdgeIcESaIS2_EEED2Ev, .-_ZNSaISt6vectorIP4EdgeIcESaIS2_EEED2Ev
	.weak	_ZNSaISt6vectorIP4EdgeIcESaIS2_EEED1Ev
	.set	_ZNSaISt6vectorIP4EdgeIcESaIS2_EEED1Ev,_ZNSaISt6vectorIP4EdgeIcESaIS2_EEED2Ev
	.section	.text._ZNSt6vectorIS_IP4EdgeIcESaIS2_EESaIS4_EEC2EmRKS4_RKS5_,"axG",@progbits,_ZNSt6vectorIS_IP4EdgeIcESaIS2_EESaIS4_EEC5EmRKS4_RKS5_,comdat
	.align 2
	.weak	_ZNSt6vectorIS_IP4EdgeIcESaIS2_EESaIS4_EEC2EmRKS4_RKS5_
	.type	_ZNSt6vectorIS_IP4EdgeIcESaIS2_EESaIS4_EEC2EmRKS4_RKS5_, @function
_ZNSt6vectorIS_IP4EdgeIcESaIS2_EESaIS4_EEC2EmRKS4_RKS5_:
.LFB3491:
	.loc 12 519 7
	.cfi_startproc
	.cfi_personality 0x9b,DW.ref.__gxx_personality_v0
	.cfi_lsda 0x1b,.LLSDA3491
	endbr64
	pushq	%rbp
	.cfi_def_cfa_offset 16
	.cfi_offset 6, -16
	movq	%rsp, %rbp
	.cfi_def_cfa_register 6
	pushq	%rbx
	subq	$40, %rsp
	.cfi_offset 3, -24
	movq	%rdi, -24(%rbp)
	movq	%rsi, -32(%rbp)
	movq	%rdx, -40(%rbp)
	movq	%rcx, -48(%rbp)
.LBB88:
	.loc 12 521 47
	movq	-24(%rbp), %rbx
	movq	-48(%rbp), %rdx
	movq	-32(%rbp), %rax
	movq	%rdx, %rsi
	movq	%rax, %rdi
.LEHB84:
	call	_ZNSt6vectorIS_IP4EdgeIcESaIS2_EESaIS4_EE17_S_check_init_lenEmRKS5_
	movq	%rax, %rcx
	movq	-48(%rbp), %rax
	movq	%rax, %rdx
	movq	%rcx, %rsi
	movq	%rbx, %rdi
	call	_ZNSt12_Vector_baseISt6vectorIP4EdgeIcESaIS3_EESaIS5_EEC2EmRKS6_
.LEHE84:
	.loc 12 522 9
	movq	-40(%rbp), %rdx
	movq	-32(%rbp), %rcx
	movq	-24(%rbp), %rax
	movq	%rcx, %rsi
	movq	%rax, %rdi
.LEHB85:
	call	_ZNSt6vectorIS_IP4EdgeIcESaIS2_EESaIS4_EE18_M_fill_initializeEmRKS4_
.LEHE85:
.LBE88:
	.loc 12 522 43
	jmp	.L403
.L402:
	endbr64
	movq	%rax, %rbx
.LBB89:
	.loc 12 521 47
	movq	-24(%rbp), %rax
	movq	%rax, %rdi
	call	_ZNSt12_Vector_baseISt6vectorIP4EdgeIcESaIS3_EESaIS5_EED2Ev
	movq	%rbx, %rax
	movq	%rax, %rdi
.LEHB86:
	call	_Unwind_Resume@PLT
.LEHE86:
.L403:
.LBE89:
	.loc 12 522 43
	addq	$40, %rsp
	popq	%rbx
	popq	%rbp
	.cfi_def_cfa 7, 8
	ret
	.cfi_endproc
.LFE3491:
	.section	.gcc_except_table
.LLSDA3491:
	.byte	0xff
	.byte	0xff
	.byte	0x1
	.uleb128 .LLSDACSE3491-.LLSDACSB3491
.LLSDACSB3491:
	.uleb128 .LEHB84-.LFB3491
	.uleb128 .LEHE84-.LEHB84
	.uleb128 0
	.uleb128 0
	.uleb128 .LEHB85-.LFB3491
	.uleb128 .LEHE85-.LEHB85
	.uleb128 .L402-.LFB3491
	.uleb128 0
	.uleb128 .LEHB86-.LFB3491
	.uleb128 .LEHE86-.LEHB86
	.uleb128 0
	.uleb128 0
.LLSDACSE3491:
	.section	.text._ZNSt6vectorIS_IP4EdgeIcESaIS2_EESaIS4_EEC2EmRKS4_RKS5_,"axG",@progbits,_ZNSt6vectorIS_IP4EdgeIcESaIS2_EESaIS4_EEC5EmRKS4_RKS5_,comdat
	.size	_ZNSt6vectorIS_IP4EdgeIcESaIS2_EESaIS4_EEC2EmRKS4_RKS5_, .-_ZNSt6vectorIS_IP4EdgeIcESaIS2_EESaIS4_EEC2EmRKS4_RKS5_
	.weak	_ZNSt6vectorIS_IP4EdgeIcESaIS2_EESaIS4_EEC1EmRKS4_RKS5_
	.set	_ZNSt6vectorIS_IP4EdgeIcESaIS2_EESaIS4_EEC1EmRKS4_RKS5_,_ZNSt6vectorIS_IP4EdgeIcESaIS2_EESaIS4_EEC2EmRKS4_RKS5_
	.section	.text._ZNSt6vectorIS_IP4EdgeIcESaIS2_EESaIS4_EED2Ev,"axG",@progbits,_ZNSt6vectorIS_IP4EdgeIcESaIS2_EESaIS4_EED5Ev,comdat
	.align 2
	.weak	_ZNSt6vectorIS_IP4EdgeIcESaIS2_EESaIS4_EED2Ev
	.type	_ZNSt6vectorIS_IP4EdgeIcESaIS2_EESaIS4_EED2Ev, @function
_ZNSt6vectorIS_IP4EdgeIcESaIS2_EESaIS4_EED2Ev:
.LFB3494:
	.loc 12 675 7
	.cfi_startproc
	.cfi_personality 0x9b,DW.ref.__gxx_personality_v0
	.cfi_lsda 0x1b,.LLSDA3494
	endbr64
	pushq	%rbp
	.cfi_def_cfa_offset 16
	.cfi_offset 6, -16
	movq	%rsp, %rbp
	.cfi_def_cfa_register 6
	subq	$16, %rsp
	movq	%rdi, -8(%rbp)
.LBB90:
	.loc 12 678 28
	movq	-8(%rbp), %rax
	movq	%rax, %rdi
	call	_ZNSt12_Vector_baseISt6vectorIP4EdgeIcESaIS3_EESaIS5_EE19_M_get_Tp_allocatorEv
	movq	%rax, %rdx
	.loc 12 677 15
	movq	-8(%rbp), %rax
	movq	8(%rax), %rcx
	movq	-8(%rbp), %rax
	movq	(%rax), %rax
	movq	%rcx, %rsi
	movq	%rax, %rdi
	call	_ZSt8_DestroyIPSt6vectorIP4EdgeIcESaIS3_EES5_EvT_S7_RSaIT0_E
	.loc 12 680 7
	movq	-8(%rbp), %rax
	movq	%rax, %rdi
	call	_ZNSt12_Vector_baseISt6vectorIP4EdgeIcESaIS3_EESaIS5_EED2Ev
.LBE90:
	nop
	leave
	.cfi_def_cfa 7, 8
	ret
	.cfi_endproc
.LFE3494:
	.section	.gcc_except_table
.LLSDA3494:
	.byte	0xff
	.byte	0xff
	.byte	0x1
	.uleb128 .LLSDACSE3494-.LLSDACSB3494
.LLSDACSB3494:
.LLSDACSE3494:
	.section	.text._ZNSt6vectorIS_IP4EdgeIcESaIS2_EESaIS4_EED2Ev,"axG",@progbits,_ZNSt6vectorIS_IP4EdgeIcESaIS2_EESaIS4_EED5Ev,comdat
	.size	_ZNSt6vectorIS_IP4EdgeIcESaIS2_EESaIS4_EED2Ev, .-_ZNSt6vectorIS_IP4EdgeIcESaIS2_EESaIS4_EED2Ev
	.weak	_ZNSt6vectorIS_IP4EdgeIcESaIS2_EESaIS4_EED1Ev
	.set	_ZNSt6vectorIS_IP4EdgeIcESaIS2_EESaIS4_EED1Ev,_ZNSt6vectorIS_IP4EdgeIcESaIS2_EESaIS4_EED2Ev
	.section	.text._ZNSt6vectorIP6VertexIcESaIS2_EEixEm,"axG",@progbits,_ZNSt6vectorIP6VertexIcESaIS2_EEixEm,comdat
	.align 2
	.weak	_ZNSt6vectorIP6VertexIcESaIS2_EEixEm
	.type	_ZNSt6vectorIP6VertexIcESaIS2_EEixEm, @function
_ZNSt6vectorIP6VertexIcESaIS2_EEixEm:
.LFB3496:
	.loc 12 1040 7
	.cfi_startproc
	endbr64
	pushq	%rbp
	.cfi_def_cfa_offset 16
	.cfi_offset 6, -16
	movq	%rsp, %rbp
	.cfi_def_cfa_register 6
	movq	%rdi, -8(%rbp)
	movq	%rsi, -16(%rbp)
	.loc 12 1043 25
	movq	-8(%rbp), %rax
	movq	(%rax), %rax
	.loc 12 1043 34
	movq	-16(%rbp), %rdx
	salq	$3, %rdx
	.loc 12 1043 39
	addq	%rdx, %rax
	.loc 12 1044 7
	popq	%rbp
	.cfi_def_cfa 7, 8
	ret
	.cfi_endproc
.LFE3496:
	.size	_ZNSt6vectorIP6VertexIcESaIS2_EEixEm, .-_ZNSt6vectorIP6VertexIcESaIS2_EEixEm
	.section	.text._ZNKSt6vectorIcSaIcEEixEm,"axG",@progbits,_ZNKSt6vectorIcSaIcEEixEm,comdat
	.align 2
	.weak	_ZNKSt6vectorIcSaIcEEixEm
	.type	_ZNKSt6vectorIcSaIcEEixEm, @function
_ZNKSt6vectorIcSaIcEEixEm:
.LFB3497:
	.loc 12 1058 7
	.cfi_startproc
	endbr64
	pushq	%rbp
	.cfi_def_cfa_offset 16
	.cfi_offset 6, -16
	movq	%rsp, %rbp
	.cfi_def_cfa_register 6
	movq	%rdi, -8(%rbp)
	movq	%rsi, -16(%rbp)
	.loc 12 1061 25
	movq	-8(%rbp), %rax
	movq	(%rax), %rdx
	.loc 12 1061 39
	movq	-16(%rbp), %rax
	addq	%rdx, %rax
	.loc 12 1062 7
	popq	%rbp
	.cfi_def_cfa 7, 8
	ret
	.cfi_endproc
.LFE3497:
	.size	_ZNKSt6vectorIcSaIcEEixEm, .-_ZNKSt6vectorIcSaIcEEixEm
	.section	.text._ZN6VertexIcEC2ERKc,"axG",@progbits,_ZN6VertexIcEC5ERKc,comdat
	.align 2
	.weak	_ZN6VertexIcEC2ERKc
	.type	_ZN6VertexIcEC2ERKc, @function
_ZN6VertexIcEC2ERKc:
.LFB3499:
	.loc 10 21 5
	.cfi_startproc
	endbr64
	pushq	%rbp
	.cfi_def_cfa_offset 16
	.cfi_offset 6, -16
	movq	%rsp, %rbp
	.cfi_def_cfa_register 6
	movq	%rdi, -8(%rbp)
	movq	%rsi, -16(%rbp)
.LBB91:
	.loc 10 22 88
	movq	-16(%rbp), %rax
	movzbl	(%rax), %edx
	movq	-8(%rbp), %rax
	movb	%dl, (%rax)
	movq	-8(%rbp), %rax
	movl	$0, 4(%rax)
	movq	-8(%rbp), %rax
	movl	$0, 8(%rax)
	movq	-8(%rbp), %rax
	movl	$0, 12(%rax)
	movq	-8(%rbp), %rax
	movl	$-1, 16(%rax)
	movq	-8(%rbp), %rax
	movl	$-1, 20(%rax)
	movq	-8(%rbp), %rax
	movl	$-1, 24(%rax)
	movq	-8(%rbp), %rax
	movl	$2147483647, 28(%rax)
.LBE91:
	.loc 10 22 91
	nop
	popq	%rbp
	.cfi_def_cfa 7, 8
	ret
	.cfi_endproc
.LFE3499:
	.size	_ZN6VertexIcEC2ERKc, .-_ZN6VertexIcEC2ERKc
	.weak	_ZN6VertexIcEC1ERKc
	.set	_ZN6VertexIcEC1ERKc,_ZN6VertexIcEC2ERKc
	.section	.text._ZNKSt6vectorISt4pairIccESaIS1_EEixEm,"axG",@progbits,_ZNKSt6vectorISt4pairIccESaIS1_EEixEm,comdat
	.align 2
	.weak	_ZNKSt6vectorISt4pairIccESaIS1_EEixEm
	.type	_ZNKSt6vectorISt4pairIccESaIS1_EEixEm, @function
_ZNKSt6vectorISt4pairIccESaIS1_EEixEm:
.LFB3501:
	.loc 12 1058 7
	.cfi_startproc
	endbr64
	pushq	%rbp
	.cfi_def_cfa_offset 16
	.cfi_offset 6, -16
	movq	%rsp, %rbp
	.cfi_def_cfa_register 6
	movq	%rdi, -8(%rbp)
	movq	%rsi, -16(%rbp)
	.loc 12 1061 25
	movq	-8(%rbp), %rax
	movq	(%rax), %rax
	.loc 12 1061 34
	movq	-16(%rbp), %rdx
	addq	%rdx, %rdx
	.loc 12 1061 39
	addq	%rdx, %rax
	.loc 12 1062 7
	popq	%rbp
	.cfi_def_cfa 7, 8
	ret
	.cfi_endproc
.LFE3501:
	.size	_ZNKSt6vectorISt4pairIccESaIS1_EEixEm, .-_ZNKSt6vectorISt4pairIccESaIS1_EEixEm
	.section	.text._ZNSt6vectorIS_IP4EdgeIcESaIS2_EESaIS4_EEixEm,"axG",@progbits,_ZNSt6vectorIS_IP4EdgeIcESaIS2_EESaIS4_EEixEm,comdat
	.align 2
	.weak	_ZNSt6vectorIS_IP4EdgeIcESaIS2_EESaIS4_EEixEm
	.type	_ZNSt6vectorIS_IP4EdgeIcESaIS2_EESaIS4_EEixEm, @function
_ZNSt6vectorIS_IP4EdgeIcESaIS2_EESaIS4_EEixEm:
.LFB3502:
	.loc 12 1040 7
	.cfi_startproc
	endbr64
	pushq	%rbp
	.cfi_def_cfa_offset 16
	.cfi_offset 6, -16
	movq	%rsp, %rbp
	.cfi_def_cfa_register 6
	movq	%rdi, -8(%rbp)
	movq	%rsi, -16(%rbp)
	.loc 12 1043 25
	movq	-8(%rbp), %rax
	movq	(%rax), %rcx
	.loc 12 1043 34
	movq	-16(%rbp), %rdx
	movq	%rdx, %rax
	addq	%rax, %rax
	addq	%rdx, %rax
	salq	$3, %rax
	.loc 12 1043 39
	addq	%rcx, %rax
	.loc 12 1044 7
	popq	%rbp
	.cfi_def_cfa 7, 8
	ret
	.cfi_endproc
.LFE3502:
	.size	_ZNSt6vectorIS_IP4EdgeIcESaIS2_EESaIS4_EEixEm, .-_ZNSt6vectorIS_IP4EdgeIcESaIS2_EESaIS4_EEixEm
	.section	.text._ZNSt6vectorIP4EdgeIcESaIS2_EEixEm,"axG",@progbits,_ZNSt6vectorIP4EdgeIcESaIS2_EEixEm,comdat
	.align 2
	.weak	_ZNSt6vectorIP4EdgeIcESaIS2_EEixEm
	.type	_ZNSt6vectorIP4EdgeIcESaIS2_EEixEm, @function
_ZNSt6vectorIP4EdgeIcESaIS2_EEixEm:
.LFB3503:
	.loc 12 1040 7
	.cfi_startproc
	endbr64
	pushq	%rbp
	.cfi_def_cfa_offset 16
	.cfi_offset 6, -16
	movq	%rsp, %rbp
	.cfi_def_cfa_register 6
	movq	%rdi, -8(%rbp)
	movq	%rsi, -16(%rbp)
	.loc 12 1043 25
	movq	-8(%rbp), %rax
	movq	(%rax), %rax
	.loc 12 1043 34
	movq	-16(%rbp), %rdx
	salq	$3, %rdx
	.loc 12 1043 39
	addq	%rdx, %rax
	.loc 12 1044 7
	popq	%rbp
	.cfi_def_cfa 7, 8
	ret
	.cfi_endproc
.LFE3503:
	.size	_ZNSt6vectorIP4EdgeIcESaIS2_EEixEm, .-_ZNSt6vectorIP4EdgeIcESaIS2_EEixEm
	.section	.text._ZN4EdgeIcEC2ERKci,"axG",@progbits,_ZN4EdgeIcEC5ERKci,comdat
	.align 2
	.weak	_ZN4EdgeIcEC2ERKci
	.type	_ZN4EdgeIcEC2ERKci, @function
_ZN4EdgeIcEC2ERKci:
.LFB3505:
	.loc 10 30 5
	.cfi_startproc
	endbr64
	pushq	%rbp
	.cfi_def_cfa_offset 16
	.cfi_offset 6, -16
	movq	%rsp, %rbp
	.cfi_def_cfa_register 6
	movq	%rdi, -8(%rbp)
	movq	%rsi, -16(%rbp)
	movl	%edx, -20(%rbp)
.LBB92:
	.loc 10 30 81
	movq	-16(%rbp), %rax
	movzbl	(%rax), %edx
	movq	-8(%rbp), %rax
	movb	%dl, (%rax)
	movq	-8(%rbp), %rax
	movl	-20(%rbp), %edx
	movl	%edx, 4(%rax)
	movq	-8(%rbp), %rax
	movl	$0, 8(%rax)
.LBE92:
	.loc 10 30 84
	nop
	popq	%rbp
	.cfi_def_cfa 7, 8
	ret
	.cfi_endproc
.LFE3505:
	.size	_ZN4EdgeIcEC2ERKci, .-_ZN4EdgeIcEC2ERKci
	.weak	_ZN4EdgeIcEC1ERKci
	.set	_ZN4EdgeIcEC1ERKci,_ZN4EdgeIcEC2ERKci
	.section	.text._ZN6MatrixIbEC2Emm,"axG",@progbits,_ZN6MatrixIbEC5Emm,comdat
	.align 2
	.weak	_ZN6MatrixIbEC2Emm
	.type	_ZN6MatrixIbEC2Emm, @function
_ZN6MatrixIbEC2Emm:
.LFB3508:
	.loc 8 33 5
	.cfi_startproc
	.cfi_personality 0x9b,DW.ref.__gxx_personality_v0
	.cfi_lsda 0x1b,.LLSDA3508
	endbr64
	pushq	%rbp
	.cfi_def_cfa_offset 16
	.cfi_offset 6, -16
	movq	%rsp, %rbp
	.cfi_def_cfa_register 6
	pushq	%rbx
	subq	$104, %rsp
	.cfi_offset 3, -24
	movq	%rdi, -88(%rbp)
	movq	%rsi, -96(%rbp)
	movq	%rdx, -104(%rbp)
	.loc 8 33 5
	movq	%fs:40, %rax
	movq	%rax, -24(%rbp)
	xorl	%eax, %eax
.LBB93:
	.loc 8 33 93
	movq	-88(%rbp), %rbx
	leaq	-65(%rbp), %rax
	movq	%rax, %rdi
	call	_ZNSaISt6vectorIbSaIbEEEC1Ev
	leaq	-66(%rbp), %rax
	movq	%rax, %rdi
	call	_ZNSaIbEC1Ev
	movb	$0, -67(%rbp)
	leaq	-66(%rbp), %rcx
	leaq	-67(%rbp), %rdx
	movq	-104(%rbp), %rsi
	leaq	-64(%rbp), %rax
	movq	%rax, %rdi
.LEHB87:
	call	_ZNSt6vectorIbSaIbEEC1EmRKbRKS0_
.LEHE87:
	.loc 8 33 93 is_stmt 0 discriminator 2
	leaq	-65(%rbp), %rcx
	leaq	-64(%rbp), %rdx
	movq	-96(%rbp), %rax
	movq	%rax, %rsi
	movq	%rbx, %rdi
.LEHB88:
	call	_ZNSt6vectorIS_IbSaIbEESaIS1_EEC1EmRKS1_RKS2_
.LEHE88:
	.loc 8 33 93 discriminator 4
	leaq	-64(%rbp), %rax
	movq	%rax, %rdi
	call	_ZNSt6vectorIbSaIbEED1Ev
	leaq	-66(%rbp), %rax
	movq	%rax, %rdi
	call	_ZNSaIbED1Ev
	leaq	-65(%rbp), %rax
	movq	%rax, %rdi
	call	_ZNSaISt6vectorIbSaIbEEED1Ev
	movq	-88(%rbp), %rax
	movq	-96(%rbp), %rdx
	movq	%rdx, 24(%rax)
	movq	-88(%rbp), %rax
	movq	-104(%rbp), %rdx
	movq	%rdx, 32(%rax)
.LBE93:
	.loc 8 33 96 is_stmt 1 discriminator 4
	nop
	movq	-24(%rbp), %rax
	xorq	%fs:40, %rax
	je	.L420
	jmp	.L423
.L422:
	endbr64
	movq	%rax, %rbx
.LBB94:
	.loc 8 33 93
	leaq	-64(%rbp), %rax
	movq	%rax, %rdi
	call	_ZNSt6vectorIbSaIbEED1Ev
	jmp	.L419
.L421:
	endbr64
	movq	%rax, %rbx
.L419:
	.loc 8 33 93 is_stmt 0 discriminator 1
	leaq	-66(%rbp), %rax
	movq	%rax, %rdi
	call	_ZNSaIbED1Ev
	leaq	-65(%rbp), %rax
	movq	%rax, %rdi
	call	_ZNSaISt6vectorIbSaIbEEED1Ev
	movq	%rbx, %rax
	movq	%rax, %rdi
.LEHB89:
	call	_Unwind_Resume@PLT
.LEHE89:
.L423:
.LBE94:
	.loc 8 33 96 is_stmt 1
	call	__stack_chk_fail@PLT
.L420:
	addq	$104, %rsp
	popq	%rbx
	popq	%rbp
	.cfi_def_cfa 7, 8
	ret
	.cfi_endproc
.LFE3508:
	.section	.gcc_except_table
.LLSDA3508:
	.byte	0xff
	.byte	0xff
	.byte	0x1
	.uleb128 .LLSDACSE3508-.LLSDACSB3508
.LLSDACSB3508:
	.uleb128 .LEHB87-.LFB3508
	.uleb128 .LEHE87-.LEHB87
	.uleb128 .L421-.LFB3508
	.uleb128 0
	.uleb128 .LEHB88-.LFB3508
	.uleb128 .LEHE88-.LEHB88
	.uleb128 .L422-.LFB3508
	.uleb128 0
	.uleb128 .LEHB89-.LFB3508
	.uleb128 .LEHE89-.LEHB89
	.uleb128 0
	.uleb128 0
.LLSDACSE3508:
	.section	.text._ZN6MatrixIbEC2Emm,"axG",@progbits,_ZN6MatrixIbEC5Emm,comdat
	.size	_ZN6MatrixIbEC2Emm, .-_ZN6MatrixIbEC2Emm
	.weak	_ZN6MatrixIbEC1Emm
	.set	_ZN6MatrixIbEC1Emm,_ZN6MatrixIbEC2Emm
	.section	.text._ZNSt6vectorIS_IbSaIbEESaIS1_EEixEm,"axG",@progbits,_ZNSt6vectorIS_IbSaIbEESaIS1_EEixEm,comdat
	.align 2
	.weak	_ZNSt6vectorIS_IbSaIbEESaIS1_EEixEm
	.type	_ZNSt6vectorIS_IbSaIbEESaIS1_EEixEm, @function
_ZNSt6vectorIS_IbSaIbEESaIS1_EEixEm:
.LFB3510:
	.loc 12 1040 7
	.cfi_startproc
	endbr64
	pushq	%rbp
	.cfi_def_cfa_offset 16
	.cfi_offset 6, -16
	movq	%rsp, %rbp
	.cfi_def_cfa_register 6
	movq	%rdi, -8(%rbp)
	movq	%rsi, -16(%rbp)
	.loc 12 1043 25
	movq	-8(%rbp), %rax
	movq	(%rax), %rcx
	.loc 12 1043 34
	movq	-16(%rbp), %rdx
	movq	%rdx, %rax
	salq	$2, %rax
	addq	%rdx, %rax
	salq	$3, %rax
	.loc 12 1043 39
	addq	%rcx, %rax
	.loc 12 1044 7
	popq	%rbp
	.cfi_def_cfa 7, 8
	ret
	.cfi_endproc
.LFE3510:
	.size	_ZNSt6vectorIS_IbSaIbEESaIS1_EEixEm, .-_ZNSt6vectorIS_IbSaIbEESaIS1_EEixEm
	.section	.text._ZNSt12_Vector_baseISt6vectorIbSaIbEESaIS2_EE12_Vector_implC2EOS5_,"axG",@progbits,_ZNSt12_Vector_baseISt6vectorIbSaIbEESaIS2_EE12_Vector_implC5EOS5_,comdat
	.align 2
	.weak	_ZNSt12_Vector_baseISt6vectorIbSaIbEESaIS2_EE12_Vector_implC2EOS5_
	.type	_ZNSt12_Vector_baseISt6vectorIbSaIbEESaIS2_EE12_Vector_implC2EOS5_, @function
_ZNSt12_Vector_baseISt6vectorIbSaIbEESaIS2_EE12_Vector_implC2EOS5_:
.LFB3512:
	.loc 12 140 2
	.cfi_startproc
	endbr64
	pushq	%rbp
	.cfi_def_cfa_offset 16
	.cfi_offset 6, -16
	movq	%rsp, %rbp
	.cfi_def_cfa_register 6
	pushq	%rbx
	subq	$24, %rsp
	.cfi_offset 3, -24
	movq	%rdi, -24(%rbp)
	movq	%rsi, -32(%rbp)
.LBB95:
	.loc 12 141 28
	movq	-32(%rbp), %rax
	movq	%rax, %rdi
	call	_ZSt4moveIRNSt12_Vector_baseISt6vectorIbSaIbEESaIS3_EE12_Vector_implEEONSt16remove_referenceIT_E4typeEOS9_
	movq	%rax, %rdx
	.loc 12 141 68
	movq	-24(%rbp), %rax
	movq	%rdx, %rsi
	movq	%rax, %rdi
	call	_ZNSaISt6vectorIbSaIbEEEC2ERKS2_
	movq	-24(%rbp), %rbx
	.loc 12 141 63
	movq	-32(%rbp), %rax
	movq	%rax, %rdi
	call	_ZSt4moveIRNSt12_Vector_baseISt6vectorIbSaIbEESaIS3_EE12_Vector_implEEONSt16remove_referenceIT_E4typeEOS9_
	.loc 12 141 68
	movq	%rax, %rsi
	movq	%rbx, %rdi
	call	_ZNSt12_Vector_baseISt6vectorIbSaIbEESaIS2_EE17_Vector_impl_dataC2EOS5_
.LBE95:
	.loc 12 142 4
	nop
	addq	$24, %rsp
	popq	%rbx
	popq	%rbp
	.cfi_def_cfa 7, 8
	ret
	.cfi_endproc
.LFE3512:
	.size	_ZNSt12_Vector_baseISt6vectorIbSaIbEESaIS2_EE12_Vector_implC2EOS5_, .-_ZNSt12_Vector_baseISt6vectorIbSaIbEESaIS2_EE12_Vector_implC2EOS5_
	.weak	_ZNSt12_Vector_baseISt6vectorIbSaIbEESaIS2_EE12_Vector_implC1EOS5_
	.set	_ZNSt12_Vector_baseISt6vectorIbSaIbEESaIS2_EE12_Vector_implC1EOS5_,_ZNSt12_Vector_baseISt6vectorIbSaIbEESaIS2_EE12_Vector_implC2EOS5_
	.section	.text._ZNSaISt6vectorIbSaIbEEED2Ev,"axG",@progbits,_ZNSaISt6vectorIbSaIbEEED5Ev,comdat
	.align 2
	.weak	_ZNSaISt6vectorIbSaIbEEED2Ev
	.type	_ZNSaISt6vectorIbSaIbEEED2Ev, @function
_ZNSaISt6vectorIbSaIbEEED2Ev:
.LFB3515:
	.loc 16 153 7
	.cfi_startproc
	endbr64
	pushq	%rbp
	.cfi_def_cfa_offset 16
	.cfi_offset 6, -16
	movq	%rsp, %rbp
	.cfi_def_cfa_register 6
	subq	$16, %rsp
	movq	%rdi, -8(%rbp)
.LBB96:
	.loc 16 153 31
	movq	-8(%rbp), %rax
	movq	%rax, %rdi
	call	_ZN9__gnu_cxx13new_allocatorISt6vectorIbSaIbEEED2Ev
.LBE96:
	nop
	leave
	.cfi_def_cfa 7, 8
	ret
	.cfi_endproc
.LFE3515:
	.size	_ZNSaISt6vectorIbSaIbEEED2Ev, .-_ZNSaISt6vectorIbSaIbEEED2Ev
	.weak	_ZNSaISt6vectorIbSaIbEEED1Ev
	.set	_ZNSaISt6vectorIbSaIbEEED1Ev,_ZNSaISt6vectorIbSaIbEEED2Ev
	.section	.text._ZNSt12_Vector_baseISt6vectorIbSaIbEESaIS2_EED2Ev,"axG",@progbits,_ZNSt12_Vector_baseISt6vectorIbSaIbEESaIS2_EED5Ev,comdat
	.align 2
	.weak	_ZNSt12_Vector_baseISt6vectorIbSaIbEESaIS2_EED2Ev
	.type	_ZNSt12_Vector_baseISt6vectorIbSaIbEESaIS2_EED2Ev, @function
_ZNSt12_Vector_baseISt6vectorIbSaIbEESaIS2_EED2Ev:
.LFB3518:
	.loc 12 330 7
	.cfi_startproc
	.cfi_personality 0x9b,DW.ref.__gxx_personality_v0
	.cfi_lsda 0x1b,.LLSDA3518
	endbr64
	pushq	%rbp
	.cfi_def_cfa_offset 16
	.cfi_offset 6, -16
	movq	%rsp, %rbp
	.cfi_def_cfa_register 6
	subq	$16, %rsp
	movq	%rdi, -8(%rbp)
.LBB97:
	.loc 12 333 17
	movq	-8(%rbp), %rax
	movq	16(%rax), %rdx
	.loc 12 333 45
	movq	-8(%rbp), %rax
	movq	(%rax), %rax
	.loc 12 333 35
	subq	%rax, %rdx
	movq	%rdx, %rax
	sarq	$3, %rax
	movq	%rax, %rdx
	movabsq	$-3689348814741910323, %rax
	imulq	%rdx, %rax
	.loc 12 332 2
	movq	%rax, %rdx
	movq	-8(%rbp), %rax
	movq	(%rax), %rcx
	movq	-8(%rbp), %rax
	movq	%rcx, %rsi
	movq	%rax, %rdi
	call	_ZNSt12_Vector_baseISt6vectorIbSaIbEESaIS2_EE13_M_deallocateEPS2_m
	.loc 12 334 7
	movq	-8(%rbp), %rax
	movq	%rax, %rdi
	call	_ZNSt12_Vector_baseISt6vectorIbSaIbEESaIS2_EE12_Vector_implD1Ev
.LBE97:
	nop
	leave
	.cfi_def_cfa 7, 8
	ret
	.cfi_endproc
.LFE3518:
	.section	.gcc_except_table
.LLSDA3518:
	.byte	0xff
	.byte	0xff
	.byte	0x1
	.uleb128 .LLSDACSE3518-.LLSDACSB3518
.LLSDACSB3518:
.LLSDACSE3518:
	.section	.text._ZNSt12_Vector_baseISt6vectorIbSaIbEESaIS2_EED2Ev,"axG",@progbits,_ZNSt12_Vector_baseISt6vectorIbSaIbEESaIS2_EED5Ev,comdat
	.size	_ZNSt12_Vector_baseISt6vectorIbSaIbEESaIS2_EED2Ev, .-_ZNSt12_Vector_baseISt6vectorIbSaIbEESaIS2_EED2Ev
	.weak	_ZNSt12_Vector_baseISt6vectorIbSaIbEESaIS2_EED1Ev
	.set	_ZNSt12_Vector_baseISt6vectorIbSaIbEESaIS2_EED1Ev,_ZNSt12_Vector_baseISt6vectorIbSaIbEESaIS2_EED2Ev
	.section	.text._ZNSt12_Vector_baseISt6vectorIbSaIbEESaIS2_EE19_M_get_Tp_allocatorEv,"axG",@progbits,_ZNSt12_Vector_baseISt6vectorIbSaIbEESaIS2_EE19_M_get_Tp_allocatorEv,comdat
	.align 2
	.weak	_ZNSt12_Vector_baseISt6vectorIbSaIbEESaIS2_EE19_M_get_Tp_allocatorEv
	.type	_ZNSt12_Vector_baseISt6vectorIbSaIbEESaIS2_EE19_M_get_Tp_allocatorEv, @function
_ZNSt12_Vector_baseISt6vectorIbSaIbEESaIS2_EE19_M_get_Tp_allocatorEv:
.LFB3520:
	.loc 12 273 7
	.cfi_startproc
	endbr64
	pushq	%rbp
	.cfi_def_cfa_offset 16
	.cfi_offset 6, -16
	movq	%rsp, %rbp
	.cfi_def_cfa_register 6
	movq	%rdi, -8(%rbp)
	.loc 12 274 22
	movq	-8(%rbp), %rax
	.loc 12 274 31
	popq	%rbp
	.cfi_def_cfa 7, 8
	ret
	.cfi_endproc
.LFE3520:
	.size	_ZNSt12_Vector_baseISt6vectorIbSaIbEESaIS2_EE19_M_get_Tp_allocatorEv, .-_ZNSt12_Vector_baseISt6vectorIbSaIbEESaIS2_EE19_M_get_Tp_allocatorEv
	.section	.text._ZSt8_DestroyIPSt6vectorIbSaIbEES2_EvT_S4_RSaIT0_E,"axG",@progbits,_ZSt8_DestroyIPSt6vectorIbSaIbEES2_EvT_S4_RSaIT0_E,comdat
	.weak	_ZSt8_DestroyIPSt6vectorIbSaIbEES2_EvT_S4_RSaIT0_E
	.type	_ZSt8_DestroyIPSt6vectorIbSaIbEES2_EvT_S4_RSaIT0_E, @function
_ZSt8_DestroyIPSt6vectorIbSaIbEES2_EvT_S4_RSaIT0_E:
.LFB3521:
	.loc 15 203 5
	.cfi_startproc
	endbr64
	pushq	%rbp
	.cfi_def_cfa_offset 16
	.cfi_offset 6, -16
	movq	%rsp, %rbp
	.cfi_def_cfa_register 6
	subq	$32, %rsp
	movq	%rdi, -8(%rbp)
	movq	%rsi, -16(%rbp)
	movq	%rdx, -24(%rbp)
	.loc 15 206 15
	movq	-16(%rbp), %rdx
	movq	-8(%rbp), %rax
	movq	%rdx, %rsi
	movq	%rax, %rdi
	call	_ZSt8_DestroyIPSt6vectorIbSaIbEEEvT_S4_
	.loc 15 207 5
	nop
	leave
	.cfi_def_cfa 7, 8
	ret
	.cfi_endproc
.LFE3521:
	.size	_ZSt8_DestroyIPSt6vectorIbSaIbEES2_EvT_S4_RSaIT0_E, .-_ZSt8_DestroyIPSt6vectorIbSaIbEES2_EvT_S4_RSaIT0_E
	.section	.text._ZNKSt6vectorIS_IbSaIbEESaIS1_EEixEm,"axG",@progbits,_ZNKSt6vectorIS_IbSaIbEESaIS1_EEixEm,comdat
	.align 2
	.weak	_ZNKSt6vectorIS_IbSaIbEESaIS1_EEixEm
	.type	_ZNKSt6vectorIS_IbSaIbEESaIS1_EEixEm, @function
_ZNKSt6vectorIS_IbSaIbEESaIS1_EEixEm:
.LFB3524:
	.loc 12 1058 7
	.cfi_startproc
	endbr64
	pushq	%rbp
	.cfi_def_cfa_offset 16
	.cfi_offset 6, -16
	movq	%rsp, %rbp
	.cfi_def_cfa_register 6
	movq	%rdi, -8(%rbp)
	movq	%rsi, -16(%rbp)
	.loc 12 1061 25
	movq	-8(%rbp), %rax
	movq	(%rax), %rcx
	.loc 12 1061 34
	movq	-16(%rbp), %rdx
	movq	%rdx, %rax
	salq	$2, %rax
	addq	%rdx, %rax
	salq	$3, %rax
	.loc 12 1061 39
	addq	%rcx, %rax
	.loc 12 1062 7
	popq	%rbp
	.cfi_def_cfa 7, 8
	ret
	.cfi_endproc
.LFE3524:
	.size	_ZNKSt6vectorIS_IbSaIbEESaIS1_EEixEm, .-_ZNKSt6vectorIS_IbSaIbEESaIS1_EEixEm
	.section	.text._ZNKSt6vectorIbSaIbEEixEm,"axG",@progbits,_ZNKSt6vectorIbSaIbEEixEm,comdat
	.align 2
	.weak	_ZNKSt6vectorIbSaIbEEixEm
	.type	_ZNKSt6vectorIbSaIbEEixEm, @function
_ZNKSt6vectorIbSaIbEEixEm:
.LFB3525:
	.loc 4 893 7
	.cfi_startproc
	endbr64
	pushq	%rbp
	.cfi_def_cfa_offset 16
	.cfi_offset 6, -16
	movq	%rsp, %rbp
	.cfi_def_cfa_register 6
	subq	$48, %rsp
	movq	%rdi, -40(%rbp)
	movq	%rsi, -48(%rbp)
	.loc 4 893 7
	movq	%fs:40, %rax
	movq	%rax, -8(%rbp)
	xorl	%eax, %eax
	.loc 4 895 9
	movq	-48(%rbp), %rax
	andl	$63, %eax
	movl	%eax, %edx
	.loc 4 895 48
	movq	-40(%rbp), %rax
	movq	(%rax), %rax
	.loc 4 896 15
	movq	-48(%rbp), %rcx
	shrq	$6, %rcx
	.loc 4 896 9
	salq	$3, %rcx
	.loc 4 895 9
	addq	%rax, %rcx
	leaq	-32(%rbp), %rax
	movq	%rcx, %rsi
	movq	%rax, %rdi
	call	_ZNSt19_Bit_const_iteratorC1EPmj
	leaq	-32(%rbp), %rax
	movq	%rax, %rdi
	call	_ZNKSt19_Bit_const_iteratordeEv
	.loc 4 897 7
	movq	-8(%rbp), %rsi
	xorq	%fs:40, %rsi
	je	.L436
	call	__stack_chk_fail@PLT
.L436:
	leave
	.cfi_def_cfa 7, 8
	ret
	.cfi_endproc
.LFE3525:
	.size	_ZNKSt6vectorIbSaIbEEixEm, .-_ZNKSt6vectorIbSaIbEEixEm
	.section	.text._ZN11GraphMatrixIccE6existsEii,"axG",@progbits,_ZN11GraphMatrixIccE6existsEii,comdat
	.align 2
	.weak	_ZN11GraphMatrixIccE6existsEii
	.type	_ZN11GraphMatrixIccE6existsEii, @function
_ZN11GraphMatrixIccE6existsEii:
.LFB3527:
	.loc 10 102 18
	.cfi_startproc
	endbr64
	pushq	%rbp
	.cfi_def_cfa_offset 16
	.cfi_offset 6, -16
	movq	%rsp, %rbp
	.cfi_def_cfa_register 6
	subq	$16, %rsp
	movq	%rdi, -8(%rbp)
	movl	%esi, -12(%rbp)
	movl	%edx, -16(%rbp)
	.loc 10 104 63
	cmpl	$0, -12(%rbp)
	js	.L438
	.loc 10 104 36 discriminator 1
	movq	-8(%rbp), %rax
	movl	8(%rax), %eax
	.loc 10 104 23 discriminator 1
	cmpl	%eax, -12(%rbp)
	jge	.L438
	.loc 10 104 38 discriminator 3
	cmpl	$0, -16(%rbp)
	js	.L438
	.loc 10 104 61 discriminator 5
	movq	-8(%rbp), %rax
	movl	8(%rax), %eax
	.loc 10 104 48 discriminator 5
	cmpl	%eax, -16(%rbp)
	jge	.L438
	.loc 10 104 67 discriminator 7
	movq	-8(%rbp), %rax
	leaq	40(%rax), %rdx
	movl	-12(%rbp), %eax
	cltq
	movq	%rax, %rsi
	movq	%rdx, %rdi
	call	_ZNSt6vectorIS_IP4EdgeIcESaIS2_EESaIS4_EEixEm
	movq	%rax, %rdx
	.loc 10 104 70 discriminator 7
	movl	-16(%rbp), %eax
	cltq
	movq	%rax, %rsi
	movq	%rdx, %rdi
	call	_ZNSt6vectorIP4EdgeIcESaIS2_EEixEm
	.loc 10 104 63 discriminator 7
	movq	(%rax), %rax
	testq	%rax, %rax
	je	.L438
	.loc 10 104 63 is_stmt 0 discriminator 9
	movl	$1, %eax
	jmp	.L439
.L438:
	.loc 10 104 63 discriminator 10
	movl	$0, %eax
.L439:
	.loc 10 105 5 is_stmt 1 discriminator 12
	leave
	.cfi_def_cfa 7, 8
	ret
	.cfi_endproc
.LFE3527:
	.size	_ZN11GraphMatrixIccE6existsEii, .-_ZN11GraphMatrixIccE6existsEii
	.section	.text._ZN11GraphMatrixIccE3locERKc,"axG",@progbits,_ZN11GraphMatrixIccE3locERKc,comdat
	.align 2
	.weak	_ZN11GraphMatrixIccE3locERKc
	.type	_ZN11GraphMatrixIccE3locERKc, @function
_ZN11GraphMatrixIccE3locERKc:
.LFB3528:
	.loc 10 68 17
	.cfi_startproc
	endbr64
	pushq	%rbp
	.cfi_def_cfa_offset 16
	.cfi_offset 6, -16
	movq	%rsp, %rbp
	.cfi_def_cfa_register 6
	subq	$32, %rsp
	movq	%rdi, -24(%rbp)
	movq	%rsi, -32(%rbp)
	.loc 10 70 13
	movq	-24(%rbp), %rax
	movl	8(%rax), %eax
	movl	%eax, -4(%rbp)
.L445:
	.loc 10 71 17
	movq	-24(%rbp), %rax
	leaq	16(%rax), %rdx
	.loc 10 71 20
	movl	-4(%rbp), %eax
	subl	$1, %eax
	.loc 10 71 17
	cltq
	movq	%rax, %rsi
	movq	%rdx, %rdi
	call	_ZNSt6vectorIP6VertexIcESaIS2_EEixEm
	.loc 10 71 26
	movq	(%rax), %rax
	movzbl	(%rax), %edx
	.loc 10 71 31
	movq	-32(%rbp), %rax
	movzbl	(%rax), %eax
	.loc 10 71 36
	cmpb	%al, %dl
	je	.L442
	.loc 10 71 36 is_stmt 0 discriminator 1
	subl	$1, -4(%rbp)
	cmpl	$0, -4(%rbp)
	je	.L442
	.loc 10 71 36 discriminator 3
	movl	$1, %eax
	jmp	.L443
.L442:
	.loc 10 71 36 discriminator 4
	movl	$0, %eax
.L443:
	.loc 10 71 36 discriminator 6
	testb	%al, %al
	je	.L444
	.loc 10 71 9 is_stmt 1
	jmp	.L445
.L444:
	.loc 10 73 20
	movl	-4(%rbp), %eax
	subl	$1, %eax
	.loc 10 74 5
	leave
	.cfi_def_cfa 7, 8
	ret
	.cfi_endproc
.LFE3528:
	.size	_ZN11GraphMatrixIccE3locERKc, .-_ZN11GraphMatrixIccE3locERKc
	.section	.text._ZN11GraphMatrixIccE6existsERKc,"axG",@progbits,_ZN11GraphMatrixIccE6existsERKc,comdat
	.align 2
	.weak	_ZN11GraphMatrixIccE6existsERKc
	.type	_ZN11GraphMatrixIccE6existsERKc, @function
_ZN11GraphMatrixIccE6existsERKc:
.LFB3529:
	.loc 10 91 18
	.cfi_startproc
	endbr64
	pushq	%rbp
	.cfi_def_cfa_offset 16
	.cfi_offset 6, -16
	movq	%rsp, %rbp
	.cfi_def_cfa_register 6
	subq	$16, %rsp
	movq	%rdi, -8(%rbp)
	movq	%rsi, -16(%rbp)
	.loc 10 91 63
	movq	-8(%rbp), %rax
	movq	(%rax), %rax
	addq	$8, %rax
	movq	(%rax), %rcx
	movq	-16(%rbp), %rdx
	movq	-8(%rbp), %rax
	movq	%rdx, %rsi
	movq	%rax, %rdi
	call	*%rcx
.LVL14:
	.loc 10 91 68
	testl	%eax, %eax
	js	.L448
	.loc 10 91 78 discriminator 1
	movq	-8(%rbp), %rax
	movq	(%rax), %rax
	addq	$8, %rax
	movq	(%rax), %rcx
	movq	-16(%rbp), %rdx
	movq	-8(%rbp), %rax
	movq	%rdx, %rsi
	movq	%rax, %rdi
	call	*%rcx
.LVL15:
	.loc 10 91 86 discriminator 1
	movq	-8(%rbp), %rdx
	movl	8(%rdx), %edx
	.loc 10 91 68 discriminator 1
	cmpl	%edx, %eax
	jge	.L448
	.loc 10 91 68 is_stmt 0 discriminator 3
	movl	$1, %eax
	jmp	.L449
.L448:
	.loc 10 91 68 discriminator 4
	movl	$0, %eax
.L449:
	.loc 10 91 89 is_stmt 1 discriminator 6
	leave
	.cfi_def_cfa 7, 8
	ret
	.cfi_endproc
.LFE3529:
	.size	_ZN11GraphMatrixIccE6existsERKc, .-_ZN11GraphMatrixIccE6existsERKc
	.section	.rodata
.LC6:
	.string	"the vertex is not exist"
	.section	.text._ZN11GraphMatrixIccE6removeEi,"axG",@progbits,_ZN11GraphMatrixIccE6removeEi,comdat
	.align 2
	.weak	_ZN11GraphMatrixIccE6removeEi
	.type	_ZN11GraphMatrixIccE6removeEi, @function
_ZN11GraphMatrixIccE6removeEi:
.LFB3530:
	.loc 10 145 4
	.cfi_startproc
	endbr64
	pushq	%rbp
	.cfi_def_cfa_offset 16
	.cfi_offset 6, -16
	movq	%rsp, %rbp
	.cfi_def_cfa_register 6
	pushq	%r12
	pushq	%rbx
	subq	$64, %rsp
	.cfi_offset 12, -24
	.cfi_offset 3, -32
	movq	%rdi, -72(%rbp)
	movl	%esi, -76(%rbp)
	.loc 10 145 4
	movq	%fs:40, %rax
	movq	%rax, -24(%rbp)
	xorl	%eax, %eax
	.loc 10 147 5
	cmpl	$0, -76(%rbp)
	js	.L452
	.loc 10 147 28 discriminator 1
	movq	-72(%rbp), %rax
	movl	8(%rax), %eax
	.loc 10 147 15 discriminator 1
	cmpl	%eax, -76(%rbp)
	jl	.L453
.L452:
	.loc 10 149 19
	leaq	.LC6(%rip), %rsi
	leaq	_ZSt4cout(%rip), %rdi
	call	_ZStlsISt11char_traitsIcEERSt13basic_ostreamIcT_ES5_PKc@PLT
	movq	%rax, %rdx
	.loc 10 149 48
	movq	_ZSt4endlIcSt11char_traitsIcEERSt13basic_ostreamIT_T0_ES6_@GOTPCREL(%rip), %rax
	movq	%rax, %rsi
	movq	%rdx, %rdi
	call	_ZNSolsEPFRSoS_E@PLT
	.loc 10 150 20
	movl	$0, %eax
	jmp	.L454
.L453:
.LBB98:
	.loc 10 152 14
	movl	$0, -56(%rbp)
.L459:
	.loc 10 152 31 discriminator 1
	movq	-72(%rbp), %rax
	movl	8(%rax), %eax
	.loc 10 152 23 discriminator 1
	cmpl	%eax, -56(%rbp)
	jge	.L455
	.loc 10 153 9
	movq	-72(%rbp), %rax
	movq	(%rax), %rax
	addq	$120, %rax
	movq	(%rax), %r8
	movl	-56(%rbp), %edx
	movl	-76(%rbp), %ecx
	movq	-72(%rbp), %rax
	movl	%ecx, %esi
	movq	%rax, %rdi
	call	*%r8
.LVL16:
	testb	%al, %al
	je	.L456
	.loc 10 155 21
	movq	-72(%rbp), %rax
	leaq	40(%rax), %rdx
	movl	-76(%rbp), %eax
	cltq
	movq	%rax, %rsi
	movq	%rdx, %rdi
	call	_ZNSt6vectorIS_IP4EdgeIcESaIS2_EESaIS4_EEixEm
	movq	%rax, %rdx
	.loc 10 155 24
	movl	-56(%rbp), %eax
	cltq
	movq	%rax, %rsi
	movq	%rdx, %rdi
	call	_ZNSt6vectorIP4EdgeIcESaIS2_EEixEm
	.loc 10 155 13
	movq	(%rax), %rax
	testq	%rax, %rax
	je	.L457
	.loc 10 155 13 is_stmt 0 discriminator 1
	movl	$12, %esi
	movq	%rax, %rdi
	call	_ZdlPvm@PLT
.L457:
	.loc 10 156 14 is_stmt 1
	movq	-72(%rbp), %rax
	leaq	16(%rax), %rdx
	movl	-56(%rbp), %eax
	cltq
	movq	%rax, %rsi
	movq	%rdx, %rdi
	call	_ZNSt6vectorIP6VertexIcESaIS2_EEixEm
	.loc 10 156 19
	movq	(%rax), %rax
	movl	4(%rax), %edx
	.loc 10 156 13
	subl	$1, %edx
	movl	%edx, 4(%rax)
	.loc 10 157 17
	movq	-72(%rbp), %rax
	movl	64(%rax), %eax
	.loc 10 157 13
	testl	%eax, %eax
	jne	.L458
	.loc 10 158 18
	movq	-72(%rbp), %rax
	leaq	16(%rax), %rdx
	movl	-56(%rbp), %eax
	cltq
	movq	%rax, %rsi
	movq	%rdx, %rdi
	call	_ZNSt6vectorIP6VertexIcESaIS2_EEixEm
	.loc 10 158 23
	movq	(%rax), %rax
	movl	8(%rax), %edx
	.loc 10 158 17
	subl	$1, %edx
	movl	%edx, 8(%rax)
.L458:
	.loc 10 159 19
	movq	-72(%rbp), %rax
	movl	12(%rax), %eax
	.loc 10 159 13
	leal	-1(%rax), %edx
	movq	-72(%rbp), %rax
	movl	%edx, 12(%rax)
.L456:
	.loc 10 152 5 discriminator 2
	addl	$1, -56(%rbp)
	jmp	.L459
.L455:
.LBE98:
	.loc 10 161 5
	movq	-72(%rbp), %rax
	leaq	40(%rax), %r12
	.loc 10 161 23
	movl	-76(%rbp), %eax
	movslq	%eax, %rbx
	movq	-72(%rbp), %rax
	addq	$40, %rax
	movq	%rax, %rdi
	call	_ZNSt6vectorIS_IP4EdgeIcESaIS2_EESaIS4_EE5beginEv
	movq	%rax, -48(%rbp)
	leaq	-48(%rbp), %rax
	movq	%rbx, %rsi
	movq	%rax, %rdi
	call	_ZNK9__gnu_cxx17__normal_iteratorIPSt6vectorIP4EdgeIcESaIS4_EES1_IS6_SaIS6_EEEplEl
	movq	%rax, -40(%rbp)
	.loc 10 161 5
	leaq	-40(%rbp), %rdx
	leaq	-32(%rbp), %rax
	movq	%rdx, %rsi
	movq	%rax, %rdi
	call	_ZN9__gnu_cxx17__normal_iteratorIPKSt6vectorIP4EdgeIcESaIS4_EES1_IS6_SaIS6_EEEC1IPS6_EERKNS0_IT_NS_11__enable_ifIXsrSt10__are_sameISE_SD_E7__valueESA_E6__typeEEE
	movq	-32(%rbp), %rax
	movq	%rax, %rsi
	movq	%r12, %rdi
	call	_ZNSt6vectorIS_IP4EdgeIcESaIS2_EESaIS4_EE5eraseEN9__gnu_cxx17__normal_iteratorIPKS4_S6_EE
	.loc 10 162 11
	movq	-72(%rbp), %rax
	movl	8(%rax), %eax
	.loc 10 162 5
	leal	-1(%rax), %edx
	movq	-72(%rbp), %rax
	movl	%edx, 8(%rax)
.LBB99:
	.loc 10 163 14
	movl	$0, -52(%rbp)
.L464:
	.loc 10 163 31 discriminator 2
	movq	-72(%rbp), %rax
	movl	8(%rax), %eax
	.loc 10 163 23 discriminator 2
	cmpl	%eax, -52(%rbp)
	jge	.L460
	.loc 10 165 9
	movq	-72(%rbp), %rax
	movq	(%rax), %rax
	addq	$120, %rax
	movq	(%rax), %r8
	movl	-76(%rbp), %edx
	movl	-52(%rbp), %ecx
	movq	-72(%rbp), %rax
	movl	%ecx, %esi
	movq	%rax, %rdi
	call	*%r8
.LVL17:
	testb	%al, %al
	je	.L461
	.loc 10 167 21
	movq	-72(%rbp), %rax
	leaq	40(%rax), %rdx
	movl	-52(%rbp), %eax
	cltq
	movq	%rax, %rsi
	movq	%rdx, %rdi
	call	_ZNSt6vectorIS_IP4EdgeIcESaIS2_EESaIS4_EEixEm
	movq	%rax, %rdx
	.loc 10 167 24
	movl	-76(%rbp), %eax
	cltq
	movq	%rax, %rsi
	movq	%rdx, %rdi
	call	_ZNSt6vectorIP4EdgeIcESaIS2_EEixEm
	.loc 10 167 13
	movq	(%rax), %rax
	testq	%rax, %rax
	je	.L462
	.loc 10 167 13 is_stmt 0 discriminator 1
	movl	$12, %esi
	movq	%rax, %rdi
	call	_ZdlPvm@PLT
.L462:
	.loc 10 168 14 is_stmt 1
	movq	-72(%rbp), %rax
	leaq	16(%rax), %rdx
	movl	-52(%rbp), %eax
	cltq
	movq	%rax, %rsi
	movq	%rdx, %rdi
	call	_ZNSt6vectorIP6VertexIcESaIS2_EEixEm
	.loc 10 168 19
	movq	(%rax), %rax
	movl	8(%rax), %edx
	.loc 10 168 13
	subl	$1, %edx
	movl	%edx, 8(%rax)
	.loc 10 169 17
	movq	-72(%rbp), %rax
	movl	64(%rax), %eax
	.loc 10 169 13
	testl	%eax, %eax
	jne	.L463
	.loc 10 170 18
	movq	-72(%rbp), %rax
	leaq	16(%rax), %rdx
	movl	-52(%rbp), %eax
	cltq
	movq	%rax, %rsi
	movq	%rdx, %rdi
	call	_ZNSt6vectorIP6VertexIcESaIS2_EEixEm
	.loc 10 170 23
	movq	(%rax), %rax
	movl	4(%rax), %edx
	.loc 10 170 17
	subl	$1, %edx
	movl	%edx, 4(%rax)
.L463:
	.loc 10 171 19
	movq	-72(%rbp), %rax
	movl	12(%rax), %eax
	.loc 10 171 13
	leal	-1(%rax), %edx
	movq	-72(%rbp), %rax
	movl	%edx, 12(%rax)
.L461:
	.loc 10 173 10
	movq	-72(%rbp), %rax
	leaq	40(%rax), %rdx
	movl	-52(%rbp), %eax
	cltq
	movq	%rax, %rsi
	movq	%rdx, %rdi
	call	_ZNSt6vectorIS_IP4EdgeIcESaIS2_EESaIS4_EEixEm
	movq	%rax, %r12
	.loc 10 173 33
	movl	-76(%rbp), %eax
	movslq	%eax, %rbx
	.loc 10 173 21
	movq	-72(%rbp), %rax
	leaq	40(%rax), %rdx
	movl	-52(%rbp), %eax
	cltq
	movq	%rax, %rsi
	movq	%rdx, %rdi
	call	_ZNSt6vectorIS_IP4EdgeIcESaIS2_EESaIS4_EEixEm
	.loc 10 173 33
	movq	%rax, %rdi
	call	_ZNSt6vectorIP4EdgeIcESaIS2_EE5beginEv
	movq	%rax, -48(%rbp)
	leaq	-48(%rbp), %rax
	movq	%rbx, %rsi
	movq	%rax, %rdi
	call	_ZNK9__gnu_cxx17__normal_iteratorIPP4EdgeIcESt6vectorIS3_SaIS3_EEEplEl
	movq	%rax, -40(%rbp)
	.loc 10 173 9
	leaq	-40(%rbp), %rdx
	leaq	-32(%rbp), %rax
	movq	%rdx, %rsi
	movq	%rax, %rdi
	call	_ZN9__gnu_cxx17__normal_iteratorIPKP4EdgeIcESt6vectorIS3_SaIS3_EEEC1IPS3_EERKNS0_IT_NS_11__enable_ifIXsrSt10__are_sameISC_SB_E7__valueES8_E6__typeEEE
	movq	-32(%rbp), %rax
	movq	%rax, %rsi
	movq	%r12, %rdi
	call	_ZNSt6vectorIP4EdgeIcESaIS2_EE5eraseEN9__gnu_cxx17__normal_iteratorIPKS2_S4_EE
	.loc 10 163 5
	addl	$1, -52(%rbp)
	jmp	.L464
.L460:
.LBE99:
	.loc 10 175 8
	movq	-72(%rbp), %rax
	movq	(%rax), %rax
	addq	$32, %rax
	movq	(%rax), %rcx
	movl	-76(%rbp), %edx
	movq	-72(%rbp), %rax
	movl	%edx, %esi
	movq	%rax, %rdi
	call	*%rcx
.LVL18:
	movzbl	(%rax), %eax
	movb	%al, -57(%rbp)
	.loc 10 176 13
	movq	-72(%rbp), %rax
	leaq	16(%rax), %rdx
	movl	-76(%rbp), %eax
	cltq
	movq	%rax, %rsi
	movq	%rdx, %rdi
	call	_ZNSt6vectorIP6VertexIcESaIS2_EEixEm
	.loc 10 176 5
	movq	(%rax), %rax
	testq	%rax, %rax
	je	.L465
	.loc 10 176 5 is_stmt 0 discriminator 1
	movl	$32, %esi
	movq	%rax, %rdi
	call	_ZdlPvm@PLT
.L465:
	.loc 10 177 5 is_stmt 1
	movq	-72(%rbp), %rax
	leaq	16(%rax), %r12
	.loc 10 177 23
	movl	-76(%rbp), %eax
	movslq	%eax, %rbx
	movq	-72(%rbp), %rax
	addq	$16, %rax
	movq	%rax, %rdi
	call	_ZNSt6vectorIP6VertexIcESaIS2_EE5beginEv
	movq	%rax, -48(%rbp)
	leaq	-48(%rbp), %rax
	movq	%rbx, %rsi
	movq	%rax, %rdi
	call	_ZNK9__gnu_cxx17__normal_iteratorIPP6VertexIcESt6vectorIS3_SaIS3_EEEplEl
	movq	%rax, -40(%rbp)
	.loc 10 177 5
	leaq	-40(%rbp), %rdx
	leaq	-32(%rbp), %rax
	movq	%rdx, %rsi
	movq	%rax, %rdi
	call	_ZN9__gnu_cxx17__normal_iteratorIPKP6VertexIcESt6vectorIS3_SaIS3_EEEC1IPS3_EERKNS0_IT_NS_11__enable_ifIXsrSt10__are_sameISC_SB_E7__valueES8_E6__typeEEE
	movq	-32(%rbp), %rax
	movq	%rax, %rsi
	movq	%r12, %rdi
	call	_ZNSt6vectorIP6VertexIcESaIS2_EE5eraseEN9__gnu_cxx17__normal_iteratorIPKS2_S4_EE
	.loc 10 178 12
	movzbl	-57(%rbp), %eax
.L454:
	.loc 10 179 1
	movq	-24(%rbp), %rcx
	xorq	%fs:40, %rcx
	je	.L466
	call	__stack_chk_fail@PLT
.L466:
	addq	$64, %rsp
	popq	%rbx
	popq	%r12
	popq	%rbp
	.cfi_def_cfa 7, 8
	ret
	.cfi_endproc
.LFE3530:
	.size	_ZN11GraphMatrixIccE6removeEi, .-_ZN11GraphMatrixIccE6removeEi
	.section	.text._ZNSt6vectorIP4EdgeIcESaIS2_EE12emplace_backIJDnEEERS2_DpOT_,"axG",@progbits,_ZNSt6vectorIP4EdgeIcESaIS2_EE12emplace_backIJDnEEERS2_DpOT_,comdat
	.align 2
	.weak	_ZNSt6vectorIP4EdgeIcESaIS2_EE12emplace_backIJDnEEERS2_DpOT_
	.type	_ZNSt6vectorIP4EdgeIcESaIS2_EE12emplace_backIJDnEEERS2_DpOT_, @function
_ZNSt6vectorIP4EdgeIcESaIS2_EE12emplace_backIJDnEEERS2_DpOT_:
.LFB3531:
	.file 18 "/usr/include/c++/9/bits/vector.tcc"
	.loc 18 109 7
	.cfi_startproc
	endbr64
	pushq	%rbp
	.cfi_def_cfa_offset 16
	.cfi_offset 6, -16
	movq	%rsp, %rbp
	.cfi_def_cfa_register 6
	pushq	%rbx
	subq	$24, %rsp
	.cfi_offset 3, -24
	movq	%rdi, -24(%rbp)
	movq	%rsi, -32(%rbp)
	.loc 18 112 20
	movq	-24(%rbp), %rax
	movq	8(%rax), %rdx
	.loc 18 112 47
	movq	-24(%rbp), %rax
	movq	16(%rax), %rax
	.loc 18 112 2
	cmpq	%rax, %rdx
	je	.L468
	.loc 18 115 30
	movq	-32(%rbp), %rax
	movq	%rax, %rdi
	call	_ZSt7forwardIDnEOT_RNSt16remove_referenceIS0_E4typeE
	movq	%rax, %rdx
	movq	-24(%rbp), %rax
	movq	8(%rax), %rcx
	.loc 18 115 37
	movq	-24(%rbp), %rax
	.loc 18 115 30
	movq	%rcx, %rsi
	movq	%rax, %rdi
	call	_ZNSt16allocator_traitsISaIP4EdgeIcEEE9constructIS2_JDnEEEvRS3_PT_DpOT0_
	.loc 18 117 22
	movq	-24(%rbp), %rax
	movq	8(%rax), %rax
	.loc 18 117 6
	leaq	8(%rax), %rdx
	movq	-24(%rbp), %rax
	movq	%rdx, 8(%rax)
	jmp	.L469
.L468:
	.loc 18 121 4
	movq	-32(%rbp), %rax
	movq	%rax, %rdi
	call	_ZSt7forwardIDnEOT_RNSt16remove_referenceIS0_E4typeE
	movq	%rax, %rbx
	movq	-24(%rbp), %rax
	movq	%rax, %rdi
	call	_ZNSt6vectorIP4EdgeIcESaIS2_EE3endEv
	movq	%rax, %rcx
	movq	-24(%rbp), %rax
	movq	%rbx, %rdx
	movq	%rcx, %rsi
	movq	%rax, %rdi
	call	_ZNSt6vectorIP4EdgeIcESaIS2_EE17_M_realloc_insertIJDnEEEvN9__gnu_cxx17__normal_iteratorIPS2_S4_EEDpOT_
.L469:
	.loc 18 123 14
	movq	-24(%rbp), %rax
	movq	%rax, %rdi
	call	_ZNSt6vectorIP4EdgeIcESaIS2_EE4backEv
	.loc 18 125 7
	addq	$24, %rsp
	popq	%rbx
	popq	%rbp
	.cfi_def_cfa 7, 8
	ret
	.cfi_endproc
.LFE3531:
	.size	_ZNSt6vectorIP4EdgeIcESaIS2_EE12emplace_backIJDnEEERS2_DpOT_, .-_ZNSt6vectorIP4EdgeIcESaIS2_EE12emplace_backIJDnEEERS2_DpOT_
	.section	.text._ZNSt6vectorIS_IP4EdgeIcESaIS2_EESaIS4_EE12emplace_backIJS4_EEERS4_DpOT_,"axG",@progbits,_ZNSt6vectorIS_IP4EdgeIcESaIS2_EESaIS4_EE12emplace_backIJS4_EEERS4_DpOT_,comdat
	.align 2
	.weak	_ZNSt6vectorIS_IP4EdgeIcESaIS2_EESaIS4_EE12emplace_backIJS4_EEERS4_DpOT_
	.type	_ZNSt6vectorIS_IP4EdgeIcESaIS2_EESaIS4_EE12emplace_backIJS4_EEERS4_DpOT_, @function
_ZNSt6vectorIS_IP4EdgeIcESaIS2_EESaIS4_EE12emplace_backIJS4_EEERS4_DpOT_:
.LFB3532:
	.loc 18 109 7
	.cfi_startproc
	endbr64
	pushq	%rbp
	.cfi_def_cfa_offset 16
	.cfi_offset 6, -16
	movq	%rsp, %rbp
	.cfi_def_cfa_register 6
	pushq	%rbx
	subq	$24, %rsp
	.cfi_offset 3, -24
	movq	%rdi, -24(%rbp)
	movq	%rsi, -32(%rbp)
	.loc 18 112 20
	movq	-24(%rbp), %rax
	movq	8(%rax), %rdx
	.loc 18 112 47
	movq	-24(%rbp), %rax
	movq	16(%rax), %rax
	.loc 18 112 2
	cmpq	%rax, %rdx
	je	.L472
	.loc 18 115 30
	movq	-32(%rbp), %rax
	movq	%rax, %rdi
	call	_ZSt7forwardISt6vectorIP4EdgeIcESaIS3_EEEOT_RNSt16remove_referenceIS6_E4typeE
	movq	%rax, %rdx
	movq	-24(%rbp), %rax
	movq	8(%rax), %rcx
	.loc 18 115 37
	movq	-24(%rbp), %rax
	.loc 18 115 30
	movq	%rcx, %rsi
	movq	%rax, %rdi
	call	_ZNSt16allocator_traitsISaISt6vectorIP4EdgeIcESaIS3_EEEE9constructIS5_JS5_EEEvRS6_PT_DpOT0_
	.loc 18 117 22
	movq	-24(%rbp), %rax
	movq	8(%rax), %rax
	.loc 18 117 6
	leaq	24(%rax), %rdx
	movq	-24(%rbp), %rax
	movq	%rdx, 8(%rax)
	jmp	.L473
.L472:
	.loc 18 121 4
	movq	-32(%rbp), %rax
	movq	%rax, %rdi
	call	_ZSt7forwardISt6vectorIP4EdgeIcESaIS3_EEEOT_RNSt16remove_referenceIS6_E4typeE
	movq	%rax, %rbx
	movq	-24(%rbp), %rax
	movq	%rax, %rdi
	call	_ZNSt6vectorIS_IP4EdgeIcESaIS2_EESaIS4_EE3endEv
	movq	%rax, %rcx
	movq	-24(%rbp), %rax
	movq	%rbx, %rdx
	movq	%rcx, %rsi
	movq	%rax, %rdi
	call	_ZNSt6vectorIS_IP4EdgeIcESaIS2_EESaIS4_EE17_M_realloc_insertIJS4_EEEvN9__gnu_cxx17__normal_iteratorIPS4_S6_EEDpOT_
.L473:
	.loc 18 123 14
	movq	-24(%rbp), %rax
	movq	%rax, %rdi
	call	_ZNSt6vectorIS_IP4EdgeIcESaIS2_EESaIS4_EE4backEv
	.loc 18 125 7
	addq	$24, %rsp
	popq	%rbx
	popq	%rbp
	.cfi_def_cfa 7, 8
	ret
	.cfi_endproc
.LFE3532:
	.size	_ZNSt6vectorIS_IP4EdgeIcESaIS2_EESaIS4_EE12emplace_backIJS4_EEERS4_DpOT_, .-_ZNSt6vectorIS_IP4EdgeIcESaIS2_EESaIS4_EE12emplace_backIJS4_EEERS4_DpOT_
	.section	.text._ZNSt6vectorIP6VertexIcESaIS2_EE12emplace_backIJS2_EEERS2_DpOT_,"axG",@progbits,_ZNSt6vectorIP6VertexIcESaIS2_EE12emplace_backIJS2_EEERS2_DpOT_,comdat
	.align 2
	.weak	_ZNSt6vectorIP6VertexIcESaIS2_EE12emplace_backIJS2_EEERS2_DpOT_
	.type	_ZNSt6vectorIP6VertexIcESaIS2_EE12emplace_backIJS2_EEERS2_DpOT_, @function
_ZNSt6vectorIP6VertexIcESaIS2_EE12emplace_backIJS2_EEERS2_DpOT_:
.LFB3533:
	.loc 18 109 7
	.cfi_startproc
	endbr64
	pushq	%rbp
	.cfi_def_cfa_offset 16
	.cfi_offset 6, -16
	movq	%rsp, %rbp
	.cfi_def_cfa_register 6
	pushq	%rbx
	subq	$24, %rsp
	.cfi_offset 3, -24
	movq	%rdi, -24(%rbp)
	movq	%rsi, -32(%rbp)
	.loc 18 112 20
	movq	-24(%rbp), %rax
	movq	8(%rax), %rdx
	.loc 18 112 47
	movq	-24(%rbp), %rax
	movq	16(%rax), %rax
	.loc 18 112 2
	cmpq	%rax, %rdx
	je	.L476
	.loc 18 115 30
	movq	-32(%rbp), %rax
	movq	%rax, %rdi
	call	_ZSt7forwardIP6VertexIcEEOT_RNSt16remove_referenceIS3_E4typeE
	movq	%rax, %rdx
	movq	-24(%rbp), %rax
	movq	8(%rax), %rcx
	.loc 18 115 37
	movq	-24(%rbp), %rax
	.loc 18 115 30
	movq	%rcx, %rsi
	movq	%rax, %rdi
	call	_ZNSt16allocator_traitsISaIP6VertexIcEEE9constructIS2_JS2_EEEvRS3_PT_DpOT0_
	.loc 18 117 22
	movq	-24(%rbp), %rax
	movq	8(%rax), %rax
	.loc 18 117 6
	leaq	8(%rax), %rdx
	movq	-24(%rbp), %rax
	movq	%rdx, 8(%rax)
	jmp	.L477
.L476:
	.loc 18 121 4
	movq	-32(%rbp), %rax
	movq	%rax, %rdi
	call	_ZSt7forwardIP6VertexIcEEOT_RNSt16remove_referenceIS3_E4typeE
	movq	%rax, %rbx
	movq	-24(%rbp), %rax
	movq	%rax, %rdi
	call	_ZNSt6vectorIP6VertexIcESaIS2_EE3endEv
	movq	%rax, %rcx
	movq	-24(%rbp), %rax
	movq	%rbx, %rdx
	movq	%rcx, %rsi
	movq	%rax, %rdi
	call	_ZNSt6vectorIP6VertexIcESaIS2_EE17_M_realloc_insertIJS2_EEEvN9__gnu_cxx17__normal_iteratorIPS2_S4_EEDpOT_
.L477:
	.loc 18 123 14
	movq	-24(%rbp), %rax
	movq	%rax, %rdi
	call	_ZNSt6vectorIP6VertexIcESaIS2_EE4backEv
	.loc 18 125 7
	addq	$24, %rsp
	popq	%rbx
	popq	%rbp
	.cfi_def_cfa 7, 8
	ret
	.cfi_endproc
.LFE3533:
	.size	_ZNSt6vectorIP6VertexIcESaIS2_EE12emplace_backIJS2_EEERS2_DpOT_, .-_ZNSt6vectorIP6VertexIcESaIS2_EE12emplace_backIJS2_EEERS2_DpOT_
	.section	.text._ZNKSt6vectorIP6VertexIcESaIS2_EE4sizeEv,"axG",@progbits,_ZNKSt6vectorIP6VertexIcESaIS2_EE4sizeEv,comdat
	.align 2
	.weak	_ZNKSt6vectorIP6VertexIcESaIS2_EE4sizeEv
	.type	_ZNKSt6vectorIP6VertexIcESaIS2_EE4sizeEv, @function
_ZNKSt6vectorIP6VertexIcESaIS2_EE4sizeEv:
.LFB3534:
	.loc 12 915 7
	.cfi_startproc
	endbr64
	pushq	%rbp
	.cfi_def_cfa_offset 16
	.cfi_offset 6, -16
	movq	%rsp, %rbp
	.cfi_def_cfa_register 6
	movq	%rdi, -8(%rbp)
	.loc 12 916 40
	movq	-8(%rbp), %rax
	movq	8(%rax), %rdx
	.loc 12 916 66
	movq	-8(%rbp), %rax
	movq	(%rax), %rax
	.loc 12 916 50
	subq	%rax, %rdx
	movq	%rdx, %rax
	sarq	$3, %rax
	.loc 12 916 77
	popq	%rbp
	.cfi_def_cfa 7, 8
	ret
	.cfi_endproc
.LFE3534:
	.size	_ZNKSt6vectorIP6VertexIcESaIS2_EE4sizeEv, .-_ZNKSt6vectorIP6VertexIcESaIS2_EE4sizeEv
	.section	.text._ZNSt6vectorIS_IbSaIbEESaIS1_EEC2ERKS3_,"axG",@progbits,_ZNSt6vectorIS_IbSaIbEESaIS1_EEC5ERKS3_,comdat
	.align 2
	.weak	_ZNSt6vectorIS_IbSaIbEESaIS1_EEC2ERKS3_
	.type	_ZNSt6vectorIS_IbSaIbEESaIS1_EEC2ERKS3_, @function
_ZNSt6vectorIS_IbSaIbEESaIS1_EEC2ERKS3_:
.LFB3536:
	.loc 12 550 7
	.cfi_startproc
	.cfi_personality 0x9b,DW.ref.__gxx_personality_v0
	.cfi_lsda 0x1b,.LLSDA3536
	endbr64
	pushq	%rbp
	.cfi_def_cfa_offset 16
	.cfi_offset 6, -16
	movq	%rsp, %rbp
	.cfi_def_cfa_register 6
	pushq	%r13
	pushq	%r12
	pushq	%rbx
	subq	$40, %rsp
	.cfi_offset 13, -24
	.cfi_offset 12, -32
	.cfi_offset 3, -40
	movq	%rdi, -56(%rbp)
	movq	%rsi, -64(%rbp)
	.loc 12 550 7
	movq	%fs:40, %rax
	movq	%rax, -40(%rbp)
	xorl	%eax, %eax
.LBB100:
	.loc 12 552 61
	movq	-56(%rbp), %rbx
	.loc 12 552 34
	movq	-64(%rbp), %rax
	movq	%rax, %rdi
	call	_ZNKSt12_Vector_baseISt6vectorIbSaIbEESaIS2_EE19_M_get_Tp_allocatorEv
	movq	%rax, %rdx
	.loc 12 552 61
	leaq	-41(%rbp), %rax
	movq	%rdx, %rsi
	movq	%rax, %rdi
.LEHB90:
	call	_ZN9__gnu_cxx14__alloc_traitsISaISt6vectorIbSaIbEEES3_E17_S_select_on_copyERKS4_
.LEHE90:
	movq	-64(%rbp), %rax
	movq	%rax, %rdi
	call	_ZNKSt6vectorIS_IbSaIbEESaIS1_EE4sizeEv
	movq	%rax, %rcx
	leaq	-41(%rbp), %rax
	movq	%rax, %rdx
	movq	%rcx, %rsi
	movq	%rbx, %rdi
.LEHB91:
	call	_ZNSt12_Vector_baseISt6vectorIbSaIbEESaIS2_EEC2EmRKS3_
.LEHE91:
	.loc 12 552 61 is_stmt 0 discriminator 2
	leaq	-41(%rbp), %rax
	movq	%rax, %rdi
	call	_ZNSaISt6vectorIbSaIbEEED1Ev
	.loc 12 557 30 is_stmt 1 discriminator 2
	movq	-56(%rbp), %rax
	movq	%rax, %rdi
	call	_ZNSt12_Vector_baseISt6vectorIbSaIbEESaIS2_EE19_M_get_Tp_allocatorEv
	movq	%rax, %r13
	.loc 12 555 31 discriminator 2
	movq	-56(%rbp), %rax
	movq	(%rax), %rbx
	movq	-64(%rbp), %rax
	movq	%rax, %rdi
	call	_ZNKSt6vectorIS_IbSaIbEESaIS1_EE3endEv
	movq	%rax, %r12
	movq	-64(%rbp), %rax
	movq	%rax, %rdi
	call	_ZNKSt6vectorIS_IbSaIbEESaIS1_EE5beginEv
	movq	%r13, %rcx
	movq	%rbx, %rdx
	movq	%r12, %rsi
	movq	%rax, %rdi
.LEHB92:
	call	_ZSt22__uninitialized_copy_aIN9__gnu_cxx17__normal_iteratorIPKSt6vectorIbSaIbEES2_IS4_SaIS4_EEEEPS4_S4_ET0_T_SC_SB_RSaIT1_E
.LEHE92:
	.loc 12 554 2 discriminator 2
	movq	-56(%rbp), %rdx
	movq	%rax, 8(%rdx)
.LBE100:
	.loc 12 558 7 discriminator 2
	nop
	movq	-40(%rbp), %rax
	xorq	%fs:40, %rax
	je	.L484
	jmp	.L487
.L485:
	endbr64
	movq	%rax, %rbx
.LBB101:
	.loc 12 552 61
	leaq	-41(%rbp), %rax
	movq	%rax, %rdi
	call	_ZNSaISt6vectorIbSaIbEEED1Ev
	movq	%rbx, %rax
	movq	%rax, %rdi
.LEHB93:
	call	_Unwind_Resume@PLT
.L486:
	endbr64
	movq	%rax, %rbx
	movq	-56(%rbp), %rax
	movq	%rax, %rdi
	call	_ZNSt12_Vector_baseISt6vectorIbSaIbEESaIS2_EED2Ev
	movq	%rbx, %rax
	movq	%rax, %rdi
	call	_Unwind_Resume@PLT
.LEHE93:
.L487:
.LBE101:
	.loc 12 558 7
	call	__stack_chk_fail@PLT
.L484:
	addq	$40, %rsp
	popq	%rbx
	popq	%r12
	popq	%r13
	popq	%rbp
	.cfi_def_cfa 7, 8
	ret
	.cfi_endproc
.LFE3536:
	.section	.gcc_except_table
.LLSDA3536:
	.byte	0xff
	.byte	0xff
	.byte	0x1
	.uleb128 .LLSDACSE3536-.LLSDACSB3536
.LLSDACSB3536:
	.uleb128 .LEHB90-.LFB3536
	.uleb128 .LEHE90-.LEHB90
	.uleb128 0
	.uleb128 0
	.uleb128 .LEHB91-.LFB3536
	.uleb128 .LEHE91-.LEHB91
	.uleb128 .L485-.LFB3536
	.uleb128 0
	.uleb128 .LEHB92-.LFB3536
	.uleb128 .LEHE92-.LEHB92
	.uleb128 .L486-.LFB3536
	.uleb128 0
	.uleb128 .LEHB93-.LFB3536
	.uleb128 .LEHE93-.LEHB93
	.uleb128 0
	.uleb128 0
.LLSDACSE3536:
	.section	.text._ZNSt6vectorIS_IbSaIbEESaIS1_EEC2ERKS3_,"axG",@progbits,_ZNSt6vectorIS_IbSaIbEESaIS1_EEC5ERKS3_,comdat
	.size	_ZNSt6vectorIS_IbSaIbEESaIS1_EEC2ERKS3_, .-_ZNSt6vectorIS_IbSaIbEESaIS1_EEC2ERKS3_
	.weak	_ZNSt6vectorIS_IbSaIbEESaIS1_EEC1ERKS3_
	.set	_ZNSt6vectorIS_IbSaIbEESaIS1_EEC1ERKS3_,_ZNSt6vectorIS_IbSaIbEESaIS1_EEC2ERKS3_
	.section	.text._ZN6MatrixIbEC2Em,"axG",@progbits,_ZN6MatrixIbEC5Em,comdat
	.align 2
	.weak	_ZN6MatrixIbEC2Em
	.type	_ZN6MatrixIbEC2Em, @function
_ZN6MatrixIbEC2Em:
.LFB3539:
	.loc 8 39 5
	.cfi_startproc
	.cfi_personality 0x9b,DW.ref.__gxx_personality_v0
	.cfi_lsda 0x1b,.LLSDA3539
	endbr64
	pushq	%rbp
	.cfi_def_cfa_offset 16
	.cfi_offset 6, -16
	movq	%rsp, %rbp
	.cfi_def_cfa_register 6
	pushq	%rbx
	subq	$88, %rsp
	.cfi_offset 3, -24
	movq	%rdi, -88(%rbp)
	movq	%rsi, -96(%rbp)
	.loc 8 39 5
	movq	%fs:40, %rax
	movq	%rax, -24(%rbp)
	xorl	%eax, %eax
.LBB102:
	.loc 8 39 65
	movq	-88(%rbp), %rbx
	leaq	-73(%rbp), %rax
	movq	%rax, %rdi
	call	_ZNSaISt6vectorIbSaIbEEEC1Ev
	leaq	-74(%rbp), %rax
	movq	%rax, %rdi
	call	_ZNSaIbEC1Ev
	movb	$0, -75(%rbp)
	leaq	-74(%rbp), %rcx
	leaq	-75(%rbp), %rdx
	movq	-96(%rbp), %rsi
	leaq	-64(%rbp), %rax
	movq	%rax, %rdi
.LEHB94:
	call	_ZNSt6vectorIbSaIbEEC1EmRKbRKS0_
.LEHE94:
	.loc 8 39 65 is_stmt 0 discriminator 2
	leaq	-73(%rbp), %rcx
	leaq	-64(%rbp), %rdx
	movq	-96(%rbp), %rax
	movq	%rax, %rsi
	movq	%rbx, %rdi
.LEHB95:
	call	_ZNSt6vectorIS_IbSaIbEESaIS1_EEC1EmRKS1_RKS2_
.LEHE95:
	.loc 8 39 65 discriminator 4
	leaq	-64(%rbp), %rax
	movq	%rax, %rdi
	call	_ZNSt6vectorIbSaIbEED1Ev
	leaq	-74(%rbp), %rax
	movq	%rax, %rdi
	call	_ZNSaIbED1Ev
	leaq	-73(%rbp), %rax
	movq	%rax, %rdi
	call	_ZNSaISt6vectorIbSaIbEEED1Ev
	movq	-88(%rbp), %rax
	movq	-96(%rbp), %rdx
	movq	%rdx, 24(%rax)
	movq	-88(%rbp), %rax
	movq	-96(%rbp), %rdx
	movq	%rdx, 32(%rax)
.LBB103:
.LBB104:
	.loc 8 41 18 is_stmt 1 discriminator 4
	movl	$0, -72(%rbp)
.L492:
	.loc 8 41 25 discriminator 1
	movl	-72(%rbp), %eax
	cltq
	.loc 8 41 27 discriminator 1
	cmpq	%rax, -96(%rbp)
	jbe	.L498
.LBB105:
.LBB106:
	.loc 8 42 22
	movl	$0, -68(%rbp)
.L491:
	.loc 8 42 29 discriminator 3
	movl	-68(%rbp), %eax
	cltq
	.loc 8 42 31 discriminator 3
	cmpq	%rax, -96(%rbp)
	jbe	.L490
	.loc 8 43 30 discriminator 2
	movl	-72(%rbp), %eax
	cmpl	-68(%rbp), %eax
	sete	%al
	movzbl	%al, %ebx
	.loc 8 43 23 discriminator 2
	movq	-88(%rbp), %rax
	movl	-72(%rbp), %edx
	movslq	%edx, %rdx
	movq	%rdx, %rsi
	movq	%rax, %rdi
	call	_ZNSt6vectorIS_IbSaIbEESaIS1_EEixEm
	movq	%rax, %rdx
	.loc 8 43 26 discriminator 2
	movl	-68(%rbp), %eax
	cltq
	movq	%rax, %rsi
	movq	%rdx, %rdi
	call	_ZNSt6vectorIbSaIbEEixEm
	movq	%rax, -64(%rbp)
	movq	%rdx, -56(%rbp)
	.loc 8 43 30 discriminator 2
	leaq	-64(%rbp), %rax
	movl	%ebx, %esi
	movq	%rax, %rdi
	call	_ZNSt14_Bit_referenceaSEb
	.loc 8 42 13 discriminator 2
	addl	$1, -68(%rbp)
	jmp	.L491
.L490:
.LBE106:
.LBE105:
	.loc 8 41 9 discriminator 2
	addl	$1, -72(%rbp)
	jmp	.L492
.L497:
	endbr64
	movq	%rax, %rbx
.LBE104:
.LBE103:
	.loc 8 39 65
	leaq	-64(%rbp), %rax
	movq	%rax, %rdi
	call	_ZNSt6vectorIbSaIbEED1Ev
	jmp	.L494
.L496:
	endbr64
	movq	%rax, %rbx
.L494:
	.loc 8 39 65 is_stmt 0 discriminator 1
	leaq	-74(%rbp), %rax
	movq	%rax, %rdi
	call	_ZNSaIbED1Ev
	leaq	-73(%rbp), %rax
	movq	%rax, %rdi
	call	_ZNSaISt6vectorIbSaIbEEED1Ev
	movq	%rbx, %rax
	movq	%rax, %rdi
.LEHB96:
	call	_Unwind_Resume@PLT
.LEHE96:
.L498:
.LBE102:
	.loc 8 44 5 is_stmt 1
	nop
	movq	-24(%rbp), %rax
	xorq	%fs:40, %rax
	je	.L495
	call	__stack_chk_fail@PLT
.L495:
	addq	$88, %rsp
	popq	%rbx
	popq	%rbp
	.cfi_def_cfa 7, 8
	ret
	.cfi_endproc
.LFE3539:
	.section	.gcc_except_table
.LLSDA3539:
	.byte	0xff
	.byte	0xff
	.byte	0x1
	.uleb128 .LLSDACSE3539-.LLSDACSB3539
.LLSDACSB3539:
	.uleb128 .LEHB94-.LFB3539
	.uleb128 .LEHE94-.LEHB94
	.uleb128 .L496-.LFB3539
	.uleb128 0
	.uleb128 .LEHB95-.LFB3539
	.uleb128 .LEHE95-.LEHB95
	.uleb128 .L497-.LFB3539
	.uleb128 0
	.uleb128 .LEHB96-.LFB3539
	.uleb128 .LEHE96-.LEHB96
	.uleb128 0
	.uleb128 0
.LLSDACSE3539:
	.section	.text._ZN6MatrixIbEC2Em,"axG",@progbits,_ZN6MatrixIbEC5Em,comdat
	.size	_ZN6MatrixIbEC2Em, .-_ZN6MatrixIbEC2Em
	.weak	_ZN6MatrixIbEC1Em
	.set	_ZN6MatrixIbEC1Em,_ZN6MatrixIbEC2Em
	.section	.text._ZN6MatrixIbEaSEOS0_,"axG",@progbits,_ZN6MatrixIbEaSEOS0_,comdat
	.align 2
	.weak	_ZN6MatrixIbEaSEOS0_
	.type	_ZN6MatrixIbEaSEOS0_, @function
_ZN6MatrixIbEaSEOS0_:
.LFB3545:
	.loc 8 16 8
	.cfi_startproc
	endbr64
	pushq	%rbp
	.cfi_def_cfa_offset 16
	.cfi_offset 6, -16
	movq	%rsp, %rbp
	.cfi_def_cfa_register 6
	subq	$16, %rsp
	movq	%rdi, -8(%rbp)
	movq	%rsi, -16(%rbp)
	.loc 8 16 8
	movq	-16(%rbp), %rdx
	movq	-8(%rbp), %rax
	movq	%rdx, %rsi
	movq	%rax, %rdi
	call	_ZNSt6vectorIS_IbSaIbEESaIS1_EEaSEOS3_
	movq	-16(%rbp), %rax
	movq	24(%rax), %rdx
	movq	-8(%rbp), %rax
	movq	%rdx, 24(%rax)
	movq	-16(%rbp), %rax
	movq	32(%rax), %rdx
	movq	-8(%rbp), %rax
	movq	%rdx, 32(%rax)
	movq	-8(%rbp), %rax
	leave
	.cfi_def_cfa 7, 8
	ret
	.cfi_endproc
.LFE3545:
	.size	_ZN6MatrixIbEaSEOS0_, .-_ZN6MatrixIbEaSEOS0_
	.section	.text._ZN6MatrixIbEmLERKS0_,"axG",@progbits,_ZN6MatrixIbEmLERKS0_,comdat
	.align 2
	.weak	_ZN6MatrixIbEmLERKS0_
	.type	_ZN6MatrixIbEmLERKS0_, @function
_ZN6MatrixIbEmLERKS0_:
.LFB3541:
	.loc 8 110 11
	.cfi_startproc
	.cfi_personality 0x9b,DW.ref.__gxx_personality_v0
	.cfi_lsda 0x1b,.LLSDA3541
	endbr64
	pushq	%rbp
	.cfi_def_cfa_offset 16
	.cfi_offset 6, -16
	movq	%rsp, %rbp
	.cfi_def_cfa_register 6
	pushq	%rbx
	subq	$88, %rsp
	.cfi_offset 3, -24
	movq	%rdi, -72(%rbp)
	movq	%rsi, -80(%rbp)
	movq	%rdx, -88(%rbp)
	.loc 8 110 11
	movq	%fs:40, %rax
	movq	%rax, -24(%rbp)
	xorl	%eax, %eax
	.loc 8 112 18
	leaq	-64(%rbp), %rax
	movq	-88(%rbp), %rdx
	movq	-80(%rbp), %rcx
	movq	%rcx, %rsi
	movq	%rax, %rdi
.LEHB97:
	call	_ZN6MatrixIbEmlERKS0_
.LEHE97:
	leaq	-64(%rbp), %rdx
	movq	-80(%rbp), %rax
	movq	%rdx, %rsi
	movq	%rax, %rdi
	call	_ZN6MatrixIbEaSEOS0_
	movq	%rax, %rdx
	.loc 8 112 28
	movq	-72(%rbp), %rax
	movq	%rdx, %rsi
	movq	%rax, %rdi
.LEHB98:
	call	_ZN6MatrixIbEC1ERKS0_
.LEHE98:
	nop
	.loc 8 112 18
	leaq	-64(%rbp), %rax
	movq	%rax, %rdi
	call	_ZN6MatrixIbED1Ev
	.loc 8 112 28
	nop
	.loc 8 113 1
	movq	-24(%rbp), %rax
	xorq	%fs:40, %rax
	je	.L504
	jmp	.L506
.L505:
	endbr64
	movq	%rax, %rbx
	.loc 8 112 18
	leaq	-64(%rbp), %rax
	movq	%rax, %rdi
	call	_ZN6MatrixIbED1Ev
	movq	%rbx, %rax
	movq	%rax, %rdi
.LEHB99:
	call	_Unwind_Resume@PLT
.LEHE99:
.L506:
	.loc 8 113 1
	call	__stack_chk_fail@PLT
.L504:
	movq	-72(%rbp), %rax
	addq	$88, %rsp
	popq	%rbx
	popq	%rbp
	.cfi_def_cfa 7, 8
	ret
	.cfi_endproc
.LFE3541:
	.section	.gcc_except_table
.LLSDA3541:
	.byte	0xff
	.byte	0xff
	.byte	0x1
	.uleb128 .LLSDACSE3541-.LLSDACSB3541
.LLSDACSB3541:
	.uleb128 .LEHB97-.LFB3541
	.uleb128 .LEHE97-.LEHB97
	.uleb128 0
	.uleb128 0
	.uleb128 .LEHB98-.LFB3541
	.uleb128 .LEHE98-.LEHB98
	.uleb128 .L505-.LFB3541
	.uleb128 0
	.uleb128 .LEHB99-.LFB3541
	.uleb128 .LEHE99-.LEHB99
	.uleb128 0
	.uleb128 0
.LLSDACSE3541:
	.section	.text._ZN6MatrixIbEmLERKS0_,"axG",@progbits,_ZN6MatrixIbEmLERKS0_,comdat
	.size	_ZN6MatrixIbEmLERKS0_, .-_ZN6MatrixIbEmLERKS0_
	.section	.rodata
.LC7:
	.string	"can not do & operation"
	.section	.text._ZN6MatrixIbEorERKS0_,"axG",@progbits,_ZN6MatrixIbEorERKS0_,comdat
	.align 2
	.weak	_ZN6MatrixIbEorERKS0_
	.type	_ZN6MatrixIbEorERKS0_, @function
_ZN6MatrixIbEorERKS0_:
.LFB3546:
	.loc 8 155 14
	.cfi_startproc
	endbr64
	pushq	%rbp
	.cfi_def_cfa_offset 16
	.cfi_offset 6, -16
	movq	%rsp, %rbp
	.cfi_def_cfa_register 6
	pushq	%rbx
	subq	$104, %rsp
	.cfi_offset 3, -24
	movq	%rdi, -88(%rbp)
	movq	%rsi, -96(%rbp)
	movq	%rdx, -104(%rbp)
	.loc 8 155 14
	movq	%fs:40, %rax
	movq	%rax, -24(%rbp)
	xorl	%eax, %eax
	.loc 8 157 9
	movq	-96(%rbp), %rax
	movq	24(%rax), %rdx
	.loc 8 157 18
	movq	-104(%rbp), %rax
	movq	24(%rax), %rax
	.loc 8 157 5
	cmpq	%rax, %rdx
	jne	.L508
	.loc 8 157 25 discriminator 1
	movq	-96(%rbp), %rax
	movq	32(%rax), %rdx
	.loc 8 157 34 discriminator 1
	movq	-104(%rbp), %rax
	movq	32(%rax), %rax
	.loc 8 157 22 discriminator 1
	cmpq	%rax, %rdx
	je	.L509
.L508:
	.loc 8 159 19
	leaq	.LC7(%rip), %rsi
	leaq	_ZSt4cerr(%rip), %rdi
	call	_ZStlsISt11char_traitsIcEERSt13basic_ostreamIcT_ES5_PKc@PLT
	movq	%rax, %rdx
	.loc 8 159 47
	movq	_ZSt4endlIcSt11char_traitsIcEERSt13basic_ostreamIT_T0_ES6_@GOTPCREL(%rip), %rax
	movq	%rax, %rsi
	movq	%rdx, %rdi
	call	_ZNSolsEPFRSoS_E@PLT
	.loc 8 160 13
	movl	$1, %edi
	call	exit@PLT
.L509:
	.loc 8 162 18
	movq	-96(%rbp), %rax
	movq	32(%rax), %rdx
	movq	-96(%rbp), %rax
	movq	24(%rax), %rcx
	movq	-88(%rbp), %rax
	movq	%rcx, %rsi
	movq	%rax, %rdi
	call	_ZN6MatrixIbEC1Emm
.LBB107:
	.loc 8 163 14
	movl	$0, -72(%rbp)
.L513:
	.loc 8 163 21 discriminator 1
	movl	-72(%rbp), %eax
	movslq	%eax, %rdx
	.loc 8 163 25 discriminator 1
	movq	-96(%rbp), %rax
	movq	24(%rax), %rax
	.loc 8 163 23 discriminator 1
	cmpq	%rax, %rdx
	jnb	.L516
.LBB108:
.LBB109:
	.loc 8 164 18
	movl	$0, -68(%rbp)
.L512:
	.loc 8 164 25 discriminator 3
	movl	-68(%rbp), %eax
	movslq	%eax, %rdx
	.loc 8 164 29 discriminator 3
	movq	-96(%rbp), %rax
	movq	32(%rax), %rax
	.loc 8 164 27 discriminator 3
	cmpq	%rax, %rdx
	jnb	.L511
	.loc 8 165 31 discriminator 2
	movq	-96(%rbp), %rax
	movl	-72(%rbp), %edx
	movslq	%edx, %rdx
	movq	%rdx, %rsi
	movq	%rax, %rdi
	call	_ZNSt6vectorIS_IbSaIbEESaIS1_EEixEm
	movq	%rax, %rdx
	.loc 8 165 34 discriminator 2
	movl	-68(%rbp), %eax
	cltq
	movq	%rax, %rsi
	movq	%rdx, %rdi
	call	_ZNSt6vectorIbSaIbEEixEm
	movq	%rax, -48(%rbp)
	movq	%rdx, -40(%rbp)
	.loc 8 165 38 discriminator 2
	leaq	-48(%rbp), %rax
	movq	%rax, %rdi
	call	_ZNKSt14_Bit_referencecvbEv
	movl	%eax, %ebx
	movq	-104(%rbp), %rax
	movl	-72(%rbp), %edx
	movslq	%edx, %rdx
	movq	%rdx, %rsi
	movq	%rax, %rdi
	call	_ZNKSt6vectorIS_IbSaIbEESaIS1_EEixEm
	movq	%rax, %rdx
	movl	-68(%rbp), %eax
	cltq
	movq	%rax, %rsi
	movq	%rdx, %rdi
	call	_ZNKSt6vectorIbSaIbEEixEm
	orl	%ebx, %eax
	.loc 8 165 23 discriminator 2
	movzbl	%al, %ebx
	movl	-72(%rbp), %eax
	movslq	%eax, %rdx
	movq	-88(%rbp), %rax
	movq	%rdx, %rsi
	movq	%rax, %rdi
	call	_ZN6MatrixIbEixEm
	movq	%rax, %rdx
	movl	-68(%rbp), %eax
	cltq
	movq	%rax, %rsi
	movq	%rdx, %rdi
	call	_ZNSt6vectorIbSaIbEEixEm
	movq	%rax, -64(%rbp)
	movq	%rdx, -56(%rbp)
	leaq	-64(%rbp), %rax
	movl	%ebx, %esi
	movq	%rax, %rdi
	call	_ZNSt14_Bit_referenceaSEb
	.loc 8 164 9 discriminator 2
	addl	$1, -68(%rbp)
	jmp	.L512
.L511:
.LBE109:
.LBE108:
	.loc 8 163 5 discriminator 2
	addl	$1, -72(%rbp)
	jmp	.L513
.L516:
.LBE107:
	.loc 8 166 12
	nop
	.loc 8 167 1
	movq	-24(%rbp), %rax
	xorq	%fs:40, %rax
	je	.L515
	call	__stack_chk_fail@PLT
.L515:
	movq	-88(%rbp), %rax
	addq	$104, %rsp
	popq	%rbx
	popq	%rbp
	.cfi_def_cfa 7, 8
	ret
	.cfi_endproc
.LFE3546:
	.size	_ZN6MatrixIbEorERKS0_, .-_ZN6MatrixIbEorERKS0_
	.section	.text._ZN6MatrixIiEixEm,"axG",@progbits,_ZN6MatrixIiEixEm,comdat
	.align 2
	.weak	_ZN6MatrixIiEixEm
	.type	_ZN6MatrixIiEixEm, @function
_ZN6MatrixIiEixEm:
.LFB3547:
	.loc 8 83 12
	.cfi_startproc
	endbr64
	pushq	%rbp
	.cfi_def_cfa_offset 16
	.cfi_offset 6, -16
	movq	%rsp, %rbp
	.cfi_def_cfa_register 6
	subq	$16, %rsp
	movq	%rdi, -8(%rbp)
	movq	%rsi, -16(%rbp)
	.loc 8 85 18
	movq	-8(%rbp), %rax
	movq	-16(%rbp), %rdx
	movq	%rdx, %rsi
	movq	%rax, %rdi
	call	_ZNSt6vectorIS_IiSaIiEESaIS1_EEixEm
	.loc 8 86 1
	leave
	.cfi_def_cfa 7, 8
	ret
	.cfi_endproc
.LFE3547:
	.size	_ZN6MatrixIiEixEm, .-_ZN6MatrixIiEixEm
	.section	.text._ZNSt6vectorIiSaIiEEixEm,"axG",@progbits,_ZNSt6vectorIiSaIiEEixEm,comdat
	.align 2
	.weak	_ZNSt6vectorIiSaIiEEixEm
	.type	_ZNSt6vectorIiSaIiEEixEm, @function
_ZNSt6vectorIiSaIiEEixEm:
.LFB3548:
	.loc 12 1040 7
	.cfi_startproc
	endbr64
	pushq	%rbp
	.cfi_def_cfa_offset 16
	.cfi_offset 6, -16
	movq	%rsp, %rbp
	.cfi_def_cfa_register 6
	movq	%rdi, -8(%rbp)
	movq	%rsi, -16(%rbp)
	.loc 12 1043 25
	movq	-8(%rbp), %rax
	movq	(%rax), %rax
	.loc 12 1043 34
	movq	-16(%rbp), %rdx
	salq	$2, %rdx
	.loc 12 1043 39
	addq	%rdx, %rax
	.loc 12 1044 7
	popq	%rbp
	.cfi_def_cfa 7, 8
	ret
	.cfi_endproc
.LFE3548:
	.size	_ZNSt6vectorIiSaIiEEixEm, .-_ZNSt6vectorIiSaIiEEixEm
	.section	.text._ZN6MatrixIiEC2Emm,"axG",@progbits,_ZN6MatrixIiEC5Emm,comdat
	.align 2
	.weak	_ZN6MatrixIiEC2Emm
	.type	_ZN6MatrixIiEC2Emm, @function
_ZN6MatrixIiEC2Emm:
.LFB3550:
	.loc 8 33 5
	.cfi_startproc
	.cfi_personality 0x9b,DW.ref.__gxx_personality_v0
	.cfi_lsda 0x1b,.LLSDA3550
	endbr64
	pushq	%rbp
	.cfi_def_cfa_offset 16
	.cfi_offset 6, -16
	movq	%rsp, %rbp
	.cfi_def_cfa_register 6
	pushq	%rbx
	subq	$88, %rsp
	.cfi_offset 3, -24
	movq	%rdi, -72(%rbp)
	movq	%rsi, -80(%rbp)
	movq	%rdx, -88(%rbp)
	.loc 8 33 5
	movq	%fs:40, %rax
	movq	%rax, -24(%rbp)
	xorl	%eax, %eax
.LBB110:
	.loc 8 33 93
	movq	-72(%rbp), %rbx
	leaq	-53(%rbp), %rax
	movq	%rax, %rdi
	call	_ZNSaISt6vectorIiSaIiEEEC1Ev
	leaq	-54(%rbp), %rax
	movq	%rax, %rdi
	call	_ZNSaIiEC1Ev
	.loc 8 33 91
	movl	$0, -52(%rbp)
	.loc 8 33 93
	leaq	-54(%rbp), %rcx
	leaq	-52(%rbp), %rdx
	movq	-88(%rbp), %rsi
	leaq	-48(%rbp), %rax
	movq	%rax, %rdi
.LEHB100:
	call	_ZNSt6vectorIiSaIiEEC1EmRKiRKS0_
.LEHE100:
	.loc 8 33 93 is_stmt 0 discriminator 2
	leaq	-53(%rbp), %rcx
	leaq	-48(%rbp), %rdx
	movq	-80(%rbp), %rax
	movq	%rax, %rsi
	movq	%rbx, %rdi
.LEHB101:
	call	_ZNSt6vectorIS_IiSaIiEESaIS1_EEC1EmRKS1_RKS2_
.LEHE101:
	.loc 8 33 93 discriminator 4
	leaq	-48(%rbp), %rax
	movq	%rax, %rdi
	call	_ZNSt6vectorIiSaIiEED1Ev
	leaq	-54(%rbp), %rax
	movq	%rax, %rdi
	call	_ZNSaIiED1Ev
	leaq	-53(%rbp), %rax
	movq	%rax, %rdi
	call	_ZNSaISt6vectorIiSaIiEEED1Ev
	movq	-72(%rbp), %rax
	movq	-80(%rbp), %rdx
	movq	%rdx, 24(%rax)
	movq	-72(%rbp), %rax
	movq	-88(%rbp), %rdx
	movq	%rdx, 32(%rax)
.LBE110:
	.loc 8 33 96 is_stmt 1 discriminator 4
	nop
	movq	-24(%rbp), %rax
	xorq	%fs:40, %rax
	je	.L524
	jmp	.L527
.L526:
	endbr64
	movq	%rax, %rbx
.LBB111:
	.loc 8 33 93
	leaq	-48(%rbp), %rax
	movq	%rax, %rdi
	call	_ZNSt6vectorIiSaIiEED1Ev
	jmp	.L523
.L525:
	endbr64
	movq	%rax, %rbx
.L523:
	.loc 8 33 93 is_stmt 0 discriminator 1
	leaq	-54(%rbp), %rax
	movq	%rax, %rdi
	call	_ZNSaIiED1Ev
	leaq	-53(%rbp), %rax
	movq	%rax, %rdi
	call	_ZNSaISt6vectorIiSaIiEEED1Ev
	movq	%rbx, %rax
	movq	%rax, %rdi
.LEHB102:
	call	_Unwind_Resume@PLT
.LEHE102:
.L527:
.LBE111:
	.loc 8 33 96 is_stmt 1
	call	__stack_chk_fail@PLT
.L524:
	addq	$88, %rsp
	popq	%rbx
	popq	%rbp
	.cfi_def_cfa 7, 8
	ret
	.cfi_endproc
.LFE3550:
	.section	.gcc_except_table
.LLSDA3550:
	.byte	0xff
	.byte	0xff
	.byte	0x1
	.uleb128 .LLSDACSE3550-.LLSDACSB3550
.LLSDACSB3550:
	.uleb128 .LEHB100-.LFB3550
	.uleb128 .LEHE100-.LEHB100
	.uleb128 .L525-.LFB3550
	.uleb128 0
	.uleb128 .LEHB101-.LFB3550
	.uleb128 .LEHE101-.LEHB101
	.uleb128 .L526-.LFB3550
	.uleb128 0
	.uleb128 .LEHB102-.LFB3550
	.uleb128 .LEHE102-.LEHB102
	.uleb128 0
	.uleb128 0
.LLSDACSE3550:
	.section	.text._ZN6MatrixIiEC2Emm,"axG",@progbits,_ZN6MatrixIiEC5Emm,comdat
	.size	_ZN6MatrixIiEC2Emm, .-_ZN6MatrixIiEC2Emm
	.weak	_ZN6MatrixIiEC1Emm
	.set	_ZN6MatrixIiEC1Emm,_ZN6MatrixIiEC2Emm
	.section	.text._ZNSt12_Vector_baseISt6vectorIiSaIiEESaIS2_EE12_Vector_implC2EOS5_,"axG",@progbits,_ZNSt12_Vector_baseISt6vectorIiSaIiEESaIS2_EE12_Vector_implC5EOS5_,comdat
	.align 2
	.weak	_ZNSt12_Vector_baseISt6vectorIiSaIiEESaIS2_EE12_Vector_implC2EOS5_
	.type	_ZNSt12_Vector_baseISt6vectorIiSaIiEESaIS2_EE12_Vector_implC2EOS5_, @function
_ZNSt12_Vector_baseISt6vectorIiSaIiEESaIS2_EE12_Vector_implC2EOS5_:
.LFB3553:
	.loc 12 140 2
	.cfi_startproc
	endbr64
	pushq	%rbp
	.cfi_def_cfa_offset 16
	.cfi_offset 6, -16
	movq	%rsp, %rbp
	.cfi_def_cfa_register 6
	pushq	%rbx
	subq	$24, %rsp
	.cfi_offset 3, -24
	movq	%rdi, -24(%rbp)
	movq	%rsi, -32(%rbp)
.LBB112:
	.loc 12 141 28
	movq	-32(%rbp), %rax
	movq	%rax, %rdi
	call	_ZSt4moveIRNSt12_Vector_baseISt6vectorIiSaIiEESaIS3_EE12_Vector_implEEONSt16remove_referenceIT_E4typeEOS9_
	movq	%rax, %rdx
	.loc 12 141 68
	movq	-24(%rbp), %rax
	movq	%rdx, %rsi
	movq	%rax, %rdi
	call	_ZNSaISt6vectorIiSaIiEEEC2ERKS2_
	movq	-24(%rbp), %rbx
	.loc 12 141 63
	movq	-32(%rbp), %rax
	movq	%rax, %rdi
	call	_ZSt4moveIRNSt12_Vector_baseISt6vectorIiSaIiEESaIS3_EE12_Vector_implEEONSt16remove_referenceIT_E4typeEOS9_
	.loc 12 141 68
	movq	%rax, %rsi
	movq	%rbx, %rdi
	call	_ZNSt12_Vector_baseISt6vectorIiSaIiEESaIS2_EE17_Vector_impl_dataC2EOS5_
.LBE112:
	.loc 12 142 4
	nop
	addq	$24, %rsp
	popq	%rbx
	popq	%rbp
	.cfi_def_cfa 7, 8
	ret
	.cfi_endproc
.LFE3553:
	.size	_ZNSt12_Vector_baseISt6vectorIiSaIiEESaIS2_EE12_Vector_implC2EOS5_, .-_ZNSt12_Vector_baseISt6vectorIiSaIiEESaIS2_EE12_Vector_implC2EOS5_
	.weak	_ZNSt12_Vector_baseISt6vectorIiSaIiEESaIS2_EE12_Vector_implC1EOS5_
	.set	_ZNSt12_Vector_baseISt6vectorIiSaIiEESaIS2_EE12_Vector_implC1EOS5_,_ZNSt12_Vector_baseISt6vectorIiSaIiEESaIS2_EE12_Vector_implC2EOS5_
	.section	.text._ZNSaISt6vectorIiSaIiEEED2Ev,"axG",@progbits,_ZNSaISt6vectorIiSaIiEEED5Ev,comdat
	.align 2
	.weak	_ZNSaISt6vectorIiSaIiEEED2Ev
	.type	_ZNSaISt6vectorIiSaIiEEED2Ev, @function
_ZNSaISt6vectorIiSaIiEEED2Ev:
.LFB3556:
	.loc 16 153 7
	.cfi_startproc
	endbr64
	pushq	%rbp
	.cfi_def_cfa_offset 16
	.cfi_offset 6, -16
	movq	%rsp, %rbp
	.cfi_def_cfa_register 6
	subq	$16, %rsp
	movq	%rdi, -8(%rbp)
.LBB113:
	.loc 16 153 31
	movq	-8(%rbp), %rax
	movq	%rax, %rdi
	call	_ZN9__gnu_cxx13new_allocatorISt6vectorIiSaIiEEED2Ev
.LBE113:
	nop
	leave
	.cfi_def_cfa 7, 8
	ret
	.cfi_endproc
.LFE3556:
	.size	_ZNSaISt6vectorIiSaIiEEED2Ev, .-_ZNSaISt6vectorIiSaIiEEED2Ev
	.weak	_ZNSaISt6vectorIiSaIiEEED1Ev
	.set	_ZNSaISt6vectorIiSaIiEEED1Ev,_ZNSaISt6vectorIiSaIiEEED2Ev
	.section	.text._ZNSt12_Vector_baseISt6vectorIiSaIiEESaIS2_EED2Ev,"axG",@progbits,_ZNSt12_Vector_baseISt6vectorIiSaIiEESaIS2_EED5Ev,comdat
	.align 2
	.weak	_ZNSt12_Vector_baseISt6vectorIiSaIiEESaIS2_EED2Ev
	.type	_ZNSt12_Vector_baseISt6vectorIiSaIiEESaIS2_EED2Ev, @function
_ZNSt12_Vector_baseISt6vectorIiSaIiEESaIS2_EED2Ev:
.LFB3559:
	.loc 12 330 7
	.cfi_startproc
	.cfi_personality 0x9b,DW.ref.__gxx_personality_v0
	.cfi_lsda 0x1b,.LLSDA3559
	endbr64
	pushq	%rbp
	.cfi_def_cfa_offset 16
	.cfi_offset 6, -16
	movq	%rsp, %rbp
	.cfi_def_cfa_register 6
	subq	$16, %rsp
	movq	%rdi, -8(%rbp)
.LBB114:
	.loc 12 333 17
	movq	-8(%rbp), %rax
	movq	16(%rax), %rdx
	.loc 12 333 45
	movq	-8(%rbp), %rax
	movq	(%rax), %rax
	.loc 12 333 35
	subq	%rax, %rdx
	movq	%rdx, %rax
	sarq	$3, %rax
	movq	%rax, %rdx
	movabsq	$-6148914691236517205, %rax
	imulq	%rdx, %rax
	.loc 12 332 2
	movq	%rax, %rdx
	movq	-8(%rbp), %rax
	movq	(%rax), %rcx
	movq	-8(%rbp), %rax
	movq	%rcx, %rsi
	movq	%rax, %rdi
	call	_ZNSt12_Vector_baseISt6vectorIiSaIiEESaIS2_EE13_M_deallocateEPS2_m
	.loc 12 334 7
	movq	-8(%rbp), %rax
	movq	%rax, %rdi
	call	_ZNSt12_Vector_baseISt6vectorIiSaIiEESaIS2_EE12_Vector_implD1Ev
.LBE114:
	nop
	leave
	.cfi_def_cfa 7, 8
	ret
	.cfi_endproc
.LFE3559:
	.section	.gcc_except_table
.LLSDA3559:
	.byte	0xff
	.byte	0xff
	.byte	0x1
	.uleb128 .LLSDACSE3559-.LLSDACSB3559
.LLSDACSB3559:
.LLSDACSE3559:
	.section	.text._ZNSt12_Vector_baseISt6vectorIiSaIiEESaIS2_EED2Ev,"axG",@progbits,_ZNSt12_Vector_baseISt6vectorIiSaIiEESaIS2_EED5Ev,comdat
	.size	_ZNSt12_Vector_baseISt6vectorIiSaIiEESaIS2_EED2Ev, .-_ZNSt12_Vector_baseISt6vectorIiSaIiEESaIS2_EED2Ev
	.weak	_ZNSt12_Vector_baseISt6vectorIiSaIiEESaIS2_EED1Ev
	.set	_ZNSt12_Vector_baseISt6vectorIiSaIiEESaIS2_EED1Ev,_ZNSt12_Vector_baseISt6vectorIiSaIiEESaIS2_EED2Ev
	.section	.text._ZNSt12_Vector_baseISt6vectorIiSaIiEESaIS2_EE19_M_get_Tp_allocatorEv,"axG",@progbits,_ZNSt12_Vector_baseISt6vectorIiSaIiEESaIS2_EE19_M_get_Tp_allocatorEv,comdat
	.align 2
	.weak	_ZNSt12_Vector_baseISt6vectorIiSaIiEESaIS2_EE19_M_get_Tp_allocatorEv
	.type	_ZNSt12_Vector_baseISt6vectorIiSaIiEESaIS2_EE19_M_get_Tp_allocatorEv, @function
_ZNSt12_Vector_baseISt6vectorIiSaIiEESaIS2_EE19_M_get_Tp_allocatorEv:
.LFB3561:
	.loc 12 273 7
	.cfi_startproc
	endbr64
	pushq	%rbp
	.cfi_def_cfa_offset 16
	.cfi_offset 6, -16
	movq	%rsp, %rbp
	.cfi_def_cfa_register 6
	movq	%rdi, -8(%rbp)
	.loc 12 274 22
	movq	-8(%rbp), %rax
	.loc 12 274 31
	popq	%rbp
	.cfi_def_cfa 7, 8
	ret
	.cfi_endproc
.LFE3561:
	.size	_ZNSt12_Vector_baseISt6vectorIiSaIiEESaIS2_EE19_M_get_Tp_allocatorEv, .-_ZNSt12_Vector_baseISt6vectorIiSaIiEESaIS2_EE19_M_get_Tp_allocatorEv
	.section	.text._ZSt8_DestroyIPSt6vectorIiSaIiEES2_EvT_S4_RSaIT0_E,"axG",@progbits,_ZSt8_DestroyIPSt6vectorIiSaIiEES2_EvT_S4_RSaIT0_E,comdat
	.weak	_ZSt8_DestroyIPSt6vectorIiSaIiEES2_EvT_S4_RSaIT0_E
	.type	_ZSt8_DestroyIPSt6vectorIiSaIiEES2_EvT_S4_RSaIT0_E, @function
_ZSt8_DestroyIPSt6vectorIiSaIiEES2_EvT_S4_RSaIT0_E:
.LFB3562:
	.loc 15 203 5
	.cfi_startproc
	endbr64
	pushq	%rbp
	.cfi_def_cfa_offset 16
	.cfi_offset 6, -16
	movq	%rsp, %rbp
	.cfi_def_cfa_register 6
	subq	$32, %rsp
	movq	%rdi, -8(%rbp)
	movq	%rsi, -16(%rbp)
	movq	%rdx, -24(%rbp)
	.loc 15 206 15
	movq	-16(%rbp), %rdx
	movq	-8(%rbp), %rax
	movq	%rdx, %rsi
	movq	%rax, %rdi
	call	_ZSt8_DestroyIPSt6vectorIiSaIiEEEvT_S4_
	.loc 15 207 5
	nop
	leave
	.cfi_def_cfa 7, 8
	ret
	.cfi_endproc
.LFE3562:
	.size	_ZSt8_DestroyIPSt6vectorIiSaIiEES2_EvT_S4_RSaIT0_E, .-_ZSt8_DestroyIPSt6vectorIiSaIiEES2_EvT_S4_RSaIT0_E
	.section	.text._ZNSt6vectorIS_IiSaIiEESaIS1_EEC2ERKS3_,"axG",@progbits,_ZNSt6vectorIS_IiSaIiEESaIS1_EEC5ERKS3_,comdat
	.align 2
	.weak	_ZNSt6vectorIS_IiSaIiEESaIS1_EEC2ERKS3_
	.type	_ZNSt6vectorIS_IiSaIiEESaIS1_EEC2ERKS3_, @function
_ZNSt6vectorIS_IiSaIiEESaIS1_EEC2ERKS3_:
.LFB3564:
	.loc 12 550 7
	.cfi_startproc
	.cfi_personality 0x9b,DW.ref.__gxx_personality_v0
	.cfi_lsda 0x1b,.LLSDA3564
	endbr64
	pushq	%rbp
	.cfi_def_cfa_offset 16
	.cfi_offset 6, -16
	movq	%rsp, %rbp
	.cfi_def_cfa_register 6
	pushq	%r13
	pushq	%r12
	pushq	%rbx
	subq	$40, %rsp
	.cfi_offset 13, -24
	.cfi_offset 12, -32
	.cfi_offset 3, -40
	movq	%rdi, -56(%rbp)
	movq	%rsi, -64(%rbp)
	.loc 12 550 7
	movq	%fs:40, %rax
	movq	%rax, -40(%rbp)
	xorl	%eax, %eax
.LBB115:
	.loc 12 552 61
	movq	-56(%rbp), %rbx
	.loc 12 552 34
	movq	-64(%rbp), %rax
	movq	%rax, %rdi
	call	_ZNKSt12_Vector_baseISt6vectorIiSaIiEESaIS2_EE19_M_get_Tp_allocatorEv
	movq	%rax, %rdx
	.loc 12 552 61
	leaq	-41(%rbp), %rax
	movq	%rdx, %rsi
	movq	%rax, %rdi
.LEHB103:
	call	_ZN9__gnu_cxx14__alloc_traitsISaISt6vectorIiSaIiEEES3_E17_S_select_on_copyERKS4_
.LEHE103:
	movq	-64(%rbp), %rax
	movq	%rax, %rdi
	call	_ZNKSt6vectorIS_IiSaIiEESaIS1_EE4sizeEv
	movq	%rax, %rcx
	leaq	-41(%rbp), %rax
	movq	%rax, %rdx
	movq	%rcx, %rsi
	movq	%rbx, %rdi
.LEHB104:
	call	_ZNSt12_Vector_baseISt6vectorIiSaIiEESaIS2_EEC2EmRKS3_
.LEHE104:
	.loc 12 552 61 is_stmt 0 discriminator 2
	leaq	-41(%rbp), %rax
	movq	%rax, %rdi
	call	_ZNSaISt6vectorIiSaIiEEED1Ev
	.loc 12 557 30 is_stmt 1 discriminator 2
	movq	-56(%rbp), %rax
	movq	%rax, %rdi
	call	_ZNSt12_Vector_baseISt6vectorIiSaIiEESaIS2_EE19_M_get_Tp_allocatorEv
	movq	%rax, %r13
	.loc 12 555 31 discriminator 2
	movq	-56(%rbp), %rax
	movq	(%rax), %rbx
	movq	-64(%rbp), %rax
	movq	%rax, %rdi
	call	_ZNKSt6vectorIS_IiSaIiEESaIS1_EE3endEv
	movq	%rax, %r12
	movq	-64(%rbp), %rax
	movq	%rax, %rdi
	call	_ZNKSt6vectorIS_IiSaIiEESaIS1_EE5beginEv
	movq	%r13, %rcx
	movq	%rbx, %rdx
	movq	%r12, %rsi
