	.file	"mainProject.cpp"
	.text
.Ltext0:
	.section	.text._ZnwmPv,"axG",@progbits,_ZnwmPv,comdat
	.weak	_ZnwmPv
	.type	_ZnwmPv, @function
_ZnwmPv:
.LASANPC38:
.LFB38:
	.file 1 "/usr/include/c++/9/new"
	.loc 1 174 1
	.cfi_startproc
	endbr64
	pushq	%rbp
	.cfi_def_cfa_offset 16
	.cfi_offset 6, -16
	movq	%rsp, %rbp
	.cfi_def_cfa_register 6
	movq	%rdi, -8(%rbp)
	movq	%rsi, -16(%rbp)
	.loc 1 174 10
	movq	-16(%rbp), %rax
	.loc 1 174 15
	popq	%rbp
	.cfi_def_cfa 7, 8
	ret
	.cfi_endproc
.LFE38:
	.size	_ZnwmPv, .-_ZnwmPv
	.bss
	.align 32
	.type	_ZStL8__ioinit, @object
	.size	_ZStL8__ioinit, 1
_ZStL8__ioinit:
	.zero	64
	.section	.text._ZSt16__deque_buf_sizem,"axG",@progbits,_ZSt16__deque_buf_sizem,comdat
	.weak	_ZSt16__deque_buf_sizem
	.type	_ZSt16__deque_buf_sizem, @function
_ZSt16__deque_buf_sizem:
.LASANPC2273:
.LFB2273:
	.file 2 "/usr/include/c++/9/bits/stl_deque.h"
	.loc 2 94 3
	.cfi_startproc
	endbr64
	pushq	%rbp
	.cfi_def_cfa_offset 16
	.cfi_offset 6, -16
	movq	%rsp, %rbp
	.cfi_def_cfa_register 6
	movq	%rdi, -8(%rbp)
	.loc 2 95 6
	cmpq	$511, -8(%rbp)
	ja	.L4
	.loc 2 95 6 is_stmt 0 discriminator 1
	movl	$512, %eax
	movl	$0, %edx
	divq	-8(%rbp)
	.loc 2 95 40 is_stmt 1 discriminator 1
	jmp	.L6
.L4:
	.loc 2 95 6 discriminator 2
	movl	$1, %eax
.L6:
	.loc 2 95 43 discriminator 5
	popq	%rbp
	.cfi_def_cfa 7, 8
	ret
	.cfi_endproc
.LFE2273:
	.size	_ZSt16__deque_buf_sizem, .-_ZSt16__deque_buf_sizem
	.section	.text._ZSt3minImERKT_S2_S2_,"axG",@progbits,_ZSt3minImERKT_S2_S2_,comdat
	.weak	_ZSt3minImERKT_S2_S2_
	.type	_ZSt3minImERKT_S2_S2_, @function
_ZSt3minImERKT_S2_S2_:
.LASANPC3132:
.LFB3132:
	.file 3 "/usr/include/c++/9/bits/stl_algobase.h"
	.loc 3 198 5
	.cfi_startproc
	endbr64
	pushq	%rbp
	.cfi_def_cfa_offset 16
	.cfi_offset 6, -16
	movq	%rsp, %rbp
	.cfi_def_cfa_register 6
	subq	$16, %rsp
	movq	%rdi, -8(%rbp)
	movq	%rsi, -16(%rbp)
	.loc 3 203 15
	movq	-16(%rbp), %rax
	movq	%rax, %rdx
	shrq	$3, %rdx
	addq	$2147450880, %rdx
	movzbl	(%rdx), %edx
	testb	%dl, %dl
	je	.L8
	movq	%rax, %rdi
	call	__asan_report_load8@PLT
.L8:
	movq	-16(%rbp), %rax
	movq	(%rax), %rcx
	movq	-8(%rbp), %rax
	movq	%rax, %rdx
	shrq	$3, %rdx
	addq	$2147450880, %rdx
	movzbl	(%rdx), %edx
	testb	%dl, %dl
	je	.L9
	movq	%rax, %rdi
	call	__asan_report_load8@PLT
.L9:
	movq	-8(%rbp), %rax
	movq	(%rax), %rax
	.loc 3 203 7
	cmpq	%rax, %rcx
	jnb	.L10
	.loc 3 204 9
	movq	-16(%rbp), %rax
	jmp	.L11
.L10:
	.loc 3 205 14
	movq	-8(%rbp), %rax
.L11:
	.loc 3 206 5
	leave
	.cfi_def_cfa 7, 8
	ret
	.cfi_endproc
.LFE3132:
	.size	_ZSt3minImERKT_S2_S2_, .-_ZSt3minImERKT_S2_S2_
	.section	.rodata
	.align 32
	.type	_ZN6__pstl9execution2v1L3seqE, @object
	.size	_ZN6__pstl9execution2v1L3seqE, 1
_ZN6__pstl9execution2v1L3seqE:
	.zero	1
	.zero	63
	.align 32
	.type	_ZN6__pstl9execution2v1L3parE, @object
	.size	_ZN6__pstl9execution2v1L3parE, 1
_ZN6__pstl9execution2v1L3parE:
	.zero	1
	.zero	63
	.align 32
	.type	_ZN6__pstl9execution2v1L9par_unseqE, @object
	.size	_ZN6__pstl9execution2v1L9par_unseqE, 1
_ZN6__pstl9execution2v1L9par_unseqE:
	.zero	1
	.zero	63
	.align 32
	.type	_ZN6__pstl9execution2v1L5unseqE, @object
	.size	_ZN6__pstl9execution2v1L5unseqE, 1
_ZN6__pstl9execution2v1L5unseqE:
	.zero	1
	.zero	63
	.section	.text._ZNSt12_Vector_baseIiSaIiEE12_Vector_implD2Ev,"axG",@progbits,_ZNSt12_Vector_baseIiSaIiEE12_Vector_implD5Ev,comdat
	.align 2
	.weak	_ZNSt12_Vector_baseIiSaIiEE12_Vector_implD2Ev
	.type	_ZNSt12_Vector_baseIiSaIiEE12_Vector_implD2Ev, @function
_ZNSt12_Vector_baseIiSaIiEE12_Vector_implD2Ev:
.LASANPC4167:
.LFB4167:
	.file 4 "/usr/include/c++/9/bits/stl_vector.h"
	.loc 4 125 14
	.cfi_startproc
	endbr64
	pushq	%rbp
	.cfi_def_cfa_offset 16
	.cfi_offset 6, -16
	movq	%rsp, %rbp
	.cfi_def_cfa_register 6
	subq	$16, %rsp
	movq	%rdi, -8(%rbp)
.LBB2:
	.loc 4 125 14
	movq	-8(%rbp), %rax
	movq	%rax, %rdi
	call	_ZNSaIiED2Ev
.LBE2:
	nop
	leave
	.cfi_def_cfa 7, 8
	ret
	.cfi_endproc
.LFE4167:
	.size	_ZNSt12_Vector_baseIiSaIiEE12_Vector_implD2Ev, .-_ZNSt12_Vector_baseIiSaIiEE12_Vector_implD2Ev
	.weak	_ZNSt12_Vector_baseIiSaIiEE12_Vector_implD1Ev
	.set	_ZNSt12_Vector_baseIiSaIiEE12_Vector_implD1Ev,_ZNSt12_Vector_baseIiSaIiEE12_Vector_implD2Ev
	.section	.text._ZNSt12_Vector_baseIiSaIiEEC2Ev,"axG",@progbits,_ZNSt12_Vector_baseIiSaIiEEC5Ev,comdat
	.align 2
	.weak	_ZNSt12_Vector_baseIiSaIiEEC2Ev
	.type	_ZNSt12_Vector_baseIiSaIiEEC2Ev, @function
_ZNSt12_Vector_baseIiSaIiEEC2Ev:
.LASANPC4169:
.LFB4169:
	.loc 4 285 7
	.cfi_startproc
	endbr64
	pushq	%rbp
	.cfi_def_cfa_offset 16
	.cfi_offset 6, -16
	movq	%rsp, %rbp
	.cfi_def_cfa_register 6
	subq	$16, %rsp
	movq	%rdi, -8(%rbp)
.LBB3:
	.loc 4 285 7
	movq	-8(%rbp), %rax
	movq	%rax, %rdi
	call	_ZNSt12_Vector_baseIiSaIiEE12_Vector_implC1Ev
.LBE3:
	nop
	leave
	.cfi_def_cfa 7, 8
	ret
	.cfi_endproc
.LFE4169:
	.size	_ZNSt12_Vector_baseIiSaIiEEC2Ev, .-_ZNSt12_Vector_baseIiSaIiEEC2Ev
	.weak	_ZNSt12_Vector_baseIiSaIiEEC1Ev
	.set	_ZNSt12_Vector_baseIiSaIiEEC1Ev,_ZNSt12_Vector_baseIiSaIiEEC2Ev
	.section	.text._ZNSt6vectorIiSaIiEEC2Ev,"axG",@progbits,_ZNSt6vectorIiSaIiEEC5Ev,comdat
	.align 2
	.weak	_ZNSt6vectorIiSaIiEEC2Ev
	.type	_ZNSt6vectorIiSaIiEEC2Ev, @function
_ZNSt6vectorIiSaIiEEC2Ev:
.LASANPC4171:
.LFB4171:
	.loc 4 484 7
	.cfi_startproc
	endbr64
	pushq	%rbp
	.cfi_def_cfa_offset 16
	.cfi_offset 6, -16
	movq	%rsp, %rbp
	.cfi_def_cfa_register 6
	subq	$16, %rsp
	movq	%rdi, -8(%rbp)
.LBB4:
	.loc 4 484 7
	movq	-8(%rbp), %rax
	movq	%rax, %rdi
	call	_ZNSt12_Vector_baseIiSaIiEEC2Ev
.LBE4:
	nop
	leave
	.cfi_def_cfa 7, 8
	ret
	.cfi_endproc
.LFE4171:
	.size	_ZNSt6vectorIiSaIiEEC2Ev, .-_ZNSt6vectorIiSaIiEEC2Ev
	.weak	_ZNSt6vectorIiSaIiEEC1Ev
	.set	_ZNSt6vectorIiSaIiEEC1Ev,_ZNSt6vectorIiSaIiEEC2Ev
	.globl	__asan_stack_malloc_3
	.section	.rodata
	.align 8
.LC0:
	.string	"11 32 1 9 <unknown> 48 4 9 vertex:14 64 4 4 v:14 80 4 4 w:14 96 4 4 n:14 112 4 9 weight:14 128 24 7 path:13 192 24 9 <unknown> 256 48 4 G:17 336 48 9 SPTree:18 416 32 10 command:12"
	.align 32
.LC1:
	.string	"%s%d"
	.zero	59
	.align 32
.LC2:
	.string	"CREATE"
	.zero	57
	.align 32
.LC3:
	.string	"please input \"CREATE vertexNum\" to create a graph first"
	.zero	40
	.align 32
.LC4:
	.string	"ALGraph with %d vertexs was initialized successfully\n"
	.zero	42
	.align 32
.LC5:
	.string	"%s"
	.zero	61
	.align 32
.LC6:
	.string	"VERTEX"
	.zero	57
	.align 32
.LC7:
	.string	"%d"
	.zero	61
	.align 32
.LC8:
	.string	"EDGE"
	.zero	59
	.align 32
.LC9:
	.string	"%d%d%d"
	.zero	57
	.align 32
.LC10:
	.string	"DUMP"
	.zero	59
	.align 32
.LC11:
	.string	"vertexname:%s degree:%d\n"
	.zero	39
	.align 32
.LC12:
	.string	"edge %s to %s : weight: %d\n"
	.zero	36
	.align 32
.LC13:
	.string	"DFS"
	.zero	60
	.align 32
.LC14:
	.string	"DFS based on %s:"
	.zero	47
	.align 32
.LC15:
	.string	"%s "
	.zero	60
	.align 32
.LC16:
	.string	"SHORTEST-PATH"
	.zero	50
	.align 32
.LC17:
	.string	"%d%d"
	.zero	59
	.align 32
.LC18:
	.string	"shrotest path from %s to %s is:"
	.zero	32
	.align 32
.LC19:
	.string	" %s"
	.zero	60
	.align 32
.LC20:
	.string	"\ndistance is %lld\n"
	.zero	45
	.align 32
.LC21:
	.string	"SPANNING-TREE"
	.zero	50
	.align 32
.LC22:
	.string	"spaning tree based on %s was created successfully\n"
	.zero	45
	.align 32
.LC23:
	.string	"CONNECTED-COMPONENT"
	.zero	44
	.align 32
.LC24:
	.string	"all the biconnected component:"
	.zero	33
	.align 32
.LC25:
	.string	"BYE"
	.zero	60
	.align 32
.LC26:
	.string	"bad command \"%s\"\n"
	.zero	46
	.text
	.globl	main
	.type	main, @function
main:
.LASANPC4163:
.LFB4163:
	.file 5 "../mainProject.cpp"
	.loc 5 11 1
	.cfi_startproc
	.cfi_personality 0x9b,DW.ref.__gxx_personality_v0
	.cfi_lsda 0x1b,.LLSDA4163
	endbr64
	pushq	%rbp
	.cfi_def_cfa_offset 16
	.cfi_offset 6, -16
	movq	%rsp, %rbp
	.cfi_def_cfa_register 6
	pushq	%r15
	pushq	%r14
	pushq	%r13
	pushq	%r12
	pushq	%rbx
	subq	$568, %rsp
	.cfi_offset 15, -24
	.cfi_offset 14, -32
	.cfi_offset 13, -40
	.cfi_offset 12, -48
	.cfi_offset 3, -56
	leaq	-560(%rbp), %r13
	movq	%r13, %r15
	cmpl	$0, __asan_option_detect_stack_use_after_return(%rip)
	je	.L15
	movl	$480, %edi
	call	__asan_stack_malloc_3@PLT
.LVL0:
	testq	%rax, %rax
	je	.L15
	movq	%rax, %r13
.L15:
	leaq	512(%r13), %rax
	movq	%rax, %rbx
	movq	$1102416563, 0(%r13)
	leaq	.LC0(%rip), %rax
	movq	%rax, 8(%r13)
	leaq	.LASANPC4163(%rip), %rax
	movq	%rax, 16(%r13)
	movq	%r13, %r12
	shrq	$3, %r12
	movl	$-235802127, 2147450880(%r12)
	movl	$-234556927, 2147450884(%r12)
	movl	$-234556924, 2147450888(%r12)
	movl	$-234556924, 2147450892(%r12)
	movl	$-234881024, 2147450896(%r12)
	movl	$-218959118, 2147450900(%r12)
	movl	$-234881024, 2147450904(%r12)
	movl	$-218959118, 2147450908(%r12)
	movl	$-219021312, 2147450916(%r12)
	movl	$62194, 2147450920(%r12)
	movl	$-218959118, 2147450928(%r12)
	movl	$-202116109, 2147450936(%r12)
	.loc 5 11 1
	movq	%fs:40, %rax
	movq	%rax, -56(%rbp)
	xorl	%eax, %eax
	.loc 5 13 17
	leaq	-384(%rbx), %rax
	movq	%rax, %rdi
	call	_ZNSt6vectorIiSaIiEEC1Ev
.L22:
	.loc 5 15 17
	leaq	-416(%rbx), %rdx
	leaq	-96(%rbx), %rax
	movq	%rax, %rsi
	leaq	.LC1(%rip), %rdi
	movl	$0, %eax
.LEHB0:
	call	__isoc99_scanf@PLT
	.loc 5 15 39
	testl	%eax, %eax
	je	.L19
	.loc 5 15 48 discriminator 2
	leaq	-96(%rbx), %rax
	leaq	.LC2(%rip), %rsi
	movq	%rax, %rdi
	call	strcmp@PLT
	.loc 5 15 39 discriminator 2
	testl	%eax, %eax
	je	.L19
	.loc 5 15 39 is_stmt 0 discriminator 4
	movl	$1, %eax
	jmp	.L20
.L19:
	.loc 5 15 39 discriminator 5
	movl	$0, %eax
.L20:
	.loc 5 15 39 discriminator 7
	testb	%al, %al
	je	.L21
	.loc 5 16 15 is_stmt 1
	leaq	.LC3(%rip), %rdi
	call	puts@PLT
	.loc 5 15 5
	jmp	.L22
.L21:
	.loc 5 17 33
	leaq	-416(%rbx), %rax
	movq	%rax, %rdx
	movq	%rdx, %rax
	shrq	$3, %rax
	addq	$2147450880, %rax
	movzbl	(%rax), %eax
	testb	%al, %al
	setne	%cl
	cmpb	$3, %al
	setle	%al
	andl	%ecx, %eax
	testb	%al, %al
	je	.L23
	movq	%rdx, %rdi
	call	__asan_report_load4@PLT
.L23:
	movl	-416(%rbx), %ecx
	leaq	-256(%rbx), %rax
	movl	$0, %edx
	movl	%ecx, %esi
	movq	%rax, %rdi
	call	_ZN7ALGraphIicEC1Ei6Direct
.LEHE0:
	.loc 5 18 26
	leaq	-416(%rbx), %rax
	movq	%rax, %rdx
	movq	%rdx, %rax
	shrq	$3, %rax
	addq	$2147450880, %rax
	movzbl	(%rax), %eax
	testb	%al, %al
	setne	%cl
	cmpb	$3, %al
	setle	%al
	andl	%ecx, %eax
	testb	%al, %al
	je	.L24
	movq	%rdx, %rdi
	call	__asan_report_load4@PLT
.L24:
	movl	-416(%rbx), %ecx
	leaq	-176(%rbx), %rax
	movl	$1, %edx
	movl	%ecx, %esi
	movq	%rax, %rdi
.LEHB1:
	call	_ZN7ALGraphIicEC1Ei6Direct
.LEHE1:
	.loc 5 19 36
	leaq	-416(%rbx), %rax
	movq	%rax, %rdx
	movq	%rdx, %rax
	shrq	$3, %rax
	addq	$2147450880, %rax
	movzbl	(%rax), %eax
	testb	%al, %al
	setne	%cl
	cmpb	$3, %al
	setle	%al
	andl	%ecx, %eax
	testb	%al, %al
	je	.L25
	movq	%rdx, %rdi
	call	__asan_report_load4@PLT
.L25:
	movl	-416(%rbx), %eax
	cltq
	.loc 5 19 35
	salq	$3, %rax
	movq	%rax, %rdi
	call	malloc@PLT
	movq	%rax, -568(%rbp)
.LBB5:
	.loc 5 20 14
	movl	$0, -604(%rbp)
.L29:
	.loc 5 20 23 discriminator 3
	leaq	-416(%rbx), %rax
	movq	%rax, %rdx
	movq	%rdx, %rax
	shrq	$3, %rax
	addq	$2147450880, %rax
	movzbl	(%rax), %eax
	testb	%al, %al
	setne	%cl
	cmpb	$3, %al
	setle	%al
	andl	%ecx, %eax
	testb	%al, %al
	je	.L26
	.loc 5 20 23 is_stmt 0
	movq	%rdx, %rdi
	call	__asan_report_load4@PLT
.L26:
	.loc 5 20 23 discriminator 3
	movl	-416(%rbx), %eax
	cmpl	%eax, -604(%rbp)
	jge	.L27
	.loc 5 21 15 is_stmt 1 discriminator 2
	movl	-604(%rbp), %eax
	cltq
	.loc 5 21 16 discriminator 2
	leaq	0(,%rax,8), %rdx
	movq	-568(%rbp), %rax
	leaq	(%rdx,%rax), %r14
	.loc 5 21 34 discriminator 2
	movl	$32, %edi
	call	malloc@PLT
	movq	%rax, %rcx
	.loc 5 21 18 discriminator 2
	movq	%r14, %rax
	movq	%rax, %rdx
	shrq	$3, %rdx
	addq	$2147450880, %rdx
	movzbl	(%rdx), %edx
	testb	%dl, %dl
	je	.L28
	.loc 5 21 18 is_stmt 0
	movq	%rax, %rdi
	call	__asan_report_store8@PLT
.L28:
	.loc 5 21 18 discriminator 2
	movq	%rcx, (%r14)
	.loc 5 20 5 is_stmt 1 discriminator 2
	addl	$1, -604(%rbp)
	jmp	.L29
.L27:
.LBE5:
	.loc 5 22 9
	movl	$-1, -600(%rbp)
	.loc 5 23 11
	leaq	-416(%rbx), %rax
	movq	%rax, %rdx
	movq	%rdx, %rax
	shrq	$3, %rax
	addq	$2147450880, %rax
	movzbl	(%rax), %eax
	testb	%al, %al
	setne	%cl
	cmpb	$3, %al
	setle	%al
	andl	%ecx, %eax
	testb	%al, %al
	je	.L30
	movq	%rdx, %rdi
	call	__asan_report_load4@PLT
.L30:
	movl	-416(%rbx), %eax
	movl	%eax, %esi
	leaq	.LC4(%rip), %rdi
	movl	$0, %eax
.LEHB2:
	call	printf@PLT
.L87:
.LBB6:
	.loc 5 27 14
	leaq	-96(%rbx), %rax
	movq	%rax, %rsi
	leaq	.LC5(%rip), %rdi
	movl	$0, %eax
	call	__isoc99_scanf@PLT
.LBB7:
	.loc 5 28 19
	leaq	-96(%rbx), %rax
	leaq	.LC6(%rip), %rsi
	movq	%rax, %rdi
	call	strcmp@PLT
	.loc 5 28 9
	testl	%eax, %eax
	jne	.L31
	.loc 5 30 18
	leaq	-464(%rbx), %rax
	movq	%rax, %rsi
	leaq	.LC7(%rip), %rdi
	movl	$0, %eax
	call	__isoc99_scanf@PLT
	.loc 5 31 31
	leaq	-464(%rbx), %rax
	movq	%rax, %rdx
	movq	%rdx, %rax
	shrq	$3, %rax
	addq	$2147450880, %rax
	movzbl	(%rax), %eax
	testb	%al, %al
	setne	%cl
	cmpb	$3, %al
	setle	%al
	andl	%ecx, %eax
	testb	%al, %al
	je	.L32
	movq	%rdx, %rdi
	call	__asan_report_load4@PLT
.L32:
	movl	-464(%rbx), %eax
	cltq
	.loc 5 31 37
	leaq	0(,%rax,8), %rdx
	movq	-568(%rbp), %rax
	addq	%rdx, %rax
	.loc 5 31 18
	movq	%rax, %rdx
	movq	%rdx, %rcx
	shrq	$3, %rcx
	addq	$2147450880, %rcx
	movzbl	(%rcx), %ecx
	testb	%cl, %cl
	je	.L33
	movq	%rdx, %rdi
	call	__asan_report_load8@PLT
.L33:
	movq	(%rax), %rax
	movq	%rax, %rsi
	leaq	.LC5(%rip), %rdi
	movl	$0, %eax
	call	__isoc99_scanf@PLT
	.loc 5 32 21
	leaq	-464(%rbx), %rdx
	leaq	-256(%rbx), %rax
	movq	%rdx, %rsi
	movq	%rax, %rdi
	call	_ZN7ALGraphIicE6insertERKi
	jmp	.L34
.L31:
.LBB8:
.LBB9:
	.loc 5 34 24
	leaq	-96(%rbx), %rax
	leaq	.LC8(%rip), %rsi
	movq	%rax, %rdi
	call	strcmp@PLT
	.loc 5 34 14
	testl	%eax, %eax
	jne	.L35
	.loc 5 36 18
	leaq	-400(%rbx), %rcx
	leaq	-432(%rbx), %rdx
	leaq	-448(%rbx), %rax
	movq	%rax, %rsi
	leaq	.LC9(%rip), %rdi
	movl	$0, %eax
	call	__isoc99_scanf@PLT
.LEHE2:
	.loc 5 37 21
	leaq	-480(%rbx), %rax
	shrq	$3, %rax
	addq	$2147450880, %rax
	movb	$1, (%rax)
	.file 6 "../src/GraphAdjacencyList.h"
	.loc 6 234 75
	leaq	-480(%rbx), %rax
	movq	%rax, %rdx
	movq	%rdx, %rax
	shrq	$3, %rax
	addq	$2147450880, %rax
	movzbl	(%rax), %eax
	testb	%al, %al
	setne	%cl
	testb	%al, %al
	setle	%al
	andl	%ecx, %eax
	testb	%al, %al
	je	.L36
	movq	%rdx, %rdi
	call	__asan_report_store1@PLT
.L36:
	movb	$1, -480(%rbx)
	.loc 5 37 21
	leaq	-400(%rbx), %rax
	movq	%rax, %rdx
	movq	%rdx, %rax
	shrq	$3, %rax
	addq	$2147450880, %rax
	movzbl	(%rax), %eax
	testb	%al, %al
	setne	%cl
	cmpb	$3, %al
	setle	%al
	andl	%ecx, %eax
	testb	%al, %al
	je	.L37
	movq	%rdx, %rdi
	call	__asan_report_load4@PLT
.L37:
	movl	-400(%rbx), %ecx
	leaq	-432(%rbx), %rax
	movq	%rax, %rdx
	movq	%rdx, %rax
	shrq	$3, %rax
	addq	$2147450880, %rax
	movzbl	(%rax), %eax
	testb	%al, %al
	setne	%sil
	cmpb	$3, %al
	setle	%al
	andl	%esi, %eax
	testb	%al, %al
	je	.L38
	movq	%rdx, %rdi
	call	__asan_report_load4@PLT
.L38:
	movl	-432(%rbx), %edx
	leaq	-448(%rbx), %rax
	movq	%rax, %rsi
	movq	%rsi, %rax
	shrq	$3, %rax
	addq	$2147450880, %rax
	movzbl	(%rax), %eax
	testb	%al, %al
	setne	%dil
	cmpb	$3, %al
	setle	%al
	andl	%edi, %eax
	testb	%al, %al
	je	.L39
	movq	%rsi, %rdi
	call	__asan_report_load4@PLT
.L39:
	movl	-448(%rbx), %esi
	leaq	-480(%rbx), %rdi
	leaq	-256(%rbx), %rax
	movq	%rdi, %r8
	movq	%rax, %rdi
.LEHB3:
	call	_ZN7ALGraphIicE6insertEiiiRKc
.LEHE3:
	.loc 6 234 75
	leaq	-480(%rbx), %rax
	shrq	$3, %rax
	addq	$2147450880, %rax
	movb	$-8, (%rax)
	jmp	.L87
.L35:
.LBB10:
.LBB11:
	.loc 5 39 24
	leaq	-96(%rbx), %rax
	leaq	.LC10(%rip), %rsi
	movq	%rax, %rdi
	call	strcmp@PLT
	.loc 5 39 14
	testl	%eax, %eax
	jne	.L40
.LBB12:
.LBB13:
	.loc 5 41 22
	movl	$0, -596(%rbp)
.L48:
	.loc 5 41 35 discriminator 1
	leaq	-256(%rbx), %rax
	addq	$8, %rax
	movq	%rax, %rdx
	movq	%rdx, %rax
	shrq	$3, %rax
	addq	$2147450880, %rax
	movzbl	(%rax), %eax
	testb	%al, %al
	setne	%cl
	cmpb	$3, %al
	setle	%al
	andl	%ecx, %eax
	testb	%al, %al
	je	.L41
	.loc 5 41 35 is_stmt 0
	movq	%rdx, %rdi
	call	__asan_report_load4@PLT
.L41:
	.loc 5 41 35 discriminator 1
	movl	-248(%rbx), %eax
	.loc 5 41 31 is_stmt 1 discriminator 1
	cmpl	%eax, -596(%rbp)
	jge	.L87
.LBB14:
	.loc 5 43 73
	movl	-596(%rbp), %edx
	leaq	-256(%rbx), %rax
	movl	%edx, %esi
	movq	%rax, %rdi
	call	_ZN7ALGraphIicE8inDegreeEi
	movl	%eax, %r14d
	.loc 5 43 90
	movl	-596(%rbp), %edx
	leaq	-256(%rbx), %rax
	movl	%edx, %esi
	movq	%rax, %rdi
	call	_ZN7ALGraphIicE9outDegreeEi
	.loc 5 43 23
	leal	(%r14,%rax), %ecx
	.loc 5 43 59
	movl	-596(%rbp), %eax
	cltq
	.loc 5 43 60
	leaq	0(,%rax,8), %rdx
	movq	-568(%rbp), %rax
	addq	%rdx, %rax
	.loc 5 43 23
	movq	%rax, %rdx
	movq	%rdx, %rsi
	shrq	$3, %rsi
	addq	$2147450880, %rsi
	movzbl	(%rsi), %esi
	testb	%sil, %sil
	je	.L42
	movq	%rdx, %rdi
	call	__asan_report_load8@PLT
.L42:
	movq	(%rax), %rax
	movl	%ecx, %edx
	movq	%rax, %rsi
	leaq	.LC11(%rip), %rdi
	movl	$0, %eax
.LEHB4:
	call	printf@PLT
.LBB15:
	.loc 5 44 40
	movl	-596(%rbp), %edx
	leaq	-256(%rbx), %rax
	movl	%edx, %esi
	movq	%rax, %rdi
	call	_ZN7ALGraphIicE8firstNbrEi
	movl	%eax, -592(%rbp)
.L47:
	.loc 5 44 47 discriminator 3
	cmpl	$0, -592(%rbp)
	js	.L43
	.loc 5 45 93
	movl	-592(%rbp), %edx
	movl	-596(%rbp), %ecx
	leaq	-256(%rbx), %rax
	movl	%ecx, %esi
	movq	%rax, %rdi
	call	_ZN7ALGraphIicE6weightEii
	movq	%rax, %rdx
	.loc 5 45 27
	movq	%rdx, %rax
	movq	%rax, %rcx
	shrq	$3, %rcx
	addq	$2147450880, %rcx
	movzbl	(%rcx), %ecx
	testb	%cl, %cl
	setne	%sil
	movq	%rax, %rdi
	andl	$7, %edi
	addl	$3, %edi
	cmpb	%cl, %dil
	setge	%cl
	andl	%esi, %ecx
	testb	%cl, %cl
	je	.L44
	movq	%rax, %rdi
	call	__asan_report_load4@PLT
.L44:
	.loc 5 45 27 is_stmt 0 discriminator 1
	movl	(%rdx), %ecx
	.loc 5 45 76 is_stmt 1 discriminator 1
	movl	-592(%rbp), %eax
	cltq
	.loc 5 45 77 discriminator 1
	leaq	0(,%rax,8), %rdx
	movq	-568(%rbp), %rax
	addq	%rdx, %rax
	.loc 5 45 27 discriminator 1
	movq	%rax, %rdx
	movq	%rdx, %rsi
	shrq	$3, %rsi
	addq	$2147450880, %rsi
	movzbl	(%rsi), %esi
	testb	%sil, %sil
	je	.L45
	.loc 5 45 27 is_stmt 0
	movq	%rdx, %rdi
	call	__asan_report_load8@PLT
.L45:
	.loc 5 45 27 discriminator 1
	movq	(%rax), %rdx
	.loc 5 45 66 is_stmt 1 discriminator 1
	movl	-596(%rbp), %eax
	cltq
	.loc 5 45 67 discriminator 1
	leaq	0(,%rax,8), %rsi
	movq	-568(%rbp), %rax
	addq	%rsi, %rax
	.loc 5 45 27 discriminator 1
	movq	%rax, %rsi
	movq	%rsi, %rdi
	shrq	$3, %rdi
	addq	$2147450880, %rdi
	movzbl	(%rdi), %edi
	testb	%dil, %dil
	je	.L46
	.loc 5 45 27 is_stmt 0
	movq	%rsi, %rdi
	call	__asan_report_load8@PLT
.L46:
	.loc 5 45 27 discriminator 1
	movq	(%rax), %rax
	movq	%rax, %rsi
	leaq	.LC12(%rip), %rdi
	movl	$0, %eax
	call	printf@PLT
	.loc 5 44 66 is_stmt 1
	movl	-592(%rbp), %edx
	movl	-596(%rbp), %ecx
	leaq	-256(%rbx), %rax
	movl	%ecx, %esi
	movq	%rax, %rdi
	call	_ZN7ALGraphIicE7nextNbrEii
	.loc 5 44 66 is_stmt 0 discriminator 2
	movl	%eax, -592(%rbp)
	.loc 5 44 17 is_stmt 1 discriminator 2
	jmp	.L47
.L43:
.LBE15:
	.loc 5 46 23
	movl	$10, %edi
	call	putchar@PLT
.LBE14:
	.loc 5 41 13 discriminator 2
	addl	$1, -596(%rbp)
	jmp	.L48
.L40:
.LBE13:
.LBE12:
.LBB16:
.LBB17:
	.loc 5 49 24
	leaq	-96(%rbx), %rax
	leaq	.LC13(%rip), %rsi
	movq	%rax, %rdi
	call	strcmp@PLT
	.loc 5 49 14
	testl	%eax, %eax
	jne	.L49
.LBB18:
	.loc 5 51 18
	leaq	-464(%rbx), %rax
	movq	%rax, %rsi
	leaq	.LC7(%rip), %rdi
	movl	$0, %eax
	call	__isoc99_scanf@PLT
	.loc 5 52 18
	leaq	-464(%rbx), %rax
	movq	%rax, %rdx
	movq	%rdx, %rax
	shrq	$3, %rax
	addq	$2147450880, %rax
	movzbl	(%rax), %eax
	testb	%al, %al
	setne	%cl
	cmpb	$3, %al
	setle	%al
	andl	%ecx, %eax
	testb	%al, %al
	je	.L50
	movq	%rdx, %rdi
	call	__asan_report_load4@PLT
.L50:
	movl	-464(%rbx), %ecx
	leaq	-384(%rbx), %rdx
	leaq	-256(%rbx), %rax
	movl	%ecx, %esi
	movq	%rax, %rdi
	call	_ZN5GraphIicE3dfsEiRSt6vectorIiSaIiEE
	.loc 5 53 46
	leaq	-464(%rbx), %rax
	movq	%rax, %rdx
	movq	%rdx, %rax
	shrq	$3, %rax
	addq	$2147450880, %rax
	movzbl	(%rax), %eax
	testb	%al, %al
	setne	%cl
	cmpb	$3, %al
	setle	%al
	andl	%ecx, %eax
	testb	%al, %al
	je	.L51
	movq	%rdx, %rdi
	call	__asan_report_load4@PLT
.L51:
	movl	-464(%rbx), %eax
	cltq
	.loc 5 53 52
	leaq	0(,%rax,8), %rdx
	movq	-568(%rbp), %rax
	addq	%rdx, %rax
	.loc 5 53 19
	movq	%rax, %rdx
	movq	%rdx, %rcx
	shrq	$3, %rcx
	addq	$2147450880, %rcx
	movzbl	(%rcx), %ecx
	testb	%cl, %cl
	je	.L52
	movq	%rdx, %rdi
	call	__asan_report_load8@PLT
.L52:
	movq	(%rax), %rax
	movq	%rax, %rsi
	leaq	.LC14(%rip), %rdi
	movl	$0, %eax
	call	printf@PLT
.LBB19:
	.loc 5 54 22
	movl	$0, -588(%rbp)
.L57:
	.loc 5 54 29 discriminator 1
	movl	-588(%rbp), %eax
	movslq	%eax, %r14
	.loc 5 54 42 discriminator 1
	leaq	-384(%rbx), %rax
	movq	%rax, %rdi
	call	_ZNKSt6vectorIiSaIiEE4sizeEv
	.loc 5 54 31 discriminator 1
	cmpq	%rax, %r14
	setb	%al
	testb	%al, %al
	je	.L53
	.loc 5 56 23
	movl	-588(%rbp), %ecx
	movslq	%ecx, %rax
	imulq	$1717986919, %rax, %rax
	shrq	$32, %rax
	movl	%eax, %edx
	sarl	$3, %edx
	movl	%ecx, %eax
	sarl	$31, %eax
	subl	%eax, %edx
	movl	%edx, %eax
	sall	$2, %eax
	addl	%edx, %eax
	sall	$2, %eax
	subl	%eax, %ecx
	movl	%ecx, %edx
	.loc 5 56 17
	testl	%edx, %edx
	jne	.L54
	.loc 5 57 27
	movl	$10, %edi
	call	putchar@PLT
.L54:
	.loc 5 58 43
	movl	-588(%rbp), %eax
	movslq	%eax, %rdx
	leaq	-384(%rbx), %rax
	movq	%rdx, %rsi
	movq	%rax, %rdi
	call	_ZNSt6vectorIiSaIiEEixEm
	movq	%rax, %rdx
	.loc 5 58 44
	movq	%rdx, %rax
	movq	%rax, %rcx
	shrq	$3, %rcx
	addq	$2147450880, %rcx
	movzbl	(%rcx), %ecx
	testb	%cl, %cl
	setne	%sil
	movq	%rax, %rdi
	andl	$7, %edi
	addl	$3, %edi
	cmpb	%cl, %dil
	setge	%cl
	andl	%esi, %ecx
	testb	%cl, %cl
	je	.L55
	movq	%rax, %rdi
	call	__asan_report_load4@PLT
.L55:
	movl	(%rdx), %eax
	cltq
	leaq	0(,%rax,8), %rdx
	movq	-568(%rbp), %rax
	addq	%rdx, %rax
	.loc 5 58 23
	movq	%rax, %rdx
	movq	%rdx, %rcx
	shrq	$3, %rcx
	addq	$2147450880, %rcx
	movzbl	(%rcx), %ecx
	testb	%cl, %cl
	je	.L56
	movq	%rdx, %rdi
	call	__asan_report_load8@PLT
.L56:
	movq	(%rax), %rax
	movq	%rax, %rsi
	leaq	.LC15(%rip), %rdi
	movl	$0, %eax
	call	printf@PLT
	.loc 5 54 13 discriminator 2
	addl	$1, -588(%rbp)
	jmp	.L57
.L53:
.LBE19:
	.loc 5 60 19
	movl	$10, %edi
	call	putchar@PLT
	.loc 5 61 23
	leaq	-384(%rbx), %rax
	movq	%rax, %rdi
	call	_ZNSt6vectorIiSaIiEE5clearEv
.LBE18:
	jmp	.L87
.L49:
.LBB20:
.LBB21:
	.loc 5 63 24
	leaq	-96(%rbx), %rax
	leaq	.LC16(%rip), %rsi
	movq	%rax, %rdi
	call	strcmp@PLT
	.loc 5 63 14
	testl	%eax, %eax
	jne	.L58
.LBB22:
	.loc 5 65 18
	leaq	-432(%rbx), %rdx
	leaq	-448(%rbx), %rax
	movq	%rax, %rsi
	leaq	.LC17(%rip), %rdi
	movl	$0, %eax
	call	__isoc99_scanf@PLT
	.loc 5 66 19
	leaq	-432(%rbx), %rax
	movq	%rax, %rdx
	movq	%rdx, %rax
	shrq	$3, %rax
	addq	$2147450880, %rax
	movzbl	(%rax), %eax
	testb	%al, %al
	setne	%cl
	cmpb	$3, %al
	setle	%al
	andl	%ecx, %eax
	testb	%al, %al
	je	.L59
	movq	%rdx, %rdi
	call	__asan_report_load4@PLT
.L59:
	movl	-432(%rbx), %eax
	.loc 5 66 13
	cmpl	%eax, -600(%rbp)
	je	.L60
	.loc 5 68 29
	leaq	-176(%rbx), %rax
	movq	%rax, %rdi
	call	_ZN7ALGraphIicE5clearEv
	.loc 5 69 27
	leaq	-432(%rbx), %rax
	movq	%rax, %rdx
	movq	%rdx, %rax
	shrq	$3, %rax
	addq	$2147450880, %rax
	movzbl	(%rax), %eax
	testb	%al, %al
	setne	%cl
	cmpb	$3, %al
	setle	%al
	andl	%ecx, %eax
	testb	%al, %al
	je	.L61
	movq	%rdx, %rdi
	call	__asan_report_load4@PLT
.L61:
	movl	-432(%rbx), %ecx
	leaq	-176(%rbx), %rdx
	leaq	-256(%rbx), %rax
	movl	%ecx, %esi
	movq	%rax, %rdi
	call	_ZN5GraphIicE8dijkstraEiRS0_
	.loc 5 70 22
	leaq	-432(%rbx), %rax
	movq	%rax, %rdx
	movq	%rdx, %rax
	shrq	$3, %rax
	addq	$2147450880, %rax
	movzbl	(%rax), %eax
	testb	%al, %al
	setne	%cl
	cmpb	$3, %al
	setle	%al
	andl	%ecx, %eax
	testb	%al, %al
	je	.L62
	movq	%rdx, %rdi
	call	__asan_report_load4@PLT
.L62:
	movl	-432(%rbx), %eax
	movl	%eax, -600(%rbp)
.L60:
	.loc 5 72 18
	leaq	-320(%rbx), %rax
	shrq	$3, %rax
	addq	$2147450880, %rax
	movw	$0, (%rax)
	movb	$0, 2(%rax)
	.loc 5 72 34
	leaq	-448(%rbx), %rax
	movq	%rax, %rdx
	movq	%rdx, %rax
	shrq	$3, %rax
	addq	$2147450880, %rax
	movzbl	(%rax), %eax
	testb	%al, %al
	setne	%cl
	cmpb	$3, %al
	setle	%al
	andl	%ecx, %eax
	testb	%al, %al
	je	.L63
	movq	%rdx, %rdi
	call	__asan_report_load4@PLT
.L63:
	movl	-448(%rbx), %esi
	leaq	-320(%rbx), %rax
	movq	%rax, %rdx
	shrq	$3, %rdx
	addq	$2147450880, %rdx
	movzbl	(%rdx), %edx
	testb	%dl, %dl
	setne	%cl
	testb	%dl, %dl
	setle	%dl
	andl	%edx, %ecx
	movl	%ecx, %r8d
	movl	$24, %edx
	subq	$1, %rdx
	leaq	(%rax,%rdx), %rcx
	movq	%rcx, %rdx
	shrq	$3, %rdx
	addq	$2147450880, %rdx
	movzbl	(%rdx), %edx
	testb	%dl, %dl
	setne	%dil
	andl	$7, %ecx
	cmpb	%dl, %cl
	setge	%dl
	andl	%edi, %edx
	orl	%r8d, %edx
	testb	%dl, %dl
	je	.L64
	movl	$24, %esi
	movq	%rax, %rdi
	call	__asan_report_store_n@PLT
.L64:
	leaq	-320(%rbx), %rax
	leaq	-176(%rbx), %rcx
	movl	%esi, %edx
	movq	%rcx, %rsi
	movq	%rax, %rdi
	call	_ZN5GraphIicE7getPathEi
	.loc 5 72 36 discriminator 1
	leaq	-320(%rbx), %rdx
	leaq	-384(%rbx), %rax
	movq	%rdx, %rsi
	movq	%rax, %rdi
	call	_ZNSt6vectorIiSaIiEEaSEOS1_
	.loc 5 72 34 discriminator 1
	leaq	-320(%rbx), %rax
	movq	%rax, %rdi
	call	_ZNSt6vectorIiSaIiEED1Ev
	leaq	-320(%rbx), %rax
	shrq	$3, %rax
	addq	$2147450880, %rax
	movw	$-1800, (%rax)
	movb	$-8, 2(%rax)
	.loc 5 73 71 discriminator 1
	leaq	-432(%rbx), %rax
	movq	%rax, %rdx
	movq	%rdx, %rax
	shrq	$3, %rax
	addq	$2147450880, %rax
	movzbl	(%rax), %eax
	testb	%al, %al
	setne	%cl
	cmpb	$3, %al
	setle	%al
	andl	%ecx, %eax
	testb	%al, %al
	je	.L65
	.loc 5 73 71 is_stmt 0
	movq	%rdx, %rdi
	call	__asan_report_load4@PLT
.L65:
	.loc 5 73 71 discriminator 1
	movl	-432(%rbx), %eax
	cltq
	.loc 5 73 72 is_stmt 1 discriminator 1
	leaq	0(,%rax,8), %rdx
	movq	-568(%rbp), %rax
	addq	%rdx, %rax
	.loc 5 73 19 discriminator 1
	movq	%rax, %rdx
	movq	%rdx, %rcx
	shrq	$3, %rcx
	addq	$2147450880, %rcx
	movzbl	(%rcx), %ecx
	testb	%cl, %cl
	je	.L66
	.loc 5 73 19 is_stmt 0
	movq	%rdx, %rdi
	call	__asan_report_load8@PLT
.L66:
	.loc 5 73 19 discriminator 1
	movq	(%rax), %rdx
	.loc 5 73 61 is_stmt 1 discriminator 1
	leaq	-448(%rbx), %rax
	movq	%rax, %rcx
	movq	%rcx, %rax
	shrq	$3, %rax
	addq	$2147450880, %rax
	movzbl	(%rax), %eax
	testb	%al, %al
	setne	%sil
	cmpb	$3, %al
	setle	%al
	andl	%esi, %eax
	testb	%al, %al
	je	.L67
	.loc 5 73 61 is_stmt 0
	movq	%rcx, %rdi
	call	__asan_report_load4@PLT
.L67:
	.loc 5 73 61 discriminator 1
	movl	-448(%rbx), %eax
	cltq
	.loc 5 73 62 is_stmt 1 discriminator 1
	leaq	0(,%rax,8), %rcx
	movq	-568(%rbp), %rax
	addq	%rcx, %rax
	.loc 5 73 19 discriminator 1
	movq	%rax, %rcx
	movq	%rcx, %rsi
	shrq	$3, %rsi
	addq	$2147450880, %rsi
	movzbl	(%rsi), %esi
	testb	%sil, %sil
	je	.L68
	.loc 5 73 19 is_stmt 0
	movq	%rcx, %rdi
	call	__asan_report_load8@PLT
.L68:
	.loc 5 73 19 discriminator 1
	movq	(%rax), %rax
	movq	%rax, %rsi
	leaq	.LC18(%rip), %rdi
	movl	$0, %eax
	call	printf@PLT
	.loc 5 74 32 is_stmt 1
	movq	$0, -576(%rbp)
.LBB23:
	.loc 5 75 22
	movl	$0, -584(%rbp)
.L76:
	.loc 5 75 29 discriminator 1
	movl	-584(%rbp), %eax
	movslq	%eax, %r14
	.loc 5 75 42 discriminator 1
	leaq	-384(%rbx), %rax
	movq	%rax, %rdi
	call	_ZNKSt6vectorIiSaIiEE4sizeEv
	.loc 5 75 31 discriminator 1
	cmpq	%rax, %r14
	setb	%al
	testb	%al, %al
	je	.L69
	.loc 5 77 43
	movl	-584(%rbp), %eax
	movslq	%eax, %rdx
	leaq	-384(%rbx), %rax
	movq	%rdx, %rsi
	movq	%rax, %rdi
	call	_ZNSt6vectorIiSaIiEEixEm
	movq	%rax, %rdx
	.loc 5 77 44
	movq	%rdx, %rax
	movq	%rax, %rcx
	shrq	$3, %rcx
	addq	$2147450880, %rcx
	movzbl	(%rcx), %ecx
	testb	%cl, %cl
	setne	%sil
	movq	%rax, %rdi
	andl	$7, %edi
	addl	$3, %edi
	cmpb	%cl, %dil
	setge	%cl
	andl	%esi, %ecx
	testb	%cl, %cl
	je	.L70
	movq	%rax, %rdi
	call	__asan_report_load4@PLT
.L70:
	movl	(%rdx), %eax
	cltq
	leaq	0(,%rax,8), %rdx
	movq	-568(%rbp), %rax
	addq	%rdx, %rax
	.loc 5 77 23
	movq	%rax, %rdx
	movq	%rdx, %rcx
	shrq	$3, %rcx
	addq	$2147450880, %rcx
	movzbl	(%rcx), %ecx
	testb	%cl, %cl
	je	.L71
	movq	%rdx, %rdi
	call	__asan_report_load8@PLT
.L71:
	movq	(%rax), %rax
	movq	%rax, %rsi
	leaq	.LC19(%rip), %rdi
	movl	$0, %eax
	call	printf@PLT
	.loc 5 78 17
	cmpl	$0, -584(%rbp)
	jle	.L72
	.loc 5 79 63
	movl	-584(%rbp), %eax
	subl	$1, %eax
	.loc 5 79 66
	movslq	%eax, %rdx
	leaq	-384(%rbx), %rax
	movq	%rdx, %rsi
	movq	%rax, %rdi
	call	_ZNSt6vectorIiSaIiEEixEm
	movq	%rax, %rdx
	.loc 5 79 67
	movq	%rdx, %rax
	movq	%rax, %rcx
	shrq	$3, %rcx
	addq	$2147450880, %rcx
	movzbl	(%rcx), %ecx
	testb	%cl, %cl
	setne	%sil
	movq	%rax, %rdi
	andl	$7, %edi
	addl	$3, %edi
	cmpb	%cl, %dil
	setge	%cl
	andl	%esi, %ecx
	testb	%cl, %cl
	je	.L73
	movq	%rax, %rdi
	call	__asan_report_load4@PLT
.L73:
	movl	(%rdx), %r14d
	.loc 5 79 53
	movl	-584(%rbp), %eax
	movslq	%eax, %rdx
	leaq	-384(%rbx), %rax
	movq	%rdx, %rsi
	movq	%rax, %rdi
	call	_ZNSt6vectorIiSaIiEEixEm
	movq	%rax, %rdx
	.loc 5 79 67
	movq	%rdx, %rax
	movq	%rax, %rcx
	shrq	$3, %rcx
	addq	$2147450880, %rcx
	movzbl	(%rcx), %ecx
	testb	%cl, %cl
	setne	%sil
	movq	%rax, %rdi
	andl	$7, %edi
	addl	$3, %edi
	cmpb	%cl, %dil
	setge	%cl
	andl	%esi, %ecx
	testb	%cl, %cl
	je	.L74
	movq	%rax, %rdi
	call	__asan_report_load4@PLT
.L74:
	movl	(%rdx), %ecx
	leaq	-176(%rbx), %rax
	movl	%r14d, %edx
	movl	%ecx, %esi
	movq	%rax, %rdi
	call	_ZN7ALGraphIicE6weightEii
	movq	%rax, %rdx
	.loc 5 79 46
	movq	%rdx, %rax
	movq	%rax, %rcx
	shrq	$3, %rcx
	addq	$2147450880, %rcx
	movzbl	(%rcx), %ecx
	testb	%cl, %cl
	setne	%sil
	movq	%rax, %rdi
	andl	$7, %edi
	addl	$3, %edi
	cmpb	%cl, %dil
	setge	%cl
	andl	%esi, %ecx
	testb	%cl, %cl
	je	.L75
	movq	%rax, %rdi
	call	__asan_report_load4@PLT
.L75:
	.loc 5 79 46 is_stmt 0 discriminator 1
	movl	(%rdx), %eax
	.loc 5 79 30 is_stmt 1 discriminator 1
	cltq
	addq	%rax, -576(%rbp)
.L72:
	.loc 5 75 13 discriminator 2
	addl	$1, -584(%rbp)
	jmp	.L76
.L69:
.LBE23:
	.loc 5 81 19
	movq	-576(%rbp), %rax
	movq	%rax, %rsi
	leaq	.LC20(%rip), %rdi
	movl	$0, %eax
	call	printf@PLT
	.loc 5 82 23
	leaq	-384(%rbx), %rax
	movq	%rax, %rdi
	call	_ZNSt6vectorIiSaIiEE5clearEv
.LBE22:
	jmp	.L87
.L58:
	.loc 5 84 24
	leaq	-96(%rbx), %rax
	leaq	.LC21(%rip), %rsi
	movq	%rax, %rdi
	call	strcmp@PLT
	.loc 5 84 14
	testl	%eax, %eax
	jne	.L77
	.loc 5 86 18
	leaq	-464(%rbx), %rax
	movq	%rax, %rsi
	leaq	.LC7(%rip), %rdi
	movl	$0, %eax
	call	__isoc99_scanf@PLT
	.loc 5 87 22
	leaq	-464(%rbx), %rax
	movq	%rax, %rdx
	movq	%rdx, %rax
	shrq	$3, %rax
	addq	$2147450880, %rax
	movzbl	(%rax), %eax
	testb	%al, %al
	setne	%cl
	cmpb	$3, %al
	setle	%al
	andl	%ecx, %eax
	testb	%al, %al
	je	.L78
	movq	%rdx, %rdi
	call	__asan_report_load4@PLT
.L78:
	movl	-464(%rbx), %eax
	.loc 5 87 13
	cmpl	%eax, -600(%rbp)
	je	.L79
	.loc 5 89 29
	leaq	-176(%rbx), %rax
	movq	%rax, %rdi
	call	_ZN7ALGraphIicE5clearEv
	.loc 5 90 22
	leaq	-464(%rbx), %rax
	movq	%rax, %rdx
	movq	%rdx, %rax
	shrq	$3, %rax
	addq	$2147450880, %rax
	movzbl	(%rax), %eax
	testb	%al, %al
	setne	%cl
	cmpb	$3, %al
	setle	%al
	andl	%ecx, %eax
	testb	%al, %al
	je	.L80
	movq	%rdx, %rdi
	call	__asan_report_load4@PLT
.L80:
	movl	-464(%rbx), %eax
	movl	%eax, -600(%rbp)
	.loc 5 91 23
	movl	-464(%rbx), %ecx
	leaq	-176(%rbx), %rdx
	leaq	-256(%rbx), %rax
	movl	%ecx, %esi
	movq	%rax, %rdi
	call	_ZN5GraphIicE4primEiRS0_
.L79:
	.loc 5 93 81
	leaq	-464(%rbx), %rax
	movq	%rax, %rdx
	movq	%rdx, %rax
	shrq	$3, %rax
	addq	$2147450880, %rax
	movzbl	(%rax), %eax
	testb	%al, %al
	setne	%cl
	cmpb	$3, %al
	setle	%al
	andl	%ecx, %eax
	testb	%al, %al
	je	.L81
	movq	%rdx, %rdi
	call	__asan_report_load4@PLT
.L81:
	movl	-464(%rbx), %eax
	cltq
	.loc 5 93 87
	leaq	0(,%rax,8), %rdx
	movq	-568(%rbp), %rax
	addq	%rdx, %rax
	.loc 5 93 19
	movq	%rax, %rdx
	movq	%rdx, %rcx
	shrq	$3, %rcx
	addq	$2147450880, %rcx
	movzbl	(%rcx), %ecx
	testb	%cl, %cl
	je	.L82
	movq	%rdx, %rdi
	call	__asan_report_load8@PLT
.L82:
	movq	(%rax), %rax
	movq	%rax, %rsi
	leaq	.LC22(%rip), %rdi
	movl	$0, %eax
	call	printf@PLT
	jmp	.L34
.L77:
	.loc 5 95 24
	leaq	-96(%rbx), %rax
	leaq	.LC23(%rip), %rsi
	movq	%rax, %rdi
	call	strcmp@PLT
	.loc 5 95 14
	testl	%eax, %eax
	jne	.L83
	.loc 5 97 19
	leaq	.LC24(%rip), %rdi
	call	puts@PLT
	.loc 5 98 18
	leaq	-256(%rbx), %rax
	movq	%rax, %rdi
	call	_ZN5GraphIicE3bccEv
	jmp	.L34
.L83:
	.loc 5 100 24
	leaq	-96(%rbx), %rax
	leaq	.LC25(%rip), %rsi
	movq	%rax, %rdi
	call	strcmp@PLT
	.loc 5 100 14
	testl	%eax, %eax
	jne	.L84
	.loc 5 102 19
	leaq	.LC25(%rip), %rdi
	call	puts@PLT
	.loc 5 103 13
	jmp	.L102
.L84:
	.loc 5 107 19
	leaq	-96(%rbx), %rax
	movq	%rax, %rsi
	leaq	.LC26(%rip), %rdi
	movl	$0, %eax
	call	printf@PLT
.L86:
	.loc 5 108 27
	call	getchar@PLT
.LEHE4:
	.loc 5 108 30
	cmpl	$10, %eax
	setne	%al
	testb	%al, %al
	je	.L87
	.loc 5 108 13
	jmp	.L86
.L34:
.LBE21:
.LBE20:
.LBE17:
.LBE16:
.LBE11:
.LBE10:
.LBE9:
.LBE8:
.LBE7:
.LBE6:
	.loc 5 111 5 discriminator 1
	jmp	.L87
.L102:
.LBB27:
	.loc 5 112 14
	movl	$0, -580(%rbp)
.L91:
	.loc 5 112 27 discriminator 3
	leaq	-256(%rbx), %rax
	addq	$8, %rax
	movq	%rax, %rdx
	movq	%rdx, %rax
	shrq	$3, %rax
	addq	$2147450880, %rax
	movzbl	(%rax), %eax
	testb	%al, %al
	setne	%cl
	cmpb	$3, %al
	setle	%al
	andl	%ecx, %eax
	testb	%al, %al
	je	.L88
	.loc 5 112 27 is_stmt 0
	movq	%rdx, %rdi
	call	__asan_report_load4@PLT
.L88:
	.loc 5 112 27 discriminator 3
	movl	-248(%rbx), %eax
	.loc 5 112 23 is_stmt 1 discriminator 3
	cmpl	%eax, -580(%rbp)
	jge	.L89
	.loc 5 113 20 discriminator 2
	movl	-580(%rbp), %eax
	cltq
	.loc 5 113 21 discriminator 2
	leaq	0(,%rax,8), %rdx
	movq	-568(%rbp), %rax
	addq	%rdx, %rax
	.loc 5 113 13 discriminator 2
	movq	%rax, %rdx
	movq	%rdx, %rcx
	shrq	$3, %rcx
	addq	$2147450880, %rcx
	movzbl	(%rcx), %ecx
	testb	%cl, %cl
	je	.L90
	.loc 5 113 13 is_stmt 0
	movq	%rdx, %rdi
	call	__asan_report_load8@PLT
.L90:
	.loc 5 113 13 discriminator 2
	movq	(%rax), %rax
	movq	%rax, %rdi
	call	free@PLT
	.loc 5 112 5 is_stmt 1 discriminator 2
	addl	$1, -580(%rbp)
	jmp	.L91
.L89:
.LBE27:
	.loc 5 114 9
	movq	-568(%rbp), %rax
	movq	%rax, %rdi
	call	free@PLT
	.loc 5 18 26
	leaq	-176(%rbx), %rax
	movq	%rax, %rdi
	call	_ZN7ALGraphIicED1Ev
	.loc 5 17 33
	leaq	-256(%rbx), %rax
	movq	%rax, %rdi
	call	_ZN7ALGraphIicED1Ev
	.loc 5 13 17
	leaq	-384(%rbx), %rax
	movq	%rax, %rdi
	call	_ZNSt6vectorIiSaIiEED1Ev
	.loc 5 115 1
	movl	$0, %eax
	movl	%eax, %edx
	.loc 5 11 1
	cmpq	%r13, %r15
	je	.L16
	jmp	.L103
.L101:
	endbr64
.LBB28:
.LBB26:
.LBB25:
.LBB24:
	.loc 6 234 75
	leaq	-480(%rbx), %rdx
	shrq	$3, %rdx
	addq	$2147450880, %rdx
	movb	$-8, (%rdx)
	movq	%rax, %r12
	jmp	.L94
.L100:
	endbr64
	movq	%rax, %r12
.L94:
.LBE24:
.LBE25:
.LBE26:
.LBE28:
	.loc 5 18 26
	leaq	-176(%rbx), %rax
	movq	%rax, %rdi
	call	_ZN7ALGraphIicED1Ev
	jmp	.L95
.L99:
	endbr64
	movq	%rax, %r12
.L95:
	.loc 5 17 33
	leaq	-256(%rbx), %rax
	movq	%rax, %rdi
	call	_ZN7ALGraphIicED1Ev
	jmp	.L96
.L98:
	endbr64
	movq	%rax, %r12
.L96:
	.loc 5 13 17
	leaq	-384(%rbx), %rax
	movq	%rax, %rdi
	call	_ZNSt6vectorIiSaIiEED1Ev
	movq	%r12, %rbx
	call	__asan_handle_no_return@PLT
	movq	%rbx, %rdi
.LEHB5:
	call	_Unwind_Resume@PLT
.LEHE5:
.L103:
	.loc 5 11 1
	movq	$1172321806, 0(%r13)
	movabsq	$-723401728380766731, %rsi
	movabsq	$-723401728380766731, %rdi
	movq	%rsi, 2147450880(%r12)
	movq	%rdi, 2147450888(%r12)
	movq	%rsi, 2147450896(%r12)
	movq	%rdi, 2147450904(%r12)
	movq	%rsi, 2147450912(%r12)
	movq	%rdi, 2147450920(%r12)
	movabsq	$-723401728380766731, %rax
	movq	%rax, 2147450928(%r12)
	movl	$-168430091, 2147450936(%r12)
	movq	504(%r13), %rax
	movb	$0, (%rax)
	jmp	.L17
.L16:
	movq	$0, 2147450880(%r12)
	movq	$0, 2147450888(%r12)
	movq	$0, 2147450896(%r12)
	movq	$0, 2147450904(%r12)
	movq	$0, 2147450916(%r12)
	movl	$0, 2147450928(%r12)
	movl	$0, 2147450936(%r12)
.L17:
	.loc 5 115 1
	movq	-56(%rbp), %rax
	xorq	%fs:40, %rax
	je	.L97
	call	__stack_chk_fail@PLT
.L97:
	movl	%edx, %eax
	addq	$568, %rsp
	popq	%rbx
	popq	%r12
	popq	%r13
	popq	%r14
	popq	%r15
	popq	%rbp
	.cfi_def_cfa 7, 8
	ret
	.cfi_endproc
.LFE4163:
	.globl	__gxx_personality_v0
	.section	.gcc_except_table,"a",@progbits
.LLSDA4163:
	.byte	0xff
	.byte	0xff
	.byte	0x1
	.uleb128 .LLSDACSE4163-.LLSDACSB4163
.LLSDACSB4163:
	.uleb128 .LEHB0-.LFB4163
	.uleb128 .LEHE0-.LEHB0
	.uleb128 .L98-.LFB4163
	.uleb128 0
	.uleb128 .LEHB1-.LFB4163
	.uleb128 .LEHE1-.LEHB1
	.uleb128 .L99-.LFB4163
	.uleb128 0
	.uleb128 .LEHB2-.LFB4163
	.uleb128 .LEHE2-.LEHB2
	.uleb128 .L100-.LFB4163
	.uleb128 0
	.uleb128 .LEHB3-.LFB4163
	.uleb128 .LEHE3-.LEHB3
	.uleb128 .L101-.LFB4163
	.uleb128 0
	.uleb128 .LEHB4-.LFB4163
	.uleb128 .LEHE4-.LEHB4
	.uleb128 .L100-.LFB4163
	.uleb128 0
	.uleb128 .LEHB5-.LFB4163
	.uleb128 .LEHE5-.LEHB5
	.uleb128 0
	.uleb128 0
.LLSDACSE4163:
	.text
	.size	main, .-main
	.section	.text._ZSt3maxImERKT_S2_S2_,"axG",@progbits,_ZSt3maxImERKT_S2_S2_,comdat
	.weak	_ZSt3maxImERKT_S2_S2_
	.type	_ZSt3maxImERKT_S2_S2_, @function
_ZSt3maxImERKT_S2_S2_:
.LASANPC4428:
.LFB4428:
	.loc 3 222 5
	.cfi_startproc
	endbr64
	pushq	%rbp
	.cfi_def_cfa_offset 16
	.cfi_offset 6, -16
	movq	%rsp, %rbp
	.cfi_def_cfa_register 6
	subq	$16, %rsp
	movq	%rdi, -8(%rbp)
	movq	%rsi, -16(%rbp)
	.loc 3 227 15
	movq	-8(%rbp), %rax
	movq	%rax, %rdx
	shrq	$3, %rdx
	addq	$2147450880, %rdx
	movzbl	(%rdx), %edx
	testb	%dl, %dl
	je	.L105
	movq	%rax, %rdi
	call	__asan_report_load8@PLT
.L105:
	movq	-8(%rbp), %rax
	movq	(%rax), %rcx
	movq	-16(%rbp), %rax
	movq	%rax, %rdx
	shrq	$3, %rdx
	addq	$2147450880, %rdx
	movzbl	(%rdx), %edx
	testb	%dl, %dl
	je	.L106
	movq	%rax, %rdi
	call	__asan_report_load8@PLT
.L106:
	movq	-16(%rbp), %rax
	movq	(%rax), %rax
	.loc 3 227 7
	cmpq	%rax, %rcx
	jnb	.L107
	.loc 3 228 9
	movq	-16(%rbp), %rax
	jmp	.L108
.L107:
	.loc 3 229 14
	movq	-8(%rbp), %rax
.L108:
	.loc 3 230 5
	leave
	.cfi_def_cfa 7, 8
	ret
	.cfi_endproc
.LFE4428:
	.size	_ZSt3maxImERKT_S2_S2_, .-_ZSt3maxImERKT_S2_S2_
	.section	.text._ZNSt12_Vector_baseIiSaIiEE12_Vector_implC2Ev,"axG",@progbits,_ZNSt12_Vector_baseIiSaIiEE12_Vector_implC5Ev,comdat
	.align 2
	.weak	_ZNSt12_Vector_baseIiSaIiEE12_Vector_implC2Ev
	.type	_ZNSt12_Vector_baseIiSaIiEE12_Vector_implC2Ev, @function
_ZNSt12_Vector_baseIiSaIiEE12_Vector_implC2Ev:
.LASANPC4466:
.LFB4466:
	.loc 4 128 2
	.cfi_startproc
	endbr64
	pushq	%rbp
	.cfi_def_cfa_offset 16
	.cfi_offset 6, -16
	movq	%rsp, %rbp
	.cfi_def_cfa_register 6
	subq	$16, %rsp
	movq	%rdi, -8(%rbp)
.LBB29:
	.loc 4 130 19
	movq	-8(%rbp), %rax
	movq	%rax, %rdi
	call	_ZNSaIiEC2Ev
	movq	-8(%rbp), %rax
	movq	%rax, %rdi
	call	_ZNSt12_Vector_baseIiSaIiEE17_Vector_impl_dataC2Ev
.LBE29:
	.loc 4 131 4
	nop
	leave
	.cfi_def_cfa 7, 8
	ret
	.cfi_endproc
.LFE4466:
	.size	_ZNSt12_Vector_baseIiSaIiEE12_Vector_implC2Ev, .-_ZNSt12_Vector_baseIiSaIiEE12_Vector_implC2Ev
	.weak	_ZNSt12_Vector_baseIiSaIiEE12_Vector_implC1Ev
	.set	_ZNSt12_Vector_baseIiSaIiEE12_Vector_implC1Ev,_ZNSt12_Vector_baseIiSaIiEE12_Vector_implC2Ev
	.section	.text._ZNSaIiED2Ev,"axG",@progbits,_ZNSaIiED5Ev,comdat
	.align 2
	.weak	_ZNSaIiED2Ev
	.type	_ZNSaIiED2Ev, @function
_ZNSaIiED2Ev:
.LASANPC4469:
.LFB4469:
	.file 7 "/usr/include/c++/9/bits/allocator.h"
	.loc 7 153 7
	.cfi_startproc
	endbr64
	pushq	%rbp
	.cfi_def_cfa_offset 16
	.cfi_offset 6, -16
	movq	%rsp, %rbp
	.cfi_def_cfa_register 6
	subq	$16, %rsp
	movq	%rdi, -8(%rbp)
.LBB30:
	.loc 7 153 31
	movq	-8(%rbp), %rax
	movq	%rax, %rdi
	call	_ZN9__gnu_cxx13new_allocatorIiED2Ev
.LBE30:
	nop
	leave
	.cfi_def_cfa 7, 8
	ret
	.cfi_endproc
.LFE4469:
	.size	_ZNSaIiED2Ev, .-_ZNSaIiED2Ev
	.weak	_ZNSaIiED1Ev
	.set	_ZNSaIiED1Ev,_ZNSaIiED2Ev
	.section	.text._ZNSt12_Vector_baseIiSaIiEED2Ev,"axG",@progbits,_ZNSt12_Vector_baseIiSaIiEED5Ev,comdat
	.align 2
	.weak	_ZNSt12_Vector_baseIiSaIiEED2Ev
	.type	_ZNSt12_Vector_baseIiSaIiEED2Ev, @function
_ZNSt12_Vector_baseIiSaIiEED2Ev:
.LASANPC4472:
.LFB4472:
	.loc 4 330 7
	.cfi_startproc
	.cfi_personality 0x9b,DW.ref.__gxx_personality_v0
	.cfi_lsda 0x1b,.LLSDA4472
	endbr64
	pushq	%rbp
	.cfi_def_cfa_offset 16
	.cfi_offset 6, -16
	movq	%rsp, %rbp
	.cfi_def_cfa_register 6
	subq	$16, %rsp
	movq	%rdi, -8(%rbp)
.LBB31:
	.loc 4 333 17
	movq	-8(%rbp), %rax
	addq	$16, %rax
	movq	%rax, %rdx
	shrq	$3, %rdx
	addq	$2147450880, %rdx
	movzbl	(%rdx), %edx
	testb	%dl, %dl
	je	.L112
	movq	%rax, %rdi
	call	__asan_report_load8@PLT
.L112:
	movq	-8(%rbp), %rax
	movq	16(%rax), %rcx
	.loc 4 333 45
	movq	-8(%rbp), %rax
	movq	%rax, %rdx
	shrq	$3, %rdx
	addq	$2147450880, %rdx
	movzbl	(%rdx), %edx
	testb	%dl, %dl
	je	.L113
	movq	%rax, %rdi
	call	__asan_report_load8@PLT
.L113:
	movq	-8(%rbp), %rax
	movq	(%rax), %rax
	.loc 4 333 35
	subq	%rax, %rcx
	movq	%rcx, %rax
	sarq	$2, %rax
	.loc 4 332 2
	movq	%rax, %rdx
	movq	-8(%rbp), %rax
	movq	(%rax), %rcx
	movq	-8(%rbp), %rax
	movq	%rcx, %rsi
	movq	%rax, %rdi
	call	_ZNSt12_Vector_baseIiSaIiEE13_M_deallocateEPim
	.loc 4 334 7
	movq	-8(%rbp), %rax
	movq	%rax, %rdi
	call	_ZNSt12_Vector_baseIiSaIiEE12_Vector_implD1Ev
.LBE31:
	nop
	leave
	.cfi_def_cfa 7, 8
	ret
	.cfi_endproc
.LFE4472:
	.section	.gcc_except_table
.LLSDA4472:
	.byte	0xff
	.byte	0xff
	.byte	0x1
	.uleb128 .LLSDACSE4472-.LLSDACSB4472
.LLSDACSB4472:
.LLSDACSE4472:
	.section	.text._ZNSt12_Vector_baseIiSaIiEED2Ev,"axG",@progbits,_ZNSt12_Vector_baseIiSaIiEED5Ev,comdat
	.size	_ZNSt12_Vector_baseIiSaIiEED2Ev, .-_ZNSt12_Vector_baseIiSaIiEED2Ev
	.weak	_ZNSt12_Vector_baseIiSaIiEED1Ev
	.set	_ZNSt12_Vector_baseIiSaIiEED1Ev,_ZNSt12_Vector_baseIiSaIiEED2Ev
	.section	.text._ZNSt6vectorIiSaIiEED2Ev,"axG",@progbits,_ZNSt6vectorIiSaIiEED5Ev,comdat
	.align 2
	.weak	_ZNSt6vectorIiSaIiEED2Ev
	.type	_ZNSt6vectorIiSaIiEED2Ev, @function
_ZNSt6vectorIiSaIiEED2Ev:
.LASANPC4475:
.LFB4475:
	.loc 4 675 7
	.cfi_startproc
	.cfi_personality 0x9b,DW.ref.__gxx_personality_v0
	.cfi_lsda 0x1b,.LLSDA4475
	endbr64
	pushq	%rbp
	.cfi_def_cfa_offset 16
	.cfi_offset 6, -16
	movq	%rsp, %rbp
	.cfi_def_cfa_register 6
	subq	$16, %rsp
	movq	%rdi, -8(%rbp)
.LBB32:
	.loc 4 678 28
	movq	-8(%rbp), %rax
	movq	%rax, %rdi
	call	_ZNSt12_Vector_baseIiSaIiEE19_M_get_Tp_allocatorEv
	movq	%rax, %rsi
	.loc 4 677 15
	movq	-8(%rbp), %rax
	addq	$8, %rax
	movq	%rax, %rdx
	shrq	$3, %rdx
	addq	$2147450880, %rdx
	movzbl	(%rdx), %edx
	testb	%dl, %dl
	je	.L115
	movq	%rax, %rdi
	call	__asan_report_load8@PLT
.L115:
	movq	-8(%rbp), %rax
	movq	8(%rax), %rcx
	movq	-8(%rbp), %rax
	movq	%rax, %rdx
	shrq	$3, %rdx
	addq	$2147450880, %rdx
	movzbl	(%rdx), %edx
	testb	%dl, %dl
	je	.L116
	movq	%rax, %rdi
	call	__asan_report_load8@PLT
.L116:
	movq	-8(%rbp), %rax
	movq	(%rax), %rax
	movq	%rsi, %rdx
	movq	%rcx, %rsi
	movq	%rax, %rdi
	call	_ZSt8_DestroyIPiiEvT_S1_RSaIT0_E
	.loc 4 680 7
	movq	-8(%rbp), %rax
	movq	%rax, %rdi
	call	_ZNSt12_Vector_baseIiSaIiEED2Ev
.LBE32:
	nop
	leave
	.cfi_def_cfa 7, 8
	ret
	.cfi_endproc
.LFE4475:
	.section	.gcc_except_table
.LLSDA4475:
	.byte	0xff
	.byte	0xff
	.byte	0x1
	.uleb128 .LLSDACSE4475-.LLSDACSB4475
.LLSDACSB4475:
.LLSDACSE4475:
	.section	.text._ZNSt6vectorIiSaIiEED2Ev,"axG",@progbits,_ZNSt6vectorIiSaIiEED5Ev,comdat
	.size	_ZNSt6vectorIiSaIiEED2Ev, .-_ZNSt6vectorIiSaIiEED2Ev
	.weak	_ZNSt6vectorIiSaIiEED1Ev
	.set	_ZNSt6vectorIiSaIiEED1Ev,_ZNSt6vectorIiSaIiEED2Ev
	.section	.text._ZNSt12_Vector_baseI5VNodeIicESaIS1_EE12_Vector_implD2Ev,"axG",@progbits,_ZNSt12_Vector_baseI5VNodeIicESaIS1_EE12_Vector_implD5Ev,comdat
	.align 2
	.weak	_ZNSt12_Vector_baseI5VNodeIicESaIS1_EE12_Vector_implD2Ev
	.type	_ZNSt12_Vector_baseI5VNodeIicESaIS1_EE12_Vector_implD2Ev, @function
_ZNSt12_Vector_baseI5VNodeIicESaIS1_EE12_Vector_implD2Ev:
.LASANPC4481:
.LFB4481:
	.loc 4 125 14
	.cfi_startproc
	endbr64
	pushq	%rbp
	.cfi_def_cfa_offset 16
	.cfi_offset 6, -16
	movq	%rsp, %rbp
	.cfi_def_cfa_register 6
	subq	$16, %rsp
	movq	%rdi, -8(%rbp)
.LBB33:
	.loc 4 125 14
	movq	-8(%rbp), %rax
	movq	%rax, %rdi
	call	_ZNSaI5VNodeIicEED2Ev
.LBE33:
	nop
	leave
	.cfi_def_cfa 7, 8
	ret
	.cfi_endproc
.LFE4481:
	.size	_ZNSt12_Vector_baseI5VNodeIicESaIS1_EE12_Vector_implD2Ev, .-_ZNSt12_Vector_baseI5VNodeIicESaIS1_EE12_Vector_implD2Ev
	.weak	_ZNSt12_Vector_baseI5VNodeIicESaIS1_EE12_Vector_implD1Ev
	.set	_ZNSt12_Vector_baseI5VNodeIicESaIS1_EE12_Vector_implD1Ev,_ZNSt12_Vector_baseI5VNodeIicESaIS1_EE12_Vector_implD2Ev
	.section	.text._ZNSt12_Vector_baseI5VNodeIicESaIS1_EEC2Ev,"axG",@progbits,_ZNSt12_Vector_baseI5VNodeIicESaIS1_EEC5Ev,comdat
	.align 2
	.weak	_ZNSt12_Vector_baseI5VNodeIicESaIS1_EEC2Ev
	.type	_ZNSt12_Vector_baseI5VNodeIicESaIS1_EEC2Ev, @function
_ZNSt12_Vector_baseI5VNodeIicESaIS1_EEC2Ev:
.LASANPC4483:
.LFB4483:
	.loc 4 285 7
	.cfi_startproc
	endbr64
	pushq	%rbp
	.cfi_def_cfa_offset 16
	.cfi_offset 6, -16
	movq	%rsp, %rbp
	.cfi_def_cfa_register 6
	subq	$16, %rsp
	movq	%rdi, -8(%rbp)
.LBB34:
	.loc 4 285 7
	movq	-8(%rbp), %rax
	movq	%rax, %rdi
	call	_ZNSt12_Vector_baseI5VNodeIicESaIS1_EE12_Vector_implC1Ev
.LBE34:
	nop
	leave
	.cfi_def_cfa 7, 8
	ret
	.cfi_endproc
.LFE4483:
	.size	_ZNSt12_Vector_baseI5VNodeIicESaIS1_EEC2Ev, .-_ZNSt12_Vector_baseI5VNodeIicESaIS1_EEC2Ev
	.weak	_ZNSt12_Vector_baseI5VNodeIicESaIS1_EEC1Ev
	.set	_ZNSt12_Vector_baseI5VNodeIicESaIS1_EEC1Ev,_ZNSt12_Vector_baseI5VNodeIicESaIS1_EEC2Ev
	.section	.text._ZNSt6vectorI5VNodeIicESaIS1_EEC2Ev,"axG",@progbits,_ZNSt6vectorI5VNodeIicESaIS1_EEC5Ev,comdat
	.align 2
	.weak	_ZNSt6vectorI5VNodeIicESaIS1_EEC2Ev
	.type	_ZNSt6vectorI5VNodeIicESaIS1_EEC2Ev, @function
_ZNSt6vectorI5VNodeIicESaIS1_EEC2Ev:
.LASANPC4485:
.LFB4485:
	.loc 4 484 7
	.cfi_startproc
	endbr64
	pushq	%rbp
	.cfi_def_cfa_offset 16
	.cfi_offset 6, -16
	movq	%rsp, %rbp
	.cfi_def_cfa_register 6
	subq	$16, %rsp
	movq	%rdi, -8(%rbp)
.LBB35:
	.loc 4 484 7
	movq	-8(%rbp), %rax
	movq	%rax, %rdi
	call	_ZNSt12_Vector_baseI5VNodeIicESaIS1_EEC2Ev
.LBE35:
	nop
	leave
	.cfi_def_cfa 7, 8
	ret
	.cfi_endproc
.LFE4485:
	.size	_ZNSt6vectorI5VNodeIicESaIS1_EEC2Ev, .-_ZNSt6vectorI5VNodeIicESaIS1_EEC2Ev
	.weak	_ZNSt6vectorI5VNodeIicESaIS1_EEC1Ev
	.set	_ZNSt6vectorI5VNodeIicESaIS1_EEC1Ev,_ZNSt6vectorI5VNodeIicESaIS1_EEC2Ev
	.section	.text._ZN7ALGraphIicEC2Ei6Direct,"axG",@progbits,_ZN7ALGraphIicEC5Ei6Direct,comdat
	.align 2
	.weak	_ZN7ALGraphIicEC2Ei6Direct
	.type	_ZN7ALGraphIicEC2Ei6Direct, @function
_ZN7ALGraphIicEC2Ei6Direct:
.LASANPC4487:
.LFB4487:
	.loc 6 33 5
	.cfi_startproc
	.cfi_personality 0x9b,DW.ref.__gxx_personality_v0
	.cfi_lsda 0x1b,.LLSDA4487
	endbr64
	pushq	%rbp
	.cfi_def_cfa_offset 16
	.cfi_offset 6, -16
	movq	%rsp, %rbp
	.cfi_def_cfa_register 6
	pushq	%rbx
	subq	$24, %rsp
	.cfi_offset 3, -24
	movq	%rdi, -24(%rbp)
	movl	%esi, -28(%rbp)
	movl	%edx, -32(%rbp)
.LBB36:
	.loc 6 33 72
	movq	-24(%rbp), %rax
	movl	-32(%rbp), %edx
	movl	%edx, %ecx
	movl	$0, %edx
	movl	$0, %esi
	movq	%rax, %rdi
	call	_ZN5GraphIicEC2Eii6Direct
	leaq	16+_ZTV7ALGraphIicE(%rip), %rcx
	movq	-24(%rbp), %rax
	movq	%rax, %rdx
	shrq	$3, %rdx
	addq	$2147450880, %rdx
	movzbl	(%rdx), %edx
	testb	%dl, %dl
	je	.L121
	movq	%rax, %rdi
	call	__asan_report_store8@PLT
.L121:
	movq	-24(%rbp), %rax
	movq	%rcx, (%rax)
	movq	-24(%rbp), %rax
	addq	$24, %rax
	movq	%rax, %rdi
	call	_ZNSt6vectorI5VNodeIicESaIS1_EEC1Ev
	.loc 6 33 76
	movq	-24(%rbp), %rax
	leaq	24(%rax), %rdx
	movl	-28(%rbp), %eax
	cltq
	movq	%rax, %rsi
	movq	%rdx, %rdi
.LEHB6:
	call	_ZNSt6vectorI5VNodeIicESaIS1_EE7reserveEm
.LEHE6:
.LBE36:
	.loc 6 33 94
	jmp	.L124
.L123:
	endbr64
	movq	%rax, %rbx
.LBB37:
	.loc 6 33 72
	movq	-24(%rbp), %rax
	addq	$24, %rax
	movq	%rax, %rdi
	call	_ZNSt6vectorI5VNodeIicESaIS1_EED1Ev
	call	__asan_handle_no_return@PLT
	movq	%rbx, %rdi
.LEHB7:
	call	_Unwind_Resume@PLT
.LEHE7:
.L124:
.LBE37:
	.loc 6 33 94
	addq	$24, %rsp
	popq	%rbx
	popq	%rbp
	.cfi_def_cfa 7, 8
	ret
	.cfi_endproc
.LFE4487:
	.section	.gcc_except_table
.LLSDA4487:
	.byte	0xff
	.byte	0xff
	.byte	0x1
	.uleb128 .LLSDACSE4487-.LLSDACSB4487
.LLSDACSB4487:
	.uleb128 .LEHB6-.LFB4487
	.uleb128 .LEHE6-.LEHB6
	.uleb128 .L123-.LFB4487
	.uleb128 0
	.uleb128 .LEHB7-.LFB4487
	.uleb128 .LEHE7-.LEHB7
	.uleb128 0
	.uleb128 0
.LLSDACSE4487:
	.section	.text._ZN7ALGraphIicEC2Ei6Direct,"axG",@progbits,_ZN7ALGraphIicEC5Ei6Direct,comdat
	.size	_ZN7ALGraphIicEC2Ei6Direct, .-_ZN7ALGraphIicEC2Ei6Direct
	.weak	_ZN7ALGraphIicEC1Ei6Direct
	.set	_ZN7ALGraphIicEC1Ei6Direct,_ZN7ALGraphIicEC2Ei6Direct
	.section	.text._ZN7ALGraphIicED2Ev,"axG",@progbits,_ZN7ALGraphIicED5Ev,comdat
	.align 2
	.weak	_ZN7ALGraphIicED2Ev
	.type	_ZN7ALGraphIicED2Ev, @function
_ZN7ALGraphIicED2Ev:
.LASANPC4490:
.LFB4490:
	.loc 6 99 5
	.cfi_startproc
	endbr64
	pushq	%rbp
	.cfi_def_cfa_offset 16
	.cfi_offset 6, -16
	movq	%rsp, %rbp
	.cfi_def_cfa_register 6
	subq	$48, %rsp
	movq	%rdi, -40(%rbp)
.LBB38:
	.loc 6 112 5
	leaq	16+_ZTV7ALGraphIicE(%rip), %rcx
	movq	-40(%rbp), %rax
	movq	%rax, %rdx
	shrq	$3, %rdx
	addq	$2147450880, %rdx
	movzbl	(%rdx), %edx
	testb	%dl, %dl
	je	.L126
	movq	%rax, %rdi
	call	__asan_report_store8@PLT
.L126:
	movq	-40(%rbp), %rax
	movq	%rcx, (%rax)
.LBB39:
.LBB40:
	.loc 6 102 18
	movl	$0, -20(%rbp)
.L134:
	.loc 6 102 29 discriminator 1
	movq	-40(%rbp), %rax
	addq	$8, %rax
	movq	%rax, %rdx
	movq	%rdx, %rax
	shrq	$3, %rax
	addq	$2147450880, %rax
	movzbl	(%rax), %eax
	testb	%al, %al
	setne	%cl
	cmpb	$3, %al
	setle	%al
	andl	%ecx, %eax
	testb	%al, %al
	je	.L127
	.loc 6 102 29 is_stmt 0
	movq	%rdx, %rdi
	call	__asan_report_load4@PLT
.L127:
	.loc 6 102 29 discriminator 1
	movq	-40(%rbp), %rax
	movl	8(%rax), %eax
	.loc 6 102 27 is_stmt 1 discriminator 1
	cmpl	%eax, -20(%rbp)
	jge	.L128
	.loc 6 104 22
	movq	-40(%rbp), %rax
	leaq	24(%rax), %rdx
	movl	-20(%rbp), %eax
	cltq
	movq	%rax, %rsi
	movq	%rdx, %rdi
	call	_ZNSt6vectorI5VNodeIicESaIS1_EEixEm
	.loc 6 104 13
	leaq	32(%rax), %rdx
	movq	%rdx, %rcx
	shrq	$3, %rcx
	addq	$2147450880, %rcx
	movzbl	(%rcx), %ecx
	testb	%cl, %cl
	je	.L129
	movq	%rdx, %rdi
	call	__asan_report_load8@PLT
.L129:
	movq	32(%rax), %rax
	movq	%rax, -16(%rbp)
.L133:
	.loc 6 105 13
	cmpq	$0, -16(%rbp)
	je	.L130
	.loc 6 107 17
	movq	-16(%rbp), %rax
	addq	$16, %rax
	movq	%rax, %rdx
	shrq	$3, %rdx
	addq	$2147450880, %rdx
	movzbl	(%rdx), %edx
	testb	%dl, %dl
	je	.L131
	movq	%rax, %rdi
	call	__asan_report_load8@PLT
.L131:
	movq	-16(%rbp), %rax
	movq	16(%rax), %rax
	movq	%rax, -8(%rbp)
	.loc 6 108 24
	movq	-16(%rbp), %rax
	.loc 6 108 17
	testq	%rax, %rax
	je	.L132
	.loc 6 108 17 is_stmt 0 discriminator 1
	movl	$32, %esi
	movq	%rax, %rdi
	call	_ZdlPvm@PLT
.L132:
	.loc 6 109 17 is_stmt 1
	movq	-8(%rbp), %rax
	movq	%rax, -16(%rbp)
	.loc 6 105 13
	jmp	.L133
.L130:
	.loc 6 102 9 discriminator 2
	addl	$1, -20(%rbp)
	jmp	.L134
.L128:
.LBE40:
.LBE39:
	.loc 6 112 5
	movq	-40(%rbp), %rax
	addq	$24, %rax
	movq	%rax, %rdi
	call	_ZNSt6vectorI5VNodeIicESaIS1_EED1Ev
.LBE38:
	nop
	leave
	.cfi_def_cfa 7, 8
	ret
	.cfi_endproc
.LFE4490:
	.size	_ZN7ALGraphIicED2Ev, .-_ZN7ALGraphIicED2Ev
	.weak	_ZN7ALGraphIicED1Ev
	.set	_ZN7ALGraphIicED1Ev,_ZN7ALGraphIicED2Ev
	.globl	__asan_stack_malloc_1
	.section	.rodata
.LC27:
	.string	"1 48 40 9 <unknown>"
	.section	.text._ZN7ALGraphIicE6insertERKi,"axG",@progbits,_ZN7ALGraphIicE6insertERKi,comdat
	.align 2
	.weak	_ZN7ALGraphIicE6insertERKi
	.type	_ZN7ALGraphIicE6insertERKi, @function
_ZN7ALGraphIicE6insertERKi:
.LASANPC4492:
.LFB4492:
	.loc 6 192 17
	.cfi_startproc
	endbr64
	pushq	%rbp
	.cfi_def_cfa_offset 16
	.cfi_offset 6, -16
	movq	%rsp, %rbp
	.cfi_def_cfa_register 6
	pushq	%r15
	pushq	%r14
	pushq	%r13
	pushq	%r12
	pushq	%rbx
	subq	$184, %rsp
	.cfi_offset 15, -24
	.cfi_offset 14, -32
	.cfi_offset 13, -40
	.cfi_offset 12, -48
	.cfi_offset 3, -56
	movq	%rdi, -216(%rbp)
	movq	%rsi, -224(%rbp)
	leaq	-208(%rbp), %rbx
	movq	%rbx, %r15
	cmpl	$0, __asan_option_detect_stack_use_after_return(%rip)
	je	.L135
	movl	$128, %edi
	call	__asan_stack_malloc_1@PLT
.LVL1:
	testq	%rax, %rax
	je	.L135
	movq	%rax, %rbx
.L135:
	leaq	160(%rbx), %rax
	movq	%rax, %r13
	movq	$1102416563, (%rbx)
	leaq	.LC27(%rip), %rax
	movq	%rax, 8(%rbx)
	leaq	.LASANPC4492(%rip), %rax
	movq	%rax, 16(%rbx)
	movq	%rbx, %r12
	shrq	$3, %r12
	movl	$-235802127, 2147450880(%r12)
	movl	$61937, 2147450884(%r12)
	movl	$-218103808, 2147450888(%r12)
	movl	$-202116109, 2147450892(%r12)
	.loc 6 192 17
	movq	%fs:40, %rax
	movq	%rax, -56(%rbp)
	xorl	%eax, %eax
	.loc 6 194 9
	movq	-216(%rbp), %rax
	movq	%rax, %rdx
	shrq	$3, %rdx
	addq	$2147450880, %rdx
	movzbl	(%rdx), %edx
	testb	%dl, %dl
	je	.L139
	movq	%rax, %rdi
	call	__asan_report_load8@PLT
.L139:
	movq	-216(%rbp), %rax
	movq	(%rax), %rax
	addq	$104, %rax
	movq	%rax, %rdx
	movq	%rdx, %rcx
	shrq	$3, %rcx
	addq	$2147450880, %rcx
	movzbl	(%rcx), %ecx
	testb	%cl, %cl
	je	.L140
	movq	%rdx, %rdi
	call	__asan_report_load8@PLT
.L140:
	movq	(%rax), %r14
	movq	-216(%rbp), %rax
	movq	(%rax), %rax
	addq	$8, %rax
	movq	%rax, %rdx
	movq	%rdx, %rcx
	shrq	$3, %rcx
	addq	$2147450880, %rcx
	movzbl	(%rcx), %ecx
	testb	%cl, %cl
	je	.L141
	movq	%rdx, %rdi
	call	__asan_report_load8@PLT
.L141:
	movq	(%rax), %rcx
	movq	-224(%rbp), %rdx
	movq	-216(%rbp), %rax
	movq	%rdx, %rsi
	movq	%rax, %rdi
	call	*%rcx
.LVL2:
	movl	%eax, %edx
	movq	-216(%rbp), %rax
	movl	%edx, %esi
	movq	%rax, %rdi
	call	*%r14
.LVL3:
	testb	%al, %al
	je	.L142
	.loc 6 195 21
	movl	$-1, %eax
	jmp	.L143
.L142:
	.loc 6 196 9
	movq	-216(%rbp), %rax
	leaq	24(%rax), %r14
	movq	-224(%rbp), %rcx
	leaq	-112(%r13), %rax
	movl	$0, %edx
	movq	%rcx, %rsi
	movq	%rax, %rdi
	call	_ZN5VNodeIicEC1ERKiP5ENodeIcE
	leaq	-112(%r13), %rax
	movq	%rax, %rsi
	movq	%r14, %rdi
	call	_ZNSt6vectorI5VNodeIicESaIS1_EE9push_backEOS1_
	leaq	-112(%r13), %rax
	shrq	$3, %rax
	addq	$2147450880, %rax
	movl	$-117901064, (%rax)
	movb	$-8, 4(%rax)
	.loc 6 197 9
	movq	-216(%rbp), %rax
	addq	$8, %rax
	movq	%rax, %rdx
	movq	%rdx, %rax
	shrq	$3, %rax
	addq	$2147450880, %rax
	movzbl	(%rax), %eax
	testb	%al, %al
	setne	%cl
	cmpb	$3, %al
	setle	%al
	andl	%ecx, %eax
	testb	%al, %al
	je	.L144
	movq	%rdx, %rdi
	call	__asan_report_load4@PLT
.L144:
	.loc 6 197 9 is_stmt 0 discriminator 2
	movq	-216(%rbp), %rax
	movl	8(%rax), %eax
	leal	1(%rax), %edx
	movq	-216(%rbp), %rax
	movl	%edx, 8(%rax)
	.loc 6 198 16 is_stmt 1 discriminator 2
	movq	-216(%rbp), %rax
	movl	8(%rax), %eax
	.loc 6 198 20 discriminator 2
	subl	$1, %eax
.L143:
	movl	%eax, %edx
	.loc 6 192 17
	cmpq	%rbx, %r15
	je	.L136
	movq	$1172321806, (%rbx)
	movabsq	$-723401728380766731, %rsi
	movabsq	$-723401728380766731, %rdi
	movq	%rsi, 2147450880(%r12)
	movq	%rdi, 2147450888(%r12)
	movq	120(%rbx), %rax
	movb	$0, (%rax)
	jmp	.L137
.L136:
	movq	$0, 2147450880(%r12)
	movq	$0, 2147450888(%r12)
.L137:
	.loc 6 199 5
	movq	-56(%rbp), %rax
	xorq	%fs:40, %rax
	je	.L145
	call	__stack_chk_fail@PLT
.L145:
	movl	%edx, %eax
	addq	$184, %rsp
	popq	%rbx
	popq	%r12
	popq	%r13
	popq	%r14
	popq	%r15
	popq	%rbp
	.cfi_def_cfa 7, 8
	ret
	.cfi_endproc
.LFE4492:
	.size	_ZN7ALGraphIicE6insertERKi, .-_ZN7ALGraphIicE6insertERKi
	.section	.rodata
	.align 8
.LC28:
	.string	"2 48 1 9 <unknown> 64 1 9 <unknown>"
	.align 32
.LC29:
	.string	"insert"
	.zero	57
	.align 32
.LC30:
	.string	"../src/GraphAdjacencyList.h"
	.zero	36
	.align 32
.LC31:
	.string	"\033[1;35m  LOG(%s:%s:%d):\t\033[32merror loc to insert edge from index %d to %d\n"
	.zero	53
	.section	.text._ZN7ALGraphIicE6insertEiiiRKc,"axG",@progbits,_ZN7ALGraphIicE6insertEiiiRKc,comdat
	.align 2
	.weak	_ZN7ALGraphIicE6insertEiiiRKc
	.type	_ZN7ALGraphIicE6insertEiiiRKc, @function
_ZN7ALGraphIicE6insertEiiiRKc:
.LASANPC4493:
.LFB4493:
	.loc 6 234 18
	.cfi_startproc
	.cfi_personality 0x9b,DW.ref.__gxx_personality_v0
	.cfi_lsda 0x1b,.LLSDA4493
	endbr64
	pushq	%rbp
	.cfi_def_cfa_offset 16
	.cfi_offset 6, -16
	movq	%rsp, %rbp
	.cfi_def_cfa_register 6
	pushq	%r15
	pushq	%r14
	pushq	%r13
	pushq	%r12
	pushq	%rbx
	subq	$184, %rsp
	.cfi_offset 15, -24
	.cfi_offset 14, -32
	.cfi_offset 13, -40
	.cfi_offset 12, -48
	.cfi_offset 3, -56
	movq	%rdi, -184(%rbp)
	movl	%esi, -188(%rbp)
	movl	%edx, -192(%rbp)
	movl	%ecx, -196(%rbp)
	movq	%r8, -208(%rbp)
	leaq	-176(%rbp), %rbx
	movq	%rbx, -224(%rbp)
	cmpl	$0, __asan_option_detect_stack_use_after_return(%rip)
	je	.L146
	movl	$96, %edi
	call	__asan_stack_malloc_1@PLT
.LVL4:
	testq	%rax, %rax
	je	.L146
	movq	%rax, %rbx
.L146:
	leaq	128(%rbx), %rax
	movq	%rax, %r12
	movq	$1102416563, (%rbx)
	leaq	.LC28(%rip), %rax
	movq	%rax, 8(%rbx)
	leaq	.LASANPC4493(%rip), %rax
	movq	%rax, 16(%rbx)
	movq	%rbx, %r13
	shrq	$3, %r13
	movl	$-235802127, 2147450880(%r13)
	movl	$-234753551, 2147450884(%r13)
	movl	$-202116351, 2147450888(%r13)
	.loc 6 234 18
	movq	%fs:40, %rax
	movq	%rax, -56(%rbp)
	xorl	%eax, %eax
	.loc 6 236 26
	movq	-184(%rbp), %rax
	movq	%rax, %rdx
	shrq	$3, %rdx
	addq	$2147450880, %rdx
	movzbl	(%rdx), %edx
	testb	%dl, %dl
	je	.L150
	movq	%rax, %rdi
	call	__asan_report_load8@PLT
.L150:
	movq	-184(%rbp), %rax
	movq	(%rax), %rax
	addq	$112, %rax
	movq	%rax, %rdx
	movq	%rdx, %rcx
	shrq	$3, %rcx
	addq	$2147450880, %rcx
	movzbl	(%rcx), %ecx
	testb	%cl, %cl
	je	.L151
	movq	%rdx, %rdi
	call	__asan_report_load8@PLT
.L151:
	movq	(%rax), %r8
	movl	-192(%rbp), %edx
	movl	-188(%rbp), %ecx
	movq	-184(%rbp), %rax
	movl	%ecx, %esi
	movq	%rax, %rdi
.LEHB8:
	call	*%r8
.LVL5:
	.loc 6 236 54
	testb	%al, %al
	jne	.L152
	.loc 6 236 29 discriminator 2
	movq	-184(%rbp), %rax
	movq	%rax, %rdx
	shrq	$3, %rdx
	addq	$2147450880, %rdx
	movzbl	(%rdx), %edx
	testb	%dl, %dl
	je	.L153
	.loc 6 236 29 is_stmt 0
	movq	%rax, %rdi
	call	__asan_report_load8@PLT
.L153:
	.loc 6 236 29 discriminator 2
	movq	-184(%rbp), %rax
	movq	(%rax), %rax
	addq	$104, %rax
	movq	%rax, %rdx
	movq	%rdx, %rcx
	shrq	$3, %rcx
	addq	$2147450880, %rcx
	movzbl	(%rcx), %ecx
	testb	%cl, %cl
	je	.L154
	.loc 6 236 29
	movq	%rdx, %rdi
	call	__asan_report_load8@PLT
.L154:
	.loc 6 236 29 discriminator 2
	movq	(%rax), %rcx
	movl	-188(%rbp), %edx
	movq	-184(%rbp), %rax
	movl	%edx, %esi
	movq	%rax, %rdi
	call	*%rcx
.LVL6:
	xorl	$1, %eax
	.loc 6 236 26 is_stmt 1 discriminator 2
	testb	%al, %al
	jne	.L152
	.loc 6 236 43 discriminator 4
	movq	-184(%rbp), %rax
	movq	%rax, %rdx
	shrq	$3, %rdx
	addq	$2147450880, %rdx
	movzbl	(%rdx), %edx
	testb	%dl, %dl
	je	.L155
	.loc 6 236 43 is_stmt 0
	movq	%rax, %rdi
	call	__asan_report_load8@PLT
.L155:
	.loc 6 236 43 discriminator 4
	movq	-184(%rbp), %rax
	movq	(%rax), %rax
	addq	$104, %rax
	movq	%rax, %rdx
	movq	%rdx, %rcx
	shrq	$3, %rcx
	addq	$2147450880, %rcx
	movzbl	(%rcx), %ecx
	testb	%cl, %cl
	je	.L156
	.loc 6 236 43
	movq	%rdx, %rdi
	call	__asan_report_load8@PLT
.L156:
	.loc 6 236 43 discriminator 4
	movq	(%rax), %rcx
	movl	-192(%rbp), %edx
	movq	-184(%rbp), %rax
	movl	%edx, %esi
	movq	%rax, %rdi
	call	*%rcx
.LVL7:
	xorl	$1, %eax
	.loc 6 236 40 is_stmt 1 discriminator 4
	testb	%al, %al
	jne	.L152
	.loc 6 236 54 discriminator 6
	movl	-188(%rbp), %eax
	cmpl	-192(%rbp), %eax
	jne	.L157
.L152:
	.loc 6 236 54 is_stmt 0 discriminator 7
	movl	$1, %eax
	jmp	.L158
.L157:
	.loc 6 236 54 discriminator 8
	movl	$0, %eax
.L158:
	.loc 6 236 9 is_stmt 1 discriminator 10
	testb	%al, %al
	je	.L159
	.loc 6 238 20
	leaq	stderr(%rip), %rax
	movq	%rax, %rdx
	shrq	$3, %rdx
	addq	$2147450880, %rdx
	movzbl	(%rdx), %edx
	testb	%dl, %dl
	je	.L160
	movq	%rax, %rdi
	call	__asan_report_load8@PLT
.L160:
	movq	stderr(%rip), %rax
	movl	-188(%rbp), %ecx
	subq	$8, %rsp
	movl	-192(%rbp), %edx
	pushq	%rdx
	movl	%ecx, %r9d
	movl	$238, %r8d
	leaq	.LC29(%rip), %rcx
	leaq	.LC30(%rip), %rdx
	leaq	.LC31(%rip), %rsi
	movq	%rax, %rdi
	movl	$0, %eax
	call	fprintf@PLT
	addq	$16, %rsp
	.loc 6 239 13
	jmp	.L149
.L159:
	.loc 6 241 46
	movq	-184(%rbp), %rax
	leaq	24(%rax), %rdx
	movl	-188(%rbp), %eax
	cltq
	movq	%rax, %rsi
	movq	%rdx, %rdi
	call	_ZNSt6vectorI5VNodeIicESaIS1_EEixEm
	.loc 6 241 50
	leaq	32(%rax), %rdx
	movq	%rdx, %rcx
	shrq	$3, %rcx
	addq	$2147450880, %rcx
	movzbl	(%rcx), %ecx
	testb	%cl, %cl
	je	.L162
	movq	%rdx, %rdi
	call	__asan_report_load8@PLT
.L162:
	movq	32(%rax), %r15
	.loc 6 13 80
	leaq	-80(%r12), %rax
	movq	%rax, %rdx
	movq	%rdx, %rax
	shrq	$3, %rax
	addq	$2147450880, %rax
	movzbl	(%rax), %eax
	testb	%al, %al
	setne	%cl
	testb	%al, %al
	setle	%al
	andl	%ecx, %eax
	testb	%al, %al
	je	.L163
	movq	%rdx, %rdi
	call	__asan_report_store1@PLT
.L163:
	movb	$1, -80(%r12)
	leaq	-80(%r12), %rax
	movq	%rax, -216(%rbp)
	.loc 6 241 24
	movl	$32, %edi
	call	_Znwm@PLT
.LEHE8:
	movq	%rax, %r14
	movl	-196(%rbp), %edx
	movl	-192(%rbp), %eax
	movq	-216(%rbp), %r8
	movl	%edx, %ecx
	movq	%r15, %rdx
	movl	%eax, %esi
	movq	%r14, %rdi
.LEHB9:
	call	_ZN5ENodeIcEC1EiPS0_iRKc
.LEHE9:
	.loc 6 241 14 discriminator 3
	movq	-184(%rbp), %rax
	leaq	24(%rax), %rdx
	movl	-188(%rbp), %eax
	cltq
	movq	%rax, %rsi
	movq	%rdx, %rdi
	call	_ZNSt6vectorI5VNodeIicESaIS1_EEixEm
	.loc 6 241 9 discriminator 3
	leaq	32(%rax), %rdx
	movq	%rdx, %rcx
	shrq	$3, %rcx
	addq	$2147450880, %rcx
	movzbl	(%rcx), %ecx
	testb	%cl, %cl
	je	.L164
	.loc 6 241 9 is_stmt 0
	movq	%rdx, %rdi
	call	__asan_report_store8@PLT
.L164:
	.loc 6 241 9 discriminator 3
	movq	%r14, 32(%rax)
	.loc 6 13 80 is_stmt 1 discriminator 3
	leaq	-80(%r12), %rax
	shrq	$3, %rax
	addq	$2147450880, %rax
	movb	$-8, (%rax)
	.loc 6 242 14 discriminator 3
	movq	-184(%rbp), %rax
	leaq	24(%rax), %rdx
	movl	-188(%rbp), %eax
	cltq
	movq	%rax, %rsi
	movq	%rdx, %rdi
	call	_ZNSt6vectorI5VNodeIicESaIS1_EEixEm
	.loc 6 242 25 discriminator 3
	leaq	8(%rax), %rdx
	movq	%rdx, %rcx
	movq	%rcx, %rdx
	shrq	$3, %rdx
	addq	$2147450880, %rdx
	movzbl	(%rdx), %edx
	testb	%dl, %dl
	setne	%sil
	cmpb	$3, %dl
	setle	%dl
	andl	%esi, %edx
	testb	%dl, %dl
	je	.L165
	.loc 6 242 25 is_stmt 0
	movq	%rcx, %rdi
	call	__asan_report_load4@PLT
.L165:
	.loc 6 242 25 discriminator 3
	movl	8(%rax), %edx
	.loc 6 242 9 is_stmt 1 discriminator 3
	addl	$1, %edx
	movl	%edx, 8(%rax)
	.loc 6 243 14 discriminator 3
	movq	-184(%rbp), %rax
	leaq	24(%rax), %rdx
	movl	-192(%rbp), %eax
	cltq
	movq	%rax, %rsi
	movq	%rdx, %rdi
	call	_ZNSt6vectorI5VNodeIicESaIS1_EEixEm
	.loc 6 243 25 discriminator 3
	leaq	4(%rax), %rdx
	movq	%rdx, %rcx
	shrq	$3, %rcx
	addq	$2147450880, %rcx
	movzbl	(%rcx), %ecx
	testb	%cl, %cl
	setne	%sil
	movq	%rdx, %rdi
	andl	$7, %edi
	addl	$3, %edi
	cmpb	%cl, %dil
	setge	%cl
	andl	%esi, %ecx
	testb	%cl, %cl
	je	.L166
	.loc 6 243 25 is_stmt 0
	movq	%rdx, %rdi
	call	__asan_report_load4@PLT
.L166:
	.loc 6 243 25 discriminator 3
	movl	4(%rax), %edx
	.loc 6 243 9 is_stmt 1 discriminator 3
	addl	$1, %edx
	movl	%edx, 4(%rax)
	.loc 6 244 9 discriminator 3
	movq	-184(%rbp), %rax
	addq	$12, %rax
	movq	%rax, %rdx
	shrq	$3, %rdx
	addq	$2147450880, %rdx
	movzbl	(%rdx), %edx
	testb	%dl, %dl
	setne	%cl
	movq	%rax, %rsi
	andl	$7, %esi
	addl	$3, %esi
	cmpb	%dl, %sil
	setge	%dl
	andl	%ecx, %edx
	testb	%dl, %dl
	je	.L167
	.loc 6 244 9 is_stmt 0
	movq	%rax, %rdi
	call	__asan_report_load4@PLT
.L167:
	.loc 6 244 9 discriminator 3
	movq	-184(%rbp), %rax
	movl	12(%rax), %eax
	leal	1(%rax), %edx
	movq	-184(%rbp), %rax
	movl	%edx, 12(%rax)
	.loc 6 245 13 is_stmt 1 discriminator 3
	movq	-184(%rbp), %rax
	addq	$16, %rax
	movq	%rax, %rdx
	movq	%rdx, %rax
	shrq	$3, %rax
	addq	$2147450880, %rax
	movzbl	(%rax), %eax
	testb	%al, %al
	setne	%cl
	cmpb	$3, %al
	setle	%al
	andl	%ecx, %eax
	testb	%al, %al
	je	.L168
	.loc 6 245 13 is_stmt 0
	movq	%rdx, %rdi
	call	__asan_report_load4@PLT
.L168:
	.loc 6 245 13 discriminator 3
	movq	-184(%rbp), %rax
	movl	16(%rax), %eax
	.loc 6 245 9 is_stmt 1 discriminator 3
	testl	%eax, %eax
	jne	.L149
	.loc 6 246 50
	movq	-184(%rbp), %rax
	leaq	24(%rax), %rdx
	movl	-192(%rbp), %eax
	cltq
	movq	%rax, %rsi
	movq	%rdx, %rdi
	call	_ZNSt6vectorI5VNodeIicESaIS1_EEixEm
	.loc 6 246 54
	leaq	32(%rax), %rdx
	movq	%rdx, %rcx
	shrq	$3, %rcx
	addq	$2147450880, %rcx
	movzbl	(%rcx), %ecx
	testb	%cl, %cl
	je	.L169
	movq	%rdx, %rdi
	call	__asan_report_load8@PLT
.L169:
	movq	32(%rax), %r14
	.loc 6 13 80
	leaq	-64(%r12), %rax
	shrq	$3, %rax
	addq	$2147450880, %rax
	movb	$1, (%rax)
	leaq	-64(%r12), %rax
	movq	%rax, %rdx
	movq	%rdx, %rax
	shrq	$3, %rax
	addq	$2147450880, %rax
	movzbl	(%rax), %eax
	testb	%al, %al
	setne	%cl
	testb	%al, %al
	setle	%al
	andl	%ecx, %eax
	testb	%al, %al
	je	.L170
	movq	%rdx, %rdi
	call	__asan_report_store1@PLT
.L170:
	movb	$1, -64(%r12)
	leaq	-64(%r12), %r15
	.loc 6 246 28
	movl	$32, %edi
.LEHB10:
	call	_Znwm@PLT
.LEHE10:
	movq	%rax, %r12
	movl	-196(%rbp), %edx
	movl	-188(%rbp), %eax
	movq	%r15, %r8
	movl	%edx, %ecx
	movq	%r14, %rdx
	movl	%eax, %esi
	movq	%r12, %rdi
.LEHB11:
	call	_ZN5ENodeIcEC1EiPS0_iRKc
.LEHE11:
	.loc 6 246 18 discriminator 3
	movq	-184(%rbp), %rax
	leaq	24(%rax), %rdx
	movl	-192(%rbp), %eax
	cltq
	movq	%rax, %rsi
	movq	%rdx, %rdi
	call	_ZNSt6vectorI5VNodeIicESaIS1_EEixEm
	.loc 6 246 13 discriminator 3
	leaq	32(%rax), %rdx
	movq	%rdx, %rcx
	shrq	$3, %rcx
	addq	$2147450880, %rcx
	movzbl	(%rcx), %ecx
	testb	%cl, %cl
	je	.L171
	.loc 6 246 13 is_stmt 0
	movq	%rdx, %rdi
	call	__asan_report_store8@PLT
.L171:
	.loc 6 246 13 discriminator 3
	movq	%r12, 32(%rax)
	jmp	.L149
.L175:
	endbr64
	movq	%rax, %rbx
	.loc 6 241 24 is_stmt 1
	movl	$32, %esi
	movq	%r14, %rdi
	call	_ZdlPvm@PLT
	call	__asan_handle_no_return@PLT
	movq	%rbx, %rdi
.LEHB12:
	call	_Unwind_Resume@PLT
.L176:
	endbr64
	movq	%rax, %rbx
	.loc 6 246 28
	movl	$32, %esi
	movq	%r12, %rdi
	call	_ZdlPvm@PLT
	call	__asan_handle_no_return@PLT
	movq	%rbx, %rdi
	call	_Unwind_Resume@PLT
.LEHE12:
.L149:
	.loc 6 234 18
	cmpq	%rbx, -224(%rbp)
	je	.L147
	movq	$1172321806, (%rbx)
	movabsq	$-723401728380766731, %rax
	movq	%rax, 2147450880(%r13)
	movl	$-168430091, 2147450888(%r13)
	movq	120(%rbx), %rax
	movb	$0, (%rax)
	jmp	.L148
.L147:
	movq	$0, 2147450880(%r13)
	movl	$0, 2147450888(%r13)
.L148:
	.loc 6 247 5
	movq	-56(%rbp), %rax
	xorq	%fs:40, %rax
	je	.L174
	call	__stack_chk_fail@PLT
.L174:
	leaq	-40(%rbp), %rsp
	popq	%rbx
	popq	%r12
	popq	%r13
	popq	%r14
	popq	%r15
	popq	%rbp
	.cfi_def_cfa 7, 8
	ret
	.cfi_endproc
.LFE4493:
	.section	.gcc_except_table
.LLSDA4493:
	.byte	0xff
	.byte	0xff
	.byte	0x1
	.uleb128 .LLSDACSE4493-.LLSDACSB4493
.LLSDACSB4493:
	.uleb128 .LEHB8-.LFB4493
	.uleb128 .LEHE8-.LEHB8
	.uleb128 0
	.uleb128 0
	.uleb128 .LEHB9-.LFB4493
	.uleb128 .LEHE9-.LEHB9
	.uleb128 .L175-.LFB4493
	.uleb128 0
	.uleb128 .LEHB10-.LFB4493
	.uleb128 .LEHE10-.LEHB10
	.uleb128 0
	.uleb128 0
	.uleb128 .LEHB11-.LFB4493
	.uleb128 .LEHE11-.LEHB11
	.uleb128 .L176-.LFB4493
	.uleb128 0
	.uleb128 .LEHB12-.LFB4493
	.uleb128 .LEHE12-.LEHB12
	.uleb128 0
	.uleb128 0
.LLSDACSE4493:
	.section	.text._ZN7ALGraphIicE6insertEiiiRKc,"axG",@progbits,_ZN7ALGraphIicE6insertEiiiRKc,comdat
	.size	_ZN7ALGraphIicE6insertEiiiRKc, .-_ZN7ALGraphIicE6insertEiiiRKc
	.section	.text._ZN7ALGraphIicE8inDegreeEi,"axG",@progbits,_ZN7ALGraphIicE8inDegreeEi,comdat
	.align 2
	.weak	_ZN7ALGraphIicE8inDegreeEi
	.type	_ZN7ALGraphIicE8inDegreeEi, @function
_ZN7ALGraphIicE8inDegreeEi:
.LASANPC4494:
.LFB4494:
	.loc 6 183 17
	.cfi_startproc
	endbr64
	pushq	%rbp
	.cfi_def_cfa_offset 16
	.cfi_offset 6, -16
	movq	%rsp, %rbp
	.cfi_def_cfa_register 6
	subq	$16, %rsp
	movq	%rdi, -8(%rbp)
	movl	%esi, -12(%rbp)
	.loc 6 183 56
	movq	-8(%rbp), %rax
	leaq	24(%rax), %rdx
	movl	-12(%rbp), %eax
	cltq
	movq	%rax, %rsi
	movq	%rdx, %rdi
	call	_ZNSt6vectorI5VNodeIicESaIS1_EEixEm
	movq	%rax, %rdx
	.loc 6 183 67
	leaq	4(%rdx), %rax
	movq	%rax, %rcx
	shrq	$3, %rcx
	addq	$2147450880, %rcx
	movzbl	(%rcx), %ecx
	testb	%cl, %cl
	setne	%sil
	movq	%rax, %rdi
	andl	$7, %edi
	addl	$3, %edi
	cmpb	%cl, %dil
	setge	%cl
	andl	%esi, %ecx
	testb	%cl, %cl
	je	.L178
	movq	%rax, %rdi
	call	__asan_report_load4@PLT
.L178:
	movl	4(%rdx), %eax
	.loc 6 183 77
	leave
	.cfi_def_cfa 7, 8
	ret
	.cfi_endproc
.LFE4494:
	.size	_ZN7ALGraphIicE8inDegreeEi, .-_ZN7ALGraphIicE8inDegreeEi
	.section	.text._ZN7ALGraphIicE9outDegreeEi,"axG",@progbits,_ZN7ALGraphIicE9outDegreeEi,comdat
	.align 2
	.weak	_ZN7ALGraphIicE9outDegreeEi
	.type	_ZN7ALGraphIicE9outDegreeEi, @function
_ZN7ALGraphIicE9outDegreeEi:
.LASANPC4495:
.LFB4495:
	.loc 6 184 17
	.cfi_startproc
	endbr64
	pushq	%rbp
	.cfi_def_cfa_offset 16
	.cfi_offset 6, -16
	movq	%rsp, %rbp
	.cfi_def_cfa_register 6
	subq	$16, %rsp
	movq	%rdi, -8(%rbp)
	movl	%esi, -12(%rbp)
	.loc 6 184 57
	movq	-8(%rbp), %rax
	leaq	24(%rax), %rdx
	movl	-12(%rbp), %eax
	cltq
	movq	%rax, %rsi
	movq	%rdx, %rdi
	call	_ZNSt6vectorI5VNodeIicESaIS1_EEixEm
	.loc 6 184 68
	leaq	8(%rax), %rdx
	movq	%rdx, %rcx
	movq	%rcx, %rdx
	shrq	$3, %rdx
	addq	$2147450880, %rdx
	movzbl	(%rdx), %edx
	testb	%dl, %dl
	setne	%sil
	cmpb	$3, %dl
	setle	%dl
	andl	%esi, %edx
	testb	%dl, %dl
	je	.L181
	movq	%rcx, %rdi
	call	__asan_report_load4@PLT
.L181:
	movl	8(%rax), %eax
	.loc 6 184 79
	leave
	.cfi_def_cfa 7, 8
	ret
	.cfi_endproc
.LFE4495:
	.size	_ZN7ALGraphIicE9outDegreeEi, .-_ZN7ALGraphIicE9outDegreeEi
	.section	.text._ZN7ALGraphIicE8firstNbrEi,"axG",@progbits,_ZN7ALGraphIicE8firstNbrEi,comdat
	.align 2
	.weak	_ZN7ALGraphIicE8firstNbrEi
	.type	_ZN7ALGraphIicE8firstNbrEi, @function
_ZN7ALGraphIicE8firstNbrEi:
.LASANPC4496:
.LFB4496:
	.loc 6 176 17
	.cfi_startproc
	endbr64
	pushq	%rbp
	.cfi_def_cfa_offset 16
	.cfi_offset 6, -16
	movq	%rsp, %rbp
	.cfi_def_cfa_register 6
	subq	$16, %rsp
	movq	%rdi, -8(%rbp)
	movl	%esi, -12(%rbp)
	.loc 6 176 56
	movq	-8(%rbp), %rax
	leaq	24(%rax), %rdx
	movl	-12(%rbp), %eax
	cltq
	movq	%rax, %rsi
	movq	%rdx, %rdi
	call	_ZNSt6vectorI5VNodeIicESaIS1_EEixEm
	.loc 6 176 60
	leaq	32(%rax), %rdx
	movq	%rdx, %rcx
	shrq	$3, %rcx
	addq	$2147450880, %rcx
	movzbl	(%rcx), %ecx
	testb	%cl, %cl
	je	.L184
	movq	%rdx, %rdi
	call	__asan_report_load8@PLT
.L184:
	movq	32(%rax), %rax
	.loc 6 176 64
	testq	%rax, %rax
	je	.L185
	.loc 6 176 71 discriminator 1
	movq	-8(%rbp), %rax
	leaq	24(%rax), %rdx
	movl	-12(%rbp), %eax
	cltq
	movq	%rax, %rsi
	movq	%rdx, %rdi
	call	_ZNSt6vectorI5VNodeIicESaIS1_EEixEm
	.loc 6 176 75 discriminator 1
	leaq	32(%rax), %rdx
	movq	%rdx, %rcx
	shrq	$3, %rcx
	addq	$2147450880, %rcx
	movzbl	(%rcx), %ecx
	testb	%cl, %cl
	je	.L186
	.loc 6 176 75 is_stmt 0
	movq	%rdx, %rdi
	call	__asan_report_load8@PLT
.L186:
	.loc 6 176 75 discriminator 1
	movq	32(%rax), %rax
	.loc 6 176 64 is_stmt 1 discriminator 1
	leaq	24(%rax), %rdx
	movq	%rdx, %rcx
	movq	%rcx, %rdx
	shrq	$3, %rdx
	addq	$2147450880, %rdx
	movzbl	(%rdx), %edx
	testb	%dl, %dl
	setne	%sil
	cmpb	$3, %dl
	setle	%dl
	andl	%esi, %edx
	testb	%dl, %dl
	je	.L187
	.loc 6 176 64 is_stmt 0
	movq	%rcx, %rdi
	call	__asan_report_load4@PLT
.L187:
	.loc 6 176 64 discriminator 1
	movl	24(%rax), %eax
	.loc 6 176 88 is_stmt 1 discriminator 1
	jmp	.L189
.L185:
	.loc 6 176 64 discriminator 2
	movl	$-1, %eax
.L189:
	.loc 6 176 91 discriminator 5
	leave
	.cfi_def_cfa 7, 8
	ret
	.cfi_endproc
.LFE4496:
	.size	_ZN7ALGraphIicE8firstNbrEi, .-_ZN7ALGraphIicE8firstNbrEi
	.section	.text._ZN7ALGraphIicE7nextNbrEii,"axG",@progbits,_ZN7ALGraphIicE7nextNbrEii,comdat
	.align 2
	.weak	_ZN7ALGraphIicE7nextNbrEii
	.type	_ZN7ALGraphIicE7nextNbrEii, @function
_ZN7ALGraphIicE7nextNbrEii:
.LASANPC4497:
.LFB4497:
	.loc 6 177 17
	.cfi_startproc
	endbr64
	pushq	%rbp
	.cfi_def_cfa_offset 16
	.cfi_offset 6, -16
	movq	%rsp, %rbp
	.cfi_def_cfa_register 6
	subq	$32, %rsp
	movq	%rdi, -24(%rbp)
	movl	%esi, -28(%rbp)
	movl	%edx, -32(%rbp)
	.loc 6 179 20
	movl	-32(%rbp), %edx
	movl	-28(%rbp), %ecx
	movq	-24(%rbp), %rax
	movl	%ecx, %esi
	movq	%rax, %rdi
	call	_ZN7ALGraphIicE5_edgeEii
	movq	%rax, %rdx
	movq	%rdx, %rcx
	shrq	$3, %rcx
	addq	$2147450880, %rcx
	movzbl	(%rcx), %ecx
	testb	%cl, %cl
	je	.L191
	movq	%rdx, %rdi
	call	__asan_report_load8@PLT
.L191:
	movq	(%rax), %rax
	movq	%rax, -8(%rbp)
	.loc 6 180 29
	cmpq	$0, -8(%rbp)
	je	.L192
	.loc 6 180 24 discriminator 1
	movq	-8(%rbp), %rax
	addq	$16, %rax
	movq	%rax, %rdx
	shrq	$3, %rdx
	addq	$2147450880, %rdx
	movzbl	(%rdx), %edx
	testb	%dl, %dl
	je	.L193
	.loc 6 180 24 is_stmt 0
	movq	%rax, %rdi
	call	__asan_report_load8@PLT
.L193:
	.loc 6 180 24 discriminator 1
	movq	-8(%rbp), %rax
	movq	16(%rax), %rax
	.loc 6 180 18 is_stmt 1 discriminator 1
	testq	%rax, %rax
	je	.L192
	.loc 6 180 34 discriminator 3
	movq	-8(%rbp), %rax
	movq	16(%rax), %rax
	.loc 6 180 29 discriminator 3
	leaq	24(%rax), %rdx
	movq	%rdx, %rcx
	movq	%rcx, %rdx
	shrq	$3, %rdx
	addq	$2147450880, %rdx
	movzbl	(%rdx), %edx
	testb	%dl, %dl
	setne	%sil
	cmpb	$3, %dl
	setle	%dl
	andl	%esi, %edx
	testb	%dl, %dl
	je	.L194
	.loc 6 180 29 is_stmt 0
	movq	%rcx, %rdi
	call	__asan_report_load4@PLT
.L194:
	.loc 6 180 29 discriminator 3
	movl	24(%rax), %eax
	jmp	.L195
.L192:
	.loc 6 180 29 discriminator 4
	movl	$-1, %eax
.L195:
	.loc 6 181 5 is_stmt 1 discriminator 6
	leave
	.cfi_def_cfa 7, 8
	ret
	.cfi_endproc
.LFE4497:
	.size	_ZN7ALGraphIicE7nextNbrEii, .-_ZN7ALGraphIicE7nextNbrEii
	.section	.text._ZN7ALGraphIicE6weightEii,"axG",@progbits,_ZN7ALGraphIicE6weightEii,comdat
	.align 2
	.weak	_ZN7ALGraphIicE6weightEii
	.type	_ZN7ALGraphIicE6weightEii, @function
_ZN7ALGraphIicE6weightEii:
.LASANPC4498:
.LFB4498:
	.loc 6 233 18
	.cfi_startproc
	endbr64
	pushq	%rbp
	.cfi_def_cfa_offset 16
	.cfi_offset 6, -16
	movq	%rsp, %rbp
	.cfi_def_cfa_register 6
	subq	$16, %rsp
	movq	%rdi, -8(%rbp)
	movl	%esi, -12(%rbp)
	movl	%edx, -16(%rbp)
	.loc 6 233 57
	movl	-16(%rbp), %edx
	movl	-12(%rbp), %ecx
	movq	-8(%rbp), %rax
	movl	%ecx, %esi
	movq	%rax, %rdi
	call	_ZN7ALGraphIicE5_edgeEii
	.loc 6 233 75
	movq	%rax, %rdx
	movq	%rdx, %rcx
	shrq	$3, %rcx
	addq	$2147450880, %rcx
	movzbl	(%rcx), %ecx
	testb	%cl, %cl
	je	.L198
	movq	%rdx, %rdi
	call	__asan_report_load8@PLT
.L198:
	movq	(%rax), %rax
	addq	$4, %rax
	.loc 6 233 83
	leave
	.cfi_def_cfa 7, 8
	ret
	.cfi_endproc
.LFE4498:
	.size	_ZN7ALGraphIicE6weightEii, .-_ZN7ALGraphIicE6weightEii
	.globl	__asan_stack_malloc_0
	.section	.rodata
.LC32:
	.string	"1 32 4 8 clock:11"
	.section	.text._ZN5GraphIicE3dfsEiRSt6vectorIiSaIiEE,"axG",@progbits,_ZN5GraphIicE3dfsEiRSt6vectorIiSaIiEE,comdat
	.align 2
	.weak	_ZN5GraphIicE3dfsEiRSt6vectorIiSaIiEE
	.type	_ZN5GraphIicE3dfsEiRSt6vectorIiSaIiEE, @function
_ZN5GraphIicE3dfsEiRSt6vectorIiSaIiEE:
.LASANPC4499:
.LFB4499:
	.file 8 "../src/GraphDfs.h"
	.loc 8 8 6
	.cfi_startproc
	endbr64
	pushq	%rbp
	.cfi_def_cfa_offset 16
	.cfi_offset 6, -16
	movq	%rsp, %rbp
	.cfi_def_cfa_register 6
	pushq	%r14
	pushq	%r13
	pushq	%r12
	pushq	%rbx
	subq	$144, %rsp
	.cfi_offset 14, -24
	.cfi_offset 13, -32
	.cfi_offset 12, -40
	.cfi_offset 3, -48
	movq	%rdi, -152(%rbp)
	movl	%esi, -156(%rbp)
	movq	%rdx, -168(%rbp)
	leaq	-128(%rbp), %rbx
	movq	%rbx, %r14
	cmpl	$0, __asan_option_detect_stack_use_after_return(%rip)
	je	.L200
	movl	$64, %edi
	call	__asan_stack_malloc_0@PLT
.LVL8:
	testq	%rax, %rax
	je	.L200
	movq	%rax, %rbx
.L200:
	leaq	96(%rbx), %rax
	movq	%rax, %r13
	movq	$1102416563, (%rbx)
	leaq	.LC32(%rip), %rax
	movq	%rax, 8(%rbx)
	leaq	.LASANPC4499(%rip), %rax
	movq	%rax, 16(%rbx)
	movq	%rbx, %r12
	shrq	$3, %r12
	movl	$-235802127, 2147450880(%r12)
	movl	$-202116348, 2147450884(%r12)
	.loc 8 8 6
	movq	%fs:40, %rax
	movq	%rax, -40(%rbp)
	xorl	%eax, %eax
	.loc 8 10 5
	movq	-152(%rbp), %rax
	movq	%rax, %rdi
	call	_ZN5GraphIicE5resetEv
	.loc 8 11 9
	leaq	-64(%r13), %rax
	movq	%rax, %rdx
	movq	%rdx, %rax
	shrq	$3, %rax
	addq	$2147450880, %rax
	movzbl	(%rax), %eax
	testb	%al, %al
	setne	%cl
	cmpb	$3, %al
	setle	%al
	andl	%ecx, %eax
	testb	%al, %al
	je	.L204
	movq	%rdx, %rdi
	call	__asan_report_store4@PLT
.L204:
	movl	$0, -64(%r13)
	.loc 8 12 9
	movl	-156(%rbp), %eax
	movl	%eax, -132(%rbp)
.L211:
	.loc 8 15 23
	movq	-152(%rbp), %rax
	movq	%rax, %rdx
	shrq	$3, %rdx
	addq	$2147450880, %rdx
	movzbl	(%rdx), %edx
	testb	%dl, %dl
	je	.L205
	movq	%rax, %rdi
	call	__asan_report_load8@PLT
.L205:
	movq	-152(%rbp), %rax
	movq	(%rax), %rax
	addq	$64, %rax
	movq	%rax, %rdx
	movq	%rdx, %rcx
	shrq	$3, %rcx
	addq	$2147450880, %rcx
	movzbl	(%rcx), %ecx
	testb	%cl, %cl
	je	.L206
	movq	%rdx, %rdi
	call	__asan_report_load8@PLT
.L206:
	movq	(%rax), %rcx
	movl	-132(%rbp), %edx
	movq	-152(%rbp), %rax
	movl	%edx, %esi
	movq	%rax, %rdi
	call	*%rcx
.LVL9:
	movq	%rax, %rdx
	movq	%rdx, %rax
	movq	%rax, %rcx
	shrq	$3, %rcx
	addq	$2147450880, %rcx
	movzbl	(%rcx), %ecx
	testb	%cl, %cl
	setne	%sil
	movq	%rax, %rdi
	andl	$7, %edi
	addl	$3, %edi
	cmpb	%cl, %dil
	setge	%cl
	andl	%esi, %ecx
	testb	%cl, %cl
	je	.L207
	movq	%rax, %rdi
	call	__asan_report_load4@PLT
.L207:
	.loc 8 15 23 is_stmt 0 discriminator 1
	movl	(%rdx), %eax
	testl	%eax, %eax
	sete	%al
	.loc 8 15 9 is_stmt 1 discriminator 1
	testb	%al, %al
	je	.L208
	.loc 8 16 13
	movq	-168(%rbp), %rcx
	leaq	-64(%r13), %rdx
	movl	-132(%rbp), %esi
	movq	-152(%rbp), %rax
	movq	%rax, %rdi
	call	_ZN5GraphIicE3DFSEiRiRSt6vectorIiSaIiEE
.L208:
	.loc 8 17 16
	addl	$1, -132(%rbp)
	.loc 8 17 31
	movq	-152(%rbp), %rax
	addq	$8, %rax
	movq	%rax, %rdx
	movq	%rdx, %rax
	shrq	$3, %rax
	addq	$2147450880, %rax
	movzbl	(%rax), %eax
	testb	%al, %al
	setne	%cl
	cmpb	$3, %al
	setle	%al
	andl	%ecx, %eax
	testb	%al, %al
	je	.L209
	movq	%rdx, %rdi
	call	__asan_report_load4@PLT
.L209:
	movq	-152(%rbp), %rax
	movl	8(%rax), %ecx
	.loc 8 17 16
	movl	-132(%rbp), %eax
	cltd
	idivl	%ecx
	movl	%edx, -132(%rbp)
	movl	-132(%rbp), %eax
	cmpl	-156(%rbp), %eax
	setne	%al
	testb	%al, %al
	je	.L213
	.loc 8 13 5
	jmp	.L211
.L213:
	.loc 8 18 1
	nop
	.loc 8 8 6
	cmpq	%rbx, %r14
	je	.L201
	movq	$1172321806, (%rbx)
	movabsq	$-723401728380766731, %rax
	movq	%rax, 2147450880(%r12)
	movq	56(%rbx), %rax
	movb	$0, (%rax)
	jmp	.L202
.L201:
	movq	$0, 2147450880(%r12)
.L202:
	.loc 8 18 1
	movq	-40(%rbp), %rax
	xorq	%fs:40, %rax
	je	.L212
	call	__stack_chk_fail@PLT
.L212:
	addq	$144, %rsp
	popq	%rbx
	popq	%r12
	popq	%r13
	popq	%r14
	popq	%rbp
	.cfi_def_cfa 7, 8
	ret
	.cfi_endproc
.LFE4499:
	.size	_ZN5GraphIicE3dfsEiRSt6vectorIiSaIiEE, .-_ZN5GraphIicE3dfsEiRSt6vectorIiSaIiEE
	.section	.text._ZNKSt6vectorIiSaIiEE4sizeEv,"axG",@progbits,_ZNKSt6vectorIiSaIiEE4sizeEv,comdat
	.align 2
	.weak	_ZNKSt6vectorIiSaIiEE4sizeEv
	.type	_ZNKSt6vectorIiSaIiEE4sizeEv, @function
_ZNKSt6vectorIiSaIiEE4sizeEv:
.LASANPC4500:
.LFB4500:
	.loc 4 915 7
	.cfi_startproc
	endbr64
	pushq	%rbp
	.cfi_def_cfa_offset 16
	.cfi_offset 6, -16
	movq	%rsp, %rbp
	.cfi_def_cfa_register 6
	subq	$16, %rsp
	movq	%rdi, -8(%rbp)
	.loc 4 916 40
	movq	-8(%rbp), %rax
	addq	$8, %rax
	movq	%rax, %rdx
	shrq	$3, %rdx
	addq	$2147450880, %rdx
	movzbl	(%rdx), %edx
	testb	%dl, %dl
	je	.L215
	movq	%rax, %rdi
	call	__asan_report_load8@PLT
.L215:
	movq	-8(%rbp), %rax
	movq	8(%rax), %rcx
	.loc 4 916 66
	movq	-8(%rbp), %rax
	movq	%rax, %rdx
	shrq	$3, %rdx
	addq	$2147450880, %rdx
	movzbl	(%rdx), %edx
	testb	%dl, %dl
	je	.L216
	movq	%rax, %rdi
	call	__asan_report_load8@PLT
.L216:
	movq	-8(%rbp), %rax
	movq	(%rax), %rax
	.loc 4 916 50
	subq	%rax, %rcx
	movq	%rcx, %rax
	sarq	$2, %rax
	.loc 4 916 77
	leave
	.cfi_def_cfa 7, 8
	ret
	.cfi_endproc
.LFE4500:
	.size	_ZNKSt6vectorIiSaIiEE4sizeEv, .-_ZNKSt6vectorIiSaIiEE4sizeEv
	.section	.text._ZNSt6vectorIiSaIiEEixEm,"axG",@progbits,_ZNSt6vectorIiSaIiEEixEm,comdat
	.align 2
	.weak	_ZNSt6vectorIiSaIiEEixEm
	.type	_ZNSt6vectorIiSaIiEEixEm, @function
_ZNSt6vectorIiSaIiEEixEm:
.LASANPC4501:
.LFB4501:
	.loc 4 1040 7
	.cfi_startproc
	endbr64
	pushq	%rbp
	.cfi_def_cfa_offset 16
	.cfi_offset 6, -16
	movq	%rsp, %rbp
	.cfi_def_cfa_register 6
	subq	$16, %rsp
	movq	%rdi, -8(%rbp)
	movq	%rsi, -16(%rbp)
	.loc 4 1043 25
	movq	-8(%rbp), %rax
	movq	%rax, %rdx
	shrq	$3, %rdx
	addq	$2147450880, %rdx
	movzbl	(%rdx), %edx
	testb	%dl, %dl
	je	.L219
	movq	%rax, %rdi
	call	__asan_report_load8@PLT
.L219:
	movq	-8(%rbp), %rax
	movq	(%rax), %rax
	.loc 4 1043 34
	movq	-16(%rbp), %rdx
	salq	$2, %rdx
	.loc 4 1043 39
	addq	%rdx, %rax
	.loc 4 1044 7
	leave
	.cfi_def_cfa 7, 8
	ret
	.cfi_endproc
.LFE4501:
	.size	_ZNSt6vectorIiSaIiEEixEm, .-_ZNSt6vectorIiSaIiEEixEm
	.section	.text._ZNSt6vectorIiSaIiEE5clearEv,"axG",@progbits,_ZNSt6vectorIiSaIiEE5clearEv,comdat
	.align 2
	.weak	_ZNSt6vectorIiSaIiEE5clearEv
	.type	_ZNSt6vectorIiSaIiEE5clearEv, @function
_ZNSt6vectorIiSaIiEE5clearEv:
.LASANPC4502:
.LFB4502:
	.loc 4 1495 7
	.cfi_startproc
	endbr64
	pushq	%rbp
	.cfi_def_cfa_offset 16
	.cfi_offset 6, -16
	movq	%rsp, %rbp
	.cfi_def_cfa_register 6
	subq	$16, %rsp
	movq	%rdi, -8(%rbp)
	.loc 4 1496 9
	movq	-8(%rbp), %rax
	movq	%rax, %rdx
	shrq	$3, %rdx
	addq	$2147450880, %rdx
	movzbl	(%rdx), %edx
	testb	%dl, %dl
	je	.L222
	movq	%rax, %rdi
	call	__asan_report_load8@PLT
.L222:
	movq	-8(%rbp), %rax
	movq	(%rax), %rdx
	movq	-8(%rbp), %rax
	movq	%rdx, %rsi
	movq	%rax, %rdi
	call	_ZNSt6vectorIiSaIiEE15_M_erase_at_endEPi
	.loc 4 1496 50
	nop
	leave
	.cfi_def_cfa 7, 8
	ret
	.cfi_endproc
.LFE4502:
	.size	_ZNSt6vectorIiSaIiEE5clearEv, .-_ZNSt6vectorIiSaIiEE5clearEv
	.section	.text._ZN7ALGraphIicE5clearEv,"axG",@progbits,_ZN7ALGraphIicE5clearEv,comdat
	.align 2
	.weak	_ZN7ALGraphIicE5clearEv
	.type	_ZN7ALGraphIicE5clearEv, @function
_ZN7ALGraphIicE5clearEv:
.LASANPC4503:
.LFB4503:
	.loc 6 113 10
	.cfi_startproc
	endbr64
	pushq	%rbp
	.cfi_def_cfa_offset 16
	.cfi_offset 6, -16
	movq	%rsp, %rbp
	.cfi_def_cfa_register 6
	subq	$48, %rsp
	movq	%rdi, -40(%rbp)
.LBB41:
	.loc 6 116 18
	movl	$0, -20(%rbp)
.L231:
	.loc 6 116 29 discriminator 1
	movq	-40(%rbp), %rax
	addq	$8, %rax
	movq	%rax, %rdx
	movq	%rdx, %rax
	shrq	$3, %rax
	addq	$2147450880, %rax
	movzbl	(%rax), %eax
	testb	%al, %al
	setne	%cl
	cmpb	$3, %al
	setle	%al
	andl	%ecx, %eax
	testb	%al, %al
	je	.L224
	.loc 6 116 29 is_stmt 0
	movq	%rdx, %rdi
	call	__asan_report_load4@PLT
.L224:
	.loc 6 116 29 discriminator 1
	movq	-40(%rbp), %rax
	movl	8(%rax), %eax
	.loc 6 116 27 is_stmt 1 discriminator 1
	cmpl	%eax, -20(%rbp)
	jge	.L225
	.loc 6 118 22
	movq	-40(%rbp), %rax
	leaq	24(%rax), %rdx
	movl	-20(%rbp), %eax
	cltq
	movq	%rax, %rsi
	movq	%rdx, %rdi
	call	_ZNSt6vectorI5VNodeIicESaIS1_EEixEm
	.loc 6 118 13
	leaq	32(%rax), %rdx
	movq	%rdx, %rcx
	shrq	$3, %rcx
	addq	$2147450880, %rcx
	movzbl	(%rcx), %ecx
	testb	%cl, %cl
	je	.L226
	movq	%rdx, %rdi
	call	__asan_report_load8@PLT
.L226:
	movq	32(%rax), %rax
	movq	%rax, -16(%rbp)
.L230:
	.loc 6 119 13
	cmpq	$0, -16(%rbp)
	je	.L227
	.loc 6 121 17
	movq	-16(%rbp), %rax
	addq	$16, %rax
	movq	%rax, %rdx
	shrq	$3, %rdx
	addq	$2147450880, %rdx
	movzbl	(%rdx), %edx
	testb	%dl, %dl
	je	.L228
	movq	%rax, %rdi
	call	__asan_report_load8@PLT
.L228:
	movq	-16(%rbp), %rax
	movq	16(%rax), %rax
	movq	%rax, -8(%rbp)
	.loc 6 122 24
	movq	-16(%rbp), %rax
	.loc 6 122 17
	testq	%rax, %rax
	je	.L229
	.loc 6 122 17 is_stmt 0 discriminator 1
	movl	$32, %esi
	movq	%rax, %rdi
	call	_ZdlPvm@PLT
.L229:
	.loc 6 123 17 is_stmt 1
	movq	-8(%rbp), %rax
	movq	%rax, -16(%rbp)
	.loc 6 119 13
	jmp	.L230
.L227:
	.loc 6 116 9 discriminator 2
	addl	$1, -20(%rbp)
	jmp	.L231
.L225:
.LBE41:
	.loc 6 126 9
	movq	-40(%rbp), %rax
	addq	$24, %rax
	movq	%rax, %rdi
	call	_ZNSt6vectorI5VNodeIicESaIS1_EE5clearEv
	.loc 6 127 9
	movq	-40(%rbp), %rax
	addq	$12, %rax
	movq	%rax, %rdx
	shrq	$3, %rdx
	addq	$2147450880, %rdx
	movzbl	(%rdx), %edx
	testb	%dl, %dl
	setne	%cl
	movq	%rax, %rsi
	andl	$7, %esi
	addl	$3, %esi
	cmpb	%dl, %sil
	setge	%dl
	andl	%ecx, %edx
	testb	%dl, %dl
	je	.L232
	movq	%rax, %rdi
	call	__asan_report_store4@PLT
.L232:
	movq	-40(%rbp), %rax
	movl	$0, 12(%rax)
	.loc 6 127 25
	movq	-40(%rbp), %rax
	movl	12(%rax), %ecx
	.loc 6 127 9
	movq	-40(%rbp), %rax
	addq	$8, %rax
	movq	%rax, %rdx
	movq	%rdx, %rax
	shrq	$3, %rax
	addq	$2147450880, %rax
	movzbl	(%rax), %eax
	testb	%al, %al
	setne	%sil
	cmpb	$3, %al
	setle	%al
	andl	%esi, %eax
	testb	%al, %al
	je	.L233
	movq	%rdx, %rdi
	call	__asan_report_store4@PLT
.L233:
	movq	-40(%rbp), %rax
	movl	%ecx, 8(%rax)
	.loc 6 128 5
	nop
	leave
	.cfi_def_cfa 7, 8
	ret
	.cfi_endproc
.LFE4503:
	.size	_ZN7ALGraphIicE5clearEv, .-_ZN7ALGraphIicE5clearEv
	.section	.text._ZZN5GraphIicE8dijkstraEiRS0_ENKUlPS0_iiE_clES2_ii,"axG",@progbits,_ZZN5GraphIicE8dijkstraEiRS0_ENKUlPS0_iiE_clES2_ii,comdat
	.align 2
	.weak	_ZZN5GraphIicE8dijkstraEiRS0_ENKUlPS0_iiE_clES2_ii
	.type	_ZZN5GraphIicE8dijkstraEiRS0_ENKUlPS0_iiE_clES2_ii, @function
_ZZN5GraphIicE8dijkstraEiRS0_ENKUlPS0_iiE_clES2_ii:
.LASANPC4505:
.LFB4505:
	.file 9 "../src/GraphDijkstra.h"
	.loc 9 11 19
	.cfi_startproc
	endbr64
	pushq	%rbp
	.cfi_def_cfa_offset 16
	.cfi_offset 6, -16
	movq	%rsp, %rbp
	.cfi_def_cfa_register 6
	pushq	%r12
	pushq	%rbx
	subq	$32, %rsp
	.cfi_offset 12, -24
	.cfi_offset 3, -32
	movq	%rdi, -24(%rbp)
	movq	%rsi, -32(%rbp)
	movl	%edx, -36(%rbp)
	movl	%ecx, -40(%rbp)
.LBB42:
	.loc 9 13 28
	movq	-32(%rbp), %rax
	movq	%rax, %rdx
	shrq	$3, %rdx
	addq	$2147450880, %rdx
	movzbl	(%rdx), %edx
	testb	%dl, %dl
	je	.L235
	movq	%rax, %rdi
	call	__asan_report_load8@PLT
.L235:
	movq	-32(%rbp), %rax
	movq	(%rax), %rax
	addq	$96, %rax
	movq	%rax, %rdx
	movq	%rdx, %rcx
	shrq	$3, %rcx
	addq	$2147450880, %rcx
	movzbl	(%rcx), %ecx
	testb	%cl, %cl
	je	.L236
	movq	%rdx, %rdi
	call	__asan_report_load8@PLT
.L236:
	movq	(%rax), %rcx
	movl	-40(%rbp), %edx
	movq	-32(%rbp), %rax
	movl	%edx, %esi
	movq	%rax, %rdi
	call	*%rcx
.LVL10:
	movq	%rax, %rdx
	movq	%rdx, %rax
	movq	%rax, %rcx
	shrq	$3, %rcx
	addq	$2147450880, %rcx
	movzbl	(%rcx), %ecx
	testb	%cl, %cl
	setne	%sil
	movq	%rax, %rdi
	andl	$7, %edi
	addl	$3, %edi
	cmpb	%cl, %dil
	setge	%cl
	andl	%esi, %ecx
	testb	%cl, %cl
	je	.L237
	movq	%rax, %rdi
	call	__asan_report_load4@PLT
.L237:
	movl	(%rdx), %ebx
	.loc 9 13 45
	movq	-32(%rbp), %rax
	movq	%rax, %rdx
	shrq	$3, %rdx
	addq	$2147450880, %rdx
	movzbl	(%rdx), %edx
	testb	%dl, %dl
	je	.L238
	movq	%rax, %rdi
	call	__asan_report_load8@PLT
.L238:
	movq	-32(%rbp), %rax
	movq	(%rax), %rax
	addq	$96, %rax
	movq	%rax, %rdx
	movq	%rdx, %rcx
	shrq	$3, %rcx
	addq	$2147450880, %rcx
	movzbl	(%rcx), %ecx
	testb	%cl, %cl
	je	.L239
	movq	%rdx, %rdi
	call	__asan_report_load8@PLT
.L239:
	movq	(%rax), %rcx
	movl	-36(%rbp), %edx
	movq	-32(%rbp), %rax
	movl	%edx, %esi
	movq	%rax, %rdi
	call	*%rcx
.LVL11:
	movq	%rax, %rdx
	movq	%rdx, %rax
	movq	%rax, %rcx
	shrq	$3, %rcx
	addq	$2147450880, %rcx
	movzbl	(%rcx), %ecx
	testb	%cl, %cl
	setne	%sil
	movq	%rax, %rdi
	andl	$7, %edi
	addl	$3, %edi
	cmpb	%cl, %dil
	setge	%cl
	andl	%esi, %ecx
	testb	%cl, %cl
	je	.L240
	movq	%rax, %rdi
	call	__asan_report_load4@PLT
.L240:
	movl	(%rdx), %r12d
	movq	-32(%rbp), %rax
	movq	%rax, %rdx
	shrq	$3, %rdx
	addq	$2147450880, %rdx
	movzbl	(%rdx), %edx
	testb	%dl, %dl
	je	.L241
	movq	%rax, %rdi
	call	__asan_report_load8@PLT
.L241:
	movq	-32(%rbp), %rax
	movq	(%rax), %rax
	addq	$152, %rax
	movq	%rax, %rdx
	movq	%rdx, %rcx
	shrq	$3, %rcx
	addq	$2147450880, %rcx
	movzbl	(%rcx), %ecx
	testb	%cl, %cl
	je	.L242
	movq	%rdx, %rdi
	call	__asan_report_load8@PLT
.L242:
	movq	(%rax), %r8
	movl	-40(%rbp), %edx
	movl	-36(%rbp), %ecx
	movq	-32(%rbp), %rax
	movl	%ecx, %esi
	movq	%rax, %rdi
	call	*%r8
.LVL12:
	movq	%rax, %rdx
	movq	%rdx, %rax
	movq	%rax, %rcx
	shrq	$3, %rcx
	addq	$2147450880, %rcx
	movzbl	(%rcx), %ecx
	testb	%cl, %cl
	setne	%sil
	movq	%rax, %rdi
	andl	$7, %edi
	addl	$3, %edi
	cmpb	%cl, %dil
	setge	%cl
	andl	%esi, %ecx
	testb	%cl, %cl
	je	.L243
	movq	%rax, %rdi
	call	__asan_report_load4@PLT
.L243:
	movl	(%rdx), %eax
	addl	%r12d, %eax
	.loc 9 13 28
	cmpl	%eax, %ebx
	setg	%al
	.loc 9 13 9
	testb	%al, %al
	je	.L257
	.loc 9 15 45
	movq	-32(%rbp), %rax
	movq	%rax, %rdx
	shrq	$3, %rdx
	addq	$2147450880, %rdx
	movzbl	(%rdx), %edx
	testb	%dl, %dl
	je	.L245
	movq	%rax, %rdi
	call	__asan_report_load8@PLT
.L245:
	movq	-32(%rbp), %rax
	movq	(%rax), %rax
	addq	$96, %rax
	movq	%rax, %rdx
	movq	%rdx, %rcx
	shrq	$3, %rcx
	addq	$2147450880, %rcx
	movzbl	(%rcx), %ecx
	testb	%cl, %cl
	je	.L246
	movq	%rdx, %rdi
	call	__asan_report_load8@PLT
.L246:
	movq	(%rax), %rcx
	movl	-36(%rbp), %edx
	movq	-32(%rbp), %rax
	movl	%edx, %esi
	movq	%rax, %rdi
	call	*%rcx
.LVL13:
	movq	%rax, %rdx
	movq	%rdx, %rax
	movq	%rax, %rcx
	shrq	$3, %rcx
	addq	$2147450880, %rcx
	movzbl	(%rcx), %ecx
	testb	%cl, %cl
	setne	%sil
	movq	%rax, %rdi
	andl	$7, %edi
	addl	$3, %edi
	cmpb	%cl, %dil
	setge	%cl
	andl	%esi, %ecx
	testb	%cl, %cl
	je	.L247
	movq	%rax, %rdi
	call	__asan_report_load4@PLT
.L247:
	movl	(%rdx), %ebx
	movq	-32(%rbp), %rax
	movq	%rax, %rdx
	shrq	$3, %rdx
	addq	$2147450880, %rdx
	movzbl	(%rdx), %edx
	testb	%dl, %dl
	je	.L248
	movq	%rax, %rdi
	call	__asan_report_load8@PLT
.L248:
	movq	-32(%rbp), %rax
	movq	(%rax), %rax
	addq	$152, %rax
	movq	%rax, %rdx
	movq	%rdx, %rcx
	shrq	$3, %rcx
	addq	$2147450880, %rcx
	movzbl	(%rcx), %ecx
	testb	%cl, %cl
	je	.L249
	movq	%rdx, %rdi
	call	__asan_report_load8@PLT
.L249:
	movq	(%rax), %r8
	movl	-40(%rbp), %edx
	movl	-36(%rbp), %ecx
	movq	-32(%rbp), %rax
	movl	%ecx, %esi
	movq	%rax, %rdi
	call	*%r8
.LVL14:
	movq	%rax, %rdx
	movq	%rdx, %rax
	movq	%rax, %rcx
	shrq	$3, %rcx
	addq	$2147450880, %rcx
	movzbl	(%rcx), %ecx
	testb	%cl, %cl
	setne	%sil
	movq	%rax, %rdi
	andl	$7, %edi
	addl	$3, %edi
	cmpb	%cl, %dil
	setge	%cl
	andl	%esi, %ecx
	testb	%cl, %cl
	je	.L250
	movq	%rax, %rdi
	call	__asan_report_load4@PLT
.L250:
	movl	(%rdx), %eax
	addl	%eax, %ebx
	.loc 9 15 28
	movq	-32(%rbp), %rax
	movq	%rax, %rdx
	shrq	$3, %rdx
	addq	$2147450880, %rdx
	movzbl	(%rdx), %edx
	testb	%dl, %dl
	je	.L251
	movq	%rax, %rdi
	call	__asan_report_load8@PLT
.L251:
	movq	-32(%rbp), %rax
	movq	(%rax), %rax
	addq	$96, %rax
	movq	%rax, %rdx
	movq	%rdx, %rcx
	shrq	$3, %rcx
	addq	$2147450880, %rcx
	movzbl	(%rcx), %ecx
	testb	%cl, %cl
	je	.L252
	movq	%rdx, %rdi
	call	__asan_report_load8@PLT
.L252:
	movq	(%rax), %rcx
	movl	-40(%rbp), %edx
	movq	-32(%rbp), %rax
	movl	%edx, %esi
	movq	%rax, %rdi
	call	*%rcx
.LVL15:
	movq	%rax, %rdx
	.loc 9 15 13
	movq	%rdx, %rax
	movq	%rax, %rcx
	shrq	$3, %rcx
	addq	$2147450880, %rcx
	movzbl	(%rcx), %ecx
	testb	%cl, %cl
	setne	%sil
	movq	%rax, %rdi
	andl	$7, %edi
	addl	$3, %edi
	cmpb	%cl, %dil
	setge	%cl
	andl	%esi, %ecx
	testb	%cl, %cl
	je	.L253
	movq	%rax, %rdi
	call	__asan_report_store4@PLT
.L253:
	movl	%ebx, (%rdx)
	.loc 9 16 13
	movl	-36(%rbp), %ebx
	.loc 9 16 26
	movq	-32(%rbp), %rax
	movq	%rax, %rdx
	shrq	$3, %rdx
	addq	$2147450880, %rdx
	movzbl	(%rdx), %edx
	testb	%dl, %dl
	je	.L254
	movq	%rax, %rdi
	call	__asan_report_load8@PLT
.L254:
	movq	-32(%rbp), %rax
	movq	(%rax), %rax
	addq	$88, %rax
	movq	%rax, %rdx
	movq	%rdx, %rcx
	shrq	$3, %rcx
	addq	$2147450880, %rcx
	movzbl	(%rcx), %ecx
	testb	%cl, %cl
	je	.L255
	movq	%rdx, %rdi
	call	__asan_report_load8@PLT
.L255:
	movq	(%rax), %rcx
	movl	-40(%rbp), %edx
	movq	-32(%rbp), %rax
	movl	%edx, %esi
	movq	%rax, %rdi
	call	*%rcx
.LVL16:
	movq	%rax, %rdx
	.loc 9 16 13
	movq	%rdx, %rax
	movq	%rax, %rcx
	shrq	$3, %rcx
	addq	$2147450880, %rcx
	movzbl	(%rcx), %ecx
	testb	%cl, %cl
	setne	%sil
	movq	%rax, %rdi
	andl	$7, %edi
	addl	$3, %edi
	cmpb	%cl, %dil
	setge	%cl
	andl	%esi, %ecx
	testb	%cl, %cl
	je	.L256
	movq	%rax, %rdi
	call	__asan_report_store4@PLT
.L256:
	movl	%ebx, (%rdx)
.L257:
.LBE42:
	.loc 9 11 19
	nop
	addq	$32, %rsp
	popq	%rbx
	popq	%r12
	popq	%rbp
	.cfi_def_cfa 7, 8
	ret
	.cfi_endproc
.LFE4505:
	.size	_ZZN5GraphIicE8dijkstraEiRS0_ENKUlPS0_iiE_clES2_ii, .-_ZZN5GraphIicE8dijkstraEiRS0_ENKUlPS0_iiE_clES2_ii
	.section	.rodata
	.align 8
.LC33:
	.string	"2 48 1 9 DijkPU:11 64 4 4 i:20"
	.section	.text._ZN5GraphIicE8dijkstraEiRS0_,"axG",@progbits,_ZN5GraphIicE8dijkstraEiRS0_,comdat
	.align 2
	.weak	_ZN5GraphIicE8dijkstraEiRS0_
	.type	_ZN5GraphIicE8dijkstraEiRS0_, @function
_ZN5GraphIicE8dijkstraEiRS0_:
.LASANPC4504:
.LFB4504:
	.loc 9 8 6
	.cfi_startproc
	endbr64
	pushq	%rbp
	.cfi_def_cfa_offset 16
	.cfi_offset 6, -16
	movq	%rsp, %rbp
	.cfi_def_cfa_register 6
	pushq	%r14
	pushq	%r13
	pushq	%r12
	pushq	%rbx
	subq	$160, %rsp
	.cfi_offset 14, -24
	.cfi_offset 13, -32
	.cfi_offset 12, -40
	.cfi_offset 3, -48
	movq	%rdi, -168(%rbp)
	movl	%esi, -172(%rbp)
	movq	%rdx, -184(%rbp)
	leaq	-160(%rbp), %rbx
	movq	%rbx, %r14
	cmpl	$0, __asan_option_detect_stack_use_after_return(%rip)
	je	.L258
	movl	$96, %edi
	call	__asan_stack_malloc_1@PLT
.LVL17:
	testq	%rax, %rax
	je	.L258
	movq	%rax, %rbx
.L258:
	leaq	128(%rbx), %rax
	movq	%rax, %r12
	movq	$1102416563, (%rbx)
	leaq	.LC33(%rip), %rax
	movq	%rax, 8(%rbx)
	leaq	.LASANPC4504(%rip), %rax
	movq	%rax, 16(%rbx)
	movq	%rbx, %r13
	shrq	$3, %r13
	movl	$-235802127, 2147450880(%r13)
	movl	$-234753551, 2147450884(%r13)
	movl	$-202116348, 2147450888(%r13)
	.loc 9 8 6
	movq	%fs:40, %rax
	movq	%rax, -40(%rbp)
	xorl	%eax, %eax
	.loc 9 10 5
	movq	-168(%rbp), %rax
	movq	%rax, %rdi
	call	_ZN5GraphIicE5resetEv
	.loc 9 19 27
	movq	-168(%rbp), %rax
	addq	$16, %rax
	movq	%rax, %rdx
	movq	%rdx, %rax
	shrq	$3, %rax
	addq	$2147450880, %rax
	movzbl	(%rax), %eax
	testb	%al, %al
	setne	%cl
	cmpb	$3, %al
	setle	%al
	andl	%ecx, %eax
	testb	%al, %al
	je	.L262
	movq	%rdx, %rdi
	call	__asan_report_load4@PLT
.L262:
	movq	-168(%rbp), %rax
	movl	16(%rax), %ecx
	.loc 9 19 5
	movq	-184(%rbp), %rax
	addq	$16, %rax
	movq	%rax, %rdx
	movq	%rdx, %rax
	shrq	$3, %rax
	addq	$2147450880, %rax
	movzbl	(%rax), %eax
	testb	%al, %al
	setne	%sil
	cmpb	$3, %al
	setle	%al
	andl	%esi, %eax
	testb	%al, %al
	je	.L263
	movq	%rdx, %rdi
	call	__asan_report_store4@PLT
.L263:
	movq	-184(%rbp), %rax
	movl	%ecx, 16(%rax)
.LBB43:
	.loc 9 20 14
	leaq	-64(%r12), %rax
	movq	%rax, %rdx
	movq	%rdx, %rax
	shrq	$3, %rax
	addq	$2147450880, %rax
	movzbl	(%rax), %eax
	testb	%al, %al
	setne	%cl
	cmpb	$3, %al
	setle	%al
	andl	%ecx, %eax
	testb	%al, %al
	je	.L264
	movq	%rdx, %rdi
	call	__asan_report_store4@PLT
.L264:
	movl	$0, -64(%r12)
.L271:
	.loc 9 20 31 discriminator 1
	movq	-168(%rbp), %rax
	addq	$8, %rax
	movq	%rax, %rdx
	movq	%rdx, %rax
	shrq	$3, %rax
	addq	$2147450880, %rax
	movzbl	(%rax), %eax
	testb	%al, %al
	setne	%cl
	cmpb	$3, %al
	setle	%al
	andl	%ecx, %eax
	testb	%al, %al
	je	.L265
	.loc 9 20 31 is_stmt 0
	movq	%rdx, %rdi
	call	__asan_report_load4@PLT
.L265:
	.loc 9 20 31 discriminator 1
	movq	-168(%rbp), %rax
	movl	8(%rax), %ecx
	.loc 9 20 23 is_stmt 1 discriminator 1
	leaq	-64(%r12), %rax
	movq	%rax, %rdx
	movq	%rdx, %rax
	shrq	$3, %rax
	addq	$2147450880, %rax
	movzbl	(%rax), %eax
	testb	%al, %al
	setne	%sil
	cmpb	$3, %al
	setle	%al
	andl	%esi, %eax
	testb	%al, %al
	je	.L266
	.loc 9 20 23 is_stmt 0
	movq	%rdx, %rdi
	call	__asan_report_load4@PLT
.L266:
	.loc 9 20 23 discriminator 1
	movl	-64(%r12), %eax
	cmpl	%eax, %ecx
	jle	.L267
	.loc 9 21 9 is_stmt 1
	movq	-184(%rbp), %rax
	movq	%rax, %rdx
	shrq	$3, %rdx
	addq	$2147450880, %rdx
	movzbl	(%rdx), %edx
	testb	%dl, %dl
	je	.L268
	movq	%rax, %rdi
	call	__asan_report_load8@PLT
.L268:
	movq	-184(%rbp), %rax
	movq	(%rax), %rax
	movq	%rax, %rdx
	movq	%rdx, %rcx
	shrq	$3, %rcx
	addq	$2147450880, %rcx
	movzbl	(%rcx), %ecx
	testb	%cl, %cl
	je	.L269
	movq	%rdx, %rdi
	call	__asan_report_load8@PLT
.L269:
	movq	(%rax), %rcx
	leaq	-64(%r12), %rdx
	movq	-184(%rbp), %rax
	movq	%rdx, %rsi
	movq	%rax, %rdi
	call	*%rcx
.LVL18:
	.loc 9 20 5
	leaq	-64(%r12), %rax
	movq	%rax, %rdx
	movq	%rdx, %rax
	shrq	$3, %rax
	addq	$2147450880, %rax
	movzbl	(%rax), %eax
	testb	%al, %al
	setne	%cl
	cmpb	$3, %al
	setle	%al
	andl	%ecx, %eax
	testb	%al, %al
	je	.L270
	movq	%rdx, %rdi
	call	__asan_report_load4@PLT
.L270:
	.loc 9 20 5 is_stmt 0 discriminator 2
	movl	-64(%r12), %eax
	addl	$1, %eax
	movl	%eax, -64(%r12)
	jmp	.L271
.L267:
	leaq	-64(%r12), %rax
	shrq	$3, %rax
	addq	$2147450880, %rax
	movb	$-8, (%rax)
.LBE43:
	.loc 9 22 5 is_stmt 1
	movq	-184(%rbp), %rdx
	movl	-172(%rbp), %ecx
	movq	-168(%rbp), %rax
	movl	%ecx, %esi
	movq	%rax, %rdi
	call	_ZN5GraphIicE3PFSIZNS0_8dijkstraEiRS0_EUlPS0_iiE_EEviT_S2_
	.loc 9 23 1
	nop
	.loc 9 8 6
	cmpq	%rbx, %r14
	je	.L259
	movq	$1172321806, (%rbx)
	movabsq	$-723401728380766731, %rax
	movq	%rax, 2147450880(%r13)
	movl	$-168430091, 2147450888(%r13)
	movq	120(%rbx), %rax
	movb	$0, (%rax)
	jmp	.L260
.L259:
	movq	$0, 2147450880(%r13)
	movl	$0, 2147450888(%r13)
.L260:
	.loc 9 23 1
	movq	-40(%rbp), %rax
	xorq	%fs:40, %rax
	je	.L272
	call	__stack_chk_fail@PLT
.L272:
	addq	$160, %rsp
	popq	%rbx
	popq	%r12
	popq	%r13
	popq	%r14
	popq	%rbp
	.cfi_def_cfa 7, 8
	ret
	.cfi_endproc
.LFE4504:
	.size	_ZN5GraphIicE8dijkstraEiRS0_, .-_ZN5GraphIicE8dijkstraEiRS0_
	.section	.rodata
.LC34:
	.string	"1 32 4 5 j:163"
	.section	.text._ZN5GraphIicE7getPathEi,"axG",@progbits,_ZN5GraphIicE7getPathEi,comdat
	.align 2
	.weak	_ZN5GraphIicE7getPathEi
	.type	_ZN5GraphIicE7getPathEi, @function
_ZN5GraphIicE7getPathEi:
.LASANPC4508:
.LFB4508:
	.file 10 "../src/Graph.h"
	.loc 10 159 17
	.cfi_startproc
	.cfi_personality 0x9b,DW.ref.__gxx_personality_v0
	.cfi_lsda 0x1b,.LLSDA4508
	endbr64
	pushq	%rbp
	.cfi_def_cfa_offset 16
	.cfi_offset 6, -16
	movq	%rsp, %rbp
	.cfi_def_cfa_register 6
	pushq	%r14
	pushq	%r13
	pushq	%r12
	pushq	%rbx
	addq	$-128, %rsp
	.cfi_offset 14, -24
	.cfi_offset 13, -32
	.cfi_offset 12, -40
	.cfi_offset 3, -48
	movq	%rdi, -136(%rbp)
	movq	%rsi, -144(%rbp)
	movl	%edx, -148(%rbp)
	leaq	-128(%rbp), %rbx
	movq	%rbx, %r14
	cmpl	$0, __asan_option_detect_stack_use_after_return(%rip)
	je	.L273
	movl	$64, %edi
	call	__asan_stack_malloc_0@PLT
.LVL19:
	testq	%rax, %rax
	je	.L273
	movq	%rax, %rbx
.L273:
	leaq	96(%rbx), %rax
	movq	%rax, %r12
	movq	$1102416563, (%rbx)
	leaq	.LC34(%rip), %rax
	movq	%rax, 8(%rbx)
	leaq	.LASANPC4508(%rip), %rax
	movq	%rax, 16(%rbx)
	movq	%rbx, %r13
	shrq	$3, %r13
	movl	$-235802127, 2147450880(%r13)
	movl	$-202116348, 2147450884(%r13)
	.loc 10 159 17
	movq	%fs:40, %rax
	movq	%rax, -40(%rbp)
	xorl	%eax, %eax
	.loc 10 161 21
	movq	-136(%rbp), %rax
	movq	%rax, %rdi
	call	_ZNSt6vectorIiSaIiEEC1Ev
.LBB44:
	.loc 10 162 23
	movq	-144(%rbp), %rax
	movq	%rax, %rdx
	shrq	$3, %rdx
	addq	$2147450880, %rdx
	movzbl	(%rdx), %edx
	testb	%dl, %dl
	je	.L277
	movq	%rax, %rdi
	call	__asan_report_load8@PLT
.L277:
	movq	-144(%rbp), %rax
	movq	(%rax), %rax
	addq	$88, %rax
	movq	%rax, %rdx
	movq	%rdx, %rcx
	shrq	$3, %rcx
	addq	$2147450880, %rcx
	movzbl	(%rcx), %ecx
	testb	%cl, %cl
	je	.L278
	movq	%rdx, %rdi
	call	__asan_report_load8@PLT
.L278:
	movq	(%rax), %rcx
	movl	-148(%rbp), %edx
	movq	-144(%rbp), %rax
	movl	%edx, %esi
	movq	%rax, %rdi
.LEHB13:
	call	*%rcx
.LVL20:
.LEHE13:
	movq	%rax, %rdx
	movq	%rdx, %rax
	movq	%rax, %rcx
	shrq	$3, %rcx
	addq	$2147450880, %rcx
	movzbl	(%rcx), %ecx
	testb	%cl, %cl
	setne	%sil
	movq	%rax, %rdi
	andl	$7, %edi
	addl	$3, %edi
	cmpb	%cl, %dil
	setge	%cl
	andl	%esi, %ecx
	testb	%cl, %cl
	je	.L279
	movq	%rax, %rdi
	call	__asan_report_load4@PLT
.L279:
	.loc 10 162 23 is_stmt 0 discriminator 1
	movl	(%rdx), %eax
	cmpl	$-1, %eax
	setne	%al
	.loc 10 162 9 is_stmt 1 discriminator 1
	testb	%al, %al
	je	.L295
.LBB45:
.LBB46:
	.loc 10 163 22
	leaq	-64(%r12), %rax
	movq	%rax, %rdx
	movq	%rdx, %rax
	shrq	$3, %rax
	addq	$2147450880, %rax
	movzbl	(%rax), %eax
	testb	%al, %al
	setne	%cl
	cmpb	$3, %al
	setle	%al
	andl	%ecx, %eax
	testb	%al, %al
	je	.L281
	movq	%rdx, %rdi
	call	__asan_report_store4@PLT
.L281:
	movl	-148(%rbp), %eax
	movl	%eax, -64(%r12)
.L288:
	.loc 10 163 31 discriminator 3
	leaq	-64(%r12), %rax
	movq	%rax, %rdx
	movq	%rdx, %rax
	shrq	$3, %rax
	addq	$2147450880, %rax
	movzbl	(%rax), %eax
	testb	%al, %al
	setne	%cl
	cmpb	$3, %al
	setle	%al
	andl	%ecx, %eax
	testb	%al, %al
	je	.L282
	.loc 10 163 31 is_stmt 0
	movq	%rdx, %rdi
	call	__asan_report_load4@PLT
.L282:
	.loc 10 163 31 discriminator 3
	movl	-64(%r12), %eax
	cmpl	$-1, %eax
	je	.L295
	.loc 10 164 34 is_stmt 1
	leaq	-64(%r12), %rdx
	movq	-136(%rbp), %rax
	movq	%rdx, %rsi
	movq	%rax, %rdi
.LEHB14:
	call	_ZNSt6vectorIiSaIiEE12emplace_backIJRiEEES3_DpOT_
	.loc 10 163 40
	movq	-144(%rbp), %rax
	movq	%rax, %rdx
	shrq	$3, %rdx
	addq	$2147450880, %rdx
	movzbl	(%rdx), %edx
	testb	%dl, %dl
	je	.L283
	movq	%rax, %rdi
	call	__asan_report_load8@PLT
.L283:
	movq	-144(%rbp), %rax
	movq	(%rax), %rax
	addq	$88, %rax
	movq	%rax, %rdx
	movq	%rdx, %rcx
	shrq	$3, %rcx
	addq	$2147450880, %rcx
	movzbl	(%rcx), %ecx
	testb	%cl, %cl
	je	.L284
	movq	%rdx, %rdi
	call	__asan_report_load8@PLT
.L284:
	movq	(%rax), %rcx
	leaq	-64(%r12), %rax
	movq	%rax, %rdx
	movq	%rdx, %rax
	shrq	$3, %rax
	addq	$2147450880, %rax
	movzbl	(%rax), %eax
	testb	%al, %al
	setne	%sil
	cmpb	$3, %al
	setle	%al
	andl	%esi, %eax
	testb	%al, %al
	je	.L285
	movq	%rdx, %rdi
	call	__asan_report_load4@PLT
.L285:
	movl	-64(%r12), %edx
	movq	-144(%rbp), %rax
	movl	%edx, %esi
	movq	%rax, %rdi
	call	*%rcx
.LVL21:
.LEHE14:
	movq	%rax, %rdx
	.loc 10 163 13
	movq	%rdx, %rax
	movq	%rax, %rcx
	shrq	$3, %rcx
	addq	$2147450880, %rcx
	movzbl	(%rcx), %ecx
	testb	%cl, %cl
	setne	%sil
	movq	%rax, %rdi
	andl	$7, %edi
	addl	$3, %edi
	cmpb	%cl, %dil
	setge	%cl
	andl	%esi, %ecx
	testb	%cl, %cl
	je	.L286
	movq	%rax, %rdi
	call	__asan_report_load4@PLT
.L286:
	.loc 10 163 13 is_stmt 0 discriminator 2
	movl	(%rdx), %ecx
	leaq	-64(%r12), %rax
	movq	%rax, %rdx
	movq	%rdx, %rax
	shrq	$3, %rax
	addq	$2147450880, %rax
	movzbl	(%rax), %eax
	testb	%al, %al
	setne	%sil
	cmpb	$3, %al
	setle	%al
	andl	%esi, %eax
	testb	%al, %al
	je	.L287
	.loc 10 163 13
	movq	%rdx, %rdi
	call	__asan_report_store4@PLT
.L287:
	.loc 10 163 13 discriminator 2
	movl	%ecx, -64(%r12)
	jmp	.L288
.L294:
	endbr64
	leaq	-64(%r12), %rdx
	shrq	$3, %rdx
	addq	$2147450880, %rdx
	movb	$-8, (%rdx)
	movq	%rax, %rbx
	jmp	.L291
.L293:
	endbr64
	movq	%rax, %rbx
.L291:
.LBE46:
.LBE45:
.LBE44:
	movq	-136(%rbp), %rax
	movq	%rax, %rdi
	call	_ZNSt6vectorIiSaIiEED1Ev
	call	__asan_handle_no_return@PLT
	movq	%rbx, %rdi
.LEHB15:
	call	_Unwind_Resume@PLT
.LEHE15:
.L295:
	.loc 10 165 16 is_stmt 1
	nop
	.loc 10 159 17
	cmpq	%rbx, %r14
	je	.L274
	movq	$1172321806, (%rbx)
	movabsq	$-723401728380766731, %rax
	movq	%rax, 2147450880(%r13)
	movq	56(%rbx), %rax
	movb	$0, (%rax)
	jmp	.L275
.L274:
	movq	$0, 2147450880(%r13)
.L275:
	.loc 10 166 5
	movq	-40(%rbp), %rax
	xorq	%fs:40, %rax
	je	.L292
	call	__stack_chk_fail@PLT
.L292:
	movq	-136(%rbp), %rax
	subq	$-128, %rsp
	popq	%rbx
	popq	%r12
	popq	%r13
	popq	%r14
	popq	%rbp
	.cfi_def_cfa 7, 8
	ret
	.cfi_endproc
.LFE4508:
	.section	.gcc_except_table
.LLSDA4508:
	.byte	0xff
	.byte	0xff
	.byte	0x1
	.uleb128 .LLSDACSE4508-.LLSDACSB4508
.LLSDACSB4508:
	.uleb128 .LEHB13-.LFB4508
	.uleb128 .LEHE13-.LEHB13
	.uleb128 .L293-.LFB4508
	.uleb128 0
	.uleb128 .LEHB14-.LFB4508
	.uleb128 .LEHE14-.LEHB14
	.uleb128 .L294-.LFB4508
	.uleb128 0
	.uleb128 .LEHB15-.LFB4508
	.uleb128 .LEHE15-.LEHB15
	.uleb128 0
	.uleb128 0
.LLSDACSE4508:
	.section	.text._ZN5GraphIicE7getPathEi,"axG",@progbits,_ZN5GraphIicE7getPathEi,comdat
	.size	_ZN5GraphIicE7getPathEi, .-_ZN5GraphIicE7getPathEi
	.section	.rodata
.LC35:
	.string	"1 32 1 9 <unknown>"
	.section	.text._ZNSt6vectorIiSaIiEEaSEOS1_,"axG",@progbits,_ZNSt6vectorIiSaIiEEaSEOS1_,comdat
	.align 2
	.weak	_ZNSt6vectorIiSaIiEEaSEOS1_
	.type	_ZNSt6vectorIiSaIiEEaSEOS1_, @function
_ZNSt6vectorIiSaIiEEaSEOS1_:
.LASANPC4515:
.LFB4515:
	.loc 4 706 7
	.cfi_startproc
	endbr64
	pushq	%rbp
	.cfi_def_cfa_offset 16
	.cfi_offset 6, -16
	movq	%rsp, %rbp
	.cfi_def_cfa_register 6
	pushq	%r13
	pushq	%r12
	pushq	%rbx
	subq	$136, %rsp
	.cfi_offset 13, -24
	.cfi_offset 12, -32
	.cfi_offset 3, -40
	movq	%rdi, -152(%rbp)
	movq	%rsi, -160(%rbp)
	leaq	-128(%rbp), %rbx
	movq	%rbx, %r13
	cmpl	$0, __asan_option_detect_stack_use_after_return(%rip)
	je	.L296
	movl	$64, %edi
	call	__asan_stack_malloc_0@PLT
.LVL22:
	testq	%rax, %rax
	je	.L296
	movq	%rax, %rbx
.L296:
	movq	$1102416563, (%rbx)
	leaq	.LC35(%rip), %rax
	movq	%rax, 8(%rbx)
	leaq	.LASANPC4515(%rip), %rax
	movq	%rax, 16(%rbx)
	movq	%rbx, %r12
	shrq	$3, %r12
	movl	$-235802127, 2147450880(%r12)
	movl	$-202116351, 2147450884(%r12)
	.loc 4 706 7
	movq	%fs:40, %rax
	movq	%rax, -40(%rbp)
	xorl	%eax, %eax
	.loc 4 708 17
	movb	$1, -129(%rbp)
	.loc 4 711 26
	movq	-160(%rbp), %rax
	movq	%rax, %rdi
	call	_ZSt4moveIRSt6vectorIiSaIiEEEONSt16remove_referenceIT_E4typeEOS5_
	movq	%rax, %rdx
	.loc 4 711 2
	movq	-152(%rbp), %rax
	movq	%rdx, %rsi
	movq	%rax, %rdi
	call	_ZNSt6vectorIiSaIiEE14_M_move_assignEOS1_St17integral_constantIbLb1EE
	.loc 4 712 10
	movq	-152(%rbp), %rax
	movq	%rax, %rdx
	.loc 4 706 7
	cmpq	%rbx, %r13
	je	.L297
	movq	$1172321806, (%rbx)
	movabsq	$-723401728380766731, %rax
	movq	%rax, 2147450880(%r12)
	movq	56(%rbx), %rax
	movb	$0, (%rax)
	jmp	.L298
.L297:
	movq	$0, 2147450880(%r12)
.L298:
	.loc 4 713 7
	movq	-40(%rbp), %rax
	xorq	%fs:40, %rax
	je	.L301
	call	__stack_chk_fail@PLT
.L301:
	movq	%rdx, %rax
	addq	$136, %rsp
	popq	%rbx
	popq	%r12
	popq	%r13
	popq	%rbp
	.cfi_def_cfa 7, 8
	ret
	.cfi_endproc
.LFE4515:
	.size	_ZNSt6vectorIiSaIiEEaSEOS1_, .-_ZNSt6vectorIiSaIiEEaSEOS1_
	.section	.text._ZZN5GraphIicE4primEiRS0_ENKUlPS0_iiE_clES2_ii,"axG",@progbits,_ZZN5GraphIicE4primEiRS0_ENKUlPS0_iiE_clES2_ii,comdat
	.align 2
	.weak	_ZZN5GraphIicE4primEiRS0_ENKUlPS0_iiE_clES2_ii
	.type	_ZZN5GraphIicE4primEiRS0_ENKUlPS0_iiE_clES2_ii, @function
_ZZN5GraphIicE4primEiRS0_ENKUlPS0_iiE_clES2_ii:
.LASANPC4517:
.LFB4517:
	.file 11 "../src/GraphPrim.h"
	.loc 11 25 19
	.cfi_startproc
	endbr64
	pushq	%rbp
	.cfi_def_cfa_offset 16
	.cfi_offset 6, -16
	movq	%rsp, %rbp
	.cfi_def_cfa_register 6
	pushq	%rbx
	subq	$40, %rsp
	.cfi_offset 3, -24
	movq	%rdi, -24(%rbp)
	movq	%rsi, -32(%rbp)
	movl	%edx, -36(%rbp)
	movl	%ecx, -40(%rbp)
.LBB47:
	.loc 11 27 28
	movq	-32(%rbp), %rax
	movq	%rax, %rdx
	shrq	$3, %rdx
	addq	$2147450880, %rdx
	movzbl	(%rdx), %edx
	testb	%dl, %dl
	je	.L303
	movq	%rax, %rdi
	call	__asan_report_load8@PLT
.L303:
	movq	-32(%rbp), %rax
	movq	(%rax), %rax
	addq	$96, %rax
	movq	%rax, %rdx
	movq	%rdx, %rcx
	shrq	$3, %rcx
	addq	$2147450880, %rcx
	movzbl	(%rcx), %ecx
	testb	%cl, %cl
	je	.L304
	movq	%rdx, %rdi
	call	__asan_report_load8@PLT
.L304:
	movq	(%rax), %rcx
	movl	-40(%rbp), %edx
	movq	-32(%rbp), %rax
	movl	%edx, %esi
	movq	%rax, %rdi
	call	*%rcx
.LVL23:
	movq	%rax, %rdx
	movq	%rdx, %rax
	movq	%rax, %rcx
	shrq	$3, %rcx
	addq	$2147450880, %rcx
	movzbl	(%rcx), %ecx
	testb	%cl, %cl
	setne	%sil
	movq	%rax, %rdi
	andl	$7, %edi
	addl	$3, %edi
	cmpb	%cl, %dil
	setge	%cl
	andl	%esi, %ecx
	testb	%cl, %cl
	je	.L305
	movq	%rax, %rdi
	call	__asan_report_load4@PLT
.L305:
	movl	(%rdx), %ebx
	movq	-32(%rbp), %rax
	movq	%rax, %rdx
	shrq	$3, %rdx
	addq	$2147450880, %rdx
	movzbl	(%rdx), %edx
	testb	%dl, %dl
	je	.L306
	movq	%rax, %rdi
	call	__asan_report_load8@PLT
.L306:
	movq	-32(%rbp), %rax
	movq	(%rax), %rax
	addq	$152, %rax
	movq	%rax, %rdx
	movq	%rdx, %rcx
	shrq	$3, %rcx
	addq	$2147450880, %rcx
	movzbl	(%rcx), %ecx
	testb	%cl, %cl
	je	.L307
	movq	%rdx, %rdi
	call	__asan_report_load8@PLT
.L307:
	movq	(%rax), %r8
	movl	-40(%rbp), %edx
	movl	-36(%rbp), %ecx
	movq	-32(%rbp), %rax
	movl	%ecx, %esi
	movq	%rax, %rdi
	call	*%r8
.LVL24:
	movq	%rax, %rdx
	movq	%rdx, %rax
	movq	%rax, %rcx
	shrq	$3, %rcx
	addq	$2147450880, %rcx
	movzbl	(%rcx), %ecx
	testb	%cl, %cl
	setne	%sil
	movq	%rax, %rdi
	andl	$7, %edi
	addl	$3, %edi
	cmpb	%cl, %dil
	setge	%cl
	andl	%esi, %ecx
	testb	%cl, %cl
	je	.L308
	movq	%rax, %rdi
	call	__asan_report_load4@PLT
.L308:
	movl	(%rdx), %eax
	cmpl	%eax, %ebx
	setg	%al
	.loc 11 27 9
	testb	%al, %al
	je	.L319
	.loc 11 29 28
	movq	-32(%rbp), %rax
	movq	%rax, %rdx
	shrq	$3, %rdx
	addq	$2147450880, %rdx
	movzbl	(%rdx), %edx
	testb	%dl, %dl
	je	.L310
	movq	%rax, %rdi
	call	__asan_report_load8@PLT
.L310:
	movq	-32(%rbp), %rax
	movq	(%rax), %rax
	addq	$152, %rax
	movq	%rax, %rdx
	movq	%rdx, %rcx
	shrq	$3, %rcx
	addq	$2147450880, %rcx
	movzbl	(%rcx), %ecx
	testb	%cl, %cl
	je	.L311
	movq	%rdx, %rdi
	call	__asan_report_load8@PLT
.L311:
	movq	(%rax), %r8
	movl	-40(%rbp), %edx
	movl	-36(%rbp), %ecx
	movq	-32(%rbp), %rax
	movl	%ecx, %esi
	movq	%rax, %rdi
	call	*%r8
.LVL25:
	movq	%rax, %rdx
	.loc 11 29 13
	movq	%rdx, %rax
	movq	%rax, %rcx
	shrq	$3, %rcx
	addq	$2147450880, %rcx
	movzbl	(%rcx), %ecx
	testb	%cl, %cl
	setne	%sil
	movq	%rax, %rdi
	andl	$7, %edi
	addl	$3, %edi
	cmpb	%cl, %dil
	setge	%cl
	andl	%esi, %ecx
	testb	%cl, %cl
	je	.L312
	movq	%rax, %rdi
	call	__asan_report_load4@PLT
.L312:
	movl	(%rdx), %ebx
	.loc 11 29 28
	movq	-32(%rbp), %rax
	movq	%rax, %rdx
	shrq	$3, %rdx
	addq	$2147450880, %rdx
	movzbl	(%rdx), %edx
	testb	%dl, %dl
	je	.L313
	movq	%rax, %rdi
	call	__asan_report_load8@PLT
.L313:
	movq	-32(%rbp), %rax
	movq	(%rax), %rax
	addq	$96, %rax
	movq	%rax, %rdx
	movq	%rdx, %rcx
	shrq	$3, %rcx
	addq	$2147450880, %rcx
	movzbl	(%rcx), %ecx
	testb	%cl, %cl
	je	.L314
	movq	%rdx, %rdi
	call	__asan_report_load8@PLT
.L314:
	movq	(%rax), %rcx
	movl	-40(%rbp), %edx
	movq	-32(%rbp), %rax
	movl	%edx, %esi
	movq	%rax, %rdi
	call	*%rcx
.LVL26:
	movq	%rax, %rdx
	.loc 11 29 13
	movq	%rdx, %rax
	movq	%rax, %rcx
	shrq	$3, %rcx
	addq	$2147450880, %rcx
	movzbl	(%rcx), %ecx
	testb	%cl, %cl
	setne	%sil
	movq	%rax, %rdi
	andl	$7, %edi
	addl	$3, %edi
	cmpb	%cl, %dil
	setge	%cl
	andl	%esi, %ecx
	testb	%cl, %cl
	je	.L315
	movq	%rax, %rdi
	call	__asan_report_store4@PLT
.L315:
	movl	%ebx, (%rdx)
	.loc 11 30 13
	movl	-36(%rbp), %ebx
	.loc 11 30 26
	movq	-32(%rbp), %rax
	movq	%rax, %rdx
	shrq	$3, %rdx
	addq	$2147450880, %rdx
	movzbl	(%rdx), %edx
	testb	%dl, %dl
	je	.L316
	movq	%rax, %rdi
	call	__asan_report_load8@PLT
.L316:
	movq	-32(%rbp), %rax
	movq	(%rax), %rax
	addq	$88, %rax
	movq	%rax, %rdx
	movq	%rdx, %rcx
	shrq	$3, %rcx
	addq	$2147450880, %rcx
	movzbl	(%rcx), %ecx
	testb	%cl, %cl
	je	.L317
	movq	%rdx, %rdi
	call	__asan_report_load8@PLT
.L317:
	movq	(%rax), %rcx
	movl	-40(%rbp), %edx
	movq	-32(%rbp), %rax
	movl	%edx, %esi
	movq	%rax, %rdi
	call	*%rcx
.LVL27:
	movq	%rax, %rdx
	.loc 11 30 13
	movq	%rdx, %rax
	movq	%rax, %rcx
	shrq	$3, %rcx
	addq	$2147450880, %rcx
	movzbl	(%rcx), %ecx
	testb	%cl, %cl
	setne	%sil
	movq	%rax, %rdi
	andl	$7, %edi
	addl	$3, %edi
	cmpb	%cl, %dil
	setge	%cl
	andl	%esi, %ecx
	testb	%cl, %cl
	je	.L318
	movq	%rax, %rdi
	call	__asan_report_store4@PLT
.L318:
	movl	%ebx, (%rdx)
.L319:
.LBE47:
	.loc 11 25 19
	nop
	addq	$40, %rsp
	popq	%rbx
	popq	%rbp
	.cfi_def_cfa 7, 8
	ret
	.cfi_endproc
.LFE4517:
	.size	_ZZN5GraphIicE4primEiRS0_ENKUlPS0_iiE_clES2_ii, .-_ZZN5GraphIicE4primEiRS0_ENKUlPS0_iiE_clES2_ii
	.section	.rodata
	.align 8
.LC36:
	.string	"2 48 1 9 primPU:25 64 4 4 i:34"
	.section	.text._ZN5GraphIicE4primEiRS0_,"axG",@progbits,_ZN5GraphIicE4primEiRS0_,comdat
	.align 2
	.weak	_ZN5GraphIicE4primEiRS0_
	.type	_ZN5GraphIicE4primEiRS0_, @function
_ZN5GraphIicE4primEiRS0_:
.LASANPC4516:
.LFB4516:
	.loc 11 22 6
	.cfi_startproc
	endbr64
	pushq	%rbp
	.cfi_def_cfa_offset 16
	.cfi_offset 6, -16
	movq	%rsp, %rbp
	.cfi_def_cfa_register 6
	pushq	%r14
	pushq	%r13
	pushq	%r12
	pushq	%rbx
	subq	$160, %rsp
	.cfi_offset 14, -24
	.cfi_offset 13, -32
	.cfi_offset 12, -40
	.cfi_offset 3, -48
	movq	%rdi, -168(%rbp)
	movl	%esi, -172(%rbp)
	movq	%rdx, -184(%rbp)
	leaq	-160(%rbp), %rbx
	movq	%rbx, %r14
	cmpl	$0, __asan_option_detect_stack_use_after_return(%rip)
	je	.L320
	movl	$96, %edi
	call	__asan_stack_malloc_1@PLT
.LVL28:
	testq	%rax, %rax
	je	.L320
	movq	%rax, %rbx
.L320:
	leaq	128(%rbx), %rax
	movq	%rax, %r12
	movq	$1102416563, (%rbx)
	leaq	.LC36(%rip), %rax
	movq	%rax, 8(%rbx)
	leaq	.LASANPC4516(%rip), %rax
	movq	%rax, 16(%rbx)
	movq	%rbx, %r13
	shrq	$3, %r13
	movl	$-235802127, 2147450880(%r13)
	movl	$-234753551, 2147450884(%r13)
	movl	$-202116348, 2147450888(%r13)
	.loc 11 22 6
	movq	%fs:40, %rax
	movq	%rax, -40(%rbp)
	xorl	%eax, %eax
	.loc 11 24 5
	movq	-168(%rbp), %rax
	movq	%rax, %rdi
	call	_ZN5GraphIicE5resetEv
	.loc 11 33 27
	movq	-168(%rbp), %rax
	addq	$16, %rax
	movq	%rax, %rdx
	movq	%rdx, %rax
	shrq	$3, %rax
	addq	$2147450880, %rax
	movzbl	(%rax), %eax
	testb	%al, %al
	setne	%cl
	cmpb	$3, %al
	setle	%al
	andl	%ecx, %eax
	testb	%al, %al
	je	.L324
	movq	%rdx, %rdi
	call	__asan_report_load4@PLT
.L324:
	movq	-168(%rbp), %rax
	movl	16(%rax), %ecx
	.loc 11 33 5
	movq	-184(%rbp), %rax
	addq	$16, %rax
	movq	%rax, %rdx
	movq	%rdx, %rax
	shrq	$3, %rax
	addq	$2147450880, %rax
	movzbl	(%rax), %eax
	testb	%al, %al
	setne	%sil
	cmpb	$3, %al
	setle	%al
	andl	%esi, %eax
	testb	%al, %al
	je	.L325
	movq	%rdx, %rdi
	call	__asan_report_store4@PLT
.L325:
	movq	-184(%rbp), %rax
	movl	%ecx, 16(%rax)
.LBB48:
	.loc 11 34 14
	leaq	-64(%r12), %rax
	movq	%rax, %rdx
	movq	%rdx, %rax
	shrq	$3, %rax
	addq	$2147450880, %rax
	movzbl	(%rax), %eax
	testb	%al, %al
	setne	%cl
	cmpb	$3, %al
	setle	%al
	andl	%ecx, %eax
	testb	%al, %al
	je	.L326
	movq	%rdx, %rdi
	call	__asan_report_store4@PLT
.L326:
	movl	$0, -64(%r12)
.L333:
	.loc 11 34 31 discriminator 1
	movq	-168(%rbp), %rax
	addq	$8, %rax
	movq	%rax, %rdx
	movq	%rdx, %rax
	shrq	$3, %rax
	addq	$2147450880, %rax
	movzbl	(%rax), %eax
	testb	%al, %al
	setne	%cl
	cmpb	$3, %al
	setle	%al
	andl	%ecx, %eax
	testb	%al, %al
	je	.L327
	.loc 11 34 31 is_stmt 0
	movq	%rdx, %rdi
	call	__asan_report_load4@PLT
.L327:
	.loc 11 34 31 discriminator 1
	movq	-168(%rbp), %rax
	movl	8(%rax), %ecx
	.loc 11 34 23 is_stmt 1 discriminator 1
	leaq	-64(%r12), %rax
	movq	%rax, %rdx
	movq	%rdx, %rax
	shrq	$3, %rax
	addq	$2147450880, %rax
	movzbl	(%rax), %eax
	testb	%al, %al
	setne	%sil
	cmpb	$3, %al
	setle	%al
	andl	%esi, %eax
	testb	%al, %al
	je	.L328
	.loc 11 34 23 is_stmt 0
	movq	%rdx, %rdi
	call	__asan_report_load4@PLT
.L328:
	.loc 11 34 23 discriminator 1
	movl	-64(%r12), %eax
	cmpl	%eax, %ecx
	jle	.L329
	.loc 11 35 9 is_stmt 1
	movq	-184(%rbp), %rax
	movq	%rax, %rdx
	shrq	$3, %rdx
	addq	$2147450880, %rdx
	movzbl	(%rdx), %edx
	testb	%dl, %dl
	je	.L330
	movq	%rax, %rdi
	call	__asan_report_load8@PLT
.L330:
	movq	-184(%rbp), %rax
	movq	(%rax), %rax
	movq	%rax, %rdx
	movq	%rdx, %rcx
	shrq	$3, %rcx
	addq	$2147450880, %rcx
	movzbl	(%rcx), %ecx
	testb	%cl, %cl
	je	.L331
	movq	%rdx, %rdi
	call	__asan_report_load8@PLT
.L331:
	movq	(%rax), %rcx
	leaq	-64(%r12), %rdx
	movq	-184(%rbp), %rax
	movq	%rdx, %rsi
	movq	%rax, %rdi
	call	*%rcx
.LVL29:
	.loc 11 34 5
	leaq	-64(%r12), %rax
	movq	%rax, %rdx
	movq	%rdx, %rax
	shrq	$3, %rax
	addq	$2147450880, %rax
	movzbl	(%rax), %eax
	testb	%al, %al
	setne	%cl
	cmpb	$3, %al
	setle	%al
	andl	%ecx, %eax
	testb	%al, %al
	je	.L332
	movq	%rdx, %rdi
	call	__asan_report_load4@PLT
.L332:
	.loc 11 34 5 is_stmt 0 discriminator 2
	movl	-64(%r12), %eax
	addl	$1, %eax
	movl	%eax, -64(%r12)
	jmp	.L333
.L329:
	leaq	-64(%r12), %rax
	shrq	$3, %rax
	addq	$2147450880, %rax
	movb	$-8, (%rax)
.LBE48:
	.loc 11 36 5 is_stmt 1
	movq	-184(%rbp), %rdx
	movl	-172(%rbp), %ecx
	movq	-168(%rbp), %rax
	movl	%ecx, %esi
	movq	%rax, %rdi
	call	_ZN5GraphIicE3PFSIZNS0_4primEiRS0_EUlPS0_iiE_EEviT_S2_
	.loc 11 37 1
	nop
	.loc 11 22 6
	cmpq	%rbx, %r14
	je	.L321
	movq	$1172321806, (%rbx)
	movabsq	$-723401728380766731, %rax
	movq	%rax, 2147450880(%r13)
	movl	$-168430091, 2147450888(%r13)
	movq	120(%rbx), %rax
	movb	$0, (%rax)
	jmp	.L322
.L321:
	movq	$0, 2147450880(%r13)
	movl	$0, 2147450888(%r13)
.L322:
	.loc 11 37 1
	movq	-40(%rbp), %rax
	xorq	%fs:40, %rax
	je	.L334
	call	__stack_chk_fail@PLT
.L334:
	addq	$160, %rsp
	popq	%rbx
	popq	%r12
	popq	%r13
	popq	%r14
	popq	%rbp
	.cfi_def_cfa 7, 8
	ret
	.cfi_endproc
.LFE4516:
	.size	_ZN5GraphIicE4primEiRS0_, .-_ZN5GraphIicE4primEiRS0_
	.section	.text._ZNSt5stackIiSt5dequeIiSaIiEEED2Ev,"axG",@progbits,_ZNSt5stackIiSt5dequeIiSaIiEEED5Ev,comdat
	.align 2
	.weak	_ZNSt5stackIiSt5dequeIiSaIiEEED2Ev
	.type	_ZNSt5stackIiSt5dequeIiSaIiEEED2Ev, @function
_ZNSt5stackIiSt5dequeIiSaIiEEED2Ev:
.LASANPC4522:
.LFB4522:
	.file 12 "/usr/include/c++/9/bits/stl_stack.h"
	.loc 12 99 11
	.cfi_startproc
	endbr64
	pushq	%rbp
	.cfi_def_cfa_offset 16
	.cfi_offset 6, -16
	movq	%rsp, %rbp
	.cfi_def_cfa_register 6
	subq	$16, %rsp
	movq	%rdi, -8(%rbp)
.LBB49:
	.loc 12 99 11
	movq	-8(%rbp), %rax
	movq	%rax, %rdi
	call	_ZNSt5dequeIiSaIiEED1Ev
.LBE49:
	nop
	leave
	.cfi_def_cfa 7, 8
	ret
	.cfi_endproc
.LFE4522:
	.size	_ZNSt5stackIiSt5dequeIiSaIiEEED2Ev, .-_ZNSt5stackIiSt5dequeIiSaIiEEED2Ev
	.weak	_ZNSt5stackIiSt5dequeIiSaIiEEED1Ev
	.set	_ZNSt5stackIiSt5dequeIiSaIiEEED1Ev,_ZNSt5stackIiSt5dequeIiSaIiEEED2Ev
	.globl	__asan_stack_malloc_2
	.section	.rodata
	.align 8
.LC37:
	.string	"2 32 4 8 clock:16 48 80 4 S:17"
	.align 32
.LC38:
	.string	"please try scc or scc2"
	.zero	41
	.section	.text._ZN5GraphIicE3bccEv,"axG",@progbits,_ZN5GraphIicE3bccEv,comdat
	.align 2
	.weak	_ZN5GraphIicE3bccEv
	.type	_ZN5GraphIicE3bccEv, @function
_ZN5GraphIicE3bccEv:
.LASANPC4520:
.LFB4520:
	.file 13 "../src/GraphBcc.h"
	.loc 13 7 6
	.cfi_startproc
	.cfi_personality 0x9b,DW.ref.__gxx_personality_v0
	.cfi_lsda 0x1b,.LLSDA4520
	endbr64
	pushq	%rbp
	.cfi_def_cfa_offset 16
	.cfi_offset 6, -16
	movq	%rsp, %rbp
	.cfi_def_cfa_register 6
	pushq	%r14
	pushq	%r13
	pushq	%r12
	pushq	%rbx
	subq	$224, %rsp
	.cfi_offset 14, -24
	.cfi_offset 13, -32
	.cfi_offset 12, -40
	.cfi_offset 3, -48
	movq	%rdi, -248(%rbp)
	leaq	-224(%rbp), %rbx
	movq	%rbx, %r14
	cmpl	$0, __asan_option_detect_stack_use_after_return(%rip)
	je	.L336
	movl	$160, %edi
	call	__asan_stack_malloc_2@PLT
.LVL30:
	testq	%rax, %rax
	je	.L336
	movq	%rax, %rbx
.L336:
	leaq	192(%rbx), %rax
	movq	%rax, %r13
	movq	$1102416563, (%rbx)
	leaq	.LC37(%rip), %rax
	movq	%rax, 8(%rbx)
	leaq	.LASANPC4520(%rip), %rax
	movq	%rax, 16(%rbx)
	movq	%rbx, %r12
	shrq	$3, %r12
	movl	$-235802127, 2147450880(%r12)
	movl	$61956, 2147450884(%r12)
	movl	$-202116109, 2147450896(%r12)
	.loc 13 7 6
	movq	%fs:40, %rax
	movq	%rax, -40(%rbp)
	xorl	%eax, %eax
	.loc 13 9 9
	movq	-248(%rbp), %rax
	addq	$16, %rax
	movq	%rax, %rdx
	movq	%rdx, %rax
	shrq	$3, %rax
	addq	$2147450880, %rax
	movzbl	(%rax), %eax
	testb	%al, %al
	setne	%cl
	cmpb	$3, %al
	setle	%al
	andl	%ecx, %eax
	testb	%al, %al
	je	.L340
	movq	%rdx, %rdi
	call	__asan_report_load4@PLT
.L340:
	movq	-248(%rbp), %rax
	movl	16(%rax), %eax
	.loc 13 9 5
	cmpl	$1, %eax
	jne	.L341
	.loc 13 11 14
	leaq	.LC38(%rip), %rsi
	leaq	_ZSt4cout(%rip), %rdi
.LEHB16:
	call	_ZStlsISt11char_traitsIcEERSt13basic_ostreamIcT_ES5_PKc@PLT
	movq	%rax, %rdx
	.loc 13 11 42
	movq	_ZSt4endlIcSt11char_traitsIcEERSt13basic_ostreamIT_T0_ES6_@GOTPCREL(%rip), %rax
	movq	%rax, %rsi
	movq	%rdx, %rdi
	call	_ZNSolsEPFRSoS_E@PLT
	.loc 13 12 9
	jmp	.L339
.L341:
	.loc 13 14 5
	movq	-248(%rbp), %rax
	movq	%rax, %rdi
	call	_ZN5GraphIicE5resetEv
	.loc 13 15 9
	movl	$0, -228(%rbp)
	.loc 13 16 9
	leaq	-160(%r13), %rax
	movq	%rax, %rdx
	movq	%rdx, %rax
	shrq	$3, %rax
	addq	$2147450880, %rax
	movzbl	(%rax), %eax
	testb	%al, %al
	setne	%cl
	cmpb	$3, %al
	setle	%al
	andl	%ecx, %eax
	testb	%al, %al
	je	.L343
	movq	%rdx, %rdi
	call	__asan_report_store4@PLT
.L343:
	movl	$0, -160(%r13)
	.loc 13 17 16
	leaq	-144(%r13), %rax
	movq	%rax, %rdi
	call	_ZNSt5stackIiSt5dequeIiSaIiEEEC1IS2_vEEv
.LEHE16:
.L350:
	.loc 13 18 17
	movq	-248(%rbp), %rax
	addq	$8, %rax
	movq	%rax, %rdx
	movq	%rdx, %rax
	shrq	$3, %rax
	addq	$2147450880, %rax
	movzbl	(%rax), %eax
	testb	%al, %al
	setne	%cl
	cmpb	$3, %al
	setle	%al
	andl	%ecx, %eax
	testb	%al, %al
	je	.L344
	movq	%rdx, %rdi
	call	__asan_report_load4@PLT
.L344:
	movq	-248(%rbp), %rax
	movl	8(%rax), %eax
	.loc 13 18 19
	subl	$1, %eax
	.loc 13 18 14
	cmpl	%eax, -228(%rbp)
	je	.L345
	.loc 13 20 23
	movq	-248(%rbp), %rax
	movq	%rax, %rdx
	shrq	$3, %rdx
	addq	$2147450880, %rdx
	movzbl	(%rdx), %edx
	testb	%dl, %dl
	je	.L346
	movq	%rax, %rdi
	call	__asan_report_load8@PLT
.L346:
	movq	-248(%rbp), %rax
	movq	(%rax), %rax
	addq	$64, %rax
	movq	%rax, %rdx
	movq	%rdx, %rcx
	shrq	$3, %rcx
	addq	$2147450880, %rcx
	movzbl	(%rcx), %ecx
	testb	%cl, %cl
	je	.L347
	movq	%rdx, %rdi
	call	__asan_report_load8@PLT
.L347:
	movq	(%rax), %rcx
	movl	-228(%rbp), %edx
	movq	-248(%rbp), %rax
	movl	%edx, %esi
	movq	%rax, %rdi
.LEHB17:
	call	*%rcx
.LVL31:
	movq	%rax, %rdx
	movq	%rdx, %rax
	movq	%rax, %rcx
	shrq	$3, %rcx
	addq	$2147450880, %rcx
	movzbl	(%rcx), %ecx
	testb	%cl, %cl
	setne	%sil
	movq	%rax, %rdi
	andl	$7, %edi
	addl	$3, %edi
	cmpb	%cl, %dil
	setge	%cl
	andl	%esi, %ecx
	testb	%cl, %cl
	je	.L348
	movq	%rax, %rdi
	call	__asan_report_load4@PLT
.L348:
	.loc 13 20 23 is_stmt 0 discriminator 1
	movl	(%rdx), %eax
	testl	%eax, %eax
	sete	%al
	.loc 13 20 9 is_stmt 1 discriminator 1
	testb	%al, %al
	je	.L349
	.loc 13 22 13
	leaq	-144(%r13), %rcx
	leaq	-160(%r13), %rdx
	movl	-228(%rbp), %esi
	movq	-248(%rbp), %rax
	movq	%rax, %rdi
	call	_ZN5GraphIicE3BCCEiRiRSt5stackIiSt5dequeIiSaIiEEE
.LEHE17:
	.loc 13 23 18
	leaq	-144(%r13), %rax
	movq	%rax, %rdi
	call	_ZNSt5stackIiSt5dequeIiSaIiEEE3popEv
.L349:
	.loc 13 25 9
	addl	$1, -228(%rbp)
	.loc 13 18 5
	jmp	.L350
.L345:
	.loc 13 17 16
	leaq	-144(%r13), %rax
	movq	%rax, %rdi
	call	_ZNSt5stackIiSt5dequeIiSaIiEEED1Ev
	jmp	.L339
.L354:
	endbr64
	movq	%rax, %rbx
	leaq	-144(%r13), %rax
	movq	%rax, %rdi
	call	_ZNSt5stackIiSt5dequeIiSaIiEEED1Ev
	call	__asan_handle_no_return@PLT
	movq	%rbx, %rdi
.LEHB18:
	call	_Unwind_Resume@PLT
.LEHE18:
.L339:
	.loc 13 7 6
	cmpq	%rbx, %r14
	je	.L337
	movq	$1172321806, (%rbx)
	movabsq	$-723401728380766731, %rax
	movabsq	$-723401728380766731, %rdx
	movq	%rax, 2147450880(%r12)
	movq	%rdx, 2147450888(%r12)
	movl	$-168430091, 2147450896(%r12)
	movq	248(%rbx), %rax
	movb	$0, (%rax)
	jmp	.L338
.L337:
	movq	$0, 2147450880(%r12)
	movl	$0, 2147450896(%r12)
.L338:
	.loc 13 27 1
	movq	-40(%rbp), %rax
	xorq	%fs:40, %rax
	je	.L353
	call	__stack_chk_fail@PLT
.L353:
	addq	$224, %rsp
	popq	%rbx
	popq	%r12
	popq	%r13
	popq	%r14
	popq	%rbp
	.cfi_def_cfa 7, 8
	ret
	.cfi_endproc
.LFE4520:
	.section	.gcc_except_table
.LLSDA4520:
	.byte	0xff
	.byte	0xff
	.byte	0x1
	.uleb128 .LLSDACSE4520-.LLSDACSB4520
.LLSDACSB4520:
	.uleb128 .LEHB16-.LFB4520
	.uleb128 .LEHE16-.LEHB16
	.uleb128 0
	.uleb128 0
	.uleb128 .LEHB17-.LFB4520
	.uleb128 .LEHE17-.LEHB17
	.uleb128 .L354-.LFB4520
	.uleb128 0
	.uleb128 .LEHB18-.LFB4520
	.uleb128 .LEHE18-.LEHB18
	.uleb128 0
	.uleb128 0
.LLSDACSE4520:
	.section	.text._ZN5GraphIicE3bccEv,"axG",@progbits,_ZN5GraphIicE3bccEv,comdat
	.size	_ZN5GraphIicE3bccEv, .-_ZN5GraphIicE3bccEv
	.section	.text._ZNSaIiEC2Ev,"axG",@progbits,_ZNSaIiEC5Ev,comdat
	.align 2
	.weak	_ZNSaIiEC2Ev
	.type	_ZNSaIiEC2Ev, @function
_ZNSaIiEC2Ev:
.LASANPC4604:
.LFB4604:
	.loc 7 138 7
	.cfi_startproc
	endbr64
	pushq	%rbp
	.cfi_def_cfa_offset 16
	.cfi_offset 6, -16
	movq	%rsp, %rbp
	.cfi_def_cfa_register 6
	subq	$16, %rsp
	movq	%rdi, -8(%rbp)
.LBB50:
	.loc 7 138 28
	movq	-8(%rbp), %rax
	movq	%rax, %rdi
	call	_ZN9__gnu_cxx13new_allocatorIiEC2Ev
.LBE50:
	.loc 7 138 30
	nop
	leave
	.cfi_def_cfa 7, 8
	ret
	.cfi_endproc
.LFE4604:
	.size	_ZNSaIiEC2Ev, .-_ZNSaIiEC2Ev
	.weak	_ZNSaIiEC1Ev
	.set	_ZNSaIiEC1Ev,_ZNSaIiEC2Ev
	.section	.text._ZNSt12_Vector_baseIiSaIiEE17_Vector_impl_dataC2Ev,"axG",@progbits,_ZNSt12_Vector_baseIiSaIiEE17_Vector_impl_dataC5Ev,comdat
	.align 2
	.weak	_ZNSt12_Vector_baseIiSaIiEE17_Vector_impl_dataC2Ev
	.type	_ZNSt12_Vector_baseIiSaIiEE17_Vector_impl_dataC2Ev, @function
_ZNSt12_Vector_baseIiSaIiEE17_Vector_impl_dataC2Ev:
.LASANPC4607:
.LFB4607:
	.loc 4 94 2
	.cfi_startproc
	endbr64
	pushq	%rbp
	.cfi_def_cfa_offset 16
	.cfi_offset 6, -16
	movq	%rsp, %rbp
	.cfi_def_cfa_register 6
	subq	$16, %rsp
	movq	%rdi, -8(%rbp)
.LBB51:
	.loc 4 95 47
	movq	-8(%rbp), %rax
	movq	%rax, %rdx
	shrq	$3, %rdx
	addq	$2147450880, %rdx
	movzbl	(%rdx), %edx
	testb	%dl, %dl
	je	.L357
	movq	%rax, %rdi
	call	__asan_report_store8@PLT
.L357:
	movq	-8(%rbp), %rax
	movq	$0, (%rax)
	movq	-8(%rbp), %rax
	addq	$8, %rax
	movq	%rax, %rdx
	shrq	$3, %rdx
	addq	$2147450880, %rdx
	movzbl	(%rdx), %edx
	testb	%dl, %dl
	je	.L358
	movq	%rax, %rdi
	call	__asan_report_store8@PLT
.L358:
	movq	-8(%rbp), %rax
	movq	$0, 8(%rax)
	movq	-8(%rbp), %rax
	addq	$16, %rax
	movq	%rax, %rdx
	shrq	$3, %rdx
	addq	$2147450880, %rdx
	movzbl	(%rdx), %edx
	testb	%dl, %dl
	je	.L359
	movq	%rax, %rdi
	call	__asan_report_store8@PLT
.L359:
	movq	-8(%rbp), %rax
	movq	$0, 16(%rax)
.LBE51:
	.loc 4 96 4
	nop
	leave
	.cfi_def_cfa 7, 8
	ret
	.cfi_endproc
.LFE4607:
	.size	_ZNSt12_Vector_baseIiSaIiEE17_Vector_impl_dataC2Ev, .-_ZNSt12_Vector_baseIiSaIiEE17_Vector_impl_dataC2Ev
	.weak	_ZNSt12_Vector_baseIiSaIiEE17_Vector_impl_dataC1Ev
	.set	_ZNSt12_Vector_baseIiSaIiEE17_Vector_impl_dataC1Ev,_ZNSt12_Vector_baseIiSaIiEE17_Vector_impl_dataC2Ev
	.section	.text._ZN9__gnu_cxx13new_allocatorIiED2Ev,"axG",@progbits,_ZN9__gnu_cxx13new_allocatorIiED5Ev,comdat
	.align 2
	.weak	_ZN9__gnu_cxx13new_allocatorIiED2Ev
	.type	_ZN9__gnu_cxx13new_allocatorIiED2Ev, @function
_ZN9__gnu_cxx13new_allocatorIiED2Ev:
.LASANPC4610:
.LFB4610:
	.file 14 "/usr/include/c++/9/ext/new_allocator.h"
	.loc 14 89 7
	.cfi_startproc
	endbr64
	pushq	%rbp
	.cfi_def_cfa_offset 16
	.cfi_offset 6, -16
	movq	%rsp, %rbp
	.cfi_def_cfa_register 6
	movq	%rdi, -8(%rbp)
	.loc 14 89 35
	nop
	popq	%rbp
	.cfi_def_cfa 7, 8
	ret
	.cfi_endproc
.LFE4610:
	.size	_ZN9__gnu_cxx13new_allocatorIiED2Ev, .-_ZN9__gnu_cxx13new_allocatorIiED2Ev
	.weak	_ZN9__gnu_cxx13new_allocatorIiED1Ev
	.set	_ZN9__gnu_cxx13new_allocatorIiED1Ev,_ZN9__gnu_cxx13new_allocatorIiED2Ev
	.section	.text._ZNSt12_Vector_baseIiSaIiEE13_M_deallocateEPim,"axG",@progbits,_ZNSt12_Vector_baseIiSaIiEE13_M_deallocateEPim,comdat
	.align 2
	.weak	_ZNSt12_Vector_baseIiSaIiEE13_M_deallocateEPim
	.type	_ZNSt12_Vector_baseIiSaIiEE13_M_deallocateEPim, @function
_ZNSt12_Vector_baseIiSaIiEE13_M_deallocateEPim:
.LASANPC4612:
.LFB4612:
	.loc 4 347 7
	.cfi_startproc
	endbr64
	pushq	%rbp
	.cfi_def_cfa_offset 16
	.cfi_offset 6, -16
	movq	%rsp, %rbp
	.cfi_def_cfa_register 6
	subq	$32, %rsp
	movq	%rdi, -8(%rbp)
	movq	%rsi, -16(%rbp)
	movq	%rdx, -24(%rbp)
	.loc 4 350 2
	cmpq	$0, -16(%rbp)
	je	.L363
	.loc 4 351 20
	movq	-8(%rbp), %rax
	.loc 4 351 19
	movq	-24(%rbp), %rdx
	movq	-16(%rbp), %rcx
	movq	%rcx, %rsi
	movq	%rax, %rdi
	call	_ZNSt16allocator_traitsISaIiEE10deallocateERS0_Pim
.L363:
	.loc 4 352 7
	nop
	leave
	.cfi_def_cfa 7, 8
	ret
	.cfi_endproc
.LFE4612:
	.size	_ZNSt12_Vector_baseIiSaIiEE13_M_deallocateEPim, .-_ZNSt12_Vector_baseIiSaIiEE13_M_deallocateEPim
	.section	.text._ZNSt12_Vector_baseIiSaIiEE19_M_get_Tp_allocatorEv,"axG",@progbits,_ZNSt12_Vector_baseIiSaIiEE19_M_get_Tp_allocatorEv,comdat
	.align 2
	.weak	_ZNSt12_Vector_baseIiSaIiEE19_M_get_Tp_allocatorEv
	.type	_ZNSt12_Vector_baseIiSaIiEE19_M_get_Tp_allocatorEv, @function
_ZNSt12_Vector_baseIiSaIiEE19_M_get_Tp_allocatorEv:
.LASANPC4613:
.LFB4613:
	.loc 4 273 7
	.cfi_startproc
	endbr64
	pushq	%rbp
	.cfi_def_cfa_offset 16
	.cfi_offset 6, -16
	movq	%rsp, %rbp
	.cfi_def_cfa_register 6
	movq	%rdi, -8(%rbp)
	.loc 4 274 22
	movq	-8(%rbp), %rax
	.loc 4 274 31
	popq	%rbp
	.cfi_def_cfa 7, 8
	ret
	.cfi_endproc
.LFE4613:
	.size	_ZNSt12_Vector_baseIiSaIiEE19_M_get_Tp_allocatorEv, .-_ZNSt12_Vector_baseIiSaIiEE19_M_get_Tp_allocatorEv
	.section	.text._ZSt8_DestroyIPiiEvT_S1_RSaIT0_E,"axG",@progbits,_ZSt8_DestroyIPiiEvT_S1_RSaIT0_E,comdat
	.weak	_ZSt8_DestroyIPiiEvT_S1_RSaIT0_E
	.type	_ZSt8_DestroyIPiiEvT_S1_RSaIT0_E, @function
_ZSt8_DestroyIPiiEvT_S1_RSaIT0_E:
.LASANPC4614:
.LFB4614:
	.file 15 "/usr/include/c++/9/bits/stl_construct.h"
	.loc 15 203 5
	.cfi_startproc
	endbr64
	pushq	%rbp
	.cfi_def_cfa_offset 16
	.cfi_offset 6, -16
	movq	%rsp, %rbp
	.cfi_def_cfa_register 6
	subq	$32, %rsp
	movq	%rdi, -8(%rbp)
	movq	%rsi, -16(%rbp)
	movq	%rdx, -24(%rbp)
	.loc 15 206 15
	movq	-16(%rbp), %rdx
	movq	-8(%rbp), %rax
	movq	%rdx, %rsi
	movq	%rax, %rdi
	call	_ZSt8_DestroyIPiEvT_S1_
	.loc 15 207 5
	nop
	leave
	.cfi_def_cfa 7, 8
	ret
	.cfi_endproc
.LFE4614:
	.size	_ZSt8_DestroyIPiiEvT_S1_RSaIT0_E, .-_ZSt8_DestroyIPiiEvT_S1_RSaIT0_E
	.section	.text._ZN5GraphIicEC2Eii6Direct,"axG",@progbits,_ZN5GraphIicEC5Eii6Direct,comdat
	.align 2
	.weak	_ZN5GraphIicEC2Eii6Direct
	.type	_ZN5GraphIicEC2Eii6Direct, @function
_ZN5GraphIicEC2Eii6Direct:
.LASANPC4616:
.LFB4616:
	.loc 10 94 5
	.cfi_startproc
	endbr64
	pushq	%rbp
	.cfi_def_cfa_offset 16
	.cfi_offset 6, -16
	movq	%rsp, %rbp
	.cfi_def_cfa_register 6
	subq	$32, %rsp
	movq	%rdi, -8(%rbp)
	movl	%esi, -12(%rbp)
	movl	%edx, -16(%rbp)
	movl	%ecx, -20(%rbp)
.LBB52:
	.loc 10 94 84
	leaq	16+_ZTV5GraphIicE(%rip), %rcx
	movq	-8(%rbp), %rax
	movq	%rax, %rdx
	shrq	$3, %rdx
	addq	$2147450880, %rdx
	movzbl	(%rdx), %edx
	testb	%dl, %dl
	je	.L368
	movq	%rax, %rdi
	call	__asan_report_store8@PLT
.L368:
	movq	-8(%rbp), %rax
	movq	%rcx, (%rax)
	movq	-8(%rbp), %rax
	addq	$8, %rax
	movq	%rax, %rdx
	movq	%rdx, %rax
	shrq	$3, %rax
	addq	$2147450880, %rax
	movzbl	(%rax), %eax
	testb	%al, %al
	setne	%cl
	cmpb	$3, %al
	setle	%al
	andl	%ecx, %eax
	testb	%al, %al
	je	.L369
	movq	%rdx, %rdi
	call	__asan_report_store4@PLT
.L369:
	movq	-8(%rbp), %rax
	movl	-12(%rbp), %edx
	movl	%edx, 8(%rax)
	movq	-8(%rbp), %rax
	addq	$12, %rax
	movq	%rax, %rdx
	shrq	$3, %rdx
	addq	$2147450880, %rdx
	movzbl	(%rdx), %edx
	testb	%dl, %dl
	setne	%cl
	movq	%rax, %rsi
	andl	$7, %esi
	addl	$3, %esi
	cmpb	%dl, %sil
	setge	%dl
	andl	%ecx, %edx
	testb	%dl, %dl
	je	.L370
	movq	%rax, %rdi
	call	__asan_report_store4@PLT
.L370:
	movq	-8(%rbp), %rax
	movl	-16(%rbp), %edx
	movl	%edx, 12(%rax)
	movq	-8(%rbp), %rax
	addq	$16, %rax
	movq	%rax, %rdx
	movq	%rdx, %rax
	shrq	$3, %rax
	addq	$2147450880, %rax
	movzbl	(%rax), %eax
	testb	%al, %al
	setne	%cl
	cmpb	$3, %al
	setle	%al
	andl	%ecx, %eax
	testb	%al, %al
	je	.L371
	movq	%rdx, %rdi
	call	__asan_report_store4@PLT
.L371:
	movq	-8(%rbp), %rax
	movl	-20(%rbp), %edx
	movl	%edx, 16(%rax)
.LBE52:
	.loc 10 94 87
	nop
	leave
	.cfi_def_cfa 7, 8
	ret
	.cfi_endproc
.LFE4616:
	.size	_ZN5GraphIicEC2Eii6Direct, .-_ZN5GraphIicEC2Eii6Direct
	.weak	_ZN5GraphIicEC1Eii6Direct
	.set	_ZN5GraphIicEC1Eii6Direct,_ZN5GraphIicEC2Eii6Direct
	.section	.text._ZNSt12_Vector_baseI5VNodeIicESaIS1_EE12_Vector_implC2Ev,"axG",@progbits,_ZNSt12_Vector_baseI5VNodeIicESaIS1_EE12_Vector_implC5Ev,comdat
	.align 2
	.weak	_ZNSt12_Vector_baseI5VNodeIicESaIS1_EE12_Vector_implC2Ev
	.type	_ZNSt12_Vector_baseI5VNodeIicESaIS1_EE12_Vector_implC2Ev, @function
_ZNSt12_Vector_baseI5VNodeIicESaIS1_EE12_Vector_implC2Ev:
.LASANPC4619:
.LFB4619:
	.loc 4 128 2
	.cfi_startproc
	endbr64
	pushq	%rbp
	.cfi_def_cfa_offset 16
	.cfi_offset 6, -16
	movq	%rsp, %rbp
	.cfi_def_cfa_register 6
	subq	$16, %rsp
	movq	%rdi, -8(%rbp)
.LBB53:
	.loc 4 130 19
	movq	-8(%rbp), %rax
	movq	%rax, %rdi
	call	_ZNSaI5VNodeIicEEC2Ev
	movq	-8(%rbp), %rax
	movq	%rax, %rdi
	call	_ZNSt12_Vector_baseI5VNodeIicESaIS1_EE17_Vector_impl_dataC2Ev
.LBE53:
	.loc 4 131 4
	nop
	leave
	.cfi_def_cfa 7, 8
	ret
	.cfi_endproc
.LFE4619:
	.size	_ZNSt12_Vector_baseI5VNodeIicESaIS1_EE12_Vector_implC2Ev, .-_ZNSt12_Vector_baseI5VNodeIicESaIS1_EE12_Vector_implC2Ev
	.weak	_ZNSt12_Vector_baseI5VNodeIicESaIS1_EE12_Vector_implC1Ev
	.set	_ZNSt12_Vector_baseI5VNodeIicESaIS1_EE12_Vector_implC1Ev,_ZNSt12_Vector_baseI5VNodeIicESaIS1_EE12_Vector_implC2Ev
	.section	.text._ZNSaI5VNodeIicEED2Ev,"axG",@progbits,_ZNSaI5VNodeIicEED5Ev,comdat
	.align 2
	.weak	_ZNSaI5VNodeIicEED2Ev
	.type	_ZNSaI5VNodeIicEED2Ev, @function
_ZNSaI5VNodeIicEED2Ev:
.LASANPC4622:
.LFB4622:
	.loc 7 153 7
	.cfi_startproc
	endbr64
	pushq	%rbp
	.cfi_def_cfa_offset 16
	.cfi_offset 6, -16
	movq	%rsp, %rbp
	.cfi_def_cfa_register 6
	subq	$16, %rsp
	movq	%rdi, -8(%rbp)
.LBB54:
	.loc 7 153 31
	movq	-8(%rbp), %rax
	movq	%rax, %rdi
	call	_ZN9__gnu_cxx13new_allocatorI5VNodeIicEED2Ev
.LBE54:
	nop
	leave
	.cfi_def_cfa 7, 8
	ret
	.cfi_endproc
.LFE4622:
	.size	_ZNSaI5VNodeIicEED2Ev, .-_ZNSaI5VNodeIicEED2Ev
	.weak	_ZNSaI5VNodeIicEED1Ev
	.set	_ZNSaI5VNodeIicEED1Ev,_ZNSaI5VNodeIicEED2Ev
	.section	.text._ZNSt12_Vector_baseI5VNodeIicESaIS1_EED2Ev,"axG",@progbits,_ZNSt12_Vector_baseI5VNodeIicESaIS1_EED5Ev,comdat
	.align 2
	.weak	_ZNSt12_Vector_baseI5VNodeIicESaIS1_EED2Ev
	.type	_ZNSt12_Vector_baseI5VNodeIicESaIS1_EED2Ev, @function
_ZNSt12_Vector_baseI5VNodeIicESaIS1_EED2Ev:
.LASANPC4625:
.LFB4625:
	.loc 4 330 7
	.cfi_startproc
	.cfi_personality 0x9b,DW.ref.__gxx_personality_v0
	.cfi_lsda 0x1b,.LLSDA4625
	endbr64
	pushq	%rbp
	.cfi_def_cfa_offset 16
	.cfi_offset 6, -16
	movq	%rsp, %rbp
	.cfi_def_cfa_register 6
	subq	$16, %rsp
	movq	%rdi, -8(%rbp)
.LBB55:
	.loc 4 333 17
	movq	-8(%rbp), %rax
	addq	$16, %rax
	movq	%rax, %rdx
	shrq	$3, %rdx
	addq	$2147450880, %rdx
	movzbl	(%rdx), %edx
	testb	%dl, %dl
	je	.L375
	movq	%rax, %rdi
	call	__asan_report_load8@PLT
.L375:
	movq	-8(%rbp), %rax
	movq	16(%rax), %rcx
	.loc 4 333 45
	movq	-8(%rbp), %rax
	movq	%rax, %rdx
	shrq	$3, %rdx
	addq	$2147450880, %rdx
	movzbl	(%rdx), %edx
	testb	%dl, %dl
	je	.L376
	movq	%rax, %rdi
	call	__asan_report_load8@PLT
.L376:
	movq	-8(%rbp), %rax
	movq	(%rax), %rax
	.loc 4 333 35
	subq	%rax, %rcx
	movq	%rcx, %rax
	sarq	$3, %rax
	movq	%rax, %rdx
	movabsq	$-3689348814741910323, %rax
	imulq	%rdx, %rax
	.loc 4 332 2
	movq	%rax, %rdx
	movq	-8(%rbp), %rax
	movq	(%rax), %rcx
	movq	-8(%rbp), %rax
	movq	%rcx, %rsi
	movq	%rax, %rdi
	call	_ZNSt12_Vector_baseI5VNodeIicESaIS1_EE13_M_deallocateEPS1_m
	.loc 4 334 7
	movq	-8(%rbp), %rax
	movq	%rax, %rdi
	call	_ZNSt12_Vector_baseI5VNodeIicESaIS1_EE12_Vector_implD1Ev
.LBE55:
	nop
	leave
	.cfi_def_cfa 7, 8
	ret
	.cfi_endproc
.LFE4625:
	.section	.gcc_except_table
.LLSDA4625:
	.byte	0xff
	.byte	0xff
	.byte	0x1
	.uleb128 .LLSDACSE4625-.LLSDACSB4625
.LLSDACSB4625:
.LLSDACSE4625:
	.section	.text._ZNSt12_Vector_baseI5VNodeIicESaIS1_EED2Ev,"axG",@progbits,_ZNSt12_Vector_baseI5VNodeIicESaIS1_EED5Ev,comdat
	.size	_ZNSt12_Vector_baseI5VNodeIicESaIS1_EED2Ev, .-_ZNSt12_Vector_baseI5VNodeIicESaIS1_EED2Ev
	.weak	_ZNSt12_Vector_baseI5VNodeIicESaIS1_EED1Ev
	.set	_ZNSt12_Vector_baseI5VNodeIicESaIS1_EED1Ev,_ZNSt12_Vector_baseI5VNodeIicESaIS1_EED2Ev
	.section	.text._ZNSt6vectorI5VNodeIicESaIS1_EED2Ev,"axG",@progbits,_ZNSt6vectorI5VNodeIicESaIS1_EED5Ev,comdat
	.align 2
	.weak	_ZNSt6vectorI5VNodeIicESaIS1_EED2Ev
	.type	_ZNSt6vectorI5VNodeIicESaIS1_EED2Ev, @function
_ZNSt6vectorI5VNodeIicESaIS1_EED2Ev:
.LASANPC4628:
.LFB4628:
	.loc 4 675 7
	.cfi_startproc
	.cfi_personality 0x9b,DW.ref.__gxx_personality_v0
	.cfi_lsda 0x1b,.LLSDA4628
	endbr64
	pushq	%rbp
	.cfi_def_cfa_offset 16
	.cfi_offset 6, -16
	movq	%rsp, %rbp
	.cfi_def_cfa_register 6
	subq	$16, %rsp
	movq	%rdi, -8(%rbp)
.LBB56:
	.loc 4 678 28
	movq	-8(%rbp), %rax
	movq	%rax, %rdi
	call	_ZNSt12_Vector_baseI5VNodeIicESaIS1_EE19_M_get_Tp_allocatorEv
	movq	%rax, %rsi
	.loc 4 677 15
	movq	-8(%rbp), %rax
	addq	$8, %rax
	movq	%rax, %rdx
	shrq	$3, %rdx
	addq	$2147450880, %rdx
	movzbl	(%rdx), %edx
	testb	%dl, %dl
	je	.L378
	movq	%rax, %rdi
	call	__asan_report_load8@PLT
.L378:
	movq	-8(%rbp), %rax
	movq	8(%rax), %rcx
	movq	-8(%rbp), %rax
	movq	%rax, %rdx
	shrq	$3, %rdx
	addq	$2147450880, %rdx
	movzbl	(%rdx), %edx
	testb	%dl, %dl
	je	.L379
	movq	%rax, %rdi
	call	__asan_report_load8@PLT
.L379:
	movq	-8(%rbp), %rax
	movq	(%rax), %rax
	movq	%rsi, %rdx
	movq	%rcx, %rsi
	movq	%rax, %rdi
	call	_ZSt8_DestroyIP5VNodeIicES1_EvT_S3_RSaIT0_E
	.loc 4 680 7
	movq	-8(%rbp), %rax
	movq	%rax, %rdi
	call	_ZNSt12_Vector_baseI5VNodeIicESaIS1_EED2Ev
.LBE56:
	nop
	leave
	.cfi_def_cfa 7, 8
	ret
	.cfi_endproc
.LFE4628:
	.section	.gcc_except_table
.LLSDA4628:
	.byte	0xff
	.byte	0xff
	.byte	0x1
	.uleb128 .LLSDACSE4628-.LLSDACSB4628
.LLSDACSB4628:
.LLSDACSE4628:
	.section	.text._ZNSt6vectorI5VNodeIicESaIS1_EED2Ev,"axG",@progbits,_ZNSt6vectorI5VNodeIicESaIS1_EED5Ev,comdat
	.size	_ZNSt6vectorI5VNodeIicESaIS1_EED2Ev, .-_ZNSt6vectorI5VNodeIicESaIS1_EED2Ev
	.weak	_ZNSt6vectorI5VNodeIicESaIS1_EED1Ev
	.set	_ZNSt6vectorI5VNodeIicESaIS1_EED1Ev,_ZNSt6vectorI5VNodeIicESaIS1_EED2Ev
	.section	.rodata
	.align 32
.LC39:
	.string	"vector::reserve"
	.zero	48
	.section	.text._ZNSt6vectorI5VNodeIicESaIS1_EE7reserveEm,"axG",@progbits,_ZNSt6vectorI5VNodeIicESaIS1_EE7reserveEm,comdat
	.align 2
	.weak	_ZNSt6vectorI5VNodeIicESaIS1_EE7reserveEm
	.type	_ZNSt6vectorI5VNodeIicESaIS1_EE7reserveEm, @function
_ZNSt6vectorI5VNodeIicESaIS1_EE7reserveEm:
.LASANPC4630:
.LFB4630:
	.file 16 "/usr/include/c++/9/bits/vector.tcc"
	.loc 16 66 5
	.cfi_startproc
	endbr64
	pushq	%rbp
	.cfi_def_cfa_offset 16
	.cfi_offset 6, -16
	movq	%rsp, %rbp
	.cfi_def_cfa_register 6
	subq	$32, %rsp
	movq	%rdi, -24(%rbp)
	movq	%rsi, -32(%rbp)
	.loc 16 69 15
	movq	-24(%rbp), %rax
	movq	%rax, %rdi
	call	_ZNKSt6vectorI5VNodeIicESaIS1_EE8max_sizeEv
	cmpq	%rax, -32(%rbp)
	seta	%al
	.loc 16 69 7
	testb	%al, %al
	je	.L381
	.loc 16 70 22
	call	__asan_handle_no_return@PLT
	leaq	.LC39(%rip), %rdi
	call	_ZSt20__throw_length_errorPKc@PLT
.L381:
.LBB57:
	.loc 16 71 28
	movq	-24(%rbp), %rax
	movq	%rax, %rdi
	call	_ZNKSt6vectorI5VNodeIicESaIS1_EE8capacityEv
	cmpq	%rax, -32(%rbp)
	seta	%al
	.loc 16 71 7
	testb	%al, %al
	je	.L390
.LBB58:
	.loc 16 73 20
	movq	-24(%rbp), %rax
	movq	%rax, %rdi
	call	_ZNKSt6vectorI5VNodeIicESaIS1_EE4sizeEv
	movq	%rax, -16(%rbp)
	.loc 16 78 14
	movq	-24(%rbp), %rax
	movq	-32(%rbp), %rdx
	movq	%rdx, %rsi
	movq	%rax, %rdi
	call	_ZNSt12_Vector_baseI5VNodeIicESaIS1_EE11_M_allocateEm
	movq	%rax, -8(%rbp)
	.loc 16 80 32
	movq	-24(%rbp), %rax
	movq	%rax, %rdi
	call	_ZNSt12_Vector_baseI5VNodeIicESaIS1_EE19_M_get_Tp_allocatorEv
	movq	%rax, %rcx
	.loc 16 79 19
	movq	-24(%rbp), %rax
	addq	$8, %rax
	movq	%rax, %rdx
	shrq	$3, %rdx
	addq	$2147450880, %rdx
	movzbl	(%rdx), %edx
	testb	%dl, %dl
	je	.L383
	movq	%rax, %rdi
	call	__asan_report_load8@PLT
.L383:
	movq	-24(%rbp), %rax
	movq	8(%rax), %rsi
	movq	-24(%rbp), %rax
	movq	%rax, %rdx
	shrq	$3, %rdx
	addq	$2147450880, %rdx
	movzbl	(%rdx), %edx
	testb	%dl, %dl
	je	.L384
	movq	%rax, %rdi
	call	__asan_report_load8@PLT
.L384:
	movq	-24(%rbp), %rax
	movq	(%rax), %rax
	movq	-8(%rbp), %rdx
	movq	%rax, %rdi
	call	_ZNSt6vectorI5VNodeIicESaIS1_EE11_S_relocateEPS1_S4_S4_RS2_
	.loc 16 92 17
	movq	-24(%rbp), %rax
	.loc 16 93 18
	movq	-24(%rbp), %rdx
	addq	$16, %rdx
	movq	%rdx, %rcx
	shrq	$3, %rcx
	addq	$2147450880, %rcx
	movzbl	(%rcx), %ecx
	testb	%cl, %cl
	je	.L385
	movq	%rdx, %rdi
	call	__asan_report_load8@PLT
.L385:
	movq	-24(%rbp), %rdx
	movq	16(%rdx), %rsi
	.loc 16 94 20
	movq	-24(%rbp), %rdx
	movq	%rdx, %rcx
	shrq	$3, %rcx
	addq	$2147450880, %rcx
	movzbl	(%rcx), %ecx
	testb	%cl, %cl
	je	.L386
	movq	%rdx, %rdi
	call	__asan_report_load8@PLT
.L386:
	movq	-24(%rbp), %rdx
	movq	(%rdx), %rdx
	.loc 16 94 4
	subq	%rdx, %rsi
	movq	%rsi, %rdx
	movq	%rdx, %rcx
	sarq	$3, %rcx
	movabsq	$-3689348814741910323, %rdx
	imulq	%rcx, %rdx
	.loc 16 92 17
	movq	%rdx, %rsi
	movq	-24(%rbp), %rdx
	movq	(%rdx), %rcx
	movq	%rsi, %rdx
	movq	%rcx, %rsi
	movq	%rax, %rdi
	call	_ZNSt12_Vector_baseI5VNodeIicESaIS1_EE13_M_deallocateEPS1_m
	.loc 16 95 4
	movq	-24(%rbp), %rax
	movq	%rax, %rdx
	shrq	$3, %rdx
	addq	$2147450880, %rdx
	movzbl	(%rdx), %edx
	testb	%dl, %dl
	je	.L387
	movq	%rax, %rdi
	call	__asan_report_store8@PLT
.L387:
	movq	-24(%rbp), %rax
	movq	-8(%rbp), %rdx
	movq	%rdx, (%rax)
	.loc 16 96 36
	movq	-16(%rbp), %rdx
	movq	%rdx, %rax
	salq	$2, %rax
	addq	%rdx, %rax
	salq	$3, %rax
	movq	%rax, %rdx
	movq	-8(%rbp), %rax
	leaq	(%rdx,%rax), %rcx
	.loc 16 96 4
	movq	-24(%rbp), %rax
	addq	$8, %rax
	movq	%rax, %rdx
	shrq	$3, %rdx
	addq	$2147450880, %rdx
	movzbl	(%rdx), %edx
	testb	%dl, %dl
	je	.L388
	movq	%rax, %rdi
	call	__asan_report_store8@PLT
.L388:
	movq	-24(%rbp), %rax
	movq	%rcx, 8(%rax)
	.loc 16 97 52
	movq	-24(%rbp), %rax
	movq	(%rax), %rcx
	.loc 16 97 61
	movq	-32(%rbp), %rdx
	movq	%rdx, %rax
	salq	$2, %rax
	addq	%rdx, %rax
	salq	$3, %rax
	addq	%rax, %rcx
	.loc 16 97 4
	movq	-24(%rbp), %rax
	addq	$16, %rax
	movq	%rax, %rdx
	shrq	$3, %rdx
	addq	$2147450880, %rdx
	movzbl	(%rdx), %edx
	testb	%dl, %dl
	je	.L389
	movq	%rax, %rdi
	call	__asan_report_store8@PLT
.L389:
	movq	-24(%rbp), %rax
	movq	%rcx, 16(%rax)
.L390:
.LBE58:
.LBE57:
	.loc 16 99 5
	nop
	leave
	.cfi_def_cfa 7, 8
	ret
	.cfi_endproc
.LFE4630:
	.size	_ZNSt6vectorI5VNodeIicESaIS1_EE7reserveEm, .-_ZNSt6vectorI5VNodeIicESaIS1_EE7reserveEm
	.section	.text._ZNSt6vectorI5VNodeIicESaIS1_EEixEm,"axG",@progbits,_ZNSt6vectorI5VNodeIicESaIS1_EEixEm,comdat
	.align 2
	.weak	_ZNSt6vectorI5VNodeIicESaIS1_EEixEm
	.type	_ZNSt6vectorI5VNodeIicESaIS1_EEixEm, @function
_ZNSt6vectorI5VNodeIicESaIS1_EEixEm:
.LASANPC4633:
.LFB4633:
	.loc 4 1040 7
	.cfi_startproc
	endbr64
	pushq	%rbp
	.cfi_def_cfa_offset 16
	.cfi_offset 6, -16
	movq	%rsp, %rbp
	.cfi_def_cfa_register 6
	subq	$16, %rsp
	movq	%rdi, -8(%rbp)
	movq	%rsi, -16(%rbp)
	.loc 4 1043 25
	movq	-8(%rbp), %rax
	movq	%rax, %rdx
	shrq	$3, %rdx
	addq	$2147450880, %rdx
	movzbl	(%rdx), %edx
	testb	%dl, %dl
	je	.L392
	movq	%rax, %rdi
	call	__asan_report_load8@PLT
.L392:
	movq	-8(%rbp), %rax
	movq	(%rax), %rcx
	.loc 4 1043 34
	movq	-16(%rbp), %rdx
	movq	%rdx, %rax
	salq	$2, %rax
	addq	%rdx, %rax
	salq	$3, %rax
	.loc 4 1043 39
	addq	%rcx, %rax
	.loc 4 1044 7
	leave
	.cfi_def_cfa 7, 8
	ret
	.cfi_endproc
.LFE4633:
	.size	_ZNSt6vectorI5VNodeIicESaIS1_EEixEm, .-_ZNSt6vectorI5VNodeIicESaIS1_EEixEm
	.section	.text._ZN7ALGraphIicE3locERKi,"axG",@progbits,_ZN7ALGraphIicE3locERKi,comdat
	.align 2
	.weak	_ZN7ALGraphIicE3locERKi
	.type	_ZN7ALGraphIicE3locERKi, @function
_ZN7ALGraphIicE3locERKi:
.LASANPC4634:
.LFB4634:
	.loc 6 153 17
	.cfi_startproc
	endbr64
	pushq	%rbp
	.cfi_def_cfa_offset 16
	.cfi_offset 6, -16
	movq	%rsp, %rbp
	.cfi_def_cfa_register 6
	subq	$32, %rsp
	movq	%rdi, -24(%rbp)
	movq	%rsi, -32(%rbp)
	.loc 6 155 13
	movq	-24(%rbp), %rax
	addq	$8, %rax
	movq	%rax, %rdx
	movq	%rdx, %rax
	shrq	$3, %rax
	addq	$2147450880, %rax
	movzbl	(%rax), %eax
	testb	%al, %al
	setne	%cl
	cmpb	$3, %al
	setle	%al
	andl	%ecx, %eax
	testb	%al, %al
	je	.L395
	movq	%rdx, %rdi
	call	__asan_report_load4@PLT
.L395:
	movq	-24(%rbp), %rax
	movl	8(%rax), %eax
	movl	%eax, -4(%rbp)
.L401:
	.loc 6 156 25
	subl	$1, -4(%rbp)
	cmpl	$0, -4(%rbp)
	js	.L396
	.loc 6 156 33 discriminator 1
	movq	-24(%rbp), %rax
	leaq	24(%rax), %rdx
	movl	-4(%rbp), %eax
	cltq
	movq	%rax, %rsi
	movq	%rdx, %rdi
	call	_ZNSt6vectorI5VNodeIicESaIS1_EEixEm
	.loc 6 156 44 discriminator 1
	movq	%rax, %rdx
	movq	%rdx, %rcx
	movq	%rcx, %rdx
	shrq	$3, %rdx
	addq	$2147450880, %rdx
	movzbl	(%rdx), %edx
	testb	%dl, %dl
	setne	%sil
	cmpb	$3, %dl
	setle	%dl
	andl	%esi, %edx
	testb	%dl, %dl
	je	.L397
	.loc 6 156 44 is_stmt 0
	movq	%rcx, %rdi
	call	__asan_report_load4@PLT
.L397:
	.loc 6 156 44 discriminator 1
	movl	(%rax), %ecx
	.loc 6 156 49 is_stmt 1 discriminator 1
	movq	-32(%rbp), %rax
	movq	%rax, %rdx
	shrq	$3, %rdx
	addq	$2147450880, %rdx
	movzbl	(%rdx), %edx
	testb	%dl, %dl
	setne	%sil
	movq	%rax, %rdi
	andl	$7, %edi
	addl	$3, %edi
	cmpb	%dl, %dil
	setge	%dl
	andl	%esi, %edx
	testb	%dl, %dl
	je	.L398
	.loc 6 156 49 is_stmt 0
	movq	%rax, %rdi
	call	__asan_report_load4@PLT
.L398:
	.loc 6 156 49 discriminator 1
	movq	-32(%rbp), %rax
	movl	(%rax), %eax
	.loc 6 156 25 is_stmt 1 discriminator 1
	cmpl	%eax, %ecx
	je	.L396
	.loc 6 156 25 is_stmt 0 discriminator 3
	movl	$1, %eax
	jmp	.L399
.L396:
	.loc 6 156 25 discriminator 4
	movl	$0, %eax
.L399:
	.loc 6 156 25 discriminator 6
	testb	%al, %al
	je	.L400
	.loc 6 156 9 is_stmt 1
	jmp	.L401
.L400:
	.loc 6 158 16
	movl	-4(%rbp), %eax
	.loc 6 159 5
	leave
	.cfi_def_cfa 7, 8
	ret
	.cfi_endproc
.LFE4634:
	.size	_ZN7ALGraphIicE3locERKi, .-_ZN7ALGraphIicE3locERKi
	.section	.text._ZN7ALGraphIicE6existsEi,"axG",@progbits,_ZN7ALGraphIicE6existsEi,comdat
	.align 2
	.weak	_ZN7ALGraphIicE6existsEi
	.type	_ZN7ALGraphIicE6existsEi, @function
_ZN7ALGraphIicE6existsEi:
.LASANPC4635:
.LFB4635:
	.loc 6 191 18
	.cfi_startproc
	endbr64
	pushq	%rbp
	.cfi_def_cfa_offset 16
	.cfi_offset 6, -16
	movq	%rsp, %rbp
	.cfi_def_cfa_register 6
	subq	$16, %rsp
	movq	%rdi, -8(%rbp)
	movl	%esi, -12(%rbp)
	.loc 6 191 57
	cmpl	$0, -12(%rbp)
	js	.L404
	.loc 6 191 64 discriminator 1
	movq	-8(%rbp), %rax
	addq	$8, %rax
	movq	%rax, %rdx
	movq	%rdx, %rax
	shrq	$3, %rax
	addq	$2147450880, %rax
	movzbl	(%rax), %eax
	testb	%al, %al
	setne	%cl
	cmpb	$3, %al
	setle	%al
	andl	%ecx, %eax
	testb	%al, %al
	je	.L405
	.loc 6 191 64 is_stmt 0
	movq	%rdx, %rdi
	call	__asan_report_load4@PLT
.L405:
	.loc 6 191 64 discriminator 1
	movq	-8(%rbp), %rax
	movl	8(%rax), %eax
	.loc 6 191 57 is_stmt 1 discriminator 1
	cmpl	%eax, -12(%rbp)
	jge	.L404
	.loc 6 191 57 is_stmt 0 discriminator 3
	movl	$1, %eax
	jmp	.L406
.L404:
	.loc 6 191 57 discriminator 4
	movl	$0, %eax
.L406:
	.loc 6 191 67 is_stmt 1 discriminator 6
	leave
	.cfi_def_cfa 7, 8
	ret
	.cfi_endproc
.LFE4635:
	.size	_ZN7ALGraphIicE6existsEi, .-_ZN7ALGraphIicE6existsEi
	.section	.text._ZN5VNodeIicEC2ERKiP5ENodeIcE,"axG",@progbits,_ZN5VNodeIicEC5ERKiP5ENodeIcE,comdat
	.align 2
	.weak	_ZN5VNodeIicEC2ERKiP5ENodeIcE
	.type	_ZN5VNodeIicEC2ERKiP5ENodeIcE, @function
_ZN5VNodeIicEC2ERKiP5ENodeIcE:
.LASANPC4637:
.LFB4637:
	.loc 6 20 5
	.cfi_startproc
	endbr64
	pushq	%rbp
	.cfi_def_cfa_offset 16
	.cfi_offset 6, -16
	movq	%rsp, %rbp
	.cfi_def_cfa_register 6
	subq	$32, %rsp
	movq	%rdi, -8(%rbp)
	movq	%rsi, -16(%rbp)
	movq	%rdx, -24(%rbp)
.LBB59:
	.loc 6 20 80
	movq	-8(%rbp), %rax
	movq	-16(%rbp), %rdx
	movq	%rdx, %rsi
	movq	%rax, %rdi
	call	_ZN6VertexIiEC1ERKi
	movq	-8(%rbp), %rax
	addq	$32, %rax
	movq	%rax, %rdx
	shrq	$3, %rdx
	addq	$2147450880, %rdx
	movzbl	(%rdx), %edx
	testb	%dl, %dl
	je	.L409
	movq	%rax, %rdi
	call	__asan_report_store8@PLT
.L409:
	movq	-8(%rbp), %rax
	movq	-24(%rbp), %rdx
	movq	%rdx, 32(%rax)
.LBE59:
	.loc 6 20 83
	nop
	leave
	.cfi_def_cfa 7, 8
	ret
	.cfi_endproc
.LFE4637:
	.size	_ZN5VNodeIicEC2ERKiP5ENodeIcE, .-_ZN5VNodeIicEC2ERKiP5ENodeIcE
	.weak	_ZN5VNodeIicEC1ERKiP5ENodeIcE
	.set	_ZN5VNodeIicEC1ERKiP5ENodeIcE,_ZN5VNodeIicEC2ERKiP5ENodeIcE
	.section	.text._ZNSt6vectorI5VNodeIicESaIS1_EE9push_backEOS1_,"axG",@progbits,_ZNSt6vectorI5VNodeIicESaIS1_EE9push_backEOS1_,comdat
	.align 2
	.weak	_ZNSt6vectorI5VNodeIicESaIS1_EE9push_backEOS1_
	.type	_ZNSt6vectorI5VNodeIicESaIS1_EE9push_backEOS1_, @function
_ZNSt6vectorI5VNodeIicESaIS1_EE9push_backEOS1_:
.LASANPC4639:
.LFB4639:
	.loc 4 1200 7
	.cfi_startproc
	endbr64
	pushq	%rbp
	.cfi_def_cfa_offset 16
	.cfi_offset 6, -16
	movq	%rsp, %rbp
	.cfi_def_cfa_register 6
	subq	$16, %rsp
	movq	%rdi, -8(%rbp)
	movq	%rsi, -16(%rbp)
	.loc 4 1201 31
	movq	-16(%rbp), %rax
	movq	%rax, %rdi
	call	_ZSt4moveIR5VNodeIicEEONSt16remove_referenceIT_E4typeEOS4_
	movq	%rax, %rdx
	.loc 4 1201 9
	movq	-8(%rbp), %rax
	movq	%rdx, %rsi
	movq	%rax, %rdi
	call	_ZNSt6vectorI5VNodeIicESaIS1_EE12emplace_backIJS1_EEERS1_DpOT_
	.loc 4 1201 39
	nop
	leave
	.cfi_def_cfa 7, 8
	ret
	.cfi_endproc
.LFE4639:
	.size	_ZNSt6vectorI5VNodeIicESaIS1_EE9push_backEOS1_, .-_ZNSt6vectorI5VNodeIicESaIS1_EE9push_backEOS1_
	.section	.text._ZN7ALGraphIicE6existsEii,"axG",@progbits,_ZN7ALGraphIicE6existsEii,comdat
	.align 2
	.weak	_ZN7ALGraphIicE6existsEii
	.type	_ZN7ALGraphIicE6existsEii, @function
_ZN7ALGraphIicE6existsEii:
.LASANPC4640:
.LFB4640:
	.loc 6 228 18
	.cfi_startproc
	endbr64
	pushq	%rbp
	.cfi_def_cfa_offset 16
	.cfi_offset 6, -16
	movq	%rsp, %rbp
	.cfi_def_cfa_register 6
	subq	$16, %rsp
	movq	%rdi, -8(%rbp)
	movl	%esi, -12(%rbp)
	movl	%edx, -16(%rbp)
	.loc 6 230 16
	movl	-16(%rbp), %edx
	movl	-12(%rbp), %ecx
	movq	-8(%rbp), %rax
	movl	%ecx, %esi
	movq	%rax, %rdi
	call	_ZN7ALGraphIicE5_edgeEii
	movq	%rax, %rdx
	movq	%rdx, %rcx
	shrq	$3, %rcx
	addq	$2147450880, %rcx
	movzbl	(%rcx), %ecx
	testb	%cl, %cl
	je	.L412
	movq	%rdx, %rdi
	call	__asan_report_load8@PLT
.L412:
	movq	(%rax), %rax
	.loc 6 230 32
	testq	%rax, %rax
	setne	%al
	.loc 6 231 5
	leave
	.cfi_def_cfa 7, 8
	ret
	.cfi_endproc
.LFE4640:
	.size	_ZN7ALGraphIicE6existsEii, .-_ZN7ALGraphIicE6existsEii
	.section	.text._ZN5ENodeIcEC2EiPS0_iRKc,"axG",@progbits,_ZN5ENodeIcEC5EiPS0_iRKc,comdat
	.align 2
	.weak	_ZN5ENodeIcEC2EiPS0_iRKc
	.type	_ZN5ENodeIcEC2EiPS0_iRKc, @function
_ZN5ENodeIcEC2EiPS0_iRKc:
.LASANPC4642:
.LFB4642:
	.loc 6 13 5
	.cfi_startproc
	endbr64
	pushq	%rbp
	.cfi_def_cfa_offset 16
	.cfi_offset 6, -16
	movq	%rsp, %rbp
	.cfi_def_cfa_register 6
	subq	$32, %rsp
	movq	%rdi, -8(%rbp)
	movl	%esi, -12(%rbp)
	movq	%rdx, -24(%rbp)
	movl	%ecx, -16(%rbp)
	movq	%r8, -32(%rbp)
.LBB60:
	.loc 6 13 120
	movq	-8(%rbp), %rax
	movq	-32(%rbp), %rdx
	movl	-16(%rbp), %ecx
	movl	%ecx, %esi
	movq	%rax, %rdi
	call	_ZN4EdgeIcEC1EiRKc
	movq	-8(%rbp), %rax
	addq	$16, %rax
	movq	%rax, %rdx
	shrq	$3, %rdx
	addq	$2147450880, %rdx
	movzbl	(%rdx), %edx
	testb	%dl, %dl
	je	.L415
	movq	%rax, %rdi
	call	__asan_report_store8@PLT
.L415:
	movq	-8(%rbp), %rax
	movq	-24(%rbp), %rdx
	movq	%rdx, 16(%rax)
	movq	-8(%rbp), %rax
	addq	$24, %rax
	movq	%rax, %rdx
	movq	%rdx, %rax
	shrq	$3, %rax
	addq	$2147450880, %rax
	movzbl	(%rax), %eax
	testb	%al, %al
	setne	%cl
	cmpb	$3, %al
	setle	%al
	andl	%ecx, %eax
	testb	%al, %al
	je	.L416
	movq	%rdx, %rdi
	call	__asan_report_store4@PLT
.L416:
	movq	-8(%rbp), %rax
	movl	-12(%rbp), %edx
	movl	%edx, 24(%rax)
.LBE60:
	.loc 6 13 123
	nop
	leave
	.cfi_def_cfa 7, 8
	ret
	.cfi_endproc
.LFE4642:
	.size	_ZN5ENodeIcEC2EiPS0_iRKc, .-_ZN5ENodeIcEC2EiPS0_iRKc
	.weak	_ZN5ENodeIcEC1EiPS0_iRKc
	.set	_ZN5ENodeIcEC1EiPS0_iRKc,_ZN5ENodeIcEC2EiPS0_iRKc
	.section	.text._ZN7ALGraphIicE5_edgeEii,"axG",@progbits,_ZN7ALGraphIicE5_edgeEii,comdat
	.align 2
	.weak	_ZN7ALGraphIicE5_edgeEii
	.type	_ZN7ALGraphIicE5_edgeEii, @function
_ZN7ALGraphIicE5_edgeEii:
.LASANPC4644:
.LFB4644:
	.loc 6 160 17
	.cfi_startproc
	endbr64
	pushq	%rbp
	.cfi_def_cfa_offset 16
	.cfi_offset 6, -16
	movq	%rsp, %rbp
	.cfi_def_cfa_register 6
	subq	$32, %rsp
	movq	%rdi, -24(%rbp)
	movl	%esi, -28(%rbp)
	movl	%edx, -32(%rbp)
.LBB61:
	.loc 6 162 9
	movq	-24(%rbp), %rax
	movq	%rax, %rdx
	shrq	$3, %rdx
	addq	$2147450880, %rdx
	movzbl	(%rdx), %edx
	testb	%dl, %dl
	je	.L418
	movq	%rax, %rdi
	call	__asan_report_load8@PLT
.L418:
	movq	-24(%rbp), %rax
	movq	(%rax), %rax
	addq	$104, %rax
	movq	%rax, %rdx
	movq	%rdx, %rcx
	shrq	$3, %rcx
	addq	$2147450880, %rcx
	movzbl	(%rcx), %ecx
	testb	%cl, %cl
	je	.L419
	movq	%rdx, %rdi
	call	__asan_report_load8@PLT
.L419:
	movq	(%rax), %rcx
	movl	-28(%rbp), %edx
	movq	-24(%rbp), %rax
	movl	%edx, %esi
	movq	%rax, %rdi
	call	*%rcx
.LVL32:
	testb	%al, %al
	je	.L420
.LBB62:
	.loc 6 164 35
	movq	-24(%rbp), %rax
	leaq	24(%rax), %rdx
	movl	-28(%rbp), %eax
	cltq
	movq	%rax, %rsi
	movq	%rdx, %rdi
	call	_ZNSt6vectorI5VNodeIicESaIS1_EEixEm
	.loc 6 164 25
	addq	$32, %rax
	movq	%rax, -16(%rbp)
.L426:
	.loc 6 165 29
	movq	-16(%rbp), %rax
	movq	%rax, %rdx
	shrq	$3, %rdx
	addq	$2147450880, %rdx
	movzbl	(%rdx), %edx
	testb	%dl, %dl
	je	.L421
	movq	%rax, %rdi
	call	__asan_report_load8@PLT
.L421:
	movq	-16(%rbp), %rax
	movq	(%rax), %rax
	movq	%rax, -8(%rbp)
	cmpq	$0, -8(%rbp)
	je	.L422
	.loc 6 165 35 discriminator 1
	movq	-8(%rbp), %rax
	addq	$24, %rax
	movq	%rax, %rdx
	movq	%rdx, %rax
	shrq	$3, %rax
	addq	$2147450880, %rax
	movzbl	(%rax), %eax
	testb	%al, %al
	setne	%cl
	cmpb	$3, %al
	setle	%al
	andl	%ecx, %eax
	testb	%al, %al
	je	.L423
	.loc 6 165 35 is_stmt 0
	movq	%rdx, %rdi
	call	__asan_report_load4@PLT
.L423:
	.loc 6 165 35 discriminator 1
	movq	-8(%rbp), %rax
	movl	24(%rax), %eax
	.loc 6 165 29 is_stmt 1 discriminator 1
	cmpl	%eax, -32(%rbp)
	je	.L422
	.loc 6 165 29 is_stmt 0 discriminator 3
	movl	$1, %eax
	jmp	.L424
.L422:
	.loc 6 165 29 discriminator 4
	movl	$0, %eax
.L424:
	.loc 6 165 29 discriminator 6
	testb	%al, %al
	je	.L425
	.loc 6 166 17 is_stmt 1
	movq	-8(%rbp), %rax
	addq	$16, %rax
	movq	%rax, -16(%rbp)
	.loc 6 165 13
	jmp	.L426
.L425:
	.loc 6 167 13
	cmpq	$0, -8(%rbp)
	je	.L420
	.loc 6 168 25
	movq	-16(%rbp), %rax
	jmp	.L427
.L420:
.LBE62:
.LBE61:
	.loc 6 170 16
	leaq	_ZN7ALGraphIicE4nPtrE(%rip), %rax
.L427:
	.loc 6 171 5
	leave
	.cfi_def_cfa 7, 8
	ret
	.cfi_endproc
.LFE4644:
	.size	_ZN7ALGraphIicE5_edgeEii, .-_ZN7ALGraphIicE5_edgeEii
	.section	.text._ZN5GraphIicE5resetEv,"axG",@progbits,_ZN5GraphIicE5resetEv,comdat
	.align 2
	.weak	_ZN5GraphIicE5resetEv
	.type	_ZN5GraphIicE5resetEv, @function
_ZN5GraphIicE5resetEv:
.LASANPC4645:
.LFB4645:
	.loc 10 69 10
	.cfi_startproc
	endbr64
	pushq	%rbp
	.cfi_def_cfa_offset 16
	.cfi_offset 6, -16
	movq	%rsp, %rbp
	.cfi_def_cfa_register 6
	pushq	%rbx
	subq	$40, %rsp
	.cfi_offset 3, -24
	movq	%rdi, -40(%rbp)
.LBB63:
	.loc 10 71 18
	movl	$0, -24(%rbp)
.L455:
	.loc 10 71 29 discriminator 1
	movq	-40(%rbp), %rax
	addq	$8, %rax
	movq	%rax, %rdx
	movq	%rdx, %rax
	shrq	$3, %rax
	addq	$2147450880, %rax
	movzbl	(%rax), %eax
	testb	%al, %al
	setne	%cl
	cmpb	$3, %al
	setle	%al
	andl	%ecx, %eax
	testb	%al, %al
	je	.L429
	.loc 10 71 29 is_stmt 0
	movq	%rdx, %rdi
	call	__asan_report_load4@PLT
.L429:
	.loc 10 71 29 discriminator 1
	movq	-40(%rbp), %rax
	movl	8(%rax), %eax
	.loc 10 71 27 is_stmt 1 discriminator 1
	cmpl	%eax, -24(%rbp)
	jge	.L456
.LBB64:
	.loc 10 73 23
	movq	-40(%rbp), %rax
	movq	%rax, %rdx
	shrq	$3, %rdx
	addq	$2147450880, %rdx
	movzbl	(%rdx), %edx
	testb	%dl, %dl
	je	.L431
	movq	%rax, %rdi
	call	__asan_report_load8@PLT
.L431:
	movq	-40(%rbp), %rax
	movq	(%rax), %rax
	addq	$64, %rax
	movq	%rax, %rdx
	movq	%rdx, %rcx
	shrq	$3, %rcx
	addq	$2147450880, %rcx
	movzbl	(%rcx), %ecx
	testb	%cl, %cl
	je	.L432
	movq	%rdx, %rdi
	call	__asan_report_load8@PLT
.L432:
	movq	(%rax), %rcx
	movl	-24(%rbp), %edx
	movq	-40(%rbp), %rax
	movl	%edx, %esi
	movq	%rax, %rdi
	call	*%rcx
.LVL33:
	movq	%rax, %rdx
	.loc 10 73 13
	movq	%rdx, %rax
	movq	%rax, %rcx
	shrq	$3, %rcx
	addq	$2147450880, %rcx
	movzbl	(%rcx), %ecx
	testb	%cl, %cl
	setne	%sil
	movq	%rax, %rdi
	andl	$7, %edi
	addl	$3, %edi
	cmpb	%cl, %dil
	setge	%cl
	andl	%esi, %ecx
	testb	%cl, %cl
	je	.L433
	movq	%rax, %rdi
	call	__asan_report_store4@PLT
.L433:
	movl	$0, (%rdx)
	.loc 10 74 33
	movq	-40(%rbp), %rax
	movq	%rax, %rdx
	shrq	$3, %rdx
	addq	$2147450880, %rdx
	movzbl	(%rdx), %edx
	testb	%dl, %dl
	je	.L434
	movq	%rax, %rdi
	call	__asan_report_load8@PLT
.L434:
	movq	-40(%rbp), %rax
	movq	(%rax), %rax
	addq	$80, %rax
	movq	%rax, %rdx
	movq	%rdx, %rcx
	shrq	$3, %rcx
	addq	$2147450880, %rcx
	movzbl	(%rcx), %ecx
	testb	%cl, %cl
	je	.L435
	movq	%rdx, %rdi
	call	__asan_report_load8@PLT
.L435:
	movq	(%rax), %rcx
	movl	-24(%rbp), %edx
	movq	-40(%rbp), %rax
	movl	%edx, %esi
	movq	%rax, %rdi
	call	*%rcx
.LVL34:
	.loc 10 74 13
	movq	%rax, %rdx
	movq	%rdx, %rcx
	shrq	$3, %rcx
	addq	$2147450880, %rcx
	movzbl	(%rcx), %ecx
	testb	%cl, %cl
	setne	%sil
	movq	%rdx, %rdi
	andl	$7, %edi
	addl	$3, %edi
	cmpb	%cl, %dil
	setge	%cl
	andl	%esi, %ecx
	testb	%cl, %cl
	je	.L436
	movq	%rdx, %rdi
	call	__asan_report_store4@PLT
.L436:
	movl	$-1, (%rax)
	movl	(%rax), %ebx
	.loc 10 74 22
	movq	-40(%rbp), %rax
	movq	%rax, %rdx
	shrq	$3, %rdx
	addq	$2147450880, %rdx
	movzbl	(%rdx), %edx
	testb	%dl, %dl
	je	.L437
	movq	%rax, %rdi
	call	__asan_report_load8@PLT
.L437:
	movq	-40(%rbp), %rax
	movq	(%rax), %rax
	addq	$72, %rax
	movq	%rax, %rdx
	movq	%rdx, %rcx
	shrq	$3, %rcx
	addq	$2147450880, %rcx
	movzbl	(%rcx), %ecx
	testb	%cl, %cl
	je	.L438
	movq	%rdx, %rdi
	call	__asan_report_load8@PLT
.L438:
	movq	(%rax), %rcx
	movl	-24(%rbp), %edx
	movq	-40(%rbp), %rax
	movl	%edx, %esi
	movq	%rax, %rdi
	call	*%rcx
.LVL35:
	movq	%rax, %rdx
	.loc 10 74 13
	movq	%rdx, %rax
	movq	%rax, %rcx
	shrq	$3, %rcx
	addq	$2147450880, %rcx
	movzbl	(%rcx), %ecx
	testb	%cl, %cl
	setne	%sil
	movq	%rax, %rdi
	andl	$7, %edi
	addl	$3, %edi
	cmpb	%cl, %dil
	setge	%cl
	andl	%esi, %ecx
	testb	%cl, %cl
	je	.L439
	movq	%rax, %rdi
	call	__asan_report_store4@PLT
.L439:
	movl	%ebx, (%rdx)
	.loc 10 75 23
	movq	-40(%rbp), %rax
	movq	%rax, %rdx
	shrq	$3, %rdx
	addq	$2147450880, %rdx
	movzbl	(%rdx), %edx
	testb	%dl, %dl
	je	.L440
	movq	%rax, %rdi
	call	__asan_report_load8@PLT
.L440:
	movq	-40(%rbp), %rax
	movq	(%rax), %rax
	addq	$88, %rax
	movq	%rax, %rdx
	movq	%rdx, %rcx
	shrq	$3, %rcx
	addq	$2147450880, %rcx
	movzbl	(%rcx), %ecx
	testb	%cl, %cl
	je	.L441
	movq	%rdx, %rdi
	call	__asan_report_load8@PLT
.L441:
	movq	(%rax), %rcx
	movl	-24(%rbp), %edx
	movq	-40(%rbp), %rax
	movl	%edx, %esi
	movq	%rax, %rdi
	call	*%rcx
.LVL36:
	movq	%rax, %rdx
	.loc 10 75 13
	movq	%rdx, %rax
	movq	%rax, %rcx
	shrq	$3, %rcx
	addq	$2147450880, %rcx
	movzbl	(%rcx), %ecx
	testb	%cl, %cl
	setne	%sil
	movq	%rax, %rdi
	andl	$7, %edi
	addl	$3, %edi
	cmpb	%cl, %dil
	setge	%cl
	andl	%esi, %ecx
	testb	%cl, %cl
	je	.L442
	movq	%rax, %rdi
	call	__asan_report_store4@PLT
.L442:
	movl	$-1, (%rdx)
	.loc 10 76 25
	movq	-40(%rbp), %rax
	movq	%rax, %rdx
	shrq	$3, %rdx
	addq	$2147450880, %rdx
	movzbl	(%rdx), %edx
	testb	%dl, %dl
	je	.L443
	movq	%rax, %rdi
	call	__asan_report_load8@PLT
.L443:
	movq	-40(%rbp), %rax
	movq	(%rax), %rax
	addq	$96, %rax
	movq	%rax, %rdx
	movq	%rdx, %rcx
	shrq	$3, %rcx
	addq	$2147450880, %rcx
	movzbl	(%rcx), %ecx
	testb	%cl, %cl
	je	.L444
	movq	%rdx, %rdi
	call	__asan_report_load8@PLT
.L444:
	movq	(%rax), %rcx
	movl	-24(%rbp), %edx
	movq	-40(%rbp), %rax
	movl	%edx, %esi
	movq	%rax, %rdi
	call	*%rcx
.LVL37:
	movq	%rax, %rdx
	.loc 10 76 13
	movq	%rdx, %rax
	movq	%rax, %rcx
	shrq	$3, %rcx
	addq	$2147450880, %rcx
	movzbl	(%rcx), %ecx
	testb	%cl, %cl
	setne	%sil
	movq	%rax, %rdi
	andl	$7, %edi
	addl	$3, %edi
	cmpb	%cl, %dil
	setge	%cl
	andl	%esi, %ecx
	testb	%cl, %cl
	je	.L445
	movq	%rax, %rdi
	call	__asan_report_store4@PLT
.L445:
	movl	$2147483647, (%rdx)
.LBB65:
	.loc 10 77 22
	movl	$0, -20(%rbp)
.L454:
	.loc 10 77 33 discriminator 1
	movq	-40(%rbp), %rax
	addq	$8, %rax
	movq	%rax, %rdx
	movq	%rdx, %rax
	shrq	$3, %rax
	addq	$2147450880, %rax
	movzbl	(%rax), %eax
	testb	%al, %al
	setne	%cl
	cmpb	$3, %al
	setle	%al
	andl	%ecx, %eax
	testb	%al, %al
	je	.L446
	.loc 10 77 33 is_stmt 0
	movq	%rdx, %rdi
	call	__asan_report_load4@PLT
.L446:
	.loc 10 77 33 discriminator 1
	movq	-40(%rbp), %rax
	movl	8(%rax), %eax
	.loc 10 77 31 is_stmt 1 discriminator 1
	cmpl	%eax, -20(%rbp)
	jge	.L447
	.loc 10 78 17
	movq	-40(%rbp), %rax
	movq	%rax, %rdx
	shrq	$3, %rdx
	addq	$2147450880, %rdx
	movzbl	(%rdx), %edx
	testb	%dl, %dl
	je	.L448
	movq	%rax, %rdi
	call	__asan_report_load8@PLT
.L448:
	movq	-40(%rbp), %rax
	movq	(%rax), %rax
	addq	$112, %rax
	movq	%rax, %rdx
	movq	%rdx, %rcx
	shrq	$3, %rcx
	addq	$2147450880, %rcx
	movzbl	(%rcx), %ecx
	testb	%cl, %cl
	je	.L449
	movq	%rdx, %rdi
	call	__asan_report_load8@PLT
.L449:
	movq	(%rax), %r8
	movl	-20(%rbp), %edx
	movl	-24(%rbp), %ecx
	movq	-40(%rbp), %rax
	movl	%ecx, %esi
	movq	%rax, %rdi
	call	*%r8
.LVL38:
	testb	%al, %al
	je	.L450
	.loc 10 79 32
	movq	-40(%rbp), %rax
	movq	%rax, %rdx
	shrq	$3, %rdx
	addq	$2147450880, %rdx
	movzbl	(%rdx), %edx
	testb	%dl, %dl
	je	.L451
	movq	%rax, %rdi
	call	__asan_report_load8@PLT
.L451:
	movq	-40(%rbp), %rax
	movq	(%rax), %rax
	addq	$136, %rax
	movq	%rax, %rdx
	movq	%rdx, %rcx
	shrq	$3, %rcx
	addq	$2147450880, %rcx
	movzbl	(%rcx), %ecx
	testb	%cl, %cl
	je	.L452
	movq	%rdx, %rdi
	call	__asan_report_load8@PLT
.L452:
	movq	(%rax), %r8
	movl	-20(%rbp), %edx
	movl	-24(%rbp), %ecx
	movq	-40(%rbp), %rax
	movl	%ecx, %esi
	movq	%rax, %rdi
	call	*%r8
.LVL39:
	movq	%rax, %rdx
	.loc 10 79 21
	movq	%rdx, %rax
	movq	%rax, %rcx
	shrq	$3, %rcx
	addq	$2147450880, %rcx
	movzbl	(%rcx), %ecx
	testb	%cl, %cl
	setne	%sil
	movq	%rax, %rdi
	andl	$7, %edi
	addl	$3, %edi
	cmpb	%cl, %dil
	setge	%cl
	andl	%esi, %ecx
	testb	%cl, %cl
	je	.L453
	movq	%rax, %rdi
	call	__asan_report_store4@PLT
.L453:
	movl	$0, (%rdx)
.L450:
	.loc 10 77 13 discriminator 2
	addl	$1, -20(%rbp)
	jmp	.L454
.L447:
.LBE65:
.LBE64:
	.loc 10 71 9 discriminator 2
	addl	$1, -24(%rbp)
	jmp	.L455
.L456:
.LBE63:
	.loc 10 81 5
	nop
	addq	$40, %rsp
	popq	%rbx
	popq	%rbp
	.cfi_def_cfa 7, 8
	ret
	.cfi_endproc
.LFE4645:
	.size	_ZN5GraphIicE5resetEv, .-_ZN5GraphIicE5resetEv
	.section	.text._ZN5GraphIicE3DFSEiRiRSt6vectorIiSaIiEE,"axG",@progbits,_ZN5GraphIicE3DFSEiRiRSt6vectorIiSaIiEE,comdat
	.align 2
	.weak	_ZN5GraphIicE3DFSEiRiRSt6vectorIiSaIiEE
	.type	_ZN5GraphIicE3DFSEiRiRSt6vectorIiSaIiEE, @function
_ZN5GraphIicE3DFSEiRiRSt6vectorIiSaIiEE:
.LASANPC4646:
.LFB4646:
	.loc 8 20 6
	.cfi_startproc
	endbr64
	pushq	%rbp
	.cfi_def_cfa_offset 16
	.cfi_offset 6, -16
	movq	%rsp, %rbp
	.cfi_def_cfa_register 6
	pushq	%rbx
	subq	$56, %rsp
	.cfi_offset 3, -24
	movq	%rdi, -40(%rbp)
	movl	%esi, -44(%rbp)
	movq	%rdx, -56(%rbp)
	movq	%rcx, -64(%rbp)
	.loc 8 22 5
	movq	-56(%rbp), %rax
	movq	%rax, %rdx
	shrq	$3, %rdx
	addq	$2147450880, %rdx
	movzbl	(%rdx), %edx
	testb	%dl, %dl
	setne	%cl
	movq	%rax, %rsi
	andl	$7, %esi
	addl	$3, %esi
	cmpb	%dl, %sil
	setge	%dl
	andl	%ecx, %edx
	testb	%dl, %dl
	je	.L458
	movq	%rax, %rdi
	call	__asan_report_load4@PLT
.L458:
	movq	-56(%rbp), %rax
	movl	(%rax), %eax
	leal	1(%rax), %edx
	movq	-56(%rbp), %rax
	movl	%edx, (%rax)
	movq	-56(%rbp), %rax
	movl	(%rax), %ebx
	.loc 8 22 14
	movq	-40(%rbp), %rax
	movq	%rax, %rdx
	shrq	$3, %rdx
	addq	$2147450880, %rdx
	movzbl	(%rdx), %edx
	testb	%dl, %dl
	je	.L459
	movq	%rax, %rdi
	call	__asan_report_load8@PLT
.L459:
	movq	-40(%rbp), %rax
	movq	(%rax), %rax
	addq	$72, %rax
	movq	%rax, %rdx
	movq	%rdx, %rcx
	shrq	$3, %rcx
	addq	$2147450880, %rcx
	movzbl	(%rcx), %ecx
	testb	%cl, %cl
	je	.L460
	movq	%rdx, %rdi
	call	__asan_report_load8@PLT
.L460:
	movq	(%rax), %rcx
	movl	-44(%rbp), %edx
	movq	-40(%rbp), %rax
	movl	%edx, %esi
	movq	%rax, %rdi
	call	*%rcx
.LVL40:
	movq	%rax, %rdx
	.loc 8 22 5
	movq	%rdx, %rax
	movq	%rax, %rcx
	shrq	$3, %rcx
	addq	$2147450880, %rcx
	movzbl	(%rcx), %ecx
	testb	%cl, %cl
	setne	%sil
	movq	%rax, %rdi
	andl	$7, %edi
	addl	$3, %edi
	cmpb	%cl, %dil
	setge	%cl
	andl	%esi, %ecx
	testb	%cl, %cl
	je	.L461
	movq	%rax, %rdi
	call	__asan_report_store4@PLT
.L461:
	movl	%ebx, (%rdx)
	.loc 8 23 15
	movq	-40(%rbp), %rax
	movq	%rax, %rdx
	shrq	$3, %rdx
	addq	$2147450880, %rdx
	movzbl	(%rdx), %edx
	testb	%dl, %dl
	je	.L462
	movq	%rax, %rdi
	call	__asan_report_load8@PLT
.L462:
	movq	-40(%rbp), %rax
	movq	(%rax), %rax
	addq	$64, %rax
	movq	%rax, %rdx
	movq	%rdx, %rcx
	shrq	$3, %rcx
	addq	$2147450880, %rcx
	movzbl	(%rcx), %ecx
	testb	%cl, %cl
	je	.L463
	movq	%rdx, %rdi
	call	__asan_report_load8@PLT
.L463:
	movq	(%rax), %rcx
	movl	-44(%rbp), %edx
	movq	-40(%rbp), %rax
	movl	%edx, %esi
	movq	%rax, %rdi
	call	*%rcx
.LVL41:
	movq	%rax, %rdx
	.loc 8 23 5
	movq	%rdx, %rax
	movq	%rax, %rcx
	shrq	$3, %rcx
	addq	$2147450880, %rcx
	movzbl	(%rcx), %ecx
	testb	%cl, %cl
	setne	%sil
	movq	%rax, %rdi
	andl	$7, %edi
	addl	$3, %edi
	cmpb	%cl, %dil
	setge	%cl
	andl	%esi, %ecx
	testb	%cl, %cl
	je	.L464
	movq	%rax, %rdi
	call	__asan_report_store4@PLT
.L464:
	movl	$1, (%rdx)
	.loc 8 24 5
	movq	-40(%rbp), %rax
	movq	%rax, %rdx
	shrq	$3, %rdx
	addq	$2147450880, %rdx
	movzbl	(%rdx), %edx
	testb	%dl, %dl
	je	.L465
	movq	%rax, %rdi
	call	__asan_report_load8@PLT
.L465:
	movq	-40(%rbp), %rax
	movq	(%rax), %rax
	addq	$24, %rax
	movq	%rax, %rdx
	movq	%rdx, %rcx
	shrq	$3, %rcx
	addq	$2147450880, %rcx
	movzbl	(%rcx), %ecx
	testb	%cl, %cl
	je	.L466
	movq	%rdx, %rdi
	call	__asan_report_load8@PLT
.L466:
	movq	(%rax), %rcx
	movl	-44(%rbp), %edx
	movq	-40(%rbp), %rax
	movl	%edx, %esi
	movq	%rax, %rdi
	call	*%rcx
.LVL42:
	movq	%rax, %rdx
	movq	-64(%rbp), %rax
	movq	%rdx, %rsi
	movq	%rax, %rdi
	call	_ZNSt6vectorIiSaIiEE12emplace_backIJRiEEES3_DpOT_
.LBB66:
	.loc 8 25 14
	movq	-40(%rbp), %rax
	movq	%rax, %rdx
	shrq	$3, %rdx
	addq	$2147450880, %rdx
	movzbl	(%rdx), %edx
	testb	%dl, %dl
	je	.L467
	movq	%rax, %rdi
	call	__asan_report_load8@PLT
.L467:
	movq	-40(%rbp), %rax
	movq	(%rax), %rax
	addq	$48, %rax
	movq	%rax, %rdx
	movq	%rdx, %rcx
	shrq	$3, %rcx
	addq	$2147450880, %rcx
	movzbl	(%rcx), %ecx
	testb	%cl, %cl
	je	.L468
	movq	%rdx, %rdi
	call	__asan_report_load8@PLT
.L468:
	movq	(%rax), %rcx
	movl	-44(%rbp), %edx
	movq	-40(%rbp), %rax
	movl	%edx, %esi
	movq	%rax, %rdi
	call	*%rcx
.LVL43:
	movl	%eax, -20(%rbp)
.L499:
	.loc 8 25 33 discriminator 1
	cmpl	$0, -20(%rbp)
	js	.L469
	.loc 8 27 9
	movq	-40(%rbp), %rax
	movq	%rax, %rdx
	shrq	$3, %rdx
	addq	$2147450880, %rdx
	movzbl	(%rdx), %edx
	testb	%dl, %dl
	je	.L470
	movq	%rax, %rdi
	call	__asan_report_load8@PLT
.L470:
	movq	-40(%rbp), %rax
	movq	(%rax), %rax
	addq	$64, %rax
	movq	%rax, %rdx
	movq	%rdx, %rcx
	shrq	$3, %rcx
	addq	$2147450880, %rcx
	movzbl	(%rcx), %ecx
	testb	%cl, %cl
	je	.L471
	movq	%rdx, %rdi
	call	__asan_report_load8@PLT
.L471:
	movq	(%rax), %rcx
	movl	-20(%rbp), %edx
	movq	-40(%rbp), %rax
	movl	%edx, %esi
	movq	%rax, %rdi
	call	*%rcx
.LVL44:
	movq	%rax, %rdx
	movq	%rdx, %rax
	movq	%rax, %rcx
	shrq	$3, %rcx
	addq	$2147450880, %rcx
	movzbl	(%rcx), %ecx
	testb	%cl, %cl
	setne	%sil
	movq	%rax, %rdi
	andl	$7, %edi
	addl	$3, %edi
	cmpb	%cl, %dil
	setge	%cl
	andl	%esi, %ecx
	testb	%cl, %cl
	je	.L472
	movq	%rax, %rdi
	call	__asan_report_load4@PLT
.L472:
	movl	(%rdx), %eax
	testl	%eax, %eax
	je	.L473
	cmpl	$1, %eax
	je	.L474
	jmp	.L507
.L473:
	.loc 8 30 24
	movq	-40(%rbp), %rax
	movq	%rax, %rdx
	shrq	$3, %rdx
	addq	$2147450880, %rdx
	movzbl	(%rdx), %edx
	testb	%dl, %dl
	je	.L476
	movq	%rax, %rdi
	call	__asan_report_load8@PLT
.L476:
	movq	-40(%rbp), %rax
	movq	(%rax), %rax
	addq	$136, %rax
	movq	%rax, %rdx
	movq	%rdx, %rcx
	shrq	$3, %rcx
	addq	$2147450880, %rcx
	movzbl	(%rcx), %ecx
	testb	%cl, %cl
	je	.L477
	movq	%rdx, %rdi
	call	__asan_report_load8@PLT
.L477:
	movq	(%rax), %r8
	movl	-20(%rbp), %edx
	movl	-44(%rbp), %ecx
	movq	-40(%rbp), %rax
	movl	%ecx, %esi
	movq	%rax, %rdi
	call	*%r8
.LVL45:
	movq	%rax, %rdx
	.loc 8 30 13
	movq	%rdx, %rax
	movq	%rax, %rcx
	shrq	$3, %rcx
	addq	$2147450880, %rcx
	movzbl	(%rcx), %ecx
	testb	%cl, %cl
	setne	%sil
	movq	%rax, %rdi
	andl	$7, %edi
	addl	$3, %edi
	cmpb	%cl, %dil
	setge	%cl
	andl	%esi, %ecx
	testb	%cl, %cl
	je	.L478
	movq	%rax, %rdi
	call	__asan_report_store4@PLT
.L478:
	movl	$1, (%rdx)
	.loc 8 31 13
	movl	-44(%rbp), %ebx
	.loc 8 31 23
	movq	-40(%rbp), %rax
	movq	%rax, %rdx
	shrq	$3, %rdx
	addq	$2147450880, %rdx
	movzbl	(%rdx), %edx
	testb	%dl, %dl
	je	.L479
	movq	%rax, %rdi
	call	__asan_report_load8@PLT
.L479:
	movq	-40(%rbp), %rax
	movq	(%rax), %rax
	addq	$88, %rax
	movq	%rax, %rdx
	movq	%rdx, %rcx
	shrq	$3, %rcx
	addq	$2147450880, %rcx
	movzbl	(%rcx), %ecx
	testb	%cl, %cl
	je	.L480
	movq	%rdx, %rdi
	call	__asan_report_load8@PLT
.L480:
	movq	(%rax), %rcx
	movl	-20(%rbp), %edx
	movq	-40(%rbp), %rax
	movl	%edx, %esi
	movq	%rax, %rdi
	call	*%rcx
.LVL46:
	movq	%rax, %rdx
	.loc 8 31 13
	movq	%rdx, %rax
	movq	%rax, %rcx
	shrq	$3, %rcx
	addq	$2147450880, %rcx
	movzbl	(%rcx), %ecx
	testb	%cl, %cl
	setne	%sil
	movq	%rax, %rdi
	andl	$7, %edi
	addl	$3, %edi
	cmpb	%cl, %dil
	setge	%cl
	andl	%esi, %ecx
	testb	%cl, %cl
	je	.L481
	movq	%rax, %rdi
	call	__asan_report_store4@PLT
.L481:
	movl	%ebx, (%rdx)
	.loc 8 32 13
	movq	-64(%rbp), %rcx
	movq	-56(%rbp), %rdx
	movl	-20(%rbp), %esi
	movq	-40(%rbp), %rax
	movq	%rax, %rdi
	call	_ZN5GraphIicE3DFSEiRiRSt6vectorIiSaIiEE
	.loc 8 33 13
	jmp	.L482
.L474:
	.loc 8 35 24
	movq	-40(%rbp), %rax
	movq	%rax, %rdx
	shrq	$3, %rdx
	addq	$2147450880, %rdx
	movzbl	(%rdx), %edx
	testb	%dl, %dl
	je	.L483
	movq	%rax, %rdi
	call	__asan_report_load8@PLT
.L483:
	movq	-40(%rbp), %rax
	movq	(%rax), %rax
	addq	$136, %rax
	movq	%rax, %rdx
	movq	%rdx, %rcx
	shrq	$3, %rcx
	addq	$2147450880, %rcx
	movzbl	(%rcx), %ecx
	testb	%cl, %cl
	je	.L484
	movq	%rdx, %rdi
	call	__asan_report_load8@PLT
.L484:
	movq	(%rax), %r8
	movl	-20(%rbp), %edx
	movl	-44(%rbp), %ecx
	movq	-40(%rbp), %rax
	movl	%ecx, %esi
	movq	%rax, %rdi
	call	*%r8
.LVL47:
	movq	%rax, %rdx
	.loc 8 35 13
	movq	%rdx, %rax
	movq	%rax, %rcx
	shrq	$3, %rcx
	addq	$2147450880, %rcx
	movzbl	(%rcx), %ecx
	testb	%cl, %cl
	setne	%sil
	movq	%rax, %rdi
	andl	$7, %edi
	addl	$3, %edi
	cmpb	%cl, %dil
	setge	%cl
	andl	%esi, %ecx
	testb	%cl, %cl
	je	.L485
	movq	%rax, %rdi
	call	__asan_report_store4@PLT
.L485:
	movl	$4, (%rdx)
	.loc 8 36 13
	jmp	.L482
.L507:
	.loc 8 39 36
	movq	-40(%rbp), %rax
	movq	%rax, %rdx
	shrq	$3, %rdx
	addq	$2147450880, %rdx
	movzbl	(%rdx), %edx
	testb	%dl, %dl
	je	.L486
	movq	%rax, %rdi
	call	__asan_report_load8@PLT
.L486:
	movq	-40(%rbp), %rax
	movq	(%rax), %rax
	addq	$72, %rax
	movq	%rax, %rdx
	movq	%rdx, %rcx
	shrq	$3, %rcx
	addq	$2147450880, %rcx
	movzbl	(%rcx), %ecx
	testb	%cl, %cl
	je	.L487
	movq	%rdx, %rdi
	call	__asan_report_load8@PLT
.L487:
	movq	(%rax), %rcx
	movl	-44(%rbp), %edx
	movq	-40(%rbp), %rax
	movl	%edx, %esi
	movq	%rax, %rdi
	call	*%rcx
.LVL48:
	movq	%rax, %rdx
	movq	%rdx, %rax
	movq	%rax, %rcx
	shrq	$3, %rcx
	addq	$2147450880, %rcx
	movzbl	(%rcx), %ecx
	testb	%cl, %cl
	setne	%sil
	movq	%rax, %rdi
	andl	$7, %edi
	addl	$3, %edi
	cmpb	%cl, %dil
	setge	%cl
	andl	%esi, %ecx
	testb	%cl, %cl
	je	.L488
	movq	%rax, %rdi
	call	__asan_report_load4@PLT
.L488:
	movl	(%rdx), %ebx
	movq	-40(%rbp), %rax
	movq	%rax, %rdx
	shrq	$3, %rdx
	addq	$2147450880, %rdx
	movzbl	(%rdx), %edx
	testb	%dl, %dl
	je	.L489
	movq	%rax, %rdi
	call	__asan_report_load8@PLT
.L489:
	movq	-40(%rbp), %rax
	movq	(%rax), %rax
	addq	$72, %rax
	movq	%rax, %rdx
	movq	%rdx, %rcx
	shrq	$3, %rcx
	addq	$2147450880, %rcx
	movzbl	(%rcx), %ecx
	testb	%cl, %cl
	je	.L490
	movq	%rdx, %rdi
	call	__asan_report_load8@PLT
.L490:
	movq	(%rax), %rcx
	movl	-20(%rbp), %edx
	movq	-40(%rbp), %rax
	movl	%edx, %esi
	movq	%rax, %rdi
	call	*%rcx
.LVL49:
	movq	%rax, %rdx
	movq	%rdx, %rax
	movq	%rax, %rcx
	shrq	$3, %rcx
	addq	$2147450880, %rcx
	movzbl	(%rcx), %ecx
	testb	%cl, %cl
	setne	%sil
	movq	%rax, %rdi
	andl	$7, %edi
	addl	$3, %edi
	cmpb	%cl, %dil
	setge	%cl
	andl	%esi, %ecx
	testb	%cl, %cl
	je	.L491
	movq	%rax, %rdi
	call	__asan_report_load4@PLT
.L491:
	movl	(%rdx), %eax
	.loc 8 39 48
	cmpl	%eax, %ebx
	jge	.L492
	.loc 8 39 48 is_stmt 0 discriminator 1
	movl	$3, %ebx
	jmp	.L493
.L492:
	.loc 8 39 48 discriminator 2
	movl	$2, %ebx
.L493:
	.loc 8 39 24 is_stmt 1 discriminator 4
	movq	-40(%rbp), %rax
	movq	%rax, %rdx
	shrq	$3, %rdx
	addq	$2147450880, %rdx
	movzbl	(%rdx), %edx
	testb	%dl, %dl
	je	.L494
	.loc 8 39 24 is_stmt 0
	movq	%rax, %rdi
	call	__asan_report_load8@PLT
.L494:
	.loc 8 39 24 discriminator 4
	movq	-40(%rbp), %rax
	movq	(%rax), %rax
	addq	$136, %rax
	movq	%rax, %rdx
	movq	%rdx, %rcx
	shrq	$3, %rcx
	addq	$2147450880, %rcx
	movzbl	(%rcx), %ecx
	testb	%cl, %cl
	je	.L495
	.loc 8 39 24
	movq	%rdx, %rdi
	call	__asan_report_load8@PLT
.L495:
	.loc 8 39 24 discriminator 4
	movq	(%rax), %r8
	movl	-20(%rbp), %edx
	movl	-44(%rbp), %ecx
	movq	-40(%rbp), %rax
	movl	%ecx, %esi
	movq	%rax, %rdi
	call	*%r8
.LVL50:
	movq	%rax, %rdx
	.loc 8 39 13 is_stmt 1 discriminator 4
	movq	%rdx, %rax
	movq	%rax, %rcx
	shrq	$3, %rcx
	addq	$2147450880, %rcx
	movzbl	(%rcx), %ecx
	testb	%cl, %cl
	setne	%sil
	movq	%rax, %rdi
	andl	$7, %edi
	addl	$3, %edi
	cmpb	%cl, %dil
	setge	%cl
	andl	%esi, %ecx
	testb	%cl, %cl
	je	.L496
	.loc 8 39 13 is_stmt 0
	movq	%rax, %rdi
	call	__asan_report_store4@PLT
.L496:
	.loc 8 39 13 discriminator 4
	movl	%ebx, (%rdx)
.L482:
	.loc 8 25 41 is_stmt 1 discriminator 2
	movq	-40(%rbp), %rax
	movq	%rax, %rdx
	shrq	$3, %rdx
	addq	$2147450880, %rdx
	movzbl	(%rdx), %edx
	testb	%dl, %dl
	je	.L497
	.loc 8 25 41 is_stmt 0
	movq	%rax, %rdi
	call	__asan_report_load8@PLT
.L497:
	.loc 8 25 41 discriminator 2
	movq	-40(%rbp), %rax
	movq	(%rax), %rax
	addq	$56, %rax
	movq	%rax, %rdx
	movq	%rdx, %rcx
	shrq	$3, %rcx
	addq	$2147450880, %rcx
	movzbl	(%rcx), %ecx
	testb	%cl, %cl
	je	.L498
	.loc 8 25 41
	movq	%rdx, %rdi
	call	__asan_report_load8@PLT
.L498:
	.loc 8 25 41 discriminator 2
	movq	(%rax), %r8
	movl	-20(%rbp), %edx
	movl	-44(%rbp), %ecx
	movq	-40(%rbp), %rax
	movl	%ecx, %esi
	movq	%rax, %rdi
	call	*%r8
.LVL51:
	movl	%eax, -20(%rbp)
	.loc 8 25 5 is_stmt 1 discriminator 2
	jmp	.L499
.L469:
.LBE66:
	.loc 8 42 15
	movq	-40(%rbp), %rax
	movq	%rax, %rdx
	shrq	$3, %rdx
	addq	$2147450880, %rdx
	movzbl	(%rdx), %edx
	testb	%dl, %dl
	je	.L500
	movq	%rax, %rdi
	call	__asan_report_load8@PLT
.L500:
	movq	-40(%rbp), %rax
	movq	(%rax), %rax
	addq	$64, %rax
	movq	%rax, %rdx
	movq	%rdx, %rcx
	shrq	$3, %rcx
	addq	$2147450880, %rcx
	movzbl	(%rcx), %ecx
	testb	%cl, %cl
	je	.L501
	movq	%rdx, %rdi
	call	__asan_report_load8@PLT
.L501:
	movq	(%rax), %rcx
	movl	-44(%rbp), %edx
	movq	-40(%rbp), %rax
	movl	%edx, %esi
	movq	%rax, %rdi
	call	*%rcx
.LVL52:
	movq	%rax, %rdx
	.loc 8 42 5
	movq	%rdx, %rax
	movq	%rax, %rcx
	shrq	$3, %rcx
	addq	$2147450880, %rcx
	movzbl	(%rcx), %ecx
	testb	%cl, %cl
	setne	%sil
	movq	%rax, %rdi
	andl	$7, %edi
	addl	$3, %edi
	cmpb	%cl, %dil
	setge	%cl
	andl	%esi, %ecx
	testb	%cl, %cl
	je	.L502
	movq	%rax, %rdi
	call	__asan_report_store4@PLT
.L502:
	movl	$2, (%rdx)
	.loc 8 43 5
	movq	-56(%rbp), %rax
	movq	%rax, %rdx
	shrq	$3, %rdx
	addq	$2147450880, %rdx
	movzbl	(%rdx), %edx
	testb	%dl, %dl
	setne	%cl
	movq	%rax, %rsi
	andl	$7, %esi
	addl	$3, %esi
	cmpb	%dl, %sil
	setge	%dl
	andl	%ecx, %edx
	testb	%dl, %dl
	je	.L503
	movq	%rax, %rdi
	call	__asan_report_load4@PLT
.L503:
	movq	-56(%rbp), %rax
	movl	(%rax), %eax
	leal	1(%rax), %edx
	movq	-56(%rbp), %rax
	movl	%edx, (%rax)
	movq	-56(%rbp), %rax
	movl	(%rax), %ebx
	.loc 8 43 14
	movq	-40(%rbp), %rax
	movq	%rax, %rdx
	shrq	$3, %rdx
	addq	$2147450880, %rdx
	movzbl	(%rdx), %edx
	testb	%dl, %dl
	je	.L504
	movq	%rax, %rdi
	call	__asan_report_load8@PLT
.L504:
	movq	-40(%rbp), %rax
	movq	(%rax), %rax
	addq	$80, %rax
	movq	%rax, %rdx
	movq	%rdx, %rcx
	shrq	$3, %rcx
	addq	$2147450880, %rcx
	movzbl	(%rcx), %ecx
	testb	%cl, %cl
	je	.L505
	movq	%rdx, %rdi
	call	__asan_report_load8@PLT
.L505:
	movq	(%rax), %rcx
	movl	-44(%rbp), %edx
	movq	-40(%rbp), %rax
	movl	%edx, %esi
	movq	%rax, %rdi
	call	*%rcx
.LVL53:
	movq	%rax, %rdx
	.loc 8 43 5
	movq	%rdx, %rax
	movq	%rax, %rcx
	shrq	$3, %rcx
	addq	$2147450880, %rcx
	movzbl	(%rcx), %ecx
	testb	%cl, %cl
	setne	%sil
	movq	%rax, %rdi
	andl	$7, %edi
	addl	$3, %edi
	cmpb	%cl, %dil
	setge	%cl
	andl	%esi, %ecx
	testb	%cl, %cl
	je	.L506
	movq	%rax, %rdi
	call	__asan_report_store4@PLT
.L506:
	movl	%ebx, (%rdx)
	.loc 8 44 1
	nop
	addq	$56, %rsp
	popq	%rbx
	popq	%rbp
	.cfi_def_cfa 7, 8
	ret
	.cfi_endproc
.LFE4646:
	.size	_ZN5GraphIicE3DFSEiRiRSt6vectorIiSaIiEE, .-_ZN5GraphIicE3DFSEiRiRSt6vectorIiSaIiEE
	.section	.text._ZNSt6vectorIiSaIiEE15_M_erase_at_endEPi,"axG",@progbits,_ZNSt6vectorIiSaIiEE15_M_erase_at_endEPi,comdat
	.align 2
	.weak	_ZNSt6vectorIiSaIiEE15_M_erase_at_endEPi
	.type	_ZNSt6vectorIiSaIiEE15_M_erase_at_endEPi, @function
_ZNSt6vectorIiSaIiEE15_M_erase_at_endEPi:
.LASANPC4647:
.LFB4647:
	.loc 4 1789 7
	.cfi_startproc
	.cfi_personality 0x9b,DW.ref.__gxx_personality_v0
	.cfi_lsda 0x1b,.LLSDA4647
	endbr64
	pushq	%rbp
	.cfi_def_cfa_offset 16
	.cfi_offset 6, -16
	movq	%rsp, %rbp
	.cfi_def_cfa_register 6
	subq	$32, %rsp
	movq	%rdi, -24(%rbp)
	movq	%rsi, -32(%rbp)
.LBB67:
	.loc 4 1791 36
	movq	-24(%rbp), %rax
	addq	$8, %rax
	movq	%rax, %rdx
	shrq	$3, %rdx
	addq	$2147450880, %rdx
	movzbl	(%rdx), %edx
	testb	%dl, %dl
	je	.L509
	movq	%rax, %rdi
	call	__asan_report_load8@PLT
.L509:
	movq	-24(%rbp), %rax
	movq	8(%rax), %rax
	.loc 4 1791 46
	subq	-32(%rbp), %rax
	sarq	$2, %rax
	.loc 4 1791 16
	movq	%rax, -8(%rbp)
	.loc 4 1791 2
	cmpq	$0, -8(%rbp)
	je	.L513
	.loc 4 1794 25
	movq	-24(%rbp), %rax
	movq	%rax, %rdi
	call	_ZNSt12_Vector_baseIiSaIiEE19_M_get_Tp_allocatorEv
	movq	%rax, %rsi
	.loc 4 1793 19
	movq	-24(%rbp), %rax
	addq	$8, %rax
	movq	%rax, %rdx
	shrq	$3, %rdx
	addq	$2147450880, %rdx
	movzbl	(%rdx), %edx
	testb	%dl, %dl
	je	.L511
	movq	%rax, %rdi
	call	__asan_report_load8@PLT
.L511:
	movq	-24(%rbp), %rax
	movq	8(%rax), %rcx
	movq	-32(%rbp), %rax
	movq	%rsi, %rdx
	movq	%rcx, %rsi
	movq	%rax, %rdi
	call	_ZSt8_DestroyIPiiEvT_S1_RSaIT0_E
	.loc 4 1795 6
	movq	-24(%rbp), %rax
	addq	$8, %rax
	movq	%rax, %rdx
	shrq	$3, %rdx
	addq	$2147450880, %rdx
	movzbl	(%rdx), %edx
	testb	%dl, %dl
	je	.L512
	movq	%rax, %rdi
	call	__asan_report_store8@PLT
.L512:
	movq	-24(%rbp), %rax
	movq	-32(%rbp), %rdx
	movq	%rdx, 8(%rax)
.L513:
.LBE67:
	.loc 4 1798 7
	nop
	leave
	.cfi_def_cfa 7, 8
	ret
	.cfi_endproc
.LFE4647:
	.section	.gcc_except_table
.LLSDA4647:
	.byte	0xff
	.byte	0xff
	.byte	0x1
	.uleb128 .LLSDACSE4647-.LLSDACSB4647
.LLSDACSB4647:
.LLSDACSE4647:
	.section	.text._ZNSt6vectorIiSaIiEE15_M_erase_at_endEPi,"axG",@progbits,_ZNSt6vectorIiSaIiEE15_M_erase_at_endEPi,comdat
	.size	_ZNSt6vectorIiSaIiEE15_M_erase_at_endEPi, .-_ZNSt6vectorIiSaIiEE15_M_erase_at_endEPi
	.section	.text._ZNSt6vectorI5VNodeIicESaIS1_EE5clearEv,"axG",@progbits,_ZNSt6vectorI5VNodeIicESaIS1_EE5clearEv,comdat
	.align 2
	.weak	_ZNSt6vectorI5VNodeIicESaIS1_EE5clearEv
	.type	_ZNSt6vectorI5VNodeIicESaIS1_EE5clearEv, @function
_ZNSt6vectorI5VNodeIicESaIS1_EE5clearEv:
.LASANPC4648:
.LFB4648:
	.loc 4 1495 7
	.cfi_startproc
	endbr64
	pushq	%rbp
	.cfi_def_cfa_offset 16
	.cfi_offset 6, -16
	movq	%rsp, %rbp
	.cfi_def_cfa_register 6
	subq	$16, %rsp
	movq	%rdi, -8(%rbp)
	.loc 4 1496 9
	movq	-8(%rbp), %rax
	movq	%rax, %rdx
	shrq	$3, %rdx
	addq	$2147450880, %rdx
	movzbl	(%rdx), %edx
	testb	%dl, %dl
	je	.L515
	movq	%rax, %rdi
	call	__asan_report_load8@PLT
.L515:
	movq	-8(%rbp), %rax
	movq	(%rax), %rdx
	movq	-8(%rbp), %rax
	movq	%rdx, %rsi
	movq	%rax, %rdi
	call	_ZNSt6vectorI5VNodeIicESaIS1_EE15_M_erase_at_endEPS1_
	.loc 4 1496 50
	nop
	leave
	.cfi_def_cfa 7, 8
	ret
	.cfi_endproc
.LFE4648:
	.size	_ZNSt6vectorI5VNodeIicESaIS1_EE5clearEv, .-_ZNSt6vectorI5VNodeIicESaIS1_EE5clearEv
	.section	.rodata
	.align 8
.LC40:
	.string	"3 32 1 9 <unknown> 48 1 14 prioUpdater:22 64 24 4 Q:28"
	.section	.text._ZN5GraphIicE3PFSIZNS0_8dijkstraEiRS0_EUlPS0_iiE_EEviT_S2_,"axG",@progbits,_ZN5GraphIicE3PFSIZNS0_8dijkstraEiRS0_EUlPS0_iiE_EEviT_S2_,comdat
	.align 2
	.weak	_ZN5GraphIicE3PFSIZNS0_8dijkstraEiRS0_EUlPS0_iiE_EEviT_S2_
	.type	_ZN5GraphIicE3PFSIZNS0_8dijkstraEiRS0_EUlPS0_iiE_EEviT_S2_, @function
_ZN5GraphIicE3PFSIZNS0_8dijkstraEiRS0_EUlPS0_iiE_EEviT_S2_:
.LASANPC4649:
.LFB4649:
	.file 17 "../src/GraphPfs.h"
	.loc 17 22 6
	.cfi_startproc
	.cfi_personality 0x9b,DW.ref.__gxx_personality_v0
	.cfi_lsda 0x1b,.LLSDA4649
	endbr64
	pushq	%rbp
	.cfi_def_cfa_offset 16
	.cfi_offset 6, -16
	movq	%rsp, %rbp
	.cfi_def_cfa_register 6
	pushq	%r15
	pushq	%r14
	pushq	%r13
	pushq	%r12
	pushq	%rbx
	subq	$216, %rsp
	.cfi_offset 15, -24
	.cfi_offset 14, -32
	.cfi_offset 13, -40
	.cfi_offset 12, -48
	.cfi_offset 3, -56
	movq	%rdi, -232(%rbp)
	movl	%esi, -236(%rbp)
	movq	%rdx, -248(%rbp)
	leaq	-208(%rbp), %r12
	movq	%r12, %r15
	cmpl	$0, __asan_option_detect_stack_use_after_return(%rip)
	je	.L516
	movl	$128, %edi
	call	__asan_stack_malloc_1@PLT
.LVL54:
	testq	%rax, %rax
	je	.L516
	movq	%rax, %r12
.L516:
	leaq	160(%r12), %rax
	movq	%rax, %rbx
	movq	$1102416563, (%r12)
	leaq	.LC40(%rip), %rax
	movq	%rax, 8(%r12)
	leaq	.LASANPC4649(%rip), %rax
	movq	%rax, 16(%r12)
	movq	%r12, %r13
	shrq	$3, %r13
	movl	$-235802127, 2147450880(%r13)
	movl	$-234753535, 2147450884(%r13)
	movl	$-218103808, 2147450888(%r13)
	movl	$-202116109, 2147450892(%r13)
	.loc 17 22 6
	movq	%fs:40, %rax
	movq	%rax, -56(%rbp)
	xorl	%eax, %eax
	.loc 17 22 35
	movzbl	16(%rbp), %eax
	movb	%al, -112(%rbx)
	.loc 17 25 17
	movq	-232(%rbp), %rax
	movq	%rax, %rdx
	shrq	$3, %rdx
	addq	$2147450880, %rdx
	movzbl	(%rdx), %edx
	testb	%dl, %dl
	je	.L520
	movq	%rax, %rdi
	call	__asan_report_load8@PLT
.L520:
	movq	-232(%rbp), %rax
	movq	(%rax), %rax
	addq	$96, %rax
	movq	%rax, %rdx
	movq	%rdx, %rcx
	shrq	$3, %rcx
	addq	$2147450880, %rcx
	movzbl	(%rcx), %ecx
	testb	%cl, %cl
	je	.L521
	movq	%rdx, %rdi
	call	__asan_report_load8@PLT
.L521:
	movq	(%rax), %rcx
	movl	-236(%rbp), %edx
	movq	-232(%rbp), %rax
	movl	%edx, %esi
	movq	%rax, %rdi
.LEHB19:
	call	*%rcx
.LVL55:
	movq	%rax, %rdx
	.loc 17 25 5
	movq	%rdx, %rax
	movq	%rax, %rcx
	shrq	$3, %rcx
	addq	$2147450880, %rcx
	movzbl	(%rcx), %ecx
	testb	%cl, %cl
	setne	%sil
	movq	%rax, %rdi
	andl	$7, %edi
	addl	$3, %edi
	cmpb	%cl, %dil
	setge	%cl
	andl	%esi, %ecx
	testb	%cl, %cl
	je	.L522
	movq	%rax, %rdi
	call	__asan_report_store4@PLT
.L522:
	.loc 17 25 5 is_stmt 0 discriminator 1
	movl	$0, (%rdx)
	.loc 17 27 15 is_stmt 1 discriminator 1
	movq	-232(%rbp), %rax
	movq	%rax, %rdx
	shrq	$3, %rdx
	addq	$2147450880, %rdx
	movzbl	(%rdx), %edx
	testb	%dl, %dl
	je	.L523
	.loc 17 27 15 is_stmt 0
	movq	%rax, %rdi
	call	__asan_report_load8@PLT
.L523:
	.loc 17 27 15 discriminator 1
	movq	-232(%rbp), %rax
	movq	(%rax), %rax
	addq	$88, %rax
	movq	%rax, %rdx
	movq	%rdx, %rcx
	shrq	$3, %rcx
	addq	$2147450880, %rcx
	movzbl	(%rcx), %ecx
	testb	%cl, %cl
	je	.L524
	.loc 17 27 15
	movq	%rdx, %rdi
	call	__asan_report_load8@PLT
.L524:
	.loc 17 27 15 discriminator 1
	movq	(%rax), %rcx
	movl	-236(%rbp), %edx
	movq	-232(%rbp), %rax
	movl	%edx, %esi
	movq	%rax, %rdi
	call	*%rcx
.LVL56:
	movq	%rax, %rdx
	.loc 17 27 5 is_stmt 1 discriminator 1
	movq	%rdx, %rax
	movq	%rax, %rcx
	shrq	$3, %rcx
	addq	$2147450880, %rcx
	movzbl	(%rcx), %ecx
	testb	%cl, %cl
	setne	%sil
	movq	%rax, %rdi
	andl	$7, %edi
	addl	$3, %edi
	cmpb	%cl, %dil
	setge	%cl
	andl	%esi, %ecx
	testb	%cl, %cl
	je	.L525
	.loc 17 27 5 is_stmt 0
	movq	%rax, %rdi
	call	__asan_report_store4@PLT
.L525:
	.loc 17 27 5 discriminator 1
	movl	$-1, (%rdx)
	.loc 17 28 16 is_stmt 1 discriminator 1
	movq	-232(%rbp), %rax
	addq	$8, %rax
	movq	%rax, %rdx
	movq	%rdx, %rax
	shrq	$3, %rax
	addq	$2147450880, %rax
	movzbl	(%rax), %eax
	testb	%al, %al
	setne	%cl
	cmpb	$3, %al
	setle	%al
	andl	%ecx, %eax
	testb	%al, %al
	je	.L526
	.loc 17 28 16 is_stmt 0
	movq	%rdx, %rdi
	call	__asan_report_load4@PLT
.L526:
	.loc 17 28 16 discriminator 1
	movq	-232(%rbp), %rax
	movl	8(%rax), %edx
	leaq	-96(%rbx), %rax
	movl	%edx, %esi
	movq	%rax, %rdi
	call	_ZN10IndexMinPQIiEC1Ei
.LEHE19:
	.loc 17 30 5 is_stmt 1 discriminator 1
	movq	-232(%rbp), %rax
	movq	%rax, %rdx
	shrq	$3, %rdx
	addq	$2147450880, %rdx
	movzbl	(%rdx), %edx
	testb	%dl, %dl
	je	.L527
	.loc 17 30 5 is_stmt 0
	movq	%rax, %rdi
	call	__asan_report_load8@PLT
.L527:
	movq	-232(%rbp), %rax
	movq	(%rax), %rax
	addq	$96, %rax
	movq	%rax, %rdx
	movq	%rdx, %rcx
	shrq	$3, %rcx
	addq	$2147450880, %rcx
	movzbl	(%rcx), %ecx
	testb	%cl, %cl
	je	.L528
	movq	%rdx, %rdi
	call	__asan_report_load8@PLT
.L528:
	movq	(%rax), %rcx
	movl	-236(%rbp), %edx
	movq	-232(%rbp), %rax
	movl	%edx, %esi
	movq	%rax, %rdi
.LEHB20:
	call	*%rcx
.LVL57:
	movq	%rax, %rdx
	movq	%rdx, %rax
	movq	%rax, %rcx
	shrq	$3, %rcx
	addq	$2147450880, %rcx
	movzbl	(%rcx), %ecx
	testb	%cl, %cl
	setne	%sil
	movq	%rax, %rdi
	andl	$7, %edi
	addl	$3, %edi
	cmpb	%cl, %dil
	setge	%cl
	andl	%esi, %ecx
	testb	%cl, %cl
	je	.L529
	movq	%rax, %rdi
	call	__asan_report_load4@PLT
.L529:
	.loc 17 30 5 discriminator 1
	movl	(%rdx), %edx
	movl	-236(%rbp), %ecx
	leaq	-96(%rbx), %rax
	movl	%ecx, %esi
	movq	%rax, %rdi
	call	_ZN10IndexMinPQIiE7enqueueEii
.L567:
	.loc 17 31 12 is_stmt 1
	leaq	-96(%rbx), %rax
	movq	%rax, %rdi
	call	_ZN10IndexMinPQIiE5emptyEv
	xorl	$1, %eax
	testb	%al, %al
	je	.L530
.LBB68:
	.loc 17 33 11
	leaq	-96(%rbx), %rax
	movq	%rax, %rdi
	call	_ZN10IndexMinPQIiE7dequeueEv
	movl	%eax, -236(%rbp)
.LBB69:
	.loc 17 36 18
	movq	-232(%rbp), %rax
	movq	%rax, %rdx
	shrq	$3, %rdx
	addq	$2147450880, %rdx
	movzbl	(%rdx), %edx
	testb	%dl, %dl
	je	.L531
	movq	%rax, %rdi
	call	__asan_report_load8@PLT
.L531:
	.loc 17 36 18 is_stmt 0 discriminator 1
	movq	-232(%rbp), %rax
	movq	(%rax), %rax
	addq	$48, %rax
	movq	%rax, %rdx
	movq	%rdx, %rcx
	shrq	$3, %rcx
	addq	$2147450880, %rcx
	movzbl	(%rcx), %ecx
	testb	%cl, %cl
	je	.L532
	.loc 17 36 18
	movq	%rdx, %rdi
	call	__asan_report_load8@PLT
.L532:
	.loc 17 36 18 discriminator 1
	movq	(%rax), %rcx
	movl	-236(%rbp), %edx
	movq	-232(%rbp), %rax
	movl	%edx, %esi
	movq	%rax, %rdi
	call	*%rcx
.LVL58:
	movl	%eax, -216(%rbp)
.L547:
	.loc 17 36 37 is_stmt 1 discriminator 4
	cmpl	$0, -216(%rbp)
	js	.L533
	.loc 17 37 27
	movq	-232(%rbp), %rax
	movq	%rax, %rdx
	shrq	$3, %rdx
	addq	$2147450880, %rdx
	movzbl	(%rdx), %edx
	testb	%dl, %dl
	je	.L534
	movq	%rax, %rdi
	call	__asan_report_load8@PLT
.L534:
	movq	-232(%rbp), %rax
	movq	(%rax), %rax
	addq	$64, %rax
	movq	%rax, %rdx
	movq	%rdx, %rcx
	shrq	$3, %rcx
	addq	$2147450880, %rcx
	movzbl	(%rcx), %ecx
	testb	%cl, %cl
	je	.L535
	movq	%rdx, %rdi
	call	__asan_report_load8@PLT
.L535:
	movq	(%rax), %rcx
	movl	-216(%rbp), %edx
	movq	-232(%rbp), %rax
	movl	%edx, %esi
	movq	%rax, %rdi
	call	*%rcx
.LVL59:
	movq	%rax, %rdx
	movq	%rdx, %rax
	movq	%rax, %rcx
	shrq	$3, %rcx
	addq	$2147450880, %rcx
	movzbl	(%rcx), %ecx
	testb	%cl, %cl
	setne	%sil
	movq	%rax, %rdi
	andl	$7, %edi
	addl	$3, %edi
	cmpb	%cl, %dil
	setge	%cl
	andl	%esi, %ecx
	testb	%cl, %cl
	je	.L536
	movq	%rax, %rdi
	call	__asan_report_load4@PLT
.L536:
	.loc 17 37 27 is_stmt 0 discriminator 1
	movl	(%rdx), %eax
	testl	%eax, %eax
	sete	%al
	.loc 17 37 13 is_stmt 1 discriminator 1
	testb	%al, %al
	je	.L537
	.loc 17 39 28
	movl	-216(%rbp), %ecx
	movl	-236(%rbp), %edx
	movq	-232(%rbp), %rsi
	leaq	-112(%rbx), %rax
	movq	%rax, %rdi
	call	_ZZN5GraphIicE8dijkstraEiRS0_ENKUlPS0_iiE_clES2_ii
	.loc 17 40 17
	movl	-216(%rbp), %edx
	leaq	-96(%rbx), %rax
	movl	%edx, %esi
	movq	%rax, %rdi
	call	_ZN10IndexMinPQIiE6existsEi
	testb	%al, %al
	je	.L538
	.loc 17 41 21
	movq	-232(%rbp), %rax
	movq	%rax, %rdx
	shrq	$3, %rdx
	addq	$2147450880, %rdx
	movzbl	(%rdx), %edx
	testb	%dl, %dl
	je	.L539
	movq	%rax, %rdi
	call	__asan_report_load8@PLT
.L539:
	movq	-232(%rbp), %rax
	movq	(%rax), %rax
	addq	$96, %rax
	movq	%rax, %rdx
	movq	%rdx, %rcx
	shrq	$3, %rcx
	addq	$2147450880, %rcx
	movzbl	(%rcx), %ecx
	testb	%cl, %cl
	je	.L540
	movq	%rdx, %rdi
	call	__asan_report_load8@PLT
.L540:
	movq	(%rax), %rcx
	movl	-216(%rbp), %edx
	movq	-232(%rbp), %rax
	movl	%edx, %esi
	movq	%rax, %rdi
	call	*%rcx
.LVL60:
	movq	%rax, %rdx
	movq	%rdx, %rax
	movq	%rax, %rcx
	shrq	$3, %rcx
	addq	$2147450880, %rcx
	movzbl	(%rcx), %ecx
	testb	%cl, %cl
	setne	%sil
	movq	%rax, %rdi
	andl	$7, %edi
	addl	$3, %edi
	cmpb	%cl, %dil
	setge	%cl
	andl	%esi, %ecx
	testb	%cl, %cl
	je	.L541
	movq	%rax, %rdi
	call	__asan_report_load4@PLT
.L541:
	.loc 17 41 21 is_stmt 0 discriminator 1
	movl	(%rdx), %edx
	movl	-216(%rbp), %ecx
	leaq	-96(%rbx), %rax
	movl	%ecx, %esi
	movq	%rax, %rdi
	call	_ZN10IndexMinPQIiE6changeEii
	.loc 17 41 21
	jmp	.L537
.L538:
	.loc 17 43 21 is_stmt 1
	movq	-232(%rbp), %rax
	movq	%rax, %rdx
	shrq	$3, %rdx
	addq	$2147450880, %rdx
	movzbl	(%rdx), %edx
	testb	%dl, %dl
	je	.L542
	movq	%rax, %rdi
	call	__asan_report_load8@PLT
.L542:
	movq	-232(%rbp), %rax
	movq	(%rax), %rax
	addq	$96, %rax
	movq	%rax, %rdx
	movq	%rdx, %rcx
	shrq	$3, %rcx
	addq	$2147450880, %rcx
	movzbl	(%rcx), %ecx
	testb	%cl, %cl
	je	.L543
	movq	%rdx, %rdi
	call	__asan_report_load8@PLT
.L543:
	movq	(%rax), %rcx
	movl	-216(%rbp), %edx
	movq	-232(%rbp), %rax
	movl	%edx, %esi
	movq	%rax, %rdi
	call	*%rcx
.LVL61:
	movq	%rax, %rdx
	movq	%rdx, %rax
	movq	%rax, %rcx
	shrq	$3, %rcx
	addq	$2147450880, %rcx
	movzbl	(%rcx), %ecx
	testb	%cl, %cl
	setne	%sil
	movq	%rax, %rdi
	andl	$7, %edi
	addl	$3, %edi
	cmpb	%cl, %dil
	setge	%cl
	andl	%esi, %ecx
	testb	%cl, %cl
	je	.L544
	movq	%rax, %rdi
	call	__asan_report_load4@PLT
.L544:
	.loc 17 43 21 is_stmt 0 discriminator 1
	movl	(%rdx), %edx
	movl	-216(%rbp), %ecx
	leaq	-96(%rbx), %rax
	movl	%ecx, %esi
	movq	%rax, %rdi
	call	_ZN10IndexMinPQIiE7enqueueEii
.L537:
	.loc 17 36 45 is_stmt 1
	movq	-232(%rbp), %rax
	movq	%rax, %rdx
	shrq	$3, %rdx
	addq	$2147450880, %rdx
	movzbl	(%rdx), %edx
	testb	%dl, %dl
	je	.L545
	movq	%rax, %rdi
	call	__asan_report_load8@PLT
.L545:
	movq	-232(%rbp), %rax
	movq	(%rax), %rax
	addq	$56, %rax
	movq	%rax, %rdx
	movq	%rdx, %rcx
	shrq	$3, %rcx
	addq	$2147450880, %rcx
	movzbl	(%rcx), %ecx
	testb	%cl, %cl
	je	.L546
	movq	%rdx, %rdi
	call	__asan_report_load8@PLT
.L546:
	movq	(%rax), %r8
	movl	-216(%rbp), %edx
	movl	-236(%rbp), %ecx
	movq	-232(%rbp), %rax
	movl	%ecx, %esi
	movq	%rax, %rdi
	call	*%r8
.LVL62:
	.loc 17 36 45 is_stmt 0 discriminator 3
	movl	%eax, -216(%rbp)
	.loc 17 36 9 is_stmt 1 discriminator 3
	jmp	.L547
.L533:
.LBE69:
	.loc 17 54 19
	movq	-232(%rbp), %rax
	movq	%rax, %rdx
	shrq	$3, %rdx
	addq	$2147450880, %rdx
	movzbl	(%rdx), %edx
	testb	%dl, %dl
	je	.L548
	movq	%rax, %rdi
	call	__asan_report_load8@PLT
.L548:
	movq	-232(%rbp), %rax
	movq	(%rax), %rax
	addq	$64, %rax
	movq	%rax, %rdx
	movq	%rdx, %rcx
	shrq	$3, %rcx
	addq	$2147450880, %rcx
	movzbl	(%rcx), %ecx
	testb	%cl, %cl
	je	.L549
	movq	%rdx, %rdi
	call	__asan_report_load8@PLT
.L549:
	movq	(%rax), %rcx
	movl	-236(%rbp), %edx
	movq	-232(%rbp), %rax
	movl	%edx, %esi
	movq	%rax, %rdi
	call	*%rcx
.LVL63:
	movq	%rax, %rdx
	.loc 17 54 9
	movq	%rdx, %rax
	movq	%rax, %rcx
	shrq	$3, %rcx
	addq	$2147450880, %rcx
	movzbl	(%rcx), %ecx
	testb	%cl, %cl
	setne	%sil
	movq	%rax, %rdi
	andl	$7, %edi
	addl	$3, %edi
	cmpb	%cl, %dil
	setge	%cl
	andl	%esi, %ecx
	testb	%cl, %cl
	je	.L550
	movq	%rax, %rdi
	call	__asan_report_store4@PLT
.L550:
	.loc 17 54 9 is_stmt 0 discriminator 1
	movl	$2, (%rdx)
	.loc 17 55 13 is_stmt 1 discriminator 1
	movq	-232(%rbp), %rax
	movq	%rax, %rdx
	shrq	$3, %rdx
	addq	$2147450880, %rdx
	movzbl	(%rdx), %edx
	testb	%dl, %dl
	je	.L551
	.loc 17 55 13 is_stmt 0
	movq	%rax, %rdi
	call	__asan_report_load8@PLT
.L551:
	.loc 17 55 13 discriminator 1
	movq	-232(%rbp), %rax
	movq	(%rax), %rax
	addq	$88, %rax
	movq	%rax, %rdx
	movq	%rdx, %rcx
	shrq	$3, %rcx
	addq	$2147450880, %rcx
	movzbl	(%rcx), %ecx
	testb	%cl, %cl
	je	.L552
	.loc 17 55 13
	movq	%rdx, %rdi
	call	__asan_report_load8@PLT
.L552:
	.loc 17 55 13 discriminator 1
	movq	(%rax), %rcx
	movl	-236(%rbp), %edx
	movq	-232(%rbp), %rax
	movl	%edx, %esi
	movq	%rax, %rdi
	call	*%rcx
.LVL64:
	movq	%rax, %rdx
	movq	%rdx, %rax
	movq	%rax, %rcx
	shrq	$3, %rcx
	addq	$2147450880, %rcx
	movzbl	(%rcx), %ecx
	testb	%cl, %cl
	setne	%sil
	movq	%rax, %rdi
	andl	$7, %edi
	addl	$3, %edi
	cmpb	%cl, %dil
	setge	%cl
	andl	%esi, %ecx
	testb	%cl, %cl
	je	.L553
	.loc 17 55 13
	movq	%rax, %rdi
	call	__asan_report_load4@PLT
.L553:
	.loc 17 55 13 discriminator 1
	movl	(%rdx), %eax
	movl	%eax, -212(%rbp)
	.loc 17 56 9 is_stmt 1 discriminator 1
	cmpl	$-1, -212(%rbp)
	je	.L567
	.loc 17 58 26
	movq	-232(%rbp), %rax
	movq	%rax, %rdx
	shrq	$3, %rdx
	addq	$2147450880, %rdx
	movzbl	(%rdx), %edx
	testb	%dl, %dl
	je	.L555
	movq	%rax, %rdi
	call	__asan_report_load8@PLT
.L555:
	movq	-232(%rbp), %rax
	movq	(%rax), %rax
	addq	$136, %rax
	movq	%rax, %rdx
	movq	%rdx, %rcx
	shrq	$3, %rcx
	addq	$2147450880, %rcx
	movzbl	(%rcx), %ecx
	testb	%cl, %cl
	je	.L556
	movq	%rdx, %rdi
	call	__asan_report_load8@PLT
.L556:
	movq	(%rax), %r8
	movl	-236(%rbp), %edx
	movl	-212(%rbp), %ecx
	movq	-232(%rbp), %rax
	movl	%ecx, %esi
	movq	%rax, %rdi
	call	*%r8
.LVL65:
.LEHE20:
	movq	%rax, %rdx
	.loc 17 58 13
	movq	%rdx, %rax
	movq	%rax, %rcx
	shrq	$3, %rcx
	addq	$2147450880, %rcx
	movzbl	(%rcx), %ecx
	testb	%cl, %cl
	setne	%sil
	movq	%rax, %rdi
	andl	$7, %edi
	addl	$3, %edi
	cmpb	%cl, %dil
	setge	%cl
	andl	%esi, %ecx
	testb	%cl, %cl
	je	.L557
	movq	%rax, %rdi
	call	__asan_report_store4@PLT
.L557:
	.loc 17 58 13 is_stmt 0 discriminator 1
	movl	$1, (%rdx)
	.loc 17 59 13 is_stmt 1 discriminator 1
	movq	-248(%rbp), %rax
	movq	%rax, %rdx
	shrq	$3, %rdx
	addq	$2147450880, %rdx
	movzbl	(%rdx), %edx
	testb	%dl, %dl
	je	.L558
	.loc 17 59 13 is_stmt 0
	movq	%rax, %rdi
	call	__asan_report_load8@PLT
.L558:
	.loc 17 59 13 discriminator 1
	movq	-248(%rbp), %rax
	movq	(%rax), %rax
	addq	$120, %rax
	movq	%rax, %rdx
	movq	%rdx, %rcx
	shrq	$3, %rcx
	addq	$2147450880, %rcx
	movzbl	(%rcx), %ecx
	testb	%cl, %cl
	je	.L559
	.loc 17 59 13
	movq	%rdx, %rdi
	call	__asan_report_load8@PLT
.L559:
	.loc 17 59 13 discriminator 1
	movq	(%rax), %r14
	leaq	-128(%rbx), %rax
	shrq	$3, %rax
	addq	$2147450880, %rax
	movb	$1, (%rax)
	.loc 17 59 55 is_stmt 1 discriminator 1
	leaq	-128(%rbx), %rax
	movq	%rax, %rdx
	movq	%rdx, %rax
	shrq	$3, %rax
	addq	$2147450880, %rax
	movzbl	(%rax), %eax
	testb	%al, %al
	setne	%cl
	testb	%al, %al
	setle	%al
	andl	%ecx, %eax
	testb	%al, %al
	je	.L560
	.loc 17 59 55 is_stmt 0
	movq	%rdx, %rdi
	call	__asan_report_store1@PLT
.L560:
	.loc 17 59 55 discriminator 1
	movb	$1, -128(%rbx)
	.loc 17 59 13 is_stmt 1 discriminator 1
	movq	-232(%rbp), %rax
	movq	%rax, %rdx
	shrq	$3, %rdx
	addq	$2147450880, %rdx
	movzbl	(%rdx), %edx
	testb	%dl, %dl
	je	.L561
	.loc 17 59 13 is_stmt 0
	movq	%rax, %rdi
	call	__asan_report_load8@PLT
.L561:
	.loc 17 59 13 discriminator 1
	movq	-232(%rbp), %rax
	movq	(%rax), %rax
	addq	$152, %rax
	movq	%rax, %rdx
	movq	%rdx, %rcx
	shrq	$3, %rcx
	addq	$2147450880, %rcx
	movzbl	(%rcx), %ecx
	testb	%cl, %cl
	je	.L562
	.loc 17 59 13
	movq	%rdx, %rdi
	call	__asan_report_load8@PLT
.L562:
	.loc 17 59 13 discriminator 1
	movq	(%rax), %r8
	movl	-236(%rbp), %edx
	movl	-212(%rbp), %ecx
	movq	-232(%rbp), %rax
	movl	%ecx, %esi
	movq	%rax, %rdi
.LEHB21:
	call	*%r8
.LVL66:
	movq	%rax, %rdx
	movq	%rdx, %rax
	movq	%rax, %rcx
	shrq	$3, %rcx
	addq	$2147450880, %rcx
	movzbl	(%rcx), %ecx
	testb	%cl, %cl
	setne	%sil
	movq	%rax, %rdi
	andl	$7, %edi
	addl	$3, %edi
	cmpb	%cl, %dil
	setge	%cl
	andl	%esi, %ecx
	testb	%cl, %cl
	je	.L563
	.loc 17 59 13
	movq	%rax, %rdi
	call	__asan_report_load4@PLT
.L563:
	.loc 17 59 13 discriminator 2
	movl	(%rdx), %ecx
	leaq	-128(%rbx), %rdi
	movl	-236(%rbp), %edx
	movl	-212(%rbp), %esi
	movq	-248(%rbp), %rax
	movq	%rdi, %r8
	movq	%rax, %rdi
	call	*%r14
.LVL67:
.LEHE21:
	.loc 17 59 55 is_stmt 1 discriminator 4
	leaq	-128(%rbx), %rax
	shrq	$3, %rax
	addq	$2147450880, %rax
	movb	$-8, (%rax)
	.loc 17 60 13 discriminator 4
	movl	-212(%rbp), %r14d
	.loc 17 60 30 discriminator 4
	movq	-248(%rbp), %rax
	movq	%rax, %rdx
	shrq	$3, %rdx
	addq	$2147450880, %rdx
	movzbl	(%rdx), %edx
	testb	%dl, %dl
	je	.L564
	.loc 17 60 30 is_stmt 0
	movq	%rax, %rdi
	call	__asan_report_load8@PLT
.L564:
	.loc 17 60 30 discriminator 4
	movq	-248(%rbp), %rax
	movq	(%rax), %rax
	addq	$88, %rax
	movq	%rax, %rdx
	movq	%rdx, %rcx
	shrq	$3, %rcx
	addq	$2147450880, %rcx
	movzbl	(%rcx), %ecx
	testb	%cl, %cl
	je	.L565
	.loc 17 60 30
	movq	%rdx, %rdi
	call	__asan_report_load8@PLT
.L565:
	.loc 17 60 30 discriminator 4
	movq	(%rax), %rcx
	movl	-236(%rbp), %edx
	movq	-248(%rbp), %rax
	movl	%edx, %esi
	movq	%rax, %rdi
.LEHB22:
	call	*%rcx
.LVL68:
.LEHE22:
	movq	%rax, %rdx
	.loc 17 60 13 is_stmt 1 discriminator 4
	movq	%rdx, %rax
	movq	%rax, %rcx
	shrq	$3, %rcx
	addq	$2147450880, %rcx
	movzbl	(%rcx), %ecx
	testb	%cl, %cl
	setne	%sil
	movq	%rax, %rdi
	andl	$7, %edi
	addl	$3, %edi
	cmpb	%cl, %dil
	setge	%cl
	andl	%esi, %ecx
	testb	%cl, %cl
	je	.L566
	.loc 17 60 13 is_stmt 0
	movq	%rax, %rdi
	call	__asan_report_store4@PLT
.L566:
	.loc 17 60 13 discriminator 1
	movl	%r14d, (%rdx)
.LBE68:
	.loc 17 31 5 is_stmt 1 discriminator 1
	jmp	.L567
.L530:
	.loc 17 28 16
	leaq	-96(%rbx), %rax
	movq	%rax, %rdi
	call	_ZN10IndexMinPQIiED1Ev
	.loc 17 63 1
	nop
	.loc 17 22 6
	cmpq	%r12, %r15
	je	.L517
	jmp	.L573
.L572:
	endbr64
.LBB70:
	.loc 17 59 55
	leaq	-128(%rbx), %rdx
	shrq	$3, %rdx
	addq	$2147450880, %rdx
	movb	$-8, (%rdx)
	movq	%rax, %r12
	jmp	.L569
.L571:
	endbr64
	movq	%rax, %r12
.L569:
.LBE70:
	.loc 17 28 16
	leaq	-96(%rbx), %rax
	movq	%rax, %rdi
	call	_ZN10IndexMinPQIiED1Ev
	movq	%r12, %rbx
	call	__asan_handle_no_return@PLT
	movq	%rbx, %rdi
.LEHB23:
	call	_Unwind_Resume@PLT
.LEHE23:
.L573:
	.loc 17 22 6
	movq	$1172321806, (%r12)
	movabsq	$-723401728380766731, %rax
	movabsq	$-723401728380766731, %rdx
	movq	%rax, 2147450880(%r13)
	movq	%rdx, 2147450888(%r13)
	movq	120(%r12), %rax
	movb	$0, (%rax)
	jmp	.L518
.L517:
	movq	$0, 2147450880(%r13)
	movq	$0, 2147450888(%r13)
.L518:
	.loc 17 63 1
	movq	-56(%rbp), %rax
	xorq	%fs:40, %rax
	je	.L570
	call	__stack_chk_fail@PLT
.L570:
	addq	$216, %rsp
	popq	%rbx
	popq	%r12
	popq	%r13
	popq	%r14
	popq	%r15
	popq	%rbp
	.cfi_def_cfa 7, 8
	ret
	.cfi_endproc
.LFE4649:
	.section	.gcc_except_table
.LLSDA4649:
	.byte	0xff
	.byte	0xff
	.byte	0x1
	.uleb128 .LLSDACSE4649-.LLSDACSB4649
.LLSDACSB4649:
	.uleb128 .LEHB19-.LFB4649
	.uleb128 .LEHE19-.LEHB19
	.uleb128 0
	.uleb128 0
	.uleb128 .LEHB20-.LFB4649
	.uleb128 .LEHE20-.LEHB20
	.uleb128 .L571-.LFB4649
	.uleb128 0
	.uleb128 .LEHB21-.LFB4649
	.uleb128 .LEHE21-.LEHB21
	.uleb128 .L572-.LFB4649
	.uleb128 0
	.uleb128 .LEHB22-.LFB4649
	.uleb128 .LEHE22-.LEHB22
	.uleb128 .L571-.LFB4649
	.uleb128 0
	.uleb128 .LEHB23-.LFB4649
	.uleb128 .LEHE23-.LEHB23
	.uleb128 0
	.uleb128 0
.LLSDACSE4649:
	.section	.text._ZN5GraphIicE3PFSIZNS0_8dijkstraEiRS0_EUlPS0_iiE_EEviT_S2_,"axG",@progbits,_ZN5GraphIicE3PFSIZNS0_8dijkstraEiRS0_EUlPS0_iiE_EEviT_S2_,comdat
	.size	_ZN5GraphIicE3PFSIZNS0_8dijkstraEiRS0_EUlPS0_iiE_EEviT_S2_, .-_ZN5GraphIicE3PFSIZNS0_8dijkstraEiRS0_EUlPS0_iiE_EEviT_S2_
	.section	.text._ZNSt6vectorIiSaIiEE12emplace_backIJRiEEES3_DpOT_,"axG",@progbits,_ZNSt6vectorIiSaIiEE12emplace_backIJRiEEES3_DpOT_,comdat
	.align 2
	.weak	_ZNSt6vectorIiSaIiEE12emplace_backIJRiEEES3_DpOT_
	.type	_ZNSt6vectorIiSaIiEE12emplace_backIJRiEEES3_DpOT_, @function
_ZNSt6vectorIiSaIiEE12emplace_backIJRiEEES3_DpOT_:
.LASANPC4650:
.LFB4650:
	.loc 16 109 7
	.cfi_startproc
	endbr64
	pushq	%rbp
	.cfi_def_cfa_offset 16
	.cfi_offset 6, -16
	movq	%rsp, %rbp
	.cfi_def_cfa_register 6
	pushq	%rbx
	subq	$24, %rsp
	.cfi_offset 3, -24
	movq	%rdi, -24(%rbp)
	movq	%rsi, -32(%rbp)
	.loc 16 112 20
	movq	-24(%rbp), %rax
	addq	$8, %rax
	movq	%rax, %rdx
	shrq	$3, %rdx
	addq	$2147450880, %rdx
	movzbl	(%rdx), %edx
	testb	%dl, %dl
	je	.L575
	movq	%rax, %rdi
	call	__asan_report_load8@PLT
.L575:
	movq	-24(%rbp), %rax
	movq	8(%rax), %rcx
	.loc 16 112 47
	movq	-24(%rbp), %rax
	addq	$16, %rax
	movq	%rax, %rdx
	shrq	$3, %rdx
	addq	$2147450880, %rdx
	movzbl	(%rdx), %edx
	testb	%dl, %dl
	je	.L576
	movq	%rax, %rdi
	call	__asan_report_load8@PLT
.L576:
	movq	-24(%rbp), %rax
	movq	16(%rax), %rax
	.loc 16 112 2
	cmpq	%rax, %rcx
	je	.L577
	.loc 16 115 30
	movq	-32(%rbp), %rax
	movq	%rax, %rdi
	call	_ZSt7forwardIRiEOT_RNSt16remove_referenceIS1_E4typeE
	movq	%rax, %rsi
	movq	-24(%rbp), %rax
	addq	$8, %rax
	movq	%rax, %rdx
	shrq	$3, %rdx
	addq	$2147450880, %rdx
	movzbl	(%rdx), %edx
	testb	%dl, %dl
	je	.L578
	movq	%rax, %rdi
	call	__asan_report_load8@PLT
.L578:
	movq	-24(%rbp), %rax
	movq	8(%rax), %rcx
	.loc 16 115 37
	movq	-24(%rbp), %rax
	.loc 16 115 30
	movq	%rsi, %rdx
	movq	%rcx, %rsi
	movq	%rax, %rdi
	call	_ZNSt16allocator_traitsISaIiEE9constructIiJRiEEEvRS0_PT_DpOT0_
	.loc 16 117 22
	movq	-24(%rbp), %rax
	addq	$8, %rax
	movq	%rax, %rdx
	shrq	$3, %rdx
	addq	$2147450880, %rdx
	movzbl	(%rdx), %edx
	testb	%dl, %dl
	je	.L579
	movq	%rax, %rdi
	call	__asan_report_load8@PLT
.L579:
	movq	-24(%rbp), %rax
	movq	8(%rax), %rax
	.loc 16 117 6
	leaq	4(%rax), %rdx
	movq	-24(%rbp), %rax
	movq	%rdx, 8(%rax)
	jmp	.L580
.L577:
	.loc 16 121 4
	movq	-32(%rbp), %rax
	movq	%rax, %rdi
	call	_ZSt7forwardIRiEOT_RNSt16remove_referenceIS1_E4typeE
	movq	%rax, %rbx
	movq	-24(%rbp), %rax
	movq	%rax, %rdi
	call	_ZNSt6vectorIiSaIiEE3endEv
	movq	%rax, %rcx
	movq	-24(%rbp), %rax
	movq	%rbx, %rdx
	movq	%rcx, %rsi
	movq	%rax, %rdi
	call	_ZNSt6vectorIiSaIiEE17_M_realloc_insertIJRiEEEvN9__gnu_cxx17__normal_iteratorIPiS1_EEDpOT_
.L580:
	.loc 16 123 14
	movq	-24(%rbp), %rax
	movq	%rax, %rdi
	call	_ZNSt6vectorIiSaIiEE4backEv
	.loc 16 125 7
	addq	$24, %rsp
	popq	%rbx
	popq	%rbp
	.cfi_def_cfa 7, 8
	ret
	.cfi_endproc
.LFE4650:
	.size	_ZNSt6vectorIiSaIiEE12emplace_backIJRiEEES3_DpOT_, .-_ZNSt6vectorIiSaIiEE12emplace_backIJRiEEES3_DpOT_
	.section	.text._ZSt4moveIRSt6vectorIiSaIiEEEONSt16remove_referenceIT_E4typeEOS5_,"axG",@progbits,_ZSt4moveIRSt6vectorIiSaIiEEEONSt16remove_referenceIT_E4typeEOS5_,comdat
	.weak	_ZSt4moveIRSt6vectorIiSaIiEEEONSt16remove_referenceIT_E4typeEOS5_
	.type	_ZSt4moveIRSt6vectorIiSaIiEEEONSt16remove_referenceIT_E4typeEOS5_, @function
_ZSt4moveIRSt6vectorIiSaIiEEEONSt16remove_referenceIT_E4typeEOS5_:
.LASANPC4654:
.LFB4654:
	.file 18 "/usr/include/c++/9/bits/move.h"
	.loc 18 99 5
	.cfi_startproc
	endbr64
	pushq	%rbp
	.cfi_def_cfa_offset 16
	.cfi_offset 6, -16
	movq	%rsp, %rbp
	.cfi_def_cfa_register 6
	movq	%rdi, -8(%rbp)
	.loc 18 100 74
	movq	-8(%rbp), %rax
	.loc 18 100 77
	popq	%rbp
	.cfi_def_cfa 7, 8
	ret
	.cfi_endproc
.LFE4654:
	.size	_ZSt4moveIRSt6vectorIiSaIiEEEONSt16remove_referenceIT_E4typeEOS5_, .-_ZSt4moveIRSt6vectorIiSaIiEEEONSt16remove_referenceIT_E4typeEOS5_
	.section	.rodata
	.align 8
.LC41:
	.string	"2 48 1 9 <unknown> 64 24 10 __tmp:1814"
	.section	.text._ZNSt6vectorIiSaIiEE14_M_move_assignEOS1_St17integral_constantIbLb1EE,"axG",@progbits,_ZNSt6vectorIiSaIiEE14_M_move_assignEOS1_St17integral_constantIbLb1EE,comdat
	.align 2
	.weak	_ZNSt6vectorIiSaIiEE14_M_move_assignEOS1_St17integral_constantIbLb1EE
	.type	_ZNSt6vectorIiSaIiEE14_M_move_assignEOS1_St17integral_constantIbLb1EE, @function
_ZNSt6vectorIiSaIiEE14_M_move_assignEOS1_St17integral_constantIbLb1EE:
.LASANPC4655:
.LFB4655:
	.loc 4 1812 7
	.cfi_startproc
	.cfi_personality 0x9b,DW.ref.__gxx_personality_v0
	.cfi_lsda 0x1b,.LLSDA4655
	endbr64
	pushq	%rbp
	.cfi_def_cfa_offset 16
	.cfi_offset 6, -16
	movq	%rsp, %rbp
	.cfi_def_cfa_register 6
	pushq	%r15
	pushq	%r14
	pushq	%r13
	pushq	%r12
	pushq	%rbx
	subq	$184, %rsp
	.cfi_offset 15, -24
	.cfi_offset 14, -32
	.cfi_offset 13, -40
	.cfi_offset 12, -48
	.cfi_offset 3, -56
	movq	%rdi, -216(%rbp)
	movq	%rsi, -224(%rbp)
	leaq	-208(%rbp), %rbx
	movq	%rbx, %r15
	cmpl	$0, __asan_option_detect_stack_use_after_return(%rip)
	je	.L584
	movl	$128, %edi
	call	__asan_stack_malloc_1@PLT
.LVL69:
	testq	%rax, %rax
	je	.L584
	movq	%rax, %rbx
.L584:
	leaq	160(%rbx), %rax
	movq	%rax, %r12
	movq	$1102416563, (%rbx)
	leaq	.LC41(%rip), %rax
	movq	%rax, 8(%rbx)
	leaq	.LASANPC4655(%rip), %rax
	movq	%rax, 16(%rbx)
	movq	%rbx, %r13
	shrq	$3, %r13
	movl	$-235802127, 2147450880(%r13)
	movl	$-234753551, 2147450884(%r13)
	movl	$-218103808, 2147450888(%r13)
	movl	$-202116109, 2147450892(%r13)
	.loc 4 1812 7
	movq	%fs:40, %rax
	movq	%rax, -56(%rbp)
	xorl	%eax, %eax
	.loc 4 1814 9
	movq	-216(%rbp), %rdx
	leaq	-112(%r12), %rax
	movq	%rax, %rcx
	movq	%rcx, %rax
	shrq	$3, %rax
	addq	$2147450880, %rax
	movzbl	(%rax), %eax
	testb	%al, %al
	setne	%sil
	testb	%al, %al
	setle	%al
	andl	%esi, %eax
	testb	%al, %al
	je	.L588
	movq	%rcx, %rdi
	call	__asan_report_store1@PLT
.L588:
	leaq	-112(%r12), %rax
	movq	%rdx, %rsi
	movq	%rax, %rdi
	call	_ZNKSt12_Vector_baseIiSaIiEE13get_allocatorEv
	leaq	-112(%r12), %rdx
	leaq	-96(%r12), %rax
	movq	%rdx, %rsi
	movq	%rax, %rdi
	call	_ZNSt6vectorIiSaIiEEC1ERKS0_
	leaq	-112(%r12), %rax
	movq	%rax, %rdi
	call	_ZNSaIiED1Ev
	leaq	-112(%r12), %rax
	shrq	$3, %rax
	addq	$2147450880, %rax
	movb	$-8, (%rax)
	.loc 4 1815 2
	movq	-216(%rbp), %rax
	movq	-224(%rbp), %rdx
	movq	%rdx, %rsi
	movq	%rax, %rdi
	call	_ZNSt12_Vector_baseIiSaIiEE17_Vector_impl_data12_M_swap_dataERS2_
	.loc 4 1816 2
	movq	-224(%rbp), %rdx
	leaq	-96(%r12), %rax
	movq	%rdx, %rsi
	movq	%rax, %rdi
	call	_ZNSt12_Vector_baseIiSaIiEE17_Vector_impl_data12_M_swap_dataERS2_
	.loc 4 1817 22
	movq	-224(%rbp), %rax
	movq	%rax, %rdi
	call	_ZNSt12_Vector_baseIiSaIiEE19_M_get_Tp_allocatorEv
	movq	%rax, %r14
	.loc 4 1817 42
	movq	-216(%rbp), %rax
	movq	%rax, %rdi
	call	_ZNSt12_Vector_baseIiSaIiEE19_M_get_Tp_allocatorEv
	.loc 4 1817 22
	movq	%r14, %rsi
	movq	%rax, %rdi
	call	_ZSt15__alloc_on_moveISaIiEEvRT_S2_
	.loc 4 1814 9
	leaq	-96(%r12), %rax
	movq	%rax, %rdi
	call	_ZNSt6vectorIiSaIiEED1Ev
	.loc 4 1818 7
	nop
	.loc 4 1812 7
	cmpq	%rbx, %r15
	je	.L585
	movq	$1172321806, (%rbx)
	movabsq	$-723401728380766731, %rax
	movabsq	$-723401728380766731, %rdx
	movq	%rax, 2147450880(%r13)
	movq	%rdx, 2147450888(%r13)
	movq	120(%rbx), %rax
	movb	$0, (%rax)
	jmp	.L586
.L585:
	movq	$0, 2147450880(%r13)
	movq	$0, 2147450888(%r13)
.L586:
	.loc 4 1818 7
	movq	-56(%rbp), %rax
	xorq	%fs:40, %rax
	je	.L589
	call	__stack_chk_fail@PLT
.L589:
	addq	$184, %rsp
	popq	%rbx
	popq	%r12
	popq	%r13
	popq	%r14
	popq	%r15
	popq	%rbp
	.cfi_def_cfa 7, 8
	ret
	.cfi_endproc
.LFE4655:
	.section	.gcc_except_table
.LLSDA4655:
	.byte	0xff
	.byte	0xff
	.byte	0x1
	.uleb128 .LLSDACSE4655-.LLSDACSB4655
.LLSDACSB4655:
.LLSDACSE4655:
	.section	.text._ZNSt6vectorIiSaIiEE14_M_move_assignEOS1_St17integral_constantIbLb1EE,"axG",@progbits,_ZNSt6vectorIiSaIiEE14_M_move_assignEOS1_St17integral_constantIbLb1EE,comdat
	.size	_ZNSt6vectorIiSaIiEE14_M_move_assignEOS1_St17integral_constantIbLb1EE, .-_ZNSt6vectorIiSaIiEE14_M_move_assignEOS1_St17integral_constantIbLb1EE
	.section	.text._ZN5GraphIicE3PFSIZNS0_4primEiRS0_EUlPS0_iiE_EEviT_S2_,"axG",@progbits,_ZN5GraphIicE3PFSIZNS0_4primEiRS0_EUlPS0_iiE_EEviT_S2_,comdat
	.align 2
	.weak	_ZN5GraphIicE3PFSIZNS0_4primEiRS0_EUlPS0_iiE_EEviT_S2_
	.type	_ZN5GraphIicE3PFSIZNS0_4primEiRS0_EUlPS0_iiE_EEviT_S2_, @function
_ZN5GraphIicE3PFSIZNS0_4primEiRS0_EUlPS0_iiE_EEviT_S2_:
.LASANPC4656:
.LFB4656:
	.loc 17 22 6
	.cfi_startproc
	.cfi_personality 0x9b,DW.ref.__gxx_personality_v0
	.cfi_lsda 0x1b,.LLSDA4656
	endbr64
	pushq	%rbp
	.cfi_def_cfa_offset 16
	.cfi_offset 6, -16
	movq	%rsp, %rbp
	.cfi_def_cfa_register 6
	pushq	%r15
	pushq	%r14
	pushq	%r13
	pushq	%r12
	pushq	%rbx
	subq	$216, %rsp
	.cfi_offset 15, -24
	.cfi_offset 14, -32
	.cfi_offset 13, -40
	.cfi_offset 12, -48
	.cfi_offset 3, -56
	movq	%rdi, -232(%rbp)
	movl	%esi, -236(%rbp)
	movq	%rdx, -248(%rbp)
	leaq	-208(%rbp), %r12
	movq	%r12, %r15
	cmpl	$0, __asan_option_detect_stack_use_after_return(%rip)
	je	.L590
	movl	$128, %edi
	call	__asan_stack_malloc_1@PLT
.LVL70:
	testq	%rax, %rax
	je	.L590
	movq	%rax, %r12
.L590:
	leaq	160(%r12), %rax
	movq	%rax, %rbx
	movq	$1102416563, (%r12)
	leaq	.LC40(%rip), %rax
	movq	%rax, 8(%r12)
	leaq	.LASANPC4656(%rip), %rax
	movq	%rax, 16(%r12)
	movq	%r12, %r13
	shrq	$3, %r13
	movl	$-235802127, 2147450880(%r13)
	movl	$-234753535, 2147450884(%r13)
	movl	$-218103808, 2147450888(%r13)
	movl	$-202116109, 2147450892(%r13)
	.loc 17 22 6
	movq	%fs:40, %rax
	movq	%rax, -56(%rbp)
	xorl	%eax, %eax
	.loc 17 22 35
	movzbl	16(%rbp), %eax
	movb	%al, -112(%rbx)
	.loc 17 25 17
	movq	-232(%rbp), %rax
	movq	%rax, %rdx
	shrq	$3, %rdx
	addq	$2147450880, %rdx
	movzbl	(%rdx), %edx
	testb	%dl, %dl
	je	.L594
	movq	%rax, %rdi
	call	__asan_report_load8@PLT
.L594:
	movq	-232(%rbp), %rax
	movq	(%rax), %rax
	addq	$96, %rax
	movq	%rax, %rdx
	movq	%rdx, %rcx
	shrq	$3, %rcx
	addq	$2147450880, %rcx
	movzbl	(%rcx), %ecx
	testb	%cl, %cl
	je	.L595
	movq	%rdx, %rdi
	call	__asan_report_load8@PLT
.L595:
	movq	(%rax), %rcx
	movl	-236(%rbp), %edx
	movq	-232(%rbp), %rax
	movl	%edx, %esi
	movq	%rax, %rdi
.LEHB24:
	call	*%rcx
.LVL71:
	movq	%rax, %rdx
	.loc 17 25 5
	movq	%rdx, %rax
	movq	%rax, %rcx
	shrq	$3, %rcx
	addq	$2147450880, %rcx
	movzbl	(%rcx), %ecx
	testb	%cl, %cl
	setne	%sil
	movq	%rax, %rdi
	andl	$7, %edi
	addl	$3, %edi
	cmpb	%cl, %dil
	setge	%cl
	andl	%esi, %ecx
	testb	%cl, %cl
	je	.L596
	movq	%rax, %rdi
	call	__asan_report_store4@PLT
.L596:
	.loc 17 25 5 is_stmt 0 discriminator 1
	movl	$0, (%rdx)
	.loc 17 27 15 is_stmt 1 discriminator 1
	movq	-232(%rbp), %rax
	movq	%rax, %rdx
	shrq	$3, %rdx
	addq	$2147450880, %rdx
	movzbl	(%rdx), %edx
	testb	%dl, %dl
	je	.L597
	.loc 17 27 15 is_stmt 0
	movq	%rax, %rdi
	call	__asan_report_load8@PLT
.L597:
	.loc 17 27 15 discriminator 1
	movq	-232(%rbp), %rax
	movq	(%rax), %rax
	addq	$88, %rax
	movq	%rax, %rdx
	movq	%rdx, %rcx
	shrq	$3, %rcx
	addq	$2147450880, %rcx
	movzbl	(%rcx), %ecx
	testb	%cl, %cl
	je	.L598
	.loc 17 27 15
	movq	%rdx, %rdi
	call	__asan_report_load8@PLT
.L598:
	.loc 17 27 15 discriminator 1
	movq	(%rax), %rcx
	movl	-236(%rbp), %edx
	movq	-232(%rbp), %rax
	movl	%edx, %esi
	movq	%rax, %rdi
	call	*%rcx
.LVL72:
	movq	%rax, %rdx
	.loc 17 27 5 is_stmt 1 discriminator 1
	movq	%rdx, %rax
	movq	%rax, %rcx
	shrq	$3, %rcx
	addq	$2147450880, %rcx
	movzbl	(%rcx), %ecx
	testb	%cl, %cl
	setne	%sil
	movq	%rax, %rdi
	andl	$7, %edi
	addl	$3, %edi
	cmpb	%cl, %dil
	setge	%cl
	andl	%esi, %ecx
	testb	%cl, %cl
	je	.L599
	.loc 17 27 5 is_stmt 0
	movq	%rax, %rdi
	call	__asan_report_store4@PLT
.L599:
	.loc 17 27 5 discriminator 1
	movl	$-1, (%rdx)
	.loc 17 28 16 is_stmt 1 discriminator 1
	movq	-232(%rbp), %rax
	addq	$8, %rax
	movq	%rax, %rdx
	movq	%rdx, %rax
	shrq	$3, %rax
	addq	$2147450880, %rax
	movzbl	(%rax), %eax
	testb	%al, %al
	setne	%cl
	cmpb	$3, %al
	setle	%al
	andl	%ecx, %eax
	testb	%al, %al
	je	.L600
	.loc 17 28 16 is_stmt 0
	movq	%rdx, %rdi
	call	__asan_report_load4@PLT
.L600:
	.loc 17 28 16 discriminator 1
	movq	-232(%rbp), %rax
	movl	8(%rax), %edx
	leaq	-96(%rbx), %rax
	movl	%edx, %esi
	movq	%rax, %rdi
	call	_ZN10IndexMinPQIiEC1Ei
.LEHE24:
	.loc 17 30 5 is_stmt 1 discriminator 1
	movq	-232(%rbp), %rax
	movq	%rax, %rdx
	shrq	$3, %rdx
	addq	$2147450880, %rdx
	movzbl	(%rdx), %edx
	testb	%dl, %dl
	je	.L601
	.loc 17 30 5 is_stmt 0
	movq	%rax, %rdi
	call	__asan_report_load8@PLT
.L601:
	movq	-232(%rbp), %rax
	movq	(%rax), %rax
	addq	$96, %rax
	movq	%rax, %rdx
	movq	%rdx, %rcx
	shrq	$3, %rcx
	addq	$2147450880, %rcx
	movzbl	(%rcx), %ecx
	testb	%cl, %cl
	je	.L602
	movq	%rdx, %rdi
	call	__asan_report_load8@PLT
.L602:
	movq	(%rax), %rcx
	movl	-236(%rbp), %edx
	movq	-232(%rbp), %rax
	movl	%edx, %esi
	movq	%rax, %rdi
.LEHB25:
	call	*%rcx
.LVL73:
	movq	%rax, %rdx
	movq	%rdx, %rax
	movq	%rax, %rcx
	shrq	$3, %rcx
	addq	$2147450880, %rcx
	movzbl	(%rcx), %ecx
	testb	%cl, %cl
	setne	%sil
	movq	%rax, %rdi
	andl	$7, %edi
	addl	$3, %edi
	cmpb	%cl, %dil
	setge	%cl
	andl	%esi, %ecx
	testb	%cl, %cl
	je	.L603
	movq	%rax, %rdi
	call	__asan_report_load4@PLT
.L603:
	.loc 17 30 5 discriminator 1
	movl	(%rdx), %edx
	movl	-236(%rbp), %ecx
	leaq	-96(%rbx), %rax
	movl	%ecx, %esi
	movq	%rax, %rdi
	call	_ZN10IndexMinPQIiE7enqueueEii
.L641:
	.loc 17 31 12 is_stmt 1
	leaq	-96(%rbx), %rax
	movq	%rax, %rdi
	call	_ZN10IndexMinPQIiE5emptyEv
	xorl	$1, %eax
	testb	%al, %al
	je	.L604
.LBB71:
	.loc 17 33 11
	leaq	-96(%rbx), %rax
	movq	%rax, %rdi
	call	_ZN10IndexMinPQIiE7dequeueEv
	movl	%eax, -236(%rbp)
.LBB72:
	.loc 17 36 18
	movq	-232(%rbp), %rax
	movq	%rax, %rdx
	shrq	$3, %rdx
	addq	$2147450880, %rdx
	movzbl	(%rdx), %edx
	testb	%dl, %dl
	je	.L605
	movq	%rax, %rdi
	call	__asan_report_load8@PLT
.L605:
	.loc 17 36 18 is_stmt 0 discriminator 1
	movq	-232(%rbp), %rax
	movq	(%rax), %rax
	addq	$48, %rax
	movq	%rax, %rdx
	movq	%rdx, %rcx
	shrq	$3, %rcx
	addq	$2147450880, %rcx
	movzbl	(%rcx), %ecx
	testb	%cl, %cl
	je	.L606
	.loc 17 36 18
	movq	%rdx, %rdi
	call	__asan_report_load8@PLT
.L606:
	.loc 17 36 18 discriminator 1
	movq	(%rax), %rcx
	movl	-236(%rbp), %edx
	movq	-232(%rbp), %rax
	movl	%edx, %esi
	movq	%rax, %rdi
	call	*%rcx
.LVL74:
	movl	%eax, -216(%rbp)
.L621:
	.loc 17 36 37 is_stmt 1 discriminator 4
	cmpl	$0, -216(%rbp)
	js	.L607
	.loc 17 37 27
	movq	-232(%rbp), %rax
	movq	%rax, %rdx
	shrq	$3, %rdx
	addq	$2147450880, %rdx
	movzbl	(%rdx), %edx
	testb	%dl, %dl
	je	.L608
	movq	%rax, %rdi
	call	__asan_report_load8@PLT
.L608:
	movq	-232(%rbp), %rax
	movq	(%rax), %rax
	addq	$64, %rax
	movq	%rax, %rdx
	movq	%rdx, %rcx
	shrq	$3, %rcx
	addq	$2147450880, %rcx
	movzbl	(%rcx), %ecx
	testb	%cl, %cl
	je	.L609
	movq	%rdx, %rdi
	call	__asan_report_load8@PLT
.L609:
	movq	(%rax), %rcx
	movl	-216(%rbp), %edx
	movq	-232(%rbp), %rax
	movl	%edx, %esi
	movq	%rax, %rdi
	call	*%rcx
.LVL75:
	movq	%rax, %rdx
	movq	%rdx, %rax
	movq	%rax, %rcx
	shrq	$3, %rcx
	addq	$2147450880, %rcx
	movzbl	(%rcx), %ecx
	testb	%cl, %cl
	setne	%sil
	movq	%rax, %rdi
	andl	$7, %edi
	addl	$3, %edi
	cmpb	%cl, %dil
	setge	%cl
	andl	%esi, %ecx
	testb	%cl, %cl
	je	.L610
	movq	%rax, %rdi
	call	__asan_report_load4@PLT
.L610:
	.loc 17 37 27 is_stmt 0 discriminator 1
	movl	(%rdx), %eax
	testl	%eax, %eax
	sete	%al
	.loc 17 37 13 is_stmt 1 discriminator 1
	testb	%al, %al
	je	.L611
	.loc 17 39 28
	movl	-216(%rbp), %ecx
	movl	-236(%rbp), %edx
	movq	-232(%rbp), %rsi
	leaq	-112(%rbx), %rax
	movq	%rax, %rdi
	call	_ZZN5GraphIicE4primEiRS0_ENKUlPS0_iiE_clES2_ii
	.loc 17 40 17
	movl	-216(%rbp), %edx
	leaq	-96(%rbx), %rax
	movl	%edx, %esi
	movq	%rax, %rdi
	call	_ZN10IndexMinPQIiE6existsEi
	testb	%al, %al
	je	.L612
	.loc 17 41 21
	movq	-232(%rbp), %rax
	movq	%rax, %rdx
	shrq	$3, %rdx
	addq	$2147450880, %rdx
	movzbl	(%rdx), %edx
	testb	%dl, %dl
	je	.L613
	movq	%rax, %rdi
	call	__asan_report_load8@PLT
.L613:
	movq	-232(%rbp), %rax
	movq	(%rax), %rax
	addq	$96, %rax
	movq	%rax, %rdx
	movq	%rdx, %rcx
	shrq	$3, %rcx
	addq	$2147450880, %rcx
	movzbl	(%rcx), %ecx
	testb	%cl, %cl
	je	.L614
	movq	%rdx, %rdi
	call	__asan_report_load8@PLT
.L614:
	movq	(%rax), %rcx
	movl	-216(%rbp), %edx
	movq	-232(%rbp), %rax
	movl	%edx, %esi
	movq	%rax, %rdi
	call	*%rcx
.LVL76:
	movq	%rax, %rdx
	movq	%rdx, %rax
	movq	%rax, %rcx
	shrq	$3, %rcx
	addq	$2147450880, %rcx
	movzbl	(%rcx), %ecx
	testb	%cl, %cl
	setne	%sil
	movq	%rax, %rdi
	andl	$7, %edi
	addl	$3, %edi
	cmpb	%cl, %dil
	setge	%cl
	andl	%esi, %ecx
	testb	%cl, %cl
	je	.L615
	movq	%rax, %rdi
	call	__asan_report_load4@PLT
.L615:
	.loc 17 41 21 is_stmt 0 discriminator 1
	movl	(%rdx), %edx
	movl	-216(%rbp), %ecx
	leaq	-96(%rbx), %rax
	movl	%ecx, %esi
	movq	%rax, %rdi
	call	_ZN10IndexMinPQIiE6changeEii
	.loc 17 41 21
	jmp	.L611
.L612:
	.loc 17 43 21 is_stmt 1
	movq	-232(%rbp), %rax
	movq	%rax, %rdx
	shrq	$3, %rdx
	addq	$2147450880, %rdx
	movzbl	(%rdx), %edx
	testb	%dl, %dl
	je	.L616
	movq	%rax, %rdi
	call	__asan_report_load8@PLT
.L616:
	movq	-232(%rbp), %rax
	movq	(%rax), %rax
	addq	$96, %rax
	movq	%rax, %rdx
	movq	%rdx, %rcx
	shrq	$3, %rcx
	addq	$2147450880, %rcx
	movzbl	(%rcx), %ecx
	testb	%cl, %cl
	je	.L617
	movq	%rdx, %rdi
	call	__asan_report_load8@PLT
.L617:
	movq	(%rax), %rcx
	movl	-216(%rbp), %edx
	movq	-232(%rbp), %rax
	movl	%edx, %esi
	movq	%rax, %rdi
	call	*%rcx
.LVL77:
	movq	%rax, %rdx
	movq	%rdx, %rax
	movq	%rax, %rcx
	shrq	$3, %rcx
	addq	$2147450880, %rcx
	movzbl	(%rcx), %ecx
	testb	%cl, %cl
	setne	%sil
	movq	%rax, %rdi
	andl	$7, %edi
	addl	$3, %edi
	cmpb	%cl, %dil
	setge	%cl
	andl	%esi, %ecx
	testb	%cl, %cl
	je	.L618
	movq	%rax, %rdi
	call	__asan_report_load4@PLT
.L618:
	.loc 17 43 21 is_stmt 0 discriminator 1
	movl	(%rdx), %edx
	movl	-216(%rbp), %ecx
	leaq	-96(%rbx), %rax
	movl	%ecx, %esi
	movq	%rax, %rdi
	call	_ZN10IndexMinPQIiE7enqueueEii
.L611:
	.loc 17 36 45 is_stmt 1
	movq	-232(%rbp), %rax
	movq	%rax, %rdx
	shrq	$3, %rdx
	addq	$2147450880, %rdx
	movzbl	(%rdx), %edx
	testb	%dl, %dl
	je	.L619
	movq	%rax, %rdi
	call	__asan_report_load8@PLT
.L619:
	movq	-232(%rbp), %rax
	movq	(%rax), %rax
	addq	$56, %rax
	movq	%rax, %rdx
	movq	%rdx, %rcx
	shrq	$3, %rcx
	addq	$2147450880, %rcx
	movzbl	(%rcx), %ecx
	testb	%cl, %cl
	je	.L620
	movq	%rdx, %rdi
	call	__asan_report_load8@PLT
.L620:
	movq	(%rax), %r8
	movl	-216(%rbp), %edx
	movl	-236(%rbp), %ecx
	movq	-232(%rbp), %rax
	movl	%ecx, %esi
	movq	%rax, %rdi
	call	*%r8
.LVL78:
	.loc 17 36 45 is_stmt 0 discriminator 3
	movl	%eax, -216(%rbp)
	.loc 17 36 9 is_stmt 1 discriminator 3
	jmp	.L621
.L607:
.LBE72:
	.loc 17 54 19
	movq	-232(%rbp), %rax
	movq	%rax, %rdx
	shrq	$3, %rdx
	addq	$2147450880, %rdx
	movzbl	(%rdx), %edx
	testb	%dl, %dl
	je	.L622
	movq	%rax, %rdi
	call	__asan_report_load8@PLT
.L622:
	movq	-232(%rbp), %rax
	movq	(%rax), %rax
	addq	$64, %rax
	movq	%rax, %rdx
	movq	%rdx, %rcx
	shrq	$3, %rcx
	addq	$2147450880, %rcx
	movzbl	(%rcx), %ecx
	testb	%cl, %cl
	je	.L623
	movq	%rdx, %rdi
	call	__asan_report_load8@PLT
.L623:
	movq	(%rax), %rcx
	movl	-236(%rbp), %edx
	movq	-232(%rbp), %rax
	movl	%edx, %esi
	movq	%rax, %rdi
	call	*%rcx
.LVL79:
	movq	%rax, %rdx
	.loc 17 54 9
	movq	%rdx, %rax
	movq	%rax, %rcx
	shrq	$3, %rcx
	addq	$2147450880, %rcx
	movzbl	(%rcx), %ecx
	testb	%cl, %cl
	setne	%sil
	movq	%rax, %rdi
	andl	$7, %edi
	addl	$3, %edi
	cmpb	%cl, %dil
	setge	%cl
	andl	%esi, %ecx
	testb	%cl, %cl
	je	.L624
	movq	%rax, %rdi
	call	__asan_report_store4@PLT
.L624:
	.loc 17 54 9 is_stmt 0 discriminator 1
	movl	$2, (%rdx)
	.loc 17 55 13 is_stmt 1 discriminator 1
	movq	-232(%rbp), %rax
	movq	%rax, %rdx
	shrq	$3, %rdx
	addq	$2147450880, %rdx
	movzbl	(%rdx), %edx
	testb	%dl, %dl
	je	.L625
	.loc 17 55 13 is_stmt 0
	movq	%rax, %rdi
	call	__asan_report_load8@PLT
.L625:
	.loc 17 55 13 discriminator 1
	movq	-232(%rbp), %rax
	movq	(%rax), %rax
	addq	$88, %rax
	movq	%rax, %rdx
	movq	%rdx, %rcx
	shrq	$3, %rcx
	addq	$2147450880, %rcx
	movzbl	(%rcx), %ecx
	testb	%cl, %cl
	je	.L626
	.loc 17 55 13
	movq	%rdx, %rdi
	call	__asan_report_load8@PLT
.L626:
	.loc 17 55 13 discriminator 1
	movq	(%rax), %rcx
	movl	-236(%rbp), %edx
	movq	-232(%rbp), %rax
	movl	%edx, %esi
	movq	%rax, %rdi
	call	*%rcx
.LVL80:
	movq	%rax, %rdx
	movq	%rdx, %rax
	movq	%rax, %rcx
	shrq	$3, %rcx
	addq	$2147450880, %rcx
	movzbl	(%rcx), %ecx
	testb	%cl, %cl
	setne	%sil
	movq	%rax, %rdi
	andl	$7, %edi
	addl	$3, %edi
	cmpb	%cl, %dil
	setge	%cl
	andl	%esi, %ecx
	testb	%cl, %cl
	je	.L627
	.loc 17 55 13
	movq	%rax, %rdi
	call	__asan_report_load4@PLT
.L627:
	.loc 17 55 13 discriminator 1
	movl	(%rdx), %eax
	movl	%eax, -212(%rbp)
	.loc 17 56 9 is_stmt 1 discriminator 1
	cmpl	$-1, -212(%rbp)
	je	.L641
	.loc 17 58 26
	movq	-232(%rbp), %rax
	movq	%rax, %rdx
	shrq	$3, %rdx
	addq	$2147450880, %rdx
	movzbl	(%rdx), %edx
	testb	%dl, %dl
	je	.L629
	movq	%rax, %rdi
	call	__asan_report_load8@PLT
.L629:
	movq	-232(%rbp), %rax
	movq	(%rax), %rax
	addq	$136, %rax
	movq	%rax, %rdx
	movq	%rdx, %rcx
	shrq	$3, %rcx
	addq	$2147450880, %rcx
	movzbl	(%rcx), %ecx
	testb	%cl, %cl
	je	.L630
	movq	%rdx, %rdi
	call	__asan_report_load8@PLT
.L630:
	movq	(%rax), %r8
	movl	-236(%rbp), %edx
	movl	-212(%rbp), %ecx
	movq	-232(%rbp), %rax
	movl	%ecx, %esi
	movq	%rax, %rdi
	call	*%r8
.LVL81:
.LEHE25:
	movq	%rax, %rdx
	.loc 17 58 13
	movq	%rdx, %rax
	movq	%rax, %rcx
	shrq	$3, %rcx
	addq	$2147450880, %rcx
	movzbl	(%rcx), %ecx
	testb	%cl, %cl
	setne	%sil
	movq	%rax, %rdi
	andl	$7, %edi
	addl	$3, %edi
	cmpb	%cl, %dil
	setge	%cl
	andl	%esi, %ecx
	testb	%cl, %cl
	je	.L631
	movq	%rax, %rdi
	call	__asan_report_store4@PLT
.L631:
	.loc 17 58 13 is_stmt 0 discriminator 1
	movl	$1, (%rdx)
	.loc 17 59 13 is_stmt 1 discriminator 1
	movq	-248(%rbp), %rax
	movq	%rax, %rdx
	shrq	$3, %rdx
	addq	$2147450880, %rdx
	movzbl	(%rdx), %edx
	testb	%dl, %dl
	je	.L632
	.loc 17 59 13 is_stmt 0
	movq	%rax, %rdi
	call	__asan_report_load8@PLT
.L632:
	.loc 17 59 13 discriminator 1
	movq	-248(%rbp), %rax
	movq	(%rax), %rax
	addq	$120, %rax
	movq	%rax, %rdx
	movq	%rdx, %rcx
	shrq	$3, %rcx
	addq	$2147450880, %rcx
	movzbl	(%rcx), %ecx
	testb	%cl, %cl
	je	.L633
	.loc 17 59 13
	movq	%rdx, %rdi
	call	__asan_report_load8@PLT
.L633:
	.loc 17 59 13 discriminator 1
	movq	(%rax), %r14
	leaq	-128(%rbx), %rax
	shrq	$3, %rax
	addq	$2147450880, %rax
	movb	$1, (%rax)
	.loc 17 59 55 is_stmt 1 discriminator 1
	leaq	-128(%rbx), %rax
	movq	%rax, %rdx
	movq	%rdx, %rax
	shrq	$3, %rax
	addq	$2147450880, %rax
	movzbl	(%rax), %eax
	testb	%al, %al
	setne	%cl
	testb	%al, %al
	setle	%al
	andl	%ecx, %eax
	testb	%al, %al
	je	.L634
	.loc 17 59 55 is_stmt 0
	movq	%rdx, %rdi
	call	__asan_report_store1@PLT
.L634:
	.loc 17 59 55 discriminator 1
	movb	$1, -128(%rbx)
	.loc 17 59 13 is_stmt 1 discriminator 1
	movq	-232(%rbp), %rax
	movq	%rax, %rdx
	shrq	$3, %rdx
	addq	$2147450880, %rdx
	movzbl	(%rdx), %edx
	testb	%dl, %dl
	je	.L635
	.loc 17 59 13 is_stmt 0
	movq	%rax, %rdi
	call	__asan_report_load8@PLT
.L635:
	.loc 17 59 13 discriminator 1
	movq	-232(%rbp), %rax
	movq	(%rax), %rax
	addq	$152, %rax
	movq	%rax, %rdx
	movq	%rdx, %rcx
	shrq	$3, %rcx
	addq	$2147450880, %rcx
	movzbl	(%rcx), %ecx
	testb	%cl, %cl
	je	.L636
	.loc 17 59 13
	movq	%rdx, %rdi
	call	__asan_report_load8@PLT
.L636:
	.loc 17 59 13 discriminator 1
	movq	(%rax), %r8
	movl	-236(%rbp), %edx
	movl	-212(%rbp), %ecx
	movq	-232(%rbp), %rax
	movl	%ecx, %esi
	movq	%rax, %rdi
.LEHB26:
	call	*%r8
.LVL82:
	movq	%rax, %rdx
	movq	%rdx, %rax
	movq	%rax, %rcx
	shrq	$3, %rcx
	addq	$2147450880, %rcx
	movzbl	(%rcx), %ecx
	testb	%cl, %cl
	setne	%sil
	movq	%rax, %rdi
	andl	$7, %edi
	addl	$3, %edi
	cmpb	%cl, %dil
	setge	%cl
	andl	%esi, %ecx
	testb	%cl, %cl
	je	.L637
	.loc 17 59 13
	movq	%rax, %rdi
	call	__asan_report_load4@PLT
.L637:
	.loc 17 59 13 discriminator 2
	movl	(%rdx), %ecx
	leaq	-128(%rbx), %rdi
	movl	-236(%rbp), %edx
	movl	-212(%rbp), %esi
	movq	-248(%rbp), %rax
	movq	%rdi, %r8
	movq	%rax, %rdi
	call	*%r14
.LVL83:
.LEHE26:
	.loc 17 59 55 is_stmt 1 discriminator 4
	leaq	-128(%rbx), %rax
	shrq	$3, %rax
	addq	$2147450880, %rax
	movb	$-8, (%rax)
	.loc 17 60 13 discriminator 4
	movl	-212(%rbp), %r14d
	.loc 17 60 30 discriminator 4
	movq	-248(%rbp), %rax
	movq	%rax, %rdx
	shrq	$3, %rdx
	addq	$2147450880, %rdx
	movzbl	(%rdx), %edx
	testb	%dl, %dl
	je	.L638
	.loc 17 60 30 is_stmt 0
	movq	%rax, %rdi
	call	__asan_report_load8@PLT
.L638:
	.loc 17 60 30 discriminator 4
	movq	-248(%rbp), %rax
	movq	(%rax), %rax
	addq	$88, %rax
	movq	%rax, %rdx
	movq	%rdx, %rcx
	shrq	$3, %rcx
	addq	$2147450880, %rcx
	movzbl	(%rcx), %ecx
	testb	%cl, %cl
	je	.L639
	.loc 17 60 30
	movq	%rdx, %rdi
	call	__asan_report_load8@PLT
.L639:
	.loc 17 60 30 discriminator 4
	movq	(%rax), %rcx
	movl	-236(%rbp), %edx
	movq	-248(%rbp), %rax
	movl	%edx, %esi
	movq	%rax, %rdi
.LEHB27:
	call	*%rcx
.LVL84:
.LEHE27:
	movq	%rax, %rdx
	.loc 17 60 13 is_stmt 1 discriminator 4
	movq	%rdx, %rax
	movq	%rax, %rcx
	shrq	$3, %rcx
	addq	$2147450880, %rcx
	movzbl	(%rcx), %ecx
	testb	%cl, %cl
	setne	%sil
	movq	%rax, %rdi
	andl	$7, %edi
	addl	$3, %edi
	cmpb	%cl, %dil
	setge	%cl
	andl	%esi, %ecx
	testb	%cl, %cl
	je	.L640
	.loc 17 60 13 is_stmt 0
	movq	%rax, %rdi
	call	__asan_report_store4@PLT
.L640:
	.loc 17 60 13 discriminator 1
	movl	%r14d, (%rdx)
.LBE71:
	.loc 17 31 5 is_stmt 1 discriminator 1
	jmp	.L641
.L604:
	.loc 17 28 16
	leaq	-96(%rbx), %rax
	movq	%rax, %rdi
	call	_ZN10IndexMinPQIiED1Ev
	.loc 17 63 1
	nop
	.loc 17 22 6
	cmpq	%r12, %r15
	je	.L591
	jmp	.L647
.L646:
	endbr64
.LBB73:
	.loc 17 59 55
	leaq	-128(%rbx), %rdx
	shrq	$3, %rdx
	addq	$2147450880, %rdx
	movb	$-8, (%rdx)
	movq	%rax, %r12
	jmp	.L643
.L645:
	endbr64
	movq	%rax, %r12
.L643:
.LBE73:
	.loc 17 28 16
	leaq	-96(%rbx), %rax
	movq	%rax, %rdi
	call	_ZN10IndexMinPQIiED1Ev
	movq	%r12, %rbx
	call	__asan_handle_no_return@PLT
	movq	%rbx, %rdi
.LEHB28:
	call	_Unwind_Resume@PLT
.LEHE28:
.L647:
	.loc 17 22 6
	movq	$1172321806, (%r12)
	movabsq	$-723401728380766731, %rax
	movabsq	$-723401728380766731, %rdx
	movq	%rax, 2147450880(%r13)
	movq	%rdx, 2147450888(%r13)
	movq	120(%r12), %rax
	movb	$0, (%rax)
	jmp	.L592
.L591:
	movq	$0, 2147450880(%r13)
	movq	$0, 2147450888(%r13)
.L592:
	.loc 17 63 1
	movq	-56(%rbp), %rax
	xorq	%fs:40, %rax
	je	.L644
	call	__stack_chk_fail@PLT
.L644:
	addq	$216, %rsp
	popq	%rbx
	popq	%r12
	popq	%r13
	popq	%r14
	popq	%r15
	popq	%rbp
	.cfi_def_cfa 7, 8
	ret
	.cfi_endproc
.LFE4656:
	.section	.gcc_except_table
.LLSDA4656:
	.byte	0xff
	.byte	0xff
	.byte	0x1
	.uleb128 .LLSDACSE4656-.LLSDACSB4656
.LLSDACSB4656:
	.uleb128 .LEHB24-.LFB4656
	.uleb128 .LEHE24-.LEHB24
	.uleb128 0
	.uleb128 0
	.uleb128 .LEHB25-.LFB4656
	.uleb128 .LEHE25-.LEHB25
	.uleb128 .L645-.LFB4656
	.uleb128 0
	.uleb128 .LEHB26-.LFB4656
	.uleb128 .LEHE26-.LEHB26
	.uleb128 .L646-.LFB4656
	.uleb128 0
	.uleb128 .LEHB27-.LFB4656
	.uleb128 .LEHE27-.LEHB27
	.uleb128 .L645-.LFB4656
	.uleb128 0
	.uleb128 .LEHB28-.LFB4656
	.uleb128 .LEHE28-.LEHB28
	.uleb128 0
	.uleb128 0
.LLSDACSE4656:
	.section	.text._ZN5GraphIicE3PFSIZNS0_4primEiRS0_EUlPS0_iiE_EEviT_S2_,"axG",@progbits,_ZN5GraphIicE3PFSIZNS0_4primEiRS0_EUlPS0_iiE_EEviT_S2_,comdat
	.size	_ZN5GraphIicE3PFSIZNS0_4primEiRS0_EUlPS0_iiE_EEviT_S2_, .-_ZN5GraphIicE3PFSIZNS0_4primEiRS0_EUlPS0_iiE_EEviT_S2_
	.section	.text._ZNSt5stackIiSt5dequeIiSaIiEEEC2IS2_vEEv,"axG",@progbits,_ZNSt5stackIiSt5dequeIiSaIiEEEC5IS2_vEEv,comdat
	.align 2
	.weak	_ZNSt5stackIiSt5dequeIiSaIiEEEC2IS2_vEEv
	.type	_ZNSt5stackIiSt5dequeIiSaIiEEEC2IS2_vEEv, @function
_ZNSt5stackIiSt5dequeIiSaIiEEEC2IS2_vEEv:
.LASANPC4661:
.LFB4661:
	.loc 12 156 2
	.cfi_startproc
	endbr64
	pushq	%rbp
	.cfi_def_cfa_offset 16
	.cfi_offset 6, -16
	movq	%rsp, %rbp
	.cfi_def_cfa_register 6
	subq	$16, %rsp
	movq	%rdi, -8(%rbp)
.LBB74:
	.loc 12 157 6
	movq	-8(%rbp), %rax
	movq	%rax, %rdi
	call	_ZNSt5dequeIiSaIiEEC1Ev
.LBE74:
	.loc 12 157 10
	nop
	leave
	.cfi_def_cfa 7, 8
	ret
	.cfi_endproc
.LFE4661:
	.size	_ZNSt5stackIiSt5dequeIiSaIiEEEC2IS2_vEEv, .-_ZNSt5stackIiSt5dequeIiSaIiEEEC2IS2_vEEv
	.weak	_ZNSt5stackIiSt5dequeIiSaIiEEEC1IS2_vEEv
	.set	_ZNSt5stackIiSt5dequeIiSaIiEEEC1IS2_vEEv,_ZNSt5stackIiSt5dequeIiSaIiEEEC2IS2_vEEv
	.section	.rodata
	.align 8
.LC42:
	.string	"2 32 32 9 <unknown> 96 32 9 <unknown>"
	.section	.text._ZNSt5dequeIiSaIiEED2Ev,"axG",@progbits,_ZNSt5dequeIiSaIiEED5Ev,comdat
	.align 2
	.weak	_ZNSt5dequeIiSaIiEED2Ev
	.type	_ZNSt5dequeIiSaIiEED2Ev, @function
_ZNSt5dequeIiSaIiEED2Ev:
.LASANPC4664:
.LFB4664:
	.loc 2 1071 7
	.cfi_startproc
	.cfi_personality 0x9b,DW.ref.__gxx_personality_v0
	.cfi_lsda 0x1b,.LLSDA4664
	endbr64
	pushq	%rbp
	.cfi_def_cfa_offset 16
	.cfi_offset 6, -16
	movq	%rsp, %rbp
	.cfi_def_cfa_register 6
	pushq	%r15
	pushq	%r14
	pushq	%r13
	pushq	%r12
	pushq	%rbx
	subq	$216, %rsp
	.cfi_offset 15, -24
	.cfi_offset 14, -32
	.cfi_offset 13, -40
	.cfi_offset 12, -48
	.cfi_offset 3, -56
	movq	%rdi, -248(%rbp)
	leaq	-240(%rbp), %rbx
	movq	%rbx, %r15
	cmpl	$0, __asan_option_detect_stack_use_after_return(%rip)
	je	.L649
	movl	$160, %edi
	call	__asan_stack_malloc_2@PLT
.LVL85:
	testq	%rax, %rax
	je	.L649
	movq	%rax, %rbx
.L649:
	leaq	192(%rbx), %rax
	movq	%rax, %r12
	movq	$1102416563, (%rbx)
	leaq	.LC42(%rip), %rax
	movq	%rax, 8(%rbx)
	leaq	.LASANPC4664(%rip), %rax
	movq	%rax, 16(%rbx)
	movq	%rbx, %r13
	shrq	$3, %r13
	movl	$-235802127, 2147450880(%r13)
	movl	$-218959118, 2147450888(%r13)
	movl	$-202116109, 2147450896(%r13)
	.loc 2 1071 7
	movq	%fs:40, %rax
	movq	%rax, -56(%rbp)
	xorl	%eax, %eax
.LBB75:
	.loc 2 1072 60
	movq	-248(%rbp), %rax
	movq	%rax, %rdi
	call	_ZNSt11_Deque_baseIiSaIiEE19_M_get_Tp_allocatorEv
	movq	%rax, %r14
	.loc 2 1072 9
	leaq	-96(%r12), %rax
	movq	%rax, %rdx
	shrq	$3, %rdx
	addq	$2147450880, %rdx
	movzbl	(%rdx), %edx
	testb	%dl, %dl
	setne	%cl
	testb	%dl, %dl
	setle	%dl
	movl	%ecx, %edi
	andl	%edx, %edi
	movl	$32, %edx
	subq	$1, %rdx
	leaq	(%rax,%rdx), %rcx
	movq	%rcx, %rdx
	shrq	$3, %rdx
	addq	$2147450880, %rdx
	movzbl	(%rdx), %edx
	testb	%dl, %dl
	setne	%sil
	andl	$7, %ecx
	cmpb	%dl, %cl
	setge	%dl
	andl	%esi, %edx
	orl	%edi, %edx
	testb	%dl, %dl
	je	.L653
	movl	$32, %esi
	movq	%rax, %rdi
	call	__asan_report_store_n@PLT
.L653:
	leaq	-96(%r12), %rax
	movq	-248(%rbp), %rdx
	movq	%rdx, %rsi
	movq	%rax, %rdi
	call	_ZNSt5dequeIiSaIiEE3endEv
	leaq	-160(%r12), %rax
	movq	%rax, %rdx
	shrq	$3, %rdx
	addq	$2147450880, %rdx
	movzbl	(%rdx), %edx
	testb	%dl, %dl
	setne	%cl
	testb	%dl, %dl
	setle	%dl
	movl	%ecx, %edi
	andl	%edx, %edi
	movl	$32, %edx
	subq	$1, %rdx
	leaq	(%rax,%rdx), %rcx
	movq	%rcx, %rdx
	shrq	$3, %rdx
	addq	$2147450880, %rdx
	movzbl	(%rdx), %edx
	testb	%dl, %dl
	setne	%sil
	andl	$7, %ecx
	cmpb	%dl, %cl
	setge	%dl
	andl	%esi, %edx
	orl	%edi, %edx
	testb	%dl, %dl
	je	.L654
	movl	$32, %esi
	movq	%rax, %rdi
	call	__asan_report_store_n@PLT
.L654:
	leaq	-160(%r12), %rax
	movq	-248(%rbp), %rdx
	movq	%rdx, %rsi
	movq	%rax, %rdi
	call	_ZNSt5dequeIiSaIiEE5beginEv
	leaq	-96(%r12), %rdx
	leaq	-160(%r12), %rsi
	movq	-248(%rbp), %rax
	movq	%r14, %rcx
	movq	%rax, %rdi
	call	_ZNSt5dequeIiSaIiEE15_M_destroy_dataESt15_Deque_iteratorIiRiPiES5_RKS0_
	leaq	-160(%r12), %rax
	shrq	$3, %rax
	addq	$2147450880, %rax
	movl	$-117901064, (%rax)
	leaq	-96(%r12), %rax
	shrq	$3, %rax
	addq	$2147450880, %rax
	movl	$-117901064, (%rax)
	.loc 2 1072 65
	movq	-248(%rbp), %rax
	movq	%rax, %rdi
	call	_ZNSt11_Deque_baseIiSaIiEED2Ev
.LBE75:
	nop
	.loc 2 1071 7
	cmpq	%rbx, %r15
	je	.L650
	movq	$1172321806, (%rbx)
	movabsq	$-723401728380766731, %rax
	movabsq	$-723401728380766731, %rdx
	movq	%rax, 2147450880(%r13)
	movq	%rdx, 2147450888(%r13)
	movl	$-168430091, 2147450896(%r13)
	movq	248(%rbx), %rax
	movb	$0, (%rax)
	jmp	.L651
.L650:
	movq	$0, 2147450880(%r13)
	movq	$0, 2147450888(%r13)
	movl	$0, 2147450896(%r13)
.L651:
	.loc 2 1072 65
	movq	-56(%rbp), %rax
	xorq	%fs:40, %rax
	je	.L655
	call	__stack_chk_fail@PLT
.L655:
	addq	$216, %rsp
	popq	%rbx
	popq	%r12
	popq	%r13
	popq	%r14
	popq	%r15
	popq	%rbp
	.cfi_def_cfa 7, 8
	ret
	.cfi_endproc
.LFE4664:
	.section	.gcc_except_table
.LLSDA4664:
	.byte	0xff
	.byte	0xff
	.byte	0x1
	.uleb128 .LLSDACSE4664-.LLSDACSB4664
.LLSDACSB4664:
.LLSDACSE4664:
	.section	.text._ZNSt5dequeIiSaIiEED2Ev,"axG",@progbits,_ZNSt5dequeIiSaIiEED5Ev,comdat
	.size	_ZNSt5dequeIiSaIiEED2Ev, .-_ZNSt5dequeIiSaIiEED2Ev
	.weak	_ZNSt5dequeIiSaIiEED1Ev
	.set	_ZNSt5dequeIiSaIiEED1Ev,_ZNSt5dequeIiSaIiEED2Ev
	.section	.rodata
.LC43:
	.string	"1 32 4 4 v:31"
	.section	.text._ZN5GraphIicE3BCCEiRiRSt5stackIiSt5dequeIiSaIiEEE,"axG",@progbits,_ZN5GraphIicE3BCCEiRiRSt5stackIiSt5dequeIiSaIiEEE,comdat
	.align 2
	.weak	_ZN5GraphIicE3BCCEiRiRSt5stackIiSt5dequeIiSaIiEEE
	.type	_ZN5GraphIicE3BCCEiRiRSt5stackIiSt5dequeIiSaIiEEE, @function
_ZN5GraphIicE3BCCEiRiRSt5stackIiSt5dequeIiSaIiEEE:
.LASANPC4666:
.LFB4666:
	.loc 13 31 6
	.cfi_startproc
	endbr64
	pushq	%rbp
	.cfi_def_cfa_offset 16
	.cfi_offset 6, -16
	movq	%rsp, %rbp
	.cfi_def_cfa_register 6
	pushq	%r15
	pushq	%r14
	pushq	%r13
	pushq	%r12
	pushq	%rbx
	subq	$152, %rsp
	.cfi_offset 15, -24
	.cfi_offset 14, -32
	.cfi_offset 13, -40
	.cfi_offset 12, -48
	.cfi_offset 3, -56
	movq	%rdi, -168(%rbp)
	movl	%esi, -172(%rbp)
	movq	%rdx, -184(%rbp)
	movq	%rcx, -192(%rbp)
	leaq	-144(%rbp), %r12
	movq	%r12, %r15
	cmpl	$0, __asan_option_detect_stack_use_after_return(%rip)
	je	.L656
	movl	$64, %edi
	call	__asan_stack_malloc_0@PLT
.LVL86:
	testq	%rax, %rax
	je	.L656
	movq	%rax, %r12
.L656:
	leaq	96(%r12), %rax
	movq	%rax, %rbx
	movq	$1102416563, (%r12)
	leaq	.LC43(%rip), %rax
	movq	%rax, 8(%r12)
	leaq	.LASANPC4666(%rip), %rax
	movq	%rax, 16(%r12)
	movq	%r12, %r13
	shrq	$3, %r13
	movl	$-235802127, 2147450880(%r13)
	movl	$-202116348, 2147450884(%r13)
	.loc 13 31 6
	movq	%fs:40, %rax
	movq	%rax, -56(%rbp)
	xorl	%eax, %eax
	.loc 13 31 29
	movl	-172(%rbp), %eax
	movl	%eax, -64(%rbx)
	.loc 13 33 5
	movq	-184(%rbp), %rax
	movq	%rax, %rdx
	shrq	$3, %rdx
	addq	$2147450880, %rdx
	movzbl	(%rdx), %edx
	testb	%dl, %dl
	setne	%cl
	movq	%rax, %rsi
	andl	$7, %esi
	addl	$3, %esi
	cmpb	%dl, %sil
	setge	%dl
	andl	%ecx, %edx
	testb	%dl, %dl
	je	.L660
	movq	%rax, %rdi
	call	__asan_report_load4@PLT
.L660:
	movq	-184(%rbp), %rax
	movl	(%rax), %eax
	leal	1(%rax), %edx
	movq	-184(%rbp), %rax
	movl	%edx, (%rax)
	movq	-184(%rbp), %rax
	movl	(%rax), %r14d
	.loc 13 33 27
	movq	-168(%rbp), %rax
	movq	%rax, %rdx
	shrq	$3, %rdx
	addq	$2147450880, %rdx
	movzbl	(%rdx), %edx
	testb	%dl, %dl
	je	.L661
	movq	%rax, %rdi
	call	__asan_report_load8@PLT
.L661:
	movq	-168(%rbp), %rax
	movq	(%rax), %rax
	addq	$72, %rax
	movq	%rax, %rdx
	movq	%rdx, %rcx
	shrq	$3, %rcx
	addq	$2147450880, %rcx
	movzbl	(%rcx), %ecx
	testb	%cl, %cl
	je	.L662
	movq	%rdx, %rdi
	call	__asan_report_load8@PLT
.L662:
	movq	(%rax), %rcx
	movl	-64(%rbx), %edx
	movq	-168(%rbp), %rax
	movl	%edx, %esi
	movq	%rax, %rdi
	call	*%rcx
.LVL87:
	.loc 13 33 5
	movq	%rax, %rdx
	movq	%rdx, %rcx
	shrq	$3, %rcx
	addq	$2147450880, %rcx
	movzbl	(%rcx), %ecx
	testb	%cl, %cl
	setne	%sil
	movq	%rdx, %rdi
	andl	$7, %edi
	addl	$3, %edi
	cmpb	%cl, %dil
	setge	%cl
	andl	%esi, %ecx
	testb	%cl, %cl
	je	.L663
	movq	%rdx, %rdi
	call	__asan_report_store4@PLT
.L663:
	movl	%r14d, (%rax)
	movl	(%rax), %r14d
	.loc 13 33 16
	movq	-168(%rbp), %rax
	movq	%rax, %rdx
	shrq	$3, %rdx
	addq	$2147450880, %rdx
	movzbl	(%rdx), %edx
	testb	%dl, %dl
	je	.L664
	movq	%rax, %rdi
	call	__asan_report_load8@PLT
.L664:
	movq	-168(%rbp), %rax
	movq	(%rax), %rax
	addq	$80, %rax
	movq	%rax, %rdx
	movq	%rdx, %rcx
	shrq	$3, %rcx
	addq	$2147450880, %rcx
	movzbl	(%rcx), %ecx
	testb	%cl, %cl
	je	.L665
	movq	%rdx, %rdi
	call	__asan_report_load8@PLT
.L665:
	movq	(%rax), %rcx
	movl	-64(%rbx), %edx
	movq	-168(%rbp), %rax
	movl	%edx, %esi
	movq	%rax, %rdi
	call	*%rcx
.LVL88:
	movq	%rax, %rdx
	.loc 13 33 5
	movq	%rdx, %rax
	movq	%rax, %rcx
	shrq	$3, %rcx
	addq	$2147450880, %rcx
	movzbl	(%rcx), %ecx
	testb	%cl, %cl
	setne	%sil
	movq	%rax, %rdi
	andl	$7, %edi
	addl	$3, %edi
	cmpb	%cl, %dil
	setge	%cl
	andl	%esi, %ecx
	testb	%cl, %cl
	je	.L666
	movq	%rax, %rdi
	call	__asan_report_store4@PLT
.L666:
	movl	%r14d, (%rdx)
	.loc 13 34 15
	movq	-168(%rbp), %rax
	movq	%rax, %rdx
	shrq	$3, %rdx
	addq	$2147450880, %rdx
	movzbl	(%rdx), %edx
	testb	%dl, %dl
	je	.L667
	movq	%rax, %rdi
	call	__asan_report_load8@PLT
.L667:
	movq	-168(%rbp), %rax
	movq	(%rax), %rax
	addq	$64, %rax
	movq	%rax, %rdx
	movq	%rdx, %rcx
	shrq	$3, %rcx
	addq	$2147450880, %rcx
	movzbl	(%rcx), %ecx
	testb	%cl, %cl
	je	.L668
	movq	%rdx, %rdi
	call	__asan_report_load8@PLT
.L668:
	movq	(%rax), %rcx
	movl	-64(%rbx), %edx
	movq	-168(%rbp), %rax
	movl	%edx, %esi
	movq	%rax, %rdi
	call	*%rcx
.LVL89:
	movq	%rax, %rdx
	.loc 13 34 5
	movq	%rdx, %rax
	movq	%rax, %rcx
	shrq	$3, %rcx
	addq	$2147450880, %rcx
	movzbl	(%rcx), %ecx
	testb	%cl, %cl
	setne	%sil
	movq	%rax, %rdi
	andl	$7, %edi
	addl	$3, %edi
	cmpb	%cl, %dil
	setge	%cl
	andl	%esi, %ecx
	testb	%cl, %cl
	je	.L669
	movq	%rax, %rdi
	call	__asan_report_store4@PLT
.L669:
	movl	$1, (%rdx)
	.loc 13 35 11
	leaq	-64(%rbx), %rdx
	movq	-192(%rbp), %rax
	movq	%rdx, %rsi
	movq	%rax, %rdi
	call	_ZNSt5stackIiSt5dequeIiSaIiEEE4pushERKi
.LBB76:
	.loc 13 36 14
	movq	-168(%rbp), %rax
	movq	%rax, %rdx
	shrq	$3, %rdx
	addq	$2147450880, %rdx
	movzbl	(%rdx), %edx
	testb	%dl, %dl
	je	.L670
	movq	%rax, %rdi
	call	__asan_report_load8@PLT
.L670:
	movq	-168(%rbp), %rax
	movq	(%rax), %rax
	addq	$48, %rax
	movq	%rax, %rdx
	movq	%rdx, %rcx
	shrq	$3, %rcx
	addq	$2147450880, %rcx
	movzbl	(%rcx), %ecx
	testb	%cl, %cl
	je	.L671
	movq	%rdx, %rdi
	call	__asan_report_load8@PLT
.L671:
	movq	(%rax), %rcx
	movl	-64(%rbx), %edx
	movq	-168(%rbp), %rax
	movl	%edx, %esi
	movq	%rax, %rdi
	call	*%rcx
.LVL90:
	movl	%eax, -148(%rbp)
.L740:
	.loc 13 36 35 discriminator 1
	cmpl	$0, -148(%rbp)
	js	.L672
	.loc 13 37 9
	movq	-168(%rbp), %rax
	movq	%rax, %rdx
	shrq	$3, %rdx
	addq	$2147450880, %rdx
	movzbl	(%rdx), %edx
	testb	%dl, %dl
	je	.L673
	movq	%rax, %rdi
	call	__asan_report_load8@PLT
.L673:
	movq	-168(%rbp), %rax
	movq	(%rax), %rax
	addq	$64, %rax
	movq	%rax, %rdx
	movq	%rdx, %rcx
	shrq	$3, %rcx
	addq	$2147450880, %rcx
	movzbl	(%rcx), %ecx
	testb	%cl, %cl
	je	.L674
	movq	%rdx, %rdi
	call	__asan_report_load8@PLT
.L674:
	movq	(%rax), %rcx
	movl	-148(%rbp), %edx
	movq	-168(%rbp), %rax
	movl	%edx, %esi
	movq	%rax, %rdi
	call	*%rcx
.LVL91:
	movq	%rax, %rdx
	movq	%rdx, %rax
	movq	%rax, %rcx
	shrq	$3, %rcx
	addq	$2147450880, %rcx
	movzbl	(%rcx), %ecx
	testb	%cl, %cl
	setne	%sil
	movq	%rax, %rdi
	andl	$7, %edi
	addl	$3, %edi
	cmpb	%cl, %dil
	setge	%cl
	andl	%esi, %ecx
	testb	%cl, %cl
	je	.L675
	movq	%rax, %rdi
	call	__asan_report_load4@PLT
.L675:
	movl	(%rdx), %eax
	testl	%eax, %eax
	je	.L676
	cmpl	$1, %eax
	je	.L677
	jmp	.L745
.L676:
	.loc 13 40 13
	movl	-64(%rbx), %r14d
	.loc 13 40 23
	movq	-168(%rbp), %rax
	movq	%rax, %rdx
	shrq	$3, %rdx
	addq	$2147450880, %rdx
	movzbl	(%rdx), %edx
	testb	%dl, %dl
	je	.L679
	movq	%rax, %rdi
	call	__asan_report_load8@PLT
.L679:
	movq	-168(%rbp), %rax
	movq	(%rax), %rax
	addq	$88, %rax
	movq	%rax, %rdx
	movq	%rdx, %rcx
	shrq	$3, %rcx
	addq	$2147450880, %rcx
	movzbl	(%rcx), %ecx
	testb	%cl, %cl
	je	.L680
	movq	%rdx, %rdi
	call	__asan_report_load8@PLT
.L680:
	movq	(%rax), %rcx
	movl	-148(%rbp), %edx
	movq	-168(%rbp), %rax
	movl	%edx, %esi
	movq	%rax, %rdi
	call	*%rcx
.LVL92:
	movq	%rax, %rdx
	.loc 13 40 13
	movq	%rdx, %rax
	movq	%rax, %rcx
	shrq	$3, %rcx
	addq	$2147450880, %rcx
	movzbl	(%rcx), %ecx
	testb	%cl, %cl
	setne	%sil
	movq	%rax, %rdi
	andl	$7, %edi
	addl	$3, %edi
	cmpb	%cl, %dil
	setge	%cl
	andl	%esi, %ecx
	testb	%cl, %cl
	je	.L681
	movq	%rax, %rdi
	call	__asan_report_store4@PLT
.L681:
	movl	%r14d, (%rdx)
	.loc 13 41 24
	movq	-168(%rbp), %rax
	movq	%rax, %rdx
	shrq	$3, %rdx
	addq	$2147450880, %rdx
	movzbl	(%rdx), %edx
	testb	%dl, %dl
	je	.L682
	movq	%rax, %rdi
	call	__asan_report_load8@PLT
.L682:
	movq	-168(%rbp), %rax
	movq	(%rax), %rax
	addq	$136, %rax
	movq	%rax, %rdx
	movq	%rdx, %rcx
	shrq	$3, %rcx
	addq	$2147450880, %rcx
	movzbl	(%rcx), %ecx
	testb	%cl, %cl
	je	.L683
	movq	%rdx, %rdi
	call	__asan_report_load8@PLT
.L683:
	movq	(%rax), %r8
	movl	-64(%rbx), %ecx
	movl	-148(%rbp), %edx
	movq	-168(%rbp), %rax
	movl	%ecx, %esi
	movq	%rax, %rdi
	call	*%r8
.LVL93:
	movq	%rax, %rdx
	.loc 13 41 13
	movq	%rdx, %rax
	movq	%rax, %rcx
	shrq	$3, %rcx
	addq	$2147450880, %rcx
	movzbl	(%rcx), %ecx
	testb	%cl, %cl
	setne	%sil
	movq	%rax, %rdi
	andl	$7, %edi
	addl	$3, %edi
	cmpb	%cl, %dil
	setge	%cl
	andl	%esi, %ecx
	testb	%cl, %cl
	je	.L684
	movq	%rax, %rdi
	call	__asan_report_store4@PLT
.L684:
	movl	$1, (%rdx)
	.loc 13 42 13
	movq	-192(%rbp), %rcx
	movq	-184(%rbp), %rdx
	movl	-148(%rbp), %esi
	movq	-168(%rbp), %rax
	movq	%rax, %rdi
	call	_ZN5GraphIicE3BCCEiRiRSt5stackIiSt5dequeIiSaIiEEE
	.loc 13 43 28
	movq	-168(%rbp), %rax
	movq	%rax, %rdx
	shrq	$3, %rdx
	addq	$2147450880, %rdx
	movzbl	(%rdx), %edx
	testb	%dl, %dl
	je	.L685
	movq	%rax, %rdi
	call	__asan_report_load8@PLT
.L685:
	movq	-168(%rbp), %rax
	movq	(%rax), %rax
	addq	$80, %rax
	movq	%rax, %rdx
	movq	%rdx, %rcx
	shrq	$3, %rcx
	addq	$2147450880, %rcx
	movzbl	(%rcx), %ecx
	testb	%cl, %cl
	je	.L686
	movq	%rdx, %rdi
	call	__asan_report_load8@PLT
.L686:
	movq	(%rax), %rcx
	movl	-64(%rbx), %edx
	movq	-168(%rbp), %rax
	movl	%edx, %esi
	movq	%rax, %rdi
	call	*%rcx
.LVL94:
	movq	%rax, %rdx
	movq	%rdx, %rax
	movq	%rax, %rcx
	shrq	$3, %rcx
	addq	$2147450880, %rcx
	movzbl	(%rcx), %ecx
	testb	%cl, %cl
	setne	%sil
	movq	%rax, %rdi
	andl	$7, %edi
	addl	$3, %edi
	cmpb	%cl, %dil
	setge	%cl
	andl	%esi, %ecx
	testb	%cl, %cl
	je	.L687
	movq	%rax, %rdi
	call	__asan_report_load4@PLT
.L687:
	movl	(%rdx), %r14d
	movq	-168(%rbp), %rax
	movq	%rax, %rdx
	shrq	$3, %rdx
	addq	$2147450880, %rdx
	movzbl	(%rdx), %edx
	testb	%dl, %dl
	je	.L688
	movq	%rax, %rdi
	call	__asan_report_load8@PLT
.L688:
	movq	-168(%rbp), %rax
	movq	(%rax), %rax
	addq	$80, %rax
	movq	%rax, %rdx
	movq	%rdx, %rcx
	shrq	$3, %rcx
	addq	$2147450880, %rcx
	movzbl	(%rcx), %ecx
	testb	%cl, %cl
	je	.L689
	movq	%rdx, %rdi
	call	__asan_report_load8@PLT
.L689:
	movq	(%rax), %rcx
	movl	-148(%rbp), %edx
	movq	-168(%rbp), %rax
	movl	%edx, %esi
	movq	%rax, %rdi
	call	*%rcx
.LVL95:
	movq	%rax, %rdx
	movq	%rdx, %rax
	movq	%rax, %rcx
	shrq	$3, %rcx
	addq	$2147450880, %rcx
	movzbl	(%rcx), %ecx
	testb	%cl, %cl
	setne	%sil
	movq	%rax, %rdi
	andl	$7, %edi
	addl	$3, %edi
	cmpb	%cl, %dil
	setge	%cl
	andl	%esi, %ecx
	testb	%cl, %cl
	je	.L690
	movq	%rax, %rdi
	call	__asan_report_load4@PLT
.L690:
	movl	(%rdx), %eax
	cmpl	%eax, %r14d
	setg	%al
	.loc 13 43 13
	testb	%al, %al
	je	.L691
	.loc 13 44 38
	movq	-168(%rbp), %rax
	movq	%rax, %rdx
	shrq	$3, %rdx
	addq	$2147450880, %rdx
	movzbl	(%rdx), %edx
	testb	%dl, %dl
	je	.L692
	movq	%rax, %rdi
	call	__asan_report_load8@PLT
.L692:
	movq	-168(%rbp), %rax
	movq	(%rax), %rax
	addq	$80, %rax
	movq	%rax, %rdx
	movq	%rdx, %rcx
	shrq	$3, %rcx
	addq	$2147450880, %rcx
	movzbl	(%rcx), %ecx
	testb	%cl, %cl
	je	.L693
	movq	%rdx, %rdi
	call	__asan_report_load8@PLT
.L693:
	movq	(%rax), %rcx
	movl	-148(%rbp), %edx
	movq	-168(%rbp), %rax
	movl	%edx, %esi
	movq	%rax, %rdi
	call	*%rcx
.LVL96:
	movq	%rax, %r14
	movq	-168(%rbp), %rax
	movq	%rax, %rdx
	shrq	$3, %rdx
	addq	$2147450880, %rdx
	movzbl	(%rdx), %edx
	testb	%dl, %dl
	je	.L694
	movq	%rax, %rdi
	call	__asan_report_load8@PLT
.L694:
	movq	-168(%rbp), %rax
	movq	(%rax), %rax
	addq	$80, %rax
	movq	%rax, %rdx
	movq	%rdx, %rcx
	shrq	$3, %rcx
	addq	$2147450880, %rcx
	movzbl	(%rcx), %ecx
	testb	%cl, %cl
	je	.L695
	movq	%rdx, %rdi
	call	__asan_report_load8@PLT
.L695:
	movq	(%rax), %rcx
	movl	-64(%rbx), %edx
	movq	-168(%rbp), %rax
	movl	%edx, %esi
	movq	%rax, %rdi
	call	*%rcx
.LVL97:
	movq	%r14, %rsi
	movq	%rax, %rdi
	call	_ZSt3minIiERKT_S2_S2_
	movq	%rax, %rdx
	.loc 13 44 17
	movq	%rdx, %rax
	movq	%rax, %rcx
	shrq	$3, %rcx
	addq	$2147450880, %rcx
	movzbl	(%rcx), %ecx
	testb	%cl, %cl
	setne	%sil
	movq	%rax, %rdi
	andl	$7, %edi
	addl	$3, %edi
	cmpb	%cl, %dil
	setge	%cl
	andl	%esi, %ecx
	testb	%cl, %cl
	je	.L696
	movq	%rax, %rdi
	call	__asan_report_load4@PLT
.L696:
	movl	(%rdx), %r14d
	.loc 13 44 28
	movq	-168(%rbp), %rax
	movq	%rax, %rdx
	shrq	$3, %rdx
	addq	$2147450880, %rdx
	movzbl	(%rdx), %edx
	testb	%dl, %dl
	je	.L697
	movq	%rax, %rdi
	call	__asan_report_load8@PLT
.L697:
	movq	-168(%rbp), %rax
	movq	(%rax), %rax
	addq	$80, %rax
	movq	%rax, %rdx
	movq	%rdx, %rcx
	shrq	$3, %rcx
	addq	$2147450880, %rcx
	movzbl	(%rcx), %ecx
	testb	%cl, %cl
	je	.L698
	movq	%rdx, %rdi
	call	__asan_report_load8@PLT
.L698:
	movq	(%rax), %rcx
	movl	-64(%rbx), %edx
	movq	-168(%rbp), %rax
	movl	%edx, %esi
	movq	%rax, %rdi
	call	*%rcx
.LVL98:
	movq	%rax, %rdx
	.loc 13 44 17
	movq	%rdx, %rax
	movq	%rax, %rcx
	shrq	$3, %rcx
	addq	$2147450880, %rcx
	movzbl	(%rcx), %ecx
	testb	%cl, %cl
	setne	%sil
	movq	%rax, %rdi
	andl	$7, %edi
	addl	$3, %edi
	cmpb	%cl, %dil
	setge	%cl
	andl	%esi, %ecx
	testb	%cl, %cl
	je	.L699
	movq	%rax, %rdi
	call	__asan_report_store4@PLT
.L699:
	movl	%r14d, (%rdx)
	.loc 13 56 13
	jmp	.L715
.L691:
	.loc 13 47 22
	movq	-168(%rbp), %rax
	movq	%rax, %rdx
	shrq	$3, %rdx
	addq	$2147450880, %rdx
	movzbl	(%rdx), %edx
	testb	%dl, %dl
	je	.L701
	movq	%rax, %rdi
	call	__asan_report_load8@PLT
.L701:
	movq	-168(%rbp), %rax
	movq	(%rax), %rax
	addq	$24, %rax
	movq	%rax, %rdx
	movq	%rdx, %rcx
	shrq	$3, %rcx
	addq	$2147450880, %rcx
	movzbl	(%rcx), %ecx
	testb	%cl, %cl
	je	.L702
	movq	%rdx, %rdi
	call	__asan_report_load8@PLT
.L702:
	movq	(%rax), %rcx
	movl	-64(%rbx), %edx
	movq	-168(%rbp), %rax
	movl	%edx, %esi
	movq	%rax, %rdi
	call	*%rcx
.LVL99:
	movq	%rax, %rdx
	.loc 13 47 34
	movq	%rdx, %rax
	movq	%rax, %rcx
	shrq	$3, %rcx
	addq	$2147450880, %rcx
	movzbl	(%rcx), %ecx
	testb	%cl, %cl
	setne	%sil
	movq	%rax, %rdi
	andl	$7, %edi
	addl	$3, %edi
	cmpb	%cl, %dil
	setge	%cl
	andl	%esi, %ecx
	testb	%cl, %cl
	je	.L703
	movq	%rax, %rdi
	call	__asan_report_load4@PLT
.L703:
	movl	(%rdx), %eax
	movl	%eax, %esi
	leaq	_ZSt4cout(%rip), %rdi
	call	_ZNSolsEi@PLT
	movl	$32, %esi
	movq	%rax, %rdi
	call	_ZStlsISt11char_traitsIcEERSt13basic_ostreamIcT_ES5_c@PLT
.L710:
	.loc 13 48 29
	movq	-192(%rbp), %rax
	movq	%rax, %rdi
	call	_ZNSt5stackIiSt5dequeIiSaIiEEE3topEv
	movq	%rax, %rdx
	.loc 13 48 32
	movq	%rdx, %rax
	movq	%rax, %rcx
	shrq	$3, %rcx
	addq	$2147450880, %rcx
	movzbl	(%rcx), %ecx
	testb	%cl, %cl
	setne	%sil
	movq	%rax, %rdi
	andl	$7, %edi
	addl	$3, %edi
	cmpb	%cl, %dil
	setge	%cl
	andl	%esi, %ecx
	testb	%cl, %cl
	je	.L704
	movq	%rax, %rdi
	call	__asan_report_load4@PLT
.L704:
	movl	(%rdx), %eax
	cmpl	%eax, -148(%rbp)
	setne	%al
	testb	%al, %al
	je	.L705
	.loc 13 50 26
	movq	-168(%rbp), %rax
	movq	%rax, %rdx
	shrq	$3, %rdx
	addq	$2147450880, %rdx
	movzbl	(%rdx), %edx
	testb	%dl, %dl
	je	.L706
	movq	%rax, %rdi
	call	__asan_report_load8@PLT
.L706:
	movq	-168(%rbp), %rax
	movq	(%rax), %rax
	addq	$24, %rax
	movq	%rax, %rdx
	movq	%rdx, %rcx
	shrq	$3, %rcx
	addq	$2147450880, %rcx
	movzbl	(%rcx), %ecx
	testb	%cl, %cl
	je	.L707
	movq	%rdx, %rdi
	call	__asan_report_load8@PLT
.L707:
	movq	(%rax), %r14
	.loc 13 50 41
	movq	-192(%rbp), %rax
	movq	%rax, %rdi
	call	_ZNSt5stackIiSt5dequeIiSaIiEEE3topEv
	movq	%rax, %rdx
	.loc 13 50 26
	movq	%rdx, %rax
	movq	%rax, %rcx
	shrq	$3, %rcx
	addq	$2147450880, %rcx
	movzbl	(%rcx), %ecx
	testb	%cl, %cl
	setne	%sil
	movq	%rax, %rdi
	andl	$7, %edi
	addl	$3, %edi
	cmpb	%cl, %dil
	setge	%cl
	andl	%esi, %ecx
	testb	%cl, %cl
	je	.L708
	movq	%rax, %rdi
	call	__asan_report_load4@PLT
.L708:
	movl	(%rdx), %edx
	movq	-168(%rbp), %rax
	movl	%edx, %esi
	movq	%rax, %rdi
	call	*%r14
.LVL100:
	movq	%rax, %rdx
	.loc 13 50 44
	movq	%rdx, %rax
	movq	%rax, %rcx
	shrq	$3, %rcx
	addq	$2147450880, %rcx
	movzbl	(%rcx), %ecx
	testb	%cl, %cl
	setne	%sil
	movq	%rax, %rdi
	andl	$7, %edi
	addl	$3, %edi
	cmpb	%cl, %dil
	setge	%cl
	andl	%esi, %ecx
	testb	%cl, %cl
	je	.L709
	movq	%rax, %rdi
	call	__asan_report_load4@PLT
.L709:
	movl	(%rdx), %eax
	movl	%eax, %esi
	leaq	_ZSt4cout(%rip), %rdi
	call	_ZNSolsEi@PLT
	movl	$32, %esi
	movq	%rax, %rdi
	call	_ZStlsISt11char_traitsIcEERSt13basic_ostreamIcT_ES5_c@PLT
	.loc 13 51 26
	movq	-192(%rbp), %rax
	movq	%rax, %rdi
	call	_ZNSt5stackIiSt5dequeIiSaIiEEE3popEv
	.loc 13 48 17
	jmp	.L710
.L705:
	.loc 13 53 22
	movq	-168(%rbp), %rax
	movq	%rax, %rdx
	shrq	$3, %rdx
	addq	$2147450880, %rdx
	movzbl	(%rdx), %edx
	testb	%dl, %dl
	je	.L711
	movq	%rax, %rdi
	call	__asan_report_load8@PLT
.L711:
	movq	-168(%rbp), %rax
	movq	(%rax), %rax
	addq	$24, %rax
	movq	%rax, %rdx
	movq	%rdx, %rcx
	shrq	$3, %rcx
	addq	$2147450880, %rcx
	movzbl	(%rcx), %ecx
	testb	%cl, %cl
	je	.L712
	movq	%rdx, %rdi
	call	__asan_report_load8@PLT
.L712:
	movq	(%rax), %r14
	.loc 13 53 37
	movq	-192(%rbp), %rax
	movq	%rax, %rdi
	call	_ZNSt5stackIiSt5dequeIiSaIiEEE3topEv
	movq	%rax, %rdx
	.loc 13 53 22
	movq	%rdx, %rax
	movq	%rax, %rcx
	shrq	$3, %rcx
	addq	$2147450880, %rcx
	movzbl	(%rcx), %ecx
	testb	%cl, %cl
	setne	%sil
	movq	%rax, %rdi
	andl	$7, %edi
	addl	$3, %edi
	cmpb	%cl, %dil
	setge	%cl
	andl	%esi, %ecx
	testb	%cl, %cl
	je	.L713
	movq	%rax, %rdi
	call	__asan_report_load4@PLT
.L713:
	movl	(%rdx), %edx
	movq	-168(%rbp), %rax
	movl	%edx, %esi
	movq	%rax, %rdi
	call	*%r14
.LVL101:
	movq	%rax, %rdx
	movq	%rdx, %rax
	movq	%rax, %rcx
	shrq	$3, %rcx
	addq	$2147450880, %rcx
	movzbl	(%rcx), %ecx
	testb	%cl, %cl
	setne	%sil
	movq	%rax, %rdi
	andl	$7, %edi
	addl	$3, %edi
	cmpb	%cl, %dil
	setge	%cl
	andl	%esi, %ecx
	testb	%cl, %cl
	je	.L714
	movq	%rax, %rdi
	call	__asan_report_load4@PLT
.L714:
	movl	(%rdx), %eax
	movl	%eax, %esi
	leaq	_ZSt4cout(%rip), %rdi
	call	_ZNSolsEi@PLT
	movq	%rax, %rdx
	.loc 13 53 41
	movq	_ZSt4endlIcSt11char_traitsIcEERSt13basic_ostreamIT_T0_ES6_@GOTPCREL(%rip), %rax
	movq	%rax, %rsi
	movq	%rdx, %rdi
	call	_ZNSolsEPFRSoS_E@PLT
	.loc 13 54 22
	movq	-192(%rbp), %rax
	movq	%rax, %rdi
	call	_ZNSt5stackIiSt5dequeIiSaIiEEE3popEv
	.loc 13 56 13
	jmp	.L715
.L677:
	.loc 13 58 24
	movq	-168(%rbp), %rax
	movq	%rax, %rdx
	shrq	$3, %rdx
	addq	$2147450880, %rdx
	movzbl	(%rdx), %edx
	testb	%dl, %dl
	je	.L716
	movq	%rax, %rdi
	call	__asan_report_load8@PLT
.L716:
	movq	-168(%rbp), %rax
	movq	(%rax), %rax
	addq	$136, %rax
	movq	%rax, %rdx
	movq	%rdx, %rcx
	shrq	$3, %rcx
	addq	$2147450880, %rcx
	movzbl	(%rcx), %ecx
	testb	%cl, %cl
	je	.L717
	movq	%rdx, %rdi
	call	__asan_report_load8@PLT
.L717:
	movq	(%rax), %r8
	movl	-64(%rbx), %ecx
	movl	-148(%rbp), %edx
	movq	-168(%rbp), %rax
	movl	%ecx, %esi
	movq	%rax, %rdi
	call	*%r8
.LVL102:
	movq	%rax, %rdx
	.loc 13 58 13
	movq	%rdx, %rax
	movq	%rax, %rcx
	shrq	$3, %rcx
	addq	$2147450880, %rcx
	movzbl	(%rcx), %ecx
	testb	%cl, %cl
	setne	%sil
	movq	%rax, %rdi
	andl	$7, %edi
	addl	$3, %edi
	cmpb	%cl, %dil
	setge	%cl
	andl	%esi, %ecx
	testb	%cl, %cl
	je	.L718
	movq	%rax, %rdi
	call	__asan_report_store4@PLT
.L718:
	movl	$4, (%rdx)
	.loc 13 59 34
	movq	-168(%rbp), %rax
	movq	%rax, %rdx
	shrq	$3, %rdx
	addq	$2147450880, %rdx
	movzbl	(%rdx), %edx
	testb	%dl, %dl
	je	.L719
	movq	%rax, %rdi
	call	__asan_report_load8@PLT
.L719:
	movq	-168(%rbp), %rax
	movq	(%rax), %rax
	addq	$72, %rax
	movq	%rax, %rdx
	movq	%rdx, %rcx
	shrq	$3, %rcx
	addq	$2147450880, %rcx
	movzbl	(%rcx), %ecx
	testb	%cl, %cl
	je	.L720
	movq	%rdx, %rdi
	call	__asan_report_load8@PLT
.L720:
	movq	(%rax), %rcx
	movl	-148(%rbp), %edx
	movq	-168(%rbp), %rax
	movl	%edx, %esi
	movq	%rax, %rdi
	call	*%rcx
.LVL103:
	movq	%rax, %r14
	movq	-168(%rbp), %rax
	movq	%rax, %rdx
	shrq	$3, %rdx
	addq	$2147450880, %rdx
	movzbl	(%rdx), %edx
	testb	%dl, %dl
	je	.L721
	movq	%rax, %rdi
	call	__asan_report_load8@PLT
.L721:
	movq	-168(%rbp), %rax
	movq	(%rax), %rax
	addq	$80, %rax
	movq	%rax, %rdx
	movq	%rdx, %rcx
	shrq	$3, %rcx
	addq	$2147450880, %rcx
	movzbl	(%rcx), %ecx
	testb	%cl, %cl
	je	.L722
	movq	%rdx, %rdi
	call	__asan_report_load8@PLT
.L722:
	movq	(%rax), %rcx
	movl	-64(%rbx), %edx
	movq	-168(%rbp), %rax
	movl	%edx, %esi
	movq	%rax, %rdi
	call	*%rcx
.LVL104:
	movq	%r14, %rsi
	movq	%rax, %rdi
	call	_ZSt3minIiERKT_S2_S2_
	movq	%rax, %rdx
	.loc 13 59 13
	movq	%rdx, %rax
	movq	%rax, %rcx
	shrq	$3, %rcx
	addq	$2147450880, %rcx
	movzbl	(%rcx), %ecx
	testb	%cl, %cl
	setne	%sil
	movq	%rax, %rdi
	andl	$7, %edi
	addl	$3, %edi
	cmpb	%cl, %dil
	setge	%cl
	andl	%esi, %ecx
	testb	%cl, %cl
	je	.L723
	movq	%rax, %rdi
	call	__asan_report_load4@PLT
.L723:
	movl	(%rdx), %r14d
	.loc 13 59 24
	movq	-168(%rbp), %rax
	movq	%rax, %rdx
	shrq	$3, %rdx
	addq	$2147450880, %rdx
	movzbl	(%rdx), %edx
	testb	%dl, %dl
	je	.L724
	movq	%rax, %rdi
	call	__asan_report_load8@PLT
.L724:
	movq	-168(%rbp), %rax
	movq	(%rax), %rax
	addq	$80, %rax
	movq	%rax, %rdx
	movq	%rdx, %rcx
	shrq	$3, %rcx
	addq	$2147450880, %rcx
	movzbl	(%rcx), %ecx
	testb	%cl, %cl
	je	.L725
	movq	%rdx, %rdi
	call	__asan_report_load8@PLT
.L725:
	movq	(%rax), %rcx
	movl	-64(%rbx), %edx
	movq	-168(%rbp), %rax
	movl	%edx, %esi
	movq	%rax, %rdi
	call	*%rcx
.LVL105:
	movq	%rax, %rdx
	.loc 13 59 13
	movq	%rdx, %rax
	movq	%rax, %rcx
	shrq	$3, %rcx
	addq	$2147450880, %rcx
	movzbl	(%rcx), %ecx
	testb	%cl, %cl
	setne	%sil
	movq	%rax, %rdi
	andl	$7, %edi
	addl	$3, %edi
	cmpb	%cl, %dil
	setge	%cl
	andl	%esi, %ecx
	testb	%cl, %cl
	je	.L726
	movq	%rax, %rdi
	call	__asan_report_store4@PLT
.L726:
	movl	%r14d, (%rdx)
	.loc 13 60 13
	jmp	.L715
.L745:
	.loc 13 62 36
	movq	-168(%rbp), %rax
	movq	%rax, %rdx
	shrq	$3, %rdx
	addq	$2147450880, %rdx
	movzbl	(%rdx), %edx
	testb	%dl, %dl
	je	.L727
	movq	%rax, %rdi
	call	__asan_report_load8@PLT
.L727:
	movq	-168(%rbp), %rax
	movq	(%rax), %rax
	addq	$72, %rax
	movq	%rax, %rdx
	movq	%rdx, %rcx
	shrq	$3, %rcx
	addq	$2147450880, %rcx
	movzbl	(%rcx), %ecx
	testb	%cl, %cl
	je	.L728
	movq	%rdx, %rdi
	call	__asan_report_load8@PLT
.L728:
	movq	(%rax), %rcx
	movl	-64(%rbx), %edx
	movq	-168(%rbp), %rax
	movl	%edx, %esi
	movq	%rax, %rdi
	call	*%rcx
.LVL106:
	movq	%rax, %rdx
	movq	%rdx, %rax
	movq	%rax, %rcx
	shrq	$3, %rcx
	addq	$2147450880, %rcx
	movzbl	(%rcx), %ecx
	testb	%cl, %cl
	setne	%sil
	movq	%rax, %rdi
	andl	$7, %edi
	addl	$3, %edi
	cmpb	%cl, %dil
	setge	%cl
	andl	%esi, %ecx
	testb	%cl, %cl
	je	.L729
	movq	%rax, %rdi
	call	__asan_report_load4@PLT
.L729:
	movl	(%rdx), %r14d
	movq	-168(%rbp), %rax
	movq	%rax, %rdx
	shrq	$3, %rdx
	addq	$2147450880, %rdx
	movzbl	(%rdx), %edx
	testb	%dl, %dl
	je	.L730
	movq	%rax, %rdi
	call	__asan_report_load8@PLT
.L730:
	movq	-168(%rbp), %rax
	movq	(%rax), %rax
	addq	$72, %rax
	movq	%rax, %rdx
	movq	%rdx, %rcx
	shrq	$3, %rcx
	addq	$2147450880, %rcx
	movzbl	(%rcx), %ecx
	testb	%cl, %cl
	je	.L731
	movq	%rdx, %rdi
	call	__asan_report_load8@PLT
.L731:
	movq	(%rax), %rcx
	movl	-148(%rbp), %edx
	movq	-168(%rbp), %rax
	movl	%edx, %esi
	movq	%rax, %rdi
	call	*%rcx
.LVL107:
	movq	%rax, %rdx
	movq	%rdx, %rax
	movq	%rax, %rcx
	shrq	$3, %rcx
	addq	$2147450880, %rcx
	movzbl	(%rcx), %ecx
	testb	%cl, %cl
	setne	%sil
	movq	%rax, %rdi
	andl	$7, %edi
	addl	$3, %edi
	cmpb	%cl, %dil
	setge	%cl
	andl	%esi, %ecx
	testb	%cl, %cl
	je	.L732
	movq	%rax, %rdi
	call	__asan_report_load4@PLT
.L732:
	movl	(%rdx), %eax
	.loc 13 62 48
	cmpl	%eax, %r14d
	jge	.L733
	.loc 13 62 48 is_stmt 0 discriminator 1
	movl	$3, %r14d
	jmp	.L734
.L733:
	.loc 13 62 48 discriminator 2
	movl	$2, %r14d
.L734:
	.loc 13 62 24 is_stmt 1 discriminator 4
	movq	-168(%rbp), %rax
	movq	%rax, %rdx
	shrq	$3, %rdx
	addq	$2147450880, %rdx
	movzbl	(%rdx), %edx
	testb	%dl, %dl
	je	.L735
	.loc 13 62 24 is_stmt 0
	movq	%rax, %rdi
	call	__asan_report_load8@PLT
.L735:
	.loc 13 62 24 discriminator 4
	movq	-168(%rbp), %rax
	movq	(%rax), %rax
	addq	$136, %rax
	movq	%rax, %rdx
	movq	%rdx, %rcx
	shrq	$3, %rcx
	addq	$2147450880, %rcx
	movzbl	(%rcx), %ecx
	testb	%cl, %cl
	je	.L736
	.loc 13 62 24
	movq	%rdx, %rdi
	call	__asan_report_load8@PLT
.L736:
	.loc 13 62 24 discriminator 4
	movq	(%rax), %r8
	movl	-64(%rbx), %ecx
	movl	-148(%rbp), %edx
	movq	-168(%rbp), %rax
	movl	%ecx, %esi
	movq	%rax, %rdi
	call	*%r8
.LVL108:
	movq	%rax, %rdx
	.loc 13 62 13 is_stmt 1 discriminator 4
	movq	%rdx, %rax
	movq	%rax, %rcx
	shrq	$3, %rcx
	addq	$2147450880, %rcx
	movzbl	(%rcx), %ecx
	testb	%cl, %cl
	setne	%sil
	movq	%rax, %rdi
	andl	$7, %edi
	addl	$3, %edi
	cmpb	%cl, %dil
	setge	%cl
	andl	%esi, %ecx
	testb	%cl, %cl
	je	.L737
	.loc 13 62 13 is_stmt 0
	movq	%rax, %rdi
	call	__asan_report_store4@PLT
.L737:
	.loc 13 62 13 discriminator 4
	movl	%r14d, (%rdx)
	.loc 13 63 13 is_stmt 1 discriminator 4
	nop
.L715:
	.loc 13 36 42 discriminator 2
	movq	-168(%rbp), %rax
	movq	%rax, %rdx
	shrq	$3, %rdx
	addq	$2147450880, %rdx
	movzbl	(%rdx), %edx
	testb	%dl, %dl
	je	.L738
	.loc 13 36 42 is_stmt 0
	movq	%rax, %rdi
	call	__asan_report_load8@PLT
.L738:
	.loc 13 36 42 discriminator 2
	movq	-168(%rbp), %rax
	movq	(%rax), %rax
	addq	$56, %rax
	movq	%rax, %rdx
	movq	%rdx, %rcx
	shrq	$3, %rcx
	addq	$2147450880, %rcx
	movzbl	(%rcx), %ecx
	testb	%cl, %cl
	je	.L739
	.loc 13 36 42
	movq	%rdx, %rdi
	call	__asan_report_load8@PLT
.L739:
	.loc 13 36 42 discriminator 2
	movq	(%rax), %r8
	movl	-64(%rbx), %ecx
	movl	-148(%rbp), %edx
	movq	-168(%rbp), %rax
	movl	%ecx, %esi
	movq	%rax, %rdi
	call	*%r8
.LVL109:
	movl	%eax, -148(%rbp)
	.loc 13 36 5 is_stmt 1 discriminator 2
	jmp	.L740
.L672:
.LBE76:
	.loc 13 65 15
	movq	-168(%rbp), %rax
	movq	%rax, %rdx
	shrq	$3, %rdx
	addq	$2147450880, %rdx
	movzbl	(%rdx), %edx
	testb	%dl, %dl
	je	.L741
	movq	%rax, %rdi
	call	__asan_report_load8@PLT
.L741:
	movq	-168(%rbp), %rax
	movq	(%rax), %rax
	addq	$64, %rax
	movq	%rax, %rdx
	movq	%rdx, %rcx
	shrq	$3, %rcx
	addq	$2147450880, %rcx
	movzbl	(%rcx), %ecx
	testb	%cl, %cl
	je	.L742
	movq	%rdx, %rdi
	call	__asan_report_load8@PLT
.L742:
	movq	(%rax), %rcx
	movl	-64(%rbx), %edx
	movq	-168(%rbp), %rax
	movl	%edx, %esi
	movq	%rax, %rdi
	call	*%rcx
.LVL110:
	movq	%rax, %rdx
	.loc 13 65 5
	movq	%rdx, %rax
	movq	%rax, %rcx
	shrq	$3, %rcx
	addq	$2147450880, %rcx
	movzbl	(%rcx), %ecx
	testb	%cl, %cl
	setne	%sil
