	.file	"main.cpp"
	.text
.Ltext0:
	.section	.rodata
	.type	_ZStL19piecewise_construct, @object
	.size	_ZStL19piecewise_construct, 1
_ZStL19piecewise_construct:
	.zero	1
	.local	_ZStL8__ioinit
	.comm	_ZStL8__ioinit,1,1
	.section	.text._ZN7VirtualC2Ev,"axG",@progbits,_ZN7VirtualC5Ev,comdat
	.align 2
	.weak	_ZN7VirtualC2Ev
	.type	_ZN7VirtualC2Ev, @function
_ZN7VirtualC2Ev:
.LFB1524:
	.file 1 "../main.cpp"
	.loc 1 22 7
	.cfi_startproc
	endbr64
	pushq	%rbp
	.cfi_def_cfa_offset 16
	.cfi_offset 6, -16
	movq	%rsp, %rbp
	.cfi_def_cfa_register 6
	movq	%rdi, -8(%rbp)
.LBB2:
	.loc 1 22 7
	leaq	16+_ZTV7Virtual(%rip), %rdx
	movq	-8(%rbp), %rax
	movq	%rdx, (%rax)
.LBE2:
	nop
	popq	%rbp
	.cfi_def_cfa 7, 8
	ret
	.cfi_endproc
.LFE1524:
	.size	_ZN7VirtualC2Ev, .-_ZN7VirtualC2Ev
	.weak	_ZN7VirtualC1Ev
	.set	_ZN7VirtualC1Ev,_ZN7VirtualC2Ev
	.section	.text._ZN7VirtualD2Ev,"axG",@progbits,_ZN7VirtualD5Ev,comdat
	.align 2
	.weak	_ZN7VirtualD2Ev
	.type	_ZN7VirtualD2Ev, @function
_ZN7VirtualD2Ev:
.LFB1527:
	.loc 1 25 11
	.cfi_startproc
	endbr64
	pushq	%rbp
	.cfi_def_cfa_offset 16
	.cfi_offset 6, -16
	movq	%rsp, %rbp
	.cfi_def_cfa_register 6
	movq	%rdi, -8(%rbp)
.LBB3:
	.loc 1 25 11
	leaq	16+_ZTV7Virtual(%rip), %rdx
	movq	-8(%rbp), %rax
	movq	%rdx, (%rax)
.LBE3:
	nop
	popq	%rbp
	.cfi_def_cfa 7, 8
	ret
	.cfi_endproc
.LFE1527:
	.size	_ZN7VirtualD2Ev, .-_ZN7VirtualD2Ev
	.weak	_ZN7VirtualD1Ev
	.set	_ZN7VirtualD1Ev,_ZN7VirtualD2Ev
	.section	.text._ZN7VirtualD0Ev,"axG",@progbits,_ZN7VirtualD5Ev,comdat
	.align 2
	.weak	_ZN7VirtualD0Ev
	.type	_ZN7VirtualD0Ev, @function
_ZN7VirtualD0Ev:
.LFB1529:
	.loc 1 25 11
	.cfi_startproc
	endbr64
	pushq	%rbp
	.cfi_def_cfa_offset 16
	.cfi_offset 6, -16
	movq	%rsp, %rbp
	.cfi_def_cfa_register 6
	subq	$16, %rsp
	movq	%rdi, -8(%rbp)
	.loc 1 25 11
	movq	-8(%rbp), %rax
	movq	%rax, %rdi
	call	_ZN7VirtualD1Ev
	movq	-8(%rbp), %rax
	movl	$8, %esi
	movq	%rax, %rdi
	call	_ZdlPvm@PLT
	leave
	.cfi_def_cfa 7, 8
	ret
	.cfi_endproc
.LFE1529:
	.size	_ZN7VirtualD0Ev, .-_ZN7VirtualD0Ev
	.section	.text._ZN6EntityC2Eii,"axG",@progbits,_ZN6EntityC5Eii,comdat
	.align 2
	.weak	_ZN6EntityC2Eii
	.type	_ZN6EntityC2Eii, @function
_ZN6EntityC2Eii:
.LFB1530:
	.loc 1 37 3
	.cfi_startproc
	endbr64
	pushq	%rbp
	.cfi_def_cfa_offset 16
	.cfi_offset 6, -16
	movq	%rsp, %rbp
	.cfi_def_cfa_register 6
	subq	$16, %rsp
	movq	%rdi, -8(%rbp)
	movl	%esi, -12(%rbp)
	movl	%edx, -16(%rbp)
.LBB4:
	.loc 1 37 35
	movq	-8(%rbp), %rax
	movq	%rax, %rdi
	call	_ZN7VirtualC2Ev
	leaq	16+_ZTV6Entity(%rip), %rdx
	movq	-8(%rbp), %rax
	movq	%rdx, (%rax)
	movq	-8(%rbp), %rax
	movl	-12(%rbp), %edx
	movl	%edx, 8(%rax)
	movq	-8(%rbp), %rax
	movl	-16(%rbp), %edx
	movl	%edx, 12(%rax)
	movq	-8(%rbp), %rax
	movsd	.LC0(%rip), %xmm0
	movsd	%xmm0, 16(%rax)
	movq	-8(%rbp), %rax
	movss	.LC1(%rip), %xmm0
	movss	%xmm0, 24(%rax)
.LBE4:
	.loc 1 37 38
	nop
	leave
	.cfi_def_cfa 7, 8
	ret
	.cfi_endproc
.LFE1530:
	.size	_ZN6EntityC2Eii, .-_ZN6EntityC2Eii
	.weak	_ZN6EntityC1Eii
	.set	_ZN6EntityC1Eii,_ZN6EntityC2Eii
	.section	.rodata
.LC2:
	.string	"lalala"
	.section	.text._ZN6EntityC2Ev,"axG",@progbits,_ZN6EntityC5Ev,comdat
	.align 2
	.weak	_ZN6EntityC2Ev
	.type	_ZN6EntityC2Ev, @function
_ZN6EntityC2Ev:
.LFB1533:
	.loc 1 38 3
	.cfi_startproc
	.cfi_personality 0x9b,DW.ref.__gxx_personality_v0
	.cfi_lsda 0x1b,.LLSDA1533
	endbr64
	pushq	%rbp
	.cfi_def_cfa_offset 16
	.cfi_offset 6, -16
	movq	%rsp, %rbp
	.cfi_def_cfa_register 6
	pushq	%rbx
	subq	$24, %rsp
	.cfi_offset 3, -24
	movq	%rdi, -24(%rbp)
.LBB5:
	.loc 1 38 12
	movq	-24(%rbp), %rax
	movq	%rax, %rdi
	call	_ZN7VirtualC2Ev
	leaq	16+_ZTV6Entity(%rip), %rdx
	movq	-24(%rbp), %rax
	movq	%rdx, (%rax)
	movq	-24(%rbp), %rax
	movsd	.LC0(%rip), %xmm0
	movsd	%xmm0, 16(%rax)
	movq	-24(%rbp), %rax
	movss	.LC1(%rip), %xmm0
	movss	%xmm0, 24(%rax)
	.loc 1 38 27
	leaq	.LC2(%rip), %rsi
	leaq	_ZSt4cout(%rip), %rdi
.LEHB0:
	call	_ZStlsISt11char_traitsIcEERSt13basic_ostreamIcT_ES5_PKc@PLT
	movq	%rax, %rdx
	.loc 1 38 44
	movq	_ZSt4endlIcSt11char_traitsIcEERSt13basic_ostreamIT_T0_ES6_@GOTPCREL(%rip), %rax
	movq	%rax, %rsi
	movq	%rdx, %rdi
	call	_ZNSolsEPFRSoS_E@PLT
.LEHE0:
.LBE5:
	.loc 1 38 50
	jmp	.L8
.L7:
	endbr64
	movq	%rax, %rbx
.LBB6:
	.loc 1 38 12
	movq	-24(%rbp), %rax
	movq	%rax, %rdi
	call	_ZN7VirtualD2Ev
	movq	%rbx, %rax
	movq	%rax, %rdi
.LEHB1:
	call	_Unwind_Resume@PLT
.LEHE1:
.L8:
.LBE6:
	.loc 1 38 50
	addq	$24, %rsp
	popq	%rbx
	popq	%rbp
	.cfi_def_cfa 7, 8
	ret
	.cfi_endproc
.LFE1533:
	.globl	__gxx_personality_v0
	.section	.gcc_except_table._ZN6EntityC2Ev,"aG",@progbits,_ZN6EntityC5Ev,comdat
.LLSDA1533:
	.byte	0xff
	.byte	0xff
	.byte	0x1
	.uleb128 .LLSDACSE1533-.LLSDACSB1533
.LLSDACSB1533:
	.uleb128 .LEHB0-.LFB1533
	.uleb128 .LEHE0-.LEHB0
	.uleb128 .L7-.LFB1533
	.uleb128 0
	.uleb128 .LEHB1-.LFB1533
	.uleb128 .LEHE1-.LEHB1
	.uleb128 0
	.uleb128 0
.LLSDACSE1533:
	.section	.text._ZN6EntityC2Ev,"axG",@progbits,_ZN6EntityC5Ev,comdat
	.size	_ZN6EntityC2Ev, .-_ZN6EntityC2Ev
	.weak	_ZN6EntityC1Ev
	.set	_ZN6EntityC1Ev,_ZN6EntityC2Ev
	.section	.rodata
.LC3:
	.string	"This is Entity"
	.section	.text._ZN6Entity4funcEv,"axG",@progbits,_ZN6Entity4funcEv,comdat
	.align 2
	.weak	_ZN6Entity4funcEv
	.type	_ZN6Entity4funcEv, @function
_ZN6Entity4funcEv:
.LFB1535:
	.loc 1 39 8
	.cfi_startproc
	endbr64
	pushq	%rbp
	.cfi_def_cfa_offset 16
	.cfi_offset 6, -16
	movq	%rsp, %rbp
	.cfi_def_cfa_register 6
	subq	$16, %rsp
	movq	%rdi, -8(%rbp)
	.loc 1 39 51
	movq	-8(%rbp), %rax
	movl	8(%rax), %eax
	movl	%eax, %esi
	leaq	_ZSt4cout(%rip), %rdi
	call	_ZNSolsEi@PLT
	movl	$32, %esi
	movq	%rax, %rdi
	call	_ZStlsISt11char_traitsIcEERSt13basic_ostreamIcT_ES5_c@PLT
	leaq	.LC3(%rip), %rsi
	movq	%rax, %rdi
	call	_ZStlsISt11char_traitsIcEERSt13basic_ostreamIcT_ES5_PKc@PLT
	movq	%rax, %rdx
	.loc 1 39 76
	movq	_ZSt4endlIcSt11char_traitsIcEERSt13basic_ostreamIT_T0_ES6_@GOTPCREL(%rip), %rax
	movq	%rax, %rsi
	movq	%rdx, %rdi
	call	_ZNSolsEPFRSoS_E@PLT
	.loc 1 39 82
	nop
	leave
	.cfi_def_cfa 7, 8
	ret
	.cfi_endproc
.LFE1535:
	.size	_ZN6Entity4funcEv, .-_ZN6Entity4funcEv
	.section	.rodata
.LC4:
	.string	"func2()"
	.section	.text._ZN6Entity5func2Ev,"axG",@progbits,_ZN6Entity5func2Ev,comdat
	.align 2
	.weak	_ZN6Entity5func2Ev
	.type	_ZN6Entity5func2Ev, @function
_ZN6Entity5func2Ev:
.LFB1537:
	.loc 1 41 8
	.cfi_startproc
	endbr64
	pushq	%rbp
	.cfi_def_cfa_offset 16
	.cfi_offset 6, -16
	movq	%rsp, %rbp
	.cfi_def_cfa_register 6
	subq	$16, %rsp
	movq	%rdi, -8(%rbp)
	.loc 1 41 28
	leaq	.LC4(%rip), %rsi
	leaq	_ZSt4cout(%rip), %rdi
	call	_ZStlsISt11char_traitsIcEERSt13basic_ostreamIcT_ES5_PKc@PLT
	movq	%rax, %rdx
	.loc 1 41 46
	movq	_ZSt4endlIcSt11char_traitsIcEERSt13basic_ostreamIT_T0_ES6_@GOTPCREL(%rip), %rax
	movq	%rax, %rsi
	movq	%rdx, %rdi
	call	_ZNSolsEPFRSoS_E@PLT
	.loc 1 41 51
	nop
	leave
	.cfi_def_cfa 7, 8
	ret
	.cfi_endproc
.LFE1537:
	.size	_ZN6Entity5func2Ev, .-_ZN6Entity5func2Ev
	.section	.rodata
.LC5:
	.string	"func3()"
	.section	.text._ZN6Entity5func3Ev,"axG",@progbits,_ZN6Entity5func3Ev,comdat
	.align 2
	.weak	_ZN6Entity5func3Ev
	.type	_ZN6Entity5func3Ev, @function
_ZN6Entity5func3Ev:
.LFB1538:
	.loc 1 42 8
	.cfi_startproc
	endbr64
	pushq	%rbp
	.cfi_def_cfa_offset 16
	.cfi_offset 6, -16
	movq	%rsp, %rbp
	.cfi_def_cfa_register 6
	subq	$16, %rsp
	movq	%rdi, -8(%rbp)
	.loc 1 42 28
	leaq	.LC5(%rip), %rsi
	leaq	_ZSt4cout(%rip), %rdi
	call	_ZStlsISt11char_traitsIcEERSt13basic_ostreamIcT_ES5_PKc@PLT
	movq	%rax, %rdx
	.loc 1 42 46
	movq	_ZSt4endlIcSt11char_traitsIcEERSt13basic_ostreamIT_T0_ES6_@GOTPCREL(%rip), %rax
	movq	%rax, %rsi
	movq	%rdx, %rdi
	call	_ZNSolsEPFRSoS_E@PLT
	.loc 1 42 51
	nop
	leave
	.cfi_def_cfa 7, 8
	ret
	.cfi_endproc
.LFE1538:
	.size	_ZN6Entity5func3Ev, .-_ZN6Entity5func3Ev
	.section	.text._ZN6Derive4funcEi,"axG",@progbits,_ZN6Derive4funcEi,comdat
	.align 2
	.weak	_ZN6Derive4funcEi
	.type	_ZN6Derive4funcEi, @function
_ZN6Derive4funcEi:
.LFB1540:
	.loc 1 64 8
	.cfi_startproc
	endbr64
	pushq	%rbp
	.cfi_def_cfa_offset 16
	.cfi_offset 6, -16
	movq	%rsp, %rbp
	.cfi_def_cfa_register 6
	subq	$16, %rsp
	movq	%rdi, -8(%rbp)
	movl	%esi, -12(%rbp)
	.loc 1 64 39
	movl	-12(%rbp), %eax
	addl	$1, %eax
	movl	%eax, %esi
	leaq	_ZSt4cout(%rip), %rdi
	call	_ZNSolsEi@PLT
	movq	%rax, %rdx
	.loc 1 64 49
	movq	_ZSt4endlIcSt11char_traitsIcEERSt13basic_ostreamIT_T0_ES6_@GOTPCREL(%rip), %rax
	movq	%rax, %rsi
	movq	%rdx, %rdi
	call	_ZNSolsEPFRSoS_E@PLT
	.loc 1 64 55
	nop
	leave
	.cfi_def_cfa 7, 8
	ret
	.cfi_endproc
.LFE1540:
	.size	_ZN6Derive4funcEi, .-_ZN6Derive4funcEi
	.section	.rodata
.LC6:
	.string	"This is Derive"
	.section	.text._ZN6Derive4funcEv,"axG",@progbits,_ZN6Derive4funcEv,comdat
	.align 2
	.weak	_ZN6Derive4funcEv
	.type	_ZN6Derive4funcEv, @function
_ZN6Derive4funcEv:
.LFB1541:
	.loc 1 65 8
	.cfi_startproc
	endbr64
	pushq	%rbp
	.cfi_def_cfa_offset 16
	.cfi_offset 6, -16
	movq	%rsp, %rbp
	.cfi_def_cfa_register 6
	subq	$16, %rsp
	movq	%rdi, -8(%rbp)
	.loc 1 65 51
	movq	-8(%rbp), %rax
	movl	8(%rax), %eax
	movl	%eax, %esi
	leaq	_ZSt4cout(%rip), %rdi
	call	_ZNSolsEi@PLT
	movl	$32, %esi
	movq	%rax, %rdi
	call	_ZStlsISt11char_traitsIcEERSt13basic_ostreamIcT_ES5_c@PLT
	leaq	.LC6(%rip), %rsi
	movq	%rax, %rdi
	call	_ZStlsISt11char_traitsIcEERSt13basic_ostreamIcT_ES5_PKc@PLT
	movq	%rax, %rdx
	.loc 1 65 76
	movq	_ZSt4endlIcSt11char_traitsIcEERSt13basic_ostreamIT_T0_ES6_@GOTPCREL(%rip), %rax
	movq	%rax, %rsi
	movq	%rdx, %rdi
	call	_ZNSolsEPFRSoS_E@PLT
	.loc 1 65 82
	nop
	leave
	.cfi_def_cfa 7, 8
	ret
	.cfi_endproc
.LFE1541:
	.size	_ZN6Derive4funcEv, .-_ZN6Derive4funcEv
	.section	.text._ZN6EntityD2Ev,"axG",@progbits,_ZN6EntityD5Ev,comdat
	.align 2
	.weak	_ZN6EntityD2Ev
	.type	_ZN6EntityD2Ev, @function
_ZN6EntityD2Ev:
.LFB1545:
	.loc 1 53 11
	.cfi_startproc
	endbr64
	pushq	%rbp
	.cfi_def_cfa_offset 16
	.cfi_offset 6, -16
	movq	%rsp, %rbp
	.cfi_def_cfa_register 6
	subq	$16, %rsp
	movq	%rdi, -8(%rbp)
.LBB7:
	.loc 1 53 11
	leaq	16+_ZTV6Entity(%rip), %rdx
	movq	-8(%rbp), %rax
	movq	%rdx, (%rax)
	movq	-8(%rbp), %rax
	movq	%rax, %rdi
	call	_ZN7VirtualD2Ev
.LBE7:
	nop
	leave
	.cfi_def_cfa 7, 8
	ret
	.cfi_endproc
.LFE1545:
	.size	_ZN6EntityD2Ev, .-_ZN6EntityD2Ev
	.weak	_ZN6EntityD1Ev
	.set	_ZN6EntityD1Ev,_ZN6EntityD2Ev
	.section	.text._ZN6EntityD0Ev,"axG",@progbits,_ZN6EntityD5Ev,comdat
	.align 2
	.weak	_ZN6EntityD0Ev
	.type	_ZN6EntityD0Ev, @function
_ZN6EntityD0Ev:
.LFB1547:
	.loc 1 53 11
	.cfi_startproc
	endbr64
	pushq	%rbp
	.cfi_def_cfa_offset 16
	.cfi_offset 6, -16
	movq	%rsp, %rbp
	.cfi_def_cfa_register 6
	subq	$16, %rsp
	movq	%rdi, -8(%rbp)
	.loc 1 53 11
	movq	-8(%rbp), %rax
	movq	%rax, %rdi
	call	_ZN6EntityD1Ev
	movq	-8(%rbp), %rax
	movl	$32, %esi
	movq	%rax, %rdi
	call	_ZdlPvm@PLT
	leave
	.cfi_def_cfa 7, 8
	ret
	.cfi_endproc
.LFE1547:
	.size	_ZN6EntityD0Ev, .-_ZN6EntityD0Ev
	.section	.text._ZN6DeriveC2Eii,"axG",@progbits,_ZN6DeriveC5Eii,comdat
	.align 2
	.weak	_ZN6DeriveC2Eii
	.type	_ZN6DeriveC2Eii, @function
_ZN6DeriveC2Eii:
.LFB1548:
	.loc 1 71 3
	.cfi_startproc
	endbr64
	pushq	%rbp
	.cfi_def_cfa_offset 16
	.cfi_offset 6, -16
	movq	%rsp, %rbp
	.cfi_def_cfa_register 6
	subq	$16, %rsp
	movq	%rdi, -8(%rbp)
	movl	%esi, -12(%rbp)
	movl	%edx, -16(%rbp)
.LBB8:
	.loc 1 72 3
	movq	-8(%rbp), %rax
	movq	%rax, %rdi
	call	_ZN6EntityC2Ev
	leaq	16+_ZTV6Derive(%rip), %rdx
	movq	-8(%rbp), %rax
	movq	%rdx, (%rax)
	.loc 1 73 13
	movq	-8(%rbp), %rax
	movl	-12(%rbp), %edx
	movl	%edx, 32(%rax)
	.loc 1 74 13
	movq	-8(%rbp), %rax
	movl	-16(%rbp), %edx
	movl	%edx, 36(%rax)
	.loc 1 75 7
	movq	-8(%rbp), %rax
	movl	$10, 8(%rax)
.LBE8:
	.loc 1 76 3
	nop
	leave
	.cfi_def_cfa 7, 8
	ret
	.cfi_endproc
.LFE1548:
	.size	_ZN6DeriveC2Eii, .-_ZN6DeriveC2Eii
	.weak	_ZN6DeriveC1Eii
	.set	_ZN6DeriveC1Eii,_ZN6DeriveC2Eii
	.text
	.globl	main
	.type	main, @function
main:
.LFB1553:
	.loc 1 82 1
	.cfi_startproc
	.cfi_personality 0x9b,DW.ref.__gxx_personality_v0
	.cfi_lsda 0x1b,.LLSDA1553
	endbr64
	pushq	%rbp
	.cfi_def_cfa_offset 16
	.cfi_offset 6, -16
	movq	%rsp, %rbp
	.cfi_def_cfa_register 6
	pushq	%r12
	pushq	%rbx
	subq	$96, %rsp
	.cfi_offset 12, -24
	.cfi_offset 3, -32
	.loc 1 82 1
	movq	%fs:40, %rax
	movq	%rax, -24(%rbp)
	xorl	%eax, %eax
	.loc 1 100 21
	leaq	-80(%rbp), %rax
	movl	$4, %edx
	movl	$3, %esi
	movq	%rax, %rdi
.LEHB2:
	call	_ZN6DeriveC1Eii
.LEHE2:
	.loc 1 101 14
	leaq	-80(%rbp), %rax
	movl	$2, %esi
	movq	%rax, %rdi
.LEHB3:
	call	_ZN6Derive4funcEi
	.loc 1 102 14
	leaq	-80(%rbp), %rax
	movq	%rax, %rdi
	call	_ZN6Derive4funcEv
	.loc 1 103 31
	movl	$32, %edi
	call	_Znwm@PLT
	movq	%rax, %rbx
	movl	$2, %edx
	movl	$1, %esi
	movq	%rbx, %rdi
	call	_ZN6EntityC1Eii
	movq	%rbx, -112(%rbp)
	.loc 1 104 21
	movq	-112(%rbp), %rax
	movq	(%rax), %rax
	.loc 1 104 9
	movq	%rax, -104(%rbp)
	.loc 1 106 11
	movq	-112(%rbp), %rax
	movq	(%rax), %rax
	addq	$16, %rax
	movq	(%rax), %rdx
	.loc 1 106 10
	movq	-112(%rbp), %rax
	movq	%rax, %rdi
	call	*%rdx
.LVL0:
	.loc 1 107 22
	movl	$48, %edi
	call	_Znwm@PLT
.LEHE3:
	movq	%rax, %rbx
	movl	$4, %edx
	movl	$3, %esi
	movq	%rbx, %rdi
.LEHB4:
	call	_ZN6DeriveC1Eii
.LEHE4:
	.loc 1 107 5 discriminator 3
	movq	%rbx, -112(%rbp)
	.loc 1 108 24 discriminator 3
	movq	-112(%rbp), %rax
	movq	(%rax), %rax
	.loc 1 108 11 discriminator 3
	movq	%rax, -96(%rbp)
	.loc 1 110 30 discriminator 3
	movl	$48, %edi
.LEHB5:
	call	_Znwm@PLT
.LEHE5:
	movq	%rax, %rbx
	movl	$6, %edx
	movl	$5, %esi
	movq	%rbx, %rdi
.LEHB6:
	call	_ZN6DeriveC1Eii
.LEHE6:
	movq	%rbx, -88(%rbp)
	.loc 1 111 24 discriminator 3
	movl	$8, %esi
	leaq	_ZSt4cout(%rip), %rdi
.LEHB7:
	call	_ZNSolsEm@PLT
	movq	%rax, %rdx
	.loc 1 111 32 discriminator 3
	movq	_ZSt4endlIcSt11char_traitsIcEERSt13basic_ostreamIT_T0_ES6_@GOTPCREL(%rip), %rax
	movq	%rax, %rsi
	movq	%rdx, %rdi
	call	_ZNSolsEPFRSoS_E@PLT
	.loc 1 112 11
	movq	-112(%rbp), %rax
	movq	(%rax), %rax
	addq	$16, %rax
	movq	(%rax), %rdx
	.loc 1 112 10
	movq	-112(%rbp), %rax
	movq	%rax, %rdi
	call	*%rdx
.LVL1:
.LEHE7:
	.loc 1 121 10
	movq	-112(%rbp), %rax
	.loc 1 121 11
	testq	%rax, %rax
	je	.L18
	.loc 1 121 10 discriminator 1
	movq	(%rax), %rdx
	addq	$8, %rdx
	movq	(%rdx), %rdx
	movq	%rax, %rdi
	call	*%rdx
.LVL2:
.L18:
	.loc 1 122 10
	movq	-88(%rbp), %rax
	.loc 1 122 11
	testq	%rax, %rax
	je	.L19
	.loc 1 122 10 discriminator 1
	movq	(%rax), %rdx
	addq	$8, %rdx
	movq	(%rdx), %rdx
	movq	%rax, %rdi
	call	*%rdx
.LVL3:
.L19:
	.loc 1 100 21
	leaq	-80(%rbp), %rax
	movq	%rax, %rdi
	call	_ZN6DeriveD1Ev
	.loc 1 123 1
	movl	$0, %eax
	movq	-24(%rbp), %rcx
	xorq	%fs:40, %rcx
	je	.L24
	jmp	.L28
.L26:
	endbr64
	movq	%rax, %r12
	.loc 1 107 22
	movl	$48, %esi
	movq	%rbx, %rdi
	call	_ZdlPvm@PLT
	movq	%r12, %rbx
	jmp	.L22
.L27:
	endbr64
	movq	%rax, %r12
	.loc 1 110 30
	movl	$48, %esi
	movq	%rbx, %rdi
	call	_ZdlPvm@PLT
	movq	%r12, %rbx
	jmp	.L22
.L25:
	endbr64
	movq	%rax, %rbx
.L22:
	.loc 1 100 21
	leaq	-80(%rbp), %rax
	movq	%rax, %rdi
	call	_ZN6DeriveD1Ev
	movq	%rbx, %rax
	movq	%rax, %rdi
.LEHB8:
	call	_Unwind_Resume@PLT
.LEHE8:
.L28:
	.loc 1 123 1
	call	__stack_chk_fail@PLT
.L24:
	addq	$96, %rsp
	popq	%rbx
	popq	%r12
	popq	%rbp
	.cfi_def_cfa 7, 8
	ret
	.cfi_endproc
.LFE1553:
	.section	.gcc_except_table,"a",@progbits
.LLSDA1553:
	.byte	0xff
	.byte	0xff
	.byte	0x1
	.uleb128 .LLSDACSE1553-.LLSDACSB1553
.LLSDACSB1553:
	.uleb128 .LEHB2-.LFB1553
	.uleb128 .LEHE2-.LEHB2
	.uleb128 0
	.uleb128 0
	.uleb128 .LEHB3-.LFB1553
	.uleb128 .LEHE3-.LEHB3
	.uleb128 .L25-.LFB1553
	.uleb128 0
	.uleb128 .LEHB4-.LFB1553
	.uleb128 .LEHE4-.LEHB4
	.uleb128 .L26-.LFB1553
	.uleb128 0
	.uleb128 .LEHB5-.LFB1553
	.uleb128 .LEHE5-.LEHB5
	.uleb128 .L25-.LFB1553
	.uleb128 0
	.uleb128 .LEHB6-.LFB1553
	.uleb128 .LEHE6-.LEHB6
	.uleb128 .L27-.LFB1553
	.uleb128 0
	.uleb128 .LEHB7-.LFB1553
	.uleb128 .LEHE7-.LEHB7
	.uleb128 .L25-.LFB1553
	.uleb128 0
	.uleb128 .LEHB8-.LFB1553
	.uleb128 .LEHE8-.LEHB8
	.uleb128 0
	.uleb128 0
.LLSDACSE1553:
	.text
	.size	main, .-main
	.weak	_ZTV6Derive
	.section	.data.rel.ro.local._ZTV6Derive,"awG",@progbits,_ZTV6Derive,comdat
	.align 8
	.type	_ZTV6Derive, @object
	.size	_ZTV6Derive, 56
_ZTV6Derive:
	.quad	0
	.quad	_ZTI6Derive
	.quad	_ZN6DeriveD1Ev
	.quad	_ZN6DeriveD0Ev
	.quad	_ZN6Derive4funcEv
	.quad	_ZN6Entity5func2Ev
	.quad	_ZN6Entity5func3Ev
	.weak	_ZTV6Entity
	.section	.data.rel.ro.local._ZTV6Entity,"awG",@progbits,_ZTV6Entity,comdat
	.align 8
	.type	_ZTV6Entity, @object
	.size	_ZTV6Entity, 56
_ZTV6Entity:
	.quad	0
	.quad	_ZTI6Entity
	.quad	_ZN6EntityD1Ev
	.quad	_ZN6EntityD0Ev
	.quad	_ZN6Entity4funcEv
	.quad	_ZN6Entity5func2Ev
	.quad	_ZN6Entity5func3Ev
	.weak	_ZTV7Virtual
	.section	.data.rel.ro._ZTV7Virtual,"awG",@progbits,_ZTV7Virtual,comdat
	.align 8
	.type	_ZTV7Virtual, @object
	.size	_ZTV7Virtual, 56
_ZTV7Virtual:
	.quad	0
	.quad	_ZTI7Virtual
	.quad	0
	.quad	0
	.quad	__cxa_pure_virtual
	.quad	__cxa_pure_virtual
	.quad	__cxa_pure_virtual
	.weak	_ZTI6Derive
	.section	.data.rel.ro._ZTI6Derive,"awG",@progbits,_ZTI6Derive,comdat
	.align 8
	.type	_ZTI6Derive, @object
	.size	_ZTI6Derive, 24
_ZTI6Derive:
	.quad	_ZTVN10__cxxabiv120__si_class_type_infoE+16
	.quad	_ZTS6Derive
	.quad	_ZTI6Entity
	.weak	_ZTS6Derive
	.section	.rodata._ZTS6Derive,"aG",@progbits,_ZTS6Derive,comdat
	.align 8
	.type	_ZTS6Derive, @object
	.size	_ZTS6Derive, 8
_ZTS6Derive:
	.string	"6Derive"
	.weak	_ZTI6Entity
	.section	.data.rel.ro._ZTI6Entity,"awG",@progbits,_ZTI6Entity,comdat
	.align 8
	.type	_ZTI6Entity, @object
	.size	_ZTI6Entity, 24
_ZTI6Entity:
	.quad	_ZTVN10__cxxabiv120__si_class_type_infoE+16
	.quad	_ZTS6Entity
	.quad	_ZTI7Virtual
	.weak	_ZTS6Entity
	.section	.rodata._ZTS6Entity,"aG",@progbits,_ZTS6Entity,comdat
	.align 8
	.type	_ZTS6Entity, @object
	.size	_ZTS6Entity, 8
_ZTS6Entity:
	.string	"6Entity"
	.weak	_ZTI7Virtual
	.section	.data.rel.ro._ZTI7Virtual,"awG",@progbits,_ZTI7Virtual,comdat
	.align 8
	.type	_ZTI7Virtual, @object
	.size	_ZTI7Virtual, 16
_ZTI7Virtual:
	.quad	_ZTVN10__cxxabiv117__class_type_infoE+16
	.quad	_ZTS7Virtual
	.weak	_ZTS7Virtual
	.section	.rodata._ZTS7Virtual,"aG",@progbits,_ZTS7Virtual,comdat
	.align 8
	.type	_ZTS7Virtual, @object
	.size	_ZTS7Virtual, 9
_ZTS7Virtual:
	.string	"7Virtual"
	.text
	.type	_Z41__static_initialization_and_destruction_0ii, @function
_Z41__static_initialization_and_destruction_0ii:
.LFB2044:
	.loc 1 123 1
	.cfi_startproc
	endbr64
	pushq	%rbp
	.cfi_def_cfa_offset 16
	.cfi_offset 6, -16
	movq	%rsp, %rbp
	.cfi_def_cfa_register 6
	subq	$16, %rsp
	movl	%edi, -4(%rbp)
	movl	%esi, -8(%rbp)
	.loc 1 123 1
	cmpl	$1, -4(%rbp)
	jne	.L31
	.loc 1 123 1 is_stmt 0 discriminator 1
	cmpl	$65535, -8(%rbp)
	jne	.L31
	.file 2 "/usr/include/c++/9/iostream"
	.loc 2 74 25 is_stmt 1
	leaq	_ZStL8__ioinit(%rip), %rdi
	call	_ZNSt8ios_base4InitC1Ev@PLT
	leaq	__dso_handle(%rip), %rdx
	leaq	_ZStL8__ioinit(%rip), %rsi
	movq	_ZNSt8ios_base4InitD1Ev@GOTPCREL(%rip), %rax
	movq	%rax, %rdi
	call	__cxa_atexit@PLT
.L31:
	.loc 1 123 1
	nop
	leave
	.cfi_def_cfa 7, 8
	ret
	.cfi_endproc
.LFE2044:
	.size	_Z41__static_initialization_and_destruction_0ii, .-_Z41__static_initialization_and_destruction_0ii
	.section	.text._ZN6DeriveD2Ev,"axG",@progbits,_ZN6DeriveD5Ev,comdat
	.align 2
	.weak	_ZN6DeriveD2Ev
	.type	_ZN6DeriveD2Ev, @function
_ZN6DeriveD2Ev:
.LFB2046:
	.loc 1 56 7
	.cfi_startproc
	endbr64
	pushq	%rbp
	.cfi_def_cfa_offset 16
	.cfi_offset 6, -16
	movq	%rsp, %rbp
	.cfi_def_cfa_register 6
	subq	$16, %rsp
	movq	%rdi, -8(%rbp)
.LBB9:
	.loc 1 56 7
	leaq	16+_ZTV6Derive(%rip), %rdx
	movq	-8(%rbp), %rax
	movq	%rdx, (%rax)
	movq	-8(%rbp), %rax
	movq	%rax, %rdi
	call	_ZN6EntityD2Ev
.LBE9:
	nop
	leave
	.cfi_def_cfa 7, 8
	ret
	.cfi_endproc
.LFE2046:
	.size	_ZN6DeriveD2Ev, .-_ZN6DeriveD2Ev
	.weak	_ZN6DeriveD1Ev
	.set	_ZN6DeriveD1Ev,_ZN6DeriveD2Ev
	.section	.text._ZN6DeriveD0Ev,"axG",@progbits,_ZN6DeriveD5Ev,comdat
	.align 2
	.weak	_ZN6DeriveD0Ev
	.type	_ZN6DeriveD0Ev, @function
_ZN6DeriveD0Ev:
.LFB2048:
	.loc 1 56 7
	.cfi_startproc
	endbr64
	pushq	%rbp
	.cfi_def_cfa_offset 16
	.cfi_offset 6, -16
	movq	%rsp, %rbp
	.cfi_def_cfa_register 6
	subq	$16, %rsp
	movq	%rdi, -8(%rbp)
	.loc 1 56 7
	movq	-8(%rbp), %rax
	movq	%rax, %rdi
	call	_ZN6DeriveD1Ev
	movq	-8(%rbp), %rax
	movl	$48, %esi
	movq	%rax, %rdi
	call	_ZdlPvm@PLT
	leave
	.cfi_def_cfa 7, 8
	ret
	.cfi_endproc
.LFE2048:
	.size	_ZN6DeriveD0Ev, .-_ZN6DeriveD0Ev
	.text
	.type	_GLOBAL__sub_I_main, @function
_GLOBAL__sub_I_main:
.LFB2049:
	.loc 1 123 1
	.cfi_startproc
	endbr64
	pushq	%rbp
	.cfi_def_cfa_offset 16
	.cfi_offset 6, -16
	movq	%rsp, %rbp
	.cfi_def_cfa_register 6
	.loc 1 123 1
	movl	$65535, %esi
	movl	$1, %edi
	call	_Z41__static_initialization_and_destruction_0ii
	popq	%rbp
	.cfi_def_cfa 7, 8
	ret
	.cfi_endproc
.LFE2049:
	.size	_GLOBAL__sub_I_main, .-_GLOBAL__sub_I_main
	.section	.init_array,"aw"
	.align 8
	.quad	_GLOBAL__sub_I_main
	.section	.rodata
	.align 8
.LC0:
	.long	0
	.long	1072693248
	.align 4
.LC1:
	.long	1065353216
	.text
.Letext0:
	.file 3 "/usr/include/c++/9/cwchar"
	.file 4 "/usr/include/c++/9/new"
	.file 5 "/usr/include/c++/9/bits/exception_ptr.h"
	.file 6 "/usr/include/c++/9/type_traits"
	.file 7 "/usr/include/x86_64-linux-gnu/c++/9/bits/c++config.h"
	.file 8 "/usr/include/c++/9/bits/cpp_type_traits.h"
	.file 9 "/usr/include/c++/9/bits/stl_pair.h"
	.file 10 "/usr/include/c++/9/debug/debug.h"
	.file 11 "/usr/include/c++/9/bits/char_traits.h"
	.file 12 "/usr/include/c++/9/cstdint"
	.file 13 "/usr/include/c++/9/clocale"
	.file 14 "/usr/include/c++/9/cstdlib"
	.file 15 "/usr/include/c++/9/cstdio"
	.file 16 "/usr/include/c++/9/bits/basic_string.h"
	.file 17 "/usr/include/c++/9/system_error"
	.file 18 "/usr/include/c++/9/bits/ios_base.h"
	.file 19 "/usr/include/c++/9/cwctype"
	.file 20 "/usr/include/c++/9/iosfwd"
	.file 21 "/usr/include/c++/9/bits/predefined_ops.h"
	.file 22 "/usr/include/c++/9/ext/new_allocator.h"
	.file 23 "/usr/include/c++/9/ext/numeric_traits.h"
	.file 24 "/usr/lib/gcc/x86_64-linux-gnu/9/include/stddef.h"
	.file 25 "<built-in>"
	.file 26 "/usr/include/x86_64-linux-gnu/bits/types/wint_t.h"
	.file 27 "/usr/include/x86_64-linux-gnu/bits/types/__mbstate_t.h"
	.file 28 "/usr/include/x86_64-linux-gnu/bits/types/mbstate_t.h"
	.file 29 "/usr/include/x86_64-linux-gnu/bits/types/__FILE.h"
	.file 30 "/usr/include/x86_64-linux-gnu/bits/types/struct_FILE.h"
	.file 31 "/usr/include/x86_64-linux-gnu/bits/types/FILE.h"
	.file 32 "/usr/include/wchar.h"
	.file 33 "/usr/include/x86_64-linux-gnu/bits/types/struct_tm.h"
	.file 34 "/usr/include/x86_64-linux-gnu/bits/types.h"
	.file 35 "/usr/include/x86_64-linux-gnu/bits/stdint-intn.h"
	.file 36 "/usr/include/x86_64-linux-gnu/bits/stdint-uintn.h"
	.file 37 "/usr/include/stdint.h"
	.file 38 "/usr/include/locale.h"
	.file 39 "/usr/include/time.h"
	.file 40 "/usr/include/x86_64-linux-gnu/c++/9/bits/atomic_word.h"
	.file 41 "/usr/include/stdlib.h"
	.file 42 "/usr/include/x86_64-linux-gnu/bits/types/__fpos_t.h"
	.file 43 "/usr/include/stdio.h"
	.file 44 "/usr/include/x86_64-linux-gnu/bits/sys_errlist.h"
	.file 45 "/usr/include/errno.h"
	.file 46 "/usr/include/x86_64-linux-gnu/bits/wctype-wchar.h"
	.file 47 "/usr/include/wctype.h"
	.file 48 "/usr/include/c++/9/bits/stl_iterator_base_types.h"
	.section	.data.rel.local.DW.ref.__gxx_personality_v0,"awG",@progbits,DW.ref.__gxx_personality_v0,comdat
	.align 8
	.type	DW.ref.__gxx_personality_v0, @object
	.size	DW.ref.__gxx_personality_v0, 8
DW.ref.__gxx_personality_v0:
	.quad	__gxx_personality_v0
	.hidden	__dso_handle
	.ident	"GCC: (Ubuntu 9.3.0-17ubuntu1~20.04) 9.3.0"
	.section	.note.GNU-stack,"",@progbits
	.section	.note.gnu.property,"a"
	.align 8
	.long	 1f - 0f
	.long	 4f - 1f
	.long	 5
0:
	.string	 "GNU"
1:
	.align 8
	.long	 0xc0000002
	.long	 3f - 2f
2:
	.long	 0x3
3:
	.align 8
4:
