	.file	"mainptrtest.cpp"
	.text
.Ltext0:
	.section	.text._ZNKSt9type_infoeqERKS_,"axG",@progbits,_ZNKSt9type_infoeqERKS_,comdat
	.align 2
	.weak	_ZNKSt9type_infoeqERKS_
	.type	_ZNKSt9type_infoeqERKS_, @function
_ZNKSt9type_infoeqERKS_:
.LFB20:
	.file 1 "/usr/include/c++/9/typeinfo"
	.loc 1 120 10
	.cfi_startproc
	endbr64
	pushq	%rbp
	.cfi_def_cfa_offset 16
	.cfi_offset 6, -16
	movq	%rsp, %rbp
	.cfi_def_cfa_register 6
	subq	$16, %rsp
	movq	%rdi, -8(%rbp)
	movq	%rsi, -16(%rbp)
	.loc 1 122 16
	movq	-8(%rbp), %rax
	movq	8(%rax), %rdx
	.loc 1 122 32
	movq	-16(%rbp), %rax
	movq	8(%rax), %rax
	.loc 1 123 8
	cmpq	%rax, %rdx
	je	.L2
	.loc 1 123 12 discriminator 2
	movq	-8(%rbp), %rax
	movq	8(%rax), %rax
	.loc 1 123 20 discriminator 2
	movzbl	(%rax), %eax
	.loc 1 123 8 discriminator 2
	cmpb	$42, %al
	je	.L3
	.loc 1 124 37 discriminator 3
	movq	-16(%rbp), %rax
	movq	8(%rax), %rdx
	.loc 1 124 23 discriminator 3
	movq	-8(%rbp), %rax
	movq	8(%rax), %rax
	.loc 1 124 22 discriminator 3
	movq	%rdx, %rsi
	movq	%rax, %rdi
	call	strcmp@PLT
	.loc 1 123 29 discriminator 3
	testl	%eax, %eax
	jne	.L3
.L2:
	.loc 1 123 8 discriminator 5
	movl	$1, %eax
	jmp	.L4
.L3:
	.loc 1 123 8 is_stmt 0 discriminator 6
	movl	$0, %eax
.L4:
	.loc 1 125 5 is_stmt 1
	leave
	.cfi_def_cfa 7, 8
	ret
	.cfi_endproc
.LFE20:
	.size	_ZNKSt9type_infoeqERKS_, .-_ZNKSt9type_infoeqERKS_
	.section	.text._ZnwmPv,"axG",@progbits,_ZnwmPv,comdat
	.weak	_ZnwmPv
	.type	_ZnwmPv, @function
_ZnwmPv:
.LFB38:
	.file 2 "/usr/include/c++/9/new"
	.loc 2 174 1
	.cfi_startproc
	endbr64
	pushq	%rbp
	.cfi_def_cfa_offset 16
	.cfi_offset 6, -16
	movq	%rsp, %rbp
	.cfi_def_cfa_register 6
	movq	%rdi, -8(%rbp)
	movq	%rsi, -16(%rbp)
	.loc 2 174 10
	movq	-16(%rbp), %rax
	.loc 2 174 15
	popq	%rbp
	.cfi_def_cfa 7, 8
	ret
	.cfi_endproc
.LFE38:
	.size	_ZnwmPv, .-_ZnwmPv
	.section	.data.rel.ro,"aw"
	.align 8
	.type	_ZZL18__gthread_active_pvE20__gthread_active_ptr, @object
	.size	_ZZL18__gthread_active_pvE20__gthread_active_ptr, 8
_ZZL18__gthread_active_pvE20__gthread_active_ptr:
	.quad	_ZL28__gthrw___pthread_key_createPjPFvPvE
	.text
	.type	_ZL18__gthread_active_pv, @function
_ZL18__gthread_active_pv:
.LFB467:
	.file 3 "/usr/include/x86_64-linux-gnu/c++/9/bits/gthr-default.h"
	.loc 3 249 1
	.cfi_startproc
	pushq	%rbp
	.cfi_def_cfa_offset 16
	.cfi_offset 6, -16
	movq	%rsp, %rbp
	.cfi_def_cfa_register 6
	.loc 3 252 31
	movl	$1, %edx
	movq	_ZL28__gthrw___pthread_key_createPjPFvPvE@GOTPCREL(%rip), %rax
	testq	%rax, %rax
	jne	.L9
	movl	$0, %edx
.L9:
	.loc 3 252 34
	movzbl	%dl, %eax
	.loc 3 253 1
	popq	%rbp
	.cfi_def_cfa 7, 8
	ret
	.cfi_endproc
.LFE467:
	.size	_ZL18__gthread_active_pv, .-_ZL18__gthread_active_pv
	.section	.text._ZN9__gnu_cxxL18__exchange_and_addEPVii,"axG",@progbits,_ZNSt16_Sp_counted_baseILN9__gnu_cxx12_Lock_policyE2EE10_M_releaseEv,comdat
	.type	_ZN9__gnu_cxxL18__exchange_and_addEPVii, @function
_ZN9__gnu_cxxL18__exchange_and_addEPVii:
.LFB496:
	.file 4 "/usr/include/c++/9/ext/atomicity.h"
	.loc 4 49 3
	.cfi_startproc
	pushq	%rbp
	.cfi_def_cfa_offset 16
	.cfi_offset 6, -16
	movq	%rsp, %rbp
	.cfi_def_cfa_register 6
	movq	%rdi, -8(%rbp)
	movl	%esi, -12(%rbp)
	.loc 4 49 46
	movl	-12(%rbp), %edx
	movq	-8(%rbp), %rax
	lock xaddl	%edx, (%rax)
	movl	%edx, %eax
	.loc 4 49 49
	popq	%rbp
	.cfi_def_cfa 7, 8
	ret
	.cfi_endproc
.LFE496:
	.size	_ZN9__gnu_cxxL18__exchange_and_addEPVii, .-_ZN9__gnu_cxxL18__exchange_and_addEPVii
	.section	.text._ZN9__gnu_cxxL12__atomic_addEPVii,"axG",@progbits,_ZNSt16_Sp_counted_baseILN9__gnu_cxx12_Lock_policyE2EE15_M_add_ref_copyEv,comdat
	.type	_ZN9__gnu_cxxL12__atomic_addEPVii, @function
_ZN9__gnu_cxxL12__atomic_addEPVii:
.LFB497:
	.loc 4 53 3
	.cfi_startproc
	pushq	%rbp
	.cfi_def_cfa_offset 16
	.cfi_offset 6, -16
	movq	%rsp, %rbp
	.cfi_def_cfa_register 6
	movq	%rdi, -8(%rbp)
	movl	%esi, -12(%rbp)
	.loc 4 53 39
	movl	-12(%rbp), %edx
	movq	-8(%rbp), %rax
	lock addl	%edx, (%rax)
	.loc 4 53 42
	nop
	popq	%rbp
	.cfi_def_cfa 7, 8
	ret
	.cfi_endproc
.LFE497:
	.size	_ZN9__gnu_cxxL12__atomic_addEPVii, .-_ZN9__gnu_cxxL12__atomic_addEPVii
	.section	.text._ZN9__gnu_cxxL25__exchange_and_add_singleEPii,"axG",@progbits,_ZNSt16_Sp_counted_baseILN9__gnu_cxx12_Lock_policyE2EE10_M_releaseEv,comdat
	.type	_ZN9__gnu_cxxL25__exchange_and_add_singleEPii, @function
_ZN9__gnu_cxxL25__exchange_and_add_singleEPii:
.LFB498:
	.loc 4 66 3
	.cfi_startproc
	pushq	%rbp
	.cfi_def_cfa_offset 16
	.cfi_offset 6, -16
	movq	%rsp, %rbp
	.cfi_def_cfa_register 6
	movq	%rdi, -24(%rbp)
	movl	%esi, -28(%rbp)
	.loc 4 67 18
	movq	-24(%rbp), %rax
	movl	(%rax), %eax
	movl	%eax, -4(%rbp)
	.loc 4 68 12
	movq	-24(%rbp), %rax
	movl	(%rax), %edx
	movl	-28(%rbp), %eax
	addl	%eax, %edx
	movq	-24(%rbp), %rax
	movl	%edx, (%rax)
	.loc 4 69 12
	movl	-4(%rbp), %eax
	.loc 4 70 3
	popq	%rbp
	.cfi_def_cfa 7, 8
	ret
	.cfi_endproc
.LFE498:
	.size	_ZN9__gnu_cxxL25__exchange_and_add_singleEPii, .-_ZN9__gnu_cxxL25__exchange_and_add_singleEPii
	.section	.text._ZN9__gnu_cxxL19__atomic_add_singleEPii,"axG",@progbits,_ZNSt16_Sp_counted_baseILN9__gnu_cxx12_Lock_policyE2EE15_M_add_ref_copyEv,comdat
	.type	_ZN9__gnu_cxxL19__atomic_add_singleEPii, @function
_ZN9__gnu_cxxL19__atomic_add_singleEPii:
.LFB499:
	.loc 4 74 3
	.cfi_startproc
	pushq	%rbp
	.cfi_def_cfa_offset 16
	.cfi_offset 6, -16
	movq	%rsp, %rbp
	.cfi_def_cfa_register 6
	movq	%rdi, -8(%rbp)
	movl	%esi, -12(%rbp)
	.loc 4 74 12
	movq	-8(%rbp), %rax
	movl	(%rax), %edx
	movl	-12(%rbp), %eax
	addl	%eax, %edx
	movq	-8(%rbp), %rax
	movl	%edx, (%rax)
	.loc 4 74 22
	nop
	popq	%rbp
	.cfi_def_cfa 7, 8
	ret
	.cfi_endproc
.LFE499:
	.size	_ZN9__gnu_cxxL19__atomic_add_singleEPii, .-_ZN9__gnu_cxxL19__atomic_add_singleEPii
	.section	.text._ZN9__gnu_cxxL27__exchange_and_add_dispatchEPii,"axG",@progbits,_ZNSt16_Sp_counted_baseILN9__gnu_cxx12_Lock_policyE2EE10_M_releaseEv,comdat
	.type	_ZN9__gnu_cxxL27__exchange_and_add_dispatchEPii, @function
_ZN9__gnu_cxxL27__exchange_and_add_dispatchEPii:
.LFB500:
	.loc 4 79 3
	.cfi_startproc
	pushq	%rbp
	.cfi_def_cfa_offset 16
	.cfi_offset 6, -16
	movq	%rsp, %rbp
	.cfi_def_cfa_register 6
	subq	$16, %rsp
	movq	%rdi, -8(%rbp)
	movl	%esi, -12(%rbp)
	.loc 4 81 27
	call	_ZL18__gthread_active_pv
	.loc 4 81 29
	testl	%eax, %eax
	setne	%al
	.loc 4 81 5
	testb	%al, %al
	je	.L18
	.loc 4 82 32
	movl	-12(%rbp), %edx
	movq	-8(%rbp), %rax
	movl	%edx, %esi
	movq	%rax, %rdi
	call	_ZN9__gnu_cxxL18__exchange_and_addEPVii
	.loc 4 82 45
	jmp	.L19
.L18:
	.loc 4 84 39
	movl	-12(%rbp), %edx
	movq	-8(%rbp), %rax
	movl	%edx, %esi
	movq	%rax, %rdi
	call	_ZN9__gnu_cxxL25__exchange_and_add_singleEPii
	.loc 4 84 52
	nop
.L19:
	.loc 4 88 3
	leave
	.cfi_def_cfa 7, 8
	ret
	.cfi_endproc
.LFE500:
	.size	_ZN9__gnu_cxxL27__exchange_and_add_dispatchEPii, .-_ZN9__gnu_cxxL27__exchange_and_add_dispatchEPii
	.section	.text._ZN9__gnu_cxxL21__atomic_add_dispatchEPii,"axG",@progbits,_ZNSt16_Sp_counted_baseILN9__gnu_cxx12_Lock_policyE2EE15_M_add_ref_copyEv,comdat
	.type	_ZN9__gnu_cxxL21__atomic_add_dispatchEPii, @function
_ZN9__gnu_cxxL21__atomic_add_dispatchEPii:
.LFB501:
	.loc 4 93 3
	.cfi_startproc
	pushq	%rbp
	.cfi_def_cfa_offset 16
	.cfi_offset 6, -16
	movq	%rsp, %rbp
	.cfi_def_cfa_register 6
	subq	$16, %rsp
	movq	%rdi, -8(%rbp)
	movl	%esi, -12(%rbp)
	.loc 4 95 27
	call	_ZL18__gthread_active_pv
	.loc 4 95 29
	testl	%eax, %eax
	setne	%al
	.loc 4 95 5
	testb	%al, %al
	je	.L21
	.loc 4 96 19
	movl	-12(%rbp), %edx
	movq	-8(%rbp), %rax
	movl	%edx, %esi
	movq	%rax, %rdi
	call	_ZN9__gnu_cxxL12__atomic_addEPVii
	.loc 4 102 3
	jmp	.L23
.L21:
	.loc 4 98 26
	movl	-12(%rbp), %edx
	movq	-8(%rbp), %rax
	movl	%edx, %esi
	movq	%rax, %rdi
	call	_ZN9__gnu_cxxL19__atomic_add_singleEPii
.L23:
	.loc 4 102 3
	nop
	leave
	.cfi_def_cfa 7, 8
	ret
	.cfi_endproc
.LFE501:
	.size	_ZN9__gnu_cxxL21__atomic_add_dispatchEPii, .-_ZN9__gnu_cxxL21__atomic_add_dispatchEPii
	.local	_ZStL8__ioinit
	.comm	_ZStL8__ioinit,1,1
	.section	.rodata
	.align 4
	.type	_ZN9__gnu_cxxL21__default_lock_policyE, @object
	.size	_ZN9__gnu_cxxL21__default_lock_policyE, 4
_ZN9__gnu_cxxL21__default_lock_policyE:
	.long	2
	.weak	_ZZNSt19_Sp_make_shared_tag5_S_tiEvE5__tag
	.section	.rodata._ZZNSt19_Sp_make_shared_tag5_S_tiEvE5__tag,"aG",@progbits,_ZZNSt19_Sp_make_shared_tag5_S_tiEvE5__tag,comdat
	.align 8
	.type	_ZZNSt19_Sp_make_shared_tag5_S_tiEvE5__tag, @gnu_unique_object
	.size	_ZZNSt19_Sp_make_shared_tag5_S_tiEvE5__tag, 16
_ZZNSt19_Sp_make_shared_tag5_S_tiEvE5__tag:
	.zero	16
	.section	.text._ZNSt19_Sp_make_shared_tag5_S_tiEv,"axG",@progbits,_ZNSt19_Sp_make_shared_tag5_S_tiEv,comdat
	.weak	_ZNSt19_Sp_make_shared_tag5_S_tiEv
	.type	_ZNSt19_Sp_make_shared_tag5_S_tiEv, @function
_ZNSt19_Sp_make_shared_tag5_S_tiEv:
.LFB2357:
	.file 5 "/usr/include/c++/9/bits/shared_ptr_base.h"
	.loc 5 508 5
	.cfi_startproc
	endbr64
	pushq	%rbp
	.cfi_def_cfa_offset 16
	.cfi_offset 6, -16
	movq	%rsp, %rbp
	.cfi_def_cfa_register 6
	.loc 5 511 54
	leaq	_ZZNSt19_Sp_make_shared_tag5_S_tiEvE5__tag(%rip), %rax
	.loc 5 512 5
	popq	%rbp
	.cfi_def_cfa 7, 8
	ret
	.cfi_endproc
.LFE2357:
	.size	_ZNSt19_Sp_make_shared_tag5_S_tiEv, .-_ZNSt19_Sp_make_shared_tag5_S_tiEv
	.section	.rodata
	.type	_ZN6__pstl9execution2v1L3seqE, @object
	.size	_ZN6__pstl9execution2v1L3seqE, 1
_ZN6__pstl9execution2v1L3seqE:
	.zero	1
	.type	_ZN6__pstl9execution2v1L3parE, @object
	.size	_ZN6__pstl9execution2v1L3parE, 1
_ZN6__pstl9execution2v1L3parE:
	.zero	1
	.type	_ZN6__pstl9execution2v1L9par_unseqE, @object
	.size	_ZN6__pstl9execution2v1L9par_unseqE, 1
_ZN6__pstl9execution2v1L9par_unseqE:
	.zero	1
	.type	_ZN6__pstl9execution2v1L5unseqE, @object
	.size	_ZN6__pstl9execution2v1L5unseqE, 1
_ZN6__pstl9execution2v1L5unseqE:
	.zero	1
	.section	.text._ZNSt12__shared_ptrIiLN9__gnu_cxx12_Lock_policyE2EED2Ev,"axG",@progbits,_ZNSt12__shared_ptrIiLN9__gnu_cxx12_Lock_policyE2EED5Ev,comdat
	.align 2
	.weak	_ZNSt12__shared_ptrIiLN9__gnu_cxx12_Lock_policyE2EED2Ev
	.type	_ZNSt12__shared_ptrIiLN9__gnu_cxx12_Lock_policyE2EED2Ev, @function
_ZNSt12__shared_ptrIiLN9__gnu_cxx12_Lock_policyE2EED2Ev:
.LFB2725:
	.loc 5 1169 7
	.cfi_startproc
	endbr64
	pushq	%rbp
	.cfi_def_cfa_offset 16
	.cfi_offset 6, -16
	movq	%rsp, %rbp
	.cfi_def_cfa_register 6
	subq	$16, %rsp
	movq	%rdi, -8(%rbp)
.LBB2:
	.loc 5 1169 7
	movq	-8(%rbp), %rax
	addq	$8, %rax
	movq	%rax, %rdi
	call	_ZNSt14__shared_countILN9__gnu_cxx12_Lock_policyE2EED1Ev
.LBE2:
	nop
	leave
	.cfi_def_cfa 7, 8
	ret
	.cfi_endproc
.LFE2725:
	.size	_ZNSt12__shared_ptrIiLN9__gnu_cxx12_Lock_policyE2EED2Ev, .-_ZNSt12__shared_ptrIiLN9__gnu_cxx12_Lock_policyE2EED2Ev
	.weak	_ZNSt12__shared_ptrIiLN9__gnu_cxx12_Lock_policyE2EED1Ev
	.set	_ZNSt12__shared_ptrIiLN9__gnu_cxx12_Lock_policyE2EED1Ev,_ZNSt12__shared_ptrIiLN9__gnu_cxx12_Lock_policyE2EED2Ev
	.section	.text._ZNSt14__shared_countILN9__gnu_cxx12_Lock_policyE2EEC1Ev,"axG",@progbits,_ZNSt14__shared_countILN9__gnu_cxx12_Lock_policyE2EEC1Ev,comdat
	.align 2
	.weak	_ZNSt14__shared_countILN9__gnu_cxx12_Lock_policyE2EEC1Ev
	.type	_ZNSt14__shared_countILN9__gnu_cxx12_Lock_policyE2EEC1Ev, @function
_ZNSt14__shared_countILN9__gnu_cxx12_Lock_policyE2EEC1Ev:
.LFB2734:
	.loc 5 616 17
	.cfi_startproc
	endbr64
	pushq	%rbp
	.cfi_def_cfa_offset 16
	.cfi_offset 6, -16
	movq	%rsp, %rbp
	.cfi_def_cfa_register 6
	movq	%rdi, -8(%rbp)
.LBB3:
	.loc 5 616 52
	movq	-8(%rbp), %rax
	movq	$0, (%rax)
.LBE3:
	.loc 5 617 9
	nop
	popq	%rbp
	.cfi_def_cfa 7, 8
	ret
	.cfi_endproc
.LFE2734:
	.size	_ZNSt14__shared_countILN9__gnu_cxx12_Lock_policyE2EEC1Ev, .-_ZNSt14__shared_countILN9__gnu_cxx12_Lock_policyE2EEC1Ev
	.section	.text._ZNSt10shared_ptrIiED2Ev,"axG",@progbits,_ZNSt10shared_ptrIiED5Ev,comdat
	.align 2
	.weak	_ZNSt10shared_ptrIiED2Ev
	.type	_ZNSt10shared_ptrIiED2Ev, @function
_ZNSt10shared_ptrIiED2Ev:
.LFB2736:
	.file 6 "/usr/include/c++/9/bits/shared_ptr.h"
	.loc 6 103 11
	.cfi_startproc
	endbr64
	pushq	%rbp
	.cfi_def_cfa_offset 16
	.cfi_offset 6, -16
	movq	%rsp, %rbp
	.cfi_def_cfa_register 6
	subq	$16, %rsp
	movq	%rdi, -8(%rbp)
.LBB4:
	.loc 6 103 11
	movq	-8(%rbp), %rax
	movq	%rax, %rdi
	call	_ZNSt12__shared_ptrIiLN9__gnu_cxx12_Lock_policyE2EED2Ev
.LBE4:
	nop
	leave
	.cfi_def_cfa 7, 8
	ret
	.cfi_endproc
.LFE2736:
	.size	_ZNSt10shared_ptrIiED2Ev, .-_ZNSt10shared_ptrIiED2Ev
	.weak	_ZNSt10shared_ptrIiED1Ev
	.set	_ZNSt10shared_ptrIiED1Ev,_ZNSt10shared_ptrIiED2Ev
	.text
	.globl	main
	.type	main, @function
main:
.LFB2722:
	.file 7 "../mainptrtest.cpp"
	.loc 7 9 1
	.cfi_startproc
	.cfi_personality 0x9b,DW.ref.__gxx_personality_v0
	.cfi_lsda 0x1b,.LLSDA2722
	endbr64
	pushq	%rbp
	.cfi_def_cfa_offset 16
	.cfi_offset 6, -16
	movq	%rsp, %rbp
	.cfi_def_cfa_register 6
	pushq	%rbx
	subq	$184, %rsp
	.cfi_offset 3, -24
	.loc 7 9 1
	movq	%fs:40, %rax
	movq	%rax, -24(%rbp)
	xorl	%eax, %eax
	.loc 7 10 25
	movq	$0, -176(%rbp)
	movq	$0, -168(%rbp)
	.loc 7 11 38
	movl	$4, %edi
.LEHB0:
	call	_Znwm@PLT
	movl	$10, (%rax)
	.loc 7 11 12
	leaq	-160(%rbp), %rdx
	movq	%rax, %rsi
	movq	%rdx, %rdi
	call	_ZNSt10shared_ptrIiEC1IivEEPT_
.LEHE0:
	.loc 7 11 39 discriminator 2
	leaq	-160(%rbp), %rdx
	leaq	-176(%rbp), %rax
	movq	%rdx, %rsi
	movq	%rax, %rdi
	call	_ZNSt10shared_ptrIiEaSEOS0_
	.loc 7 11 12 discriminator 2
	leaq	-160(%rbp), %rax
	movq	%rax, %rdi
	call	_ZNSt10shared_ptrIiED1Ev
	.loc 7 12 25 discriminator 2
	movq	$0, -144(%rbp)
	movq	$0, -136(%rbp)
	.loc 7 13 25 discriminator 2
	movq	$0, -128(%rbp)
	movq	$0, -120(%rbp)
	.loc 7 14 24 discriminator 2
	movl	$4, %edi
.LEHB1:
	call	_Znwm@PLT
	movl	$15, (%rax)
	movq	%rax, -192(%rbp)
	.loc 7 15 31 discriminator 2
	movq	-192(%rbp), %rdx
	leaq	-112(%rbp), %rax
	movq	%rdx, %rsi
	movq	%rax, %rdi
	call	_ZNSt10shared_ptrIiEC1IivEEPT_
.LEHE1:
	.loc 7 16 23
	leaq	-144(%rbp), %rax
	movq	%rax, %rdi
	call	_ZNKSt12__shared_ptrIiLN9__gnu_cxx12_Lock_policyE2EE3getEv
	.loc 7 16 24
	movq	%rax, %rsi
	leaq	_ZSt4cout(%rip), %rdi
.LEHB2:
	call	_ZNSolsEPKv@PLT
	.loc 7 16 27
	movl	$32, %esi
	movq	%rax, %rdi
	call	_ZStlsISt11char_traitsIcEERSt13basic_ostreamIcT_ES5_c@PLT
	.loc 7 16 27 is_stmt 0 discriminator 1
	movq	%rax, %rbx
	.loc 7 16 38 is_stmt 1 discriminator 1
	leaq	-128(%rbp), %rax
	movq	%rax, %rdi
	call	_ZNKSt12__shared_ptrIiLN9__gnu_cxx12_Lock_policyE2EE3getEv
	.loc 7 16 39 discriminator 1
	movq	%rax, %rsi
	movq	%rbx, %rdi
	call	_ZNSolsEPKv@PLT
	.loc 7 16 42 discriminator 2
	movl	$32, %esi
	movq	%rax, %rdi
	call	_ZStlsISt11char_traitsIcEERSt13basic_ostreamIcT_ES5_c@PLT
	.loc 7 16 42 is_stmt 0 discriminator 3
	movq	%rax, %rbx
	.loc 7 16 53 is_stmt 1 discriminator 3
	leaq	-112(%rbp), %rax
	movq	%rax, %rdi
	call	_ZNKSt12__shared_ptrIiLN9__gnu_cxx12_Lock_policyE2EE3getEv
	.loc 7 16 54 discriminator 3
	movq	%rax, %rsi
	movq	%rbx, %rdi
	call	_ZNSolsEPKv@PLT
	.loc 7 16 54 is_stmt 0 discriminator 4
	movq	%rax, %rdx
	.loc 7 16 62 is_stmt 1 discriminator 4
	movq	_ZSt4endlIcSt11char_traitsIcEERSt13basic_ostreamIT_T0_ES6_@GOTPCREL(%rip), %rax
	movq	%rax, %rsi
	movq	%rdx, %rdi
	call	_ZNSolsEPFRSoS_E@PLT
	.loc 7 17 30
	leaq	-144(%rbp), %rax
	movq	%rax, %rdi
	call	_ZNKSt12__shared_ptrIiLN9__gnu_cxx12_Lock_policyE2EE9use_countEv
	movq	%rax, %rsi
	leaq	_ZSt4cout(%rip), %rdi
	call	_ZNSolsEl@PLT
	.loc 7 17 33
	movl	$32, %esi
	movq	%rax, %rdi
	call	_ZStlsISt11char_traitsIcEERSt13basic_ostreamIcT_ES5_c@PLT
	.loc 7 17 33 is_stmt 0 discriminator 1
	movq	%rax, %rbx
	.loc 7 17 51 is_stmt 1 discriminator 1
	leaq	-128(%rbp), %rax
	movq	%rax, %rdi
	call	_ZNKSt12__shared_ptrIiLN9__gnu_cxx12_Lock_policyE2EE9use_countEv
	movq	%rax, %rsi
	movq	%rbx, %rdi
	call	_ZNSolsEl@PLT
	.loc 7 17 54 discriminator 2
	movl	$32, %esi
	movq	%rax, %rdi
	call	_ZStlsISt11char_traitsIcEERSt13basic_ostreamIcT_ES5_c@PLT
	.loc 7 17 54 is_stmt 0 discriminator 3
	movq	%rax, %rbx
	.loc 7 17 72 is_stmt 1 discriminator 3
	leaq	-112(%rbp), %rax
	movq	%rax, %rdi
	call	_ZNKSt12__shared_ptrIiLN9__gnu_cxx12_Lock_policyE2EE9use_countEv
	movq	%rax, %rsi
	movq	%rbx, %rdi
	call	_ZNSolsEl@PLT
	.loc 7 17 72 is_stmt 0 discriminator 4
	movq	%rax, %rdx
	.loc 7 17 80 is_stmt 1 discriminator 4
	movq	_ZSt4endlIcSt11char_traitsIcEERSt13basic_ostreamIT_T0_ES6_@GOTPCREL(%rip), %rax
	movq	%rax, %rsi
	movq	%rdx, %rdi
	call	_ZNSolsEPFRSoS_E@PLT
	.loc 7 18 24
	movl	$4, %edi
	call	_Znwm@PLT
	movl	$20, (%rax)
	movq	%rax, -184(%rbp)
	.loc 7 19 30
	movq	-184(%rbp), %rdx
	leaq	-96(%rbp), %rax
	movq	%rdx, %rsi
	movq	%rax, %rdi
	call	_ZNSt10shared_ptrIiEC1IivEEPT_
.LEHE2:
	.loc 7 20 33
	movq	-184(%rbp), %rdx
	leaq	-112(%rbp), %rcx
	leaq	-80(%rbp), %rax
	movq	%rcx, %rsi
	movq	%rax, %rdi
	call	_ZNSt10shared_ptrIiEC1IiEERKS_IT_EPi
	.loc 7 21 19
	leaq	-80(%rbp), %rax
	movq	%rax, %rdi
	call	_ZNKSt19__shared_ptr_accessIiLN9__gnu_cxx12_Lock_policyE2ELb0ELb0EEdeEv
	movl	(%rax), %eax
	movl	%eax, %esi
	leaq	_ZSt4cout(%rip), %rdi
.LEHB3:
	call	_ZNSolsEi@PLT
	movq	%rax, %rbx
	.loc 7 21 30
	leaq	-80(%rbp), %rax
	movq	%rax, %rdi
	call	_ZNKSt12__shared_ptrIiLN9__gnu_cxx12_Lock_policyE2EE3getEv
	.loc 7 21 34
	movl	(%rax), %eax
	movl	%eax, %esi
	movq	%rbx, %rdi
	call	_ZNSolsEi@PLT
	.loc 7 21 34 is_stmt 0 discriminator 1
	movl	$32, %esi
	movq	%rax, %rdi
	call	_ZStlsISt11char_traitsIcEERSt13basic_ostreamIcT_ES5_c@PLT
	.loc 7 21 34 discriminator 2
	movq	%rax, %rbx
	.loc 7 21 52 is_stmt 1 discriminator 2
	leaq	-80(%rbp), %rax
	movq	%rax, %rdi
	call	_ZNKSt12__shared_ptrIiLN9__gnu_cxx12_Lock_policyE2EE9use_countEv
	movq	%rax, %rsi
	movq	%rbx, %rdi
	call	_ZNSolsEl@PLT
	.loc 7 21 52 is_stmt 0 discriminator 3
	movq	%rax, %rdx
	.loc 7 21 60 is_stmt 1 discriminator 3
	movq	_ZSt4endlIcSt11char_traitsIcEERSt13basic_ostreamIT_T0_ES6_@GOTPCREL(%rip), %rax
	movq	%rax, %rsi
	movq	%rdx, %rdi
	call	_ZNSolsEPFRSoS_E@PLT
.LEHE3:
	.loc 7 22 25
	movq	$0, -64(%rbp)
	movq	$0, -56(%rbp)
	.loc 7 23 30
	movl	$6, -160(%rbp)
	.loc 7 23 29
	leaq	-48(%rbp), %rax
	leaq	-160(%rbp), %rdx
	movq	%rdx, %rsi
	movq	%rax, %rdi
.LEHB4:
	call	_ZSt11make_sharedIiJiEESt10shared_ptrIT_EDpOT0_
	.loc 7 23 31 discriminator 2
	leaq	-48(%rbp), %rdx
	leaq	-64(%rbp), %rax
	movq	%rdx, %rsi
	movq	%rax, %rdi
	call	_ZNSt10shared_ptrIiEaSEOS0_
	.loc 7 23 29 discriminator 2
	leaq	-48(%rbp), %rax
	movq	%rax, %rdi
	call	_ZNSt10shared_ptrIiED1Ev
	.loc 7 24 18 discriminator 2
	leaq	-64(%rbp), %rax
	movq	%rax, %rdi
	call	_ZNKSt19__shared_ptr_accessIiLN9__gnu_cxx12_Lock_policyE2ELb0ELb0EEdeEv
	movl	(%rax), %eax
	movl	%eax, %esi
	leaq	_ZSt4cout(%rip), %rdi
	call	_ZNSolsEi@PLT
	movq	%rax, %rdx
	.loc 7 24 27 discriminator 2
	movq	_ZSt4endlIcSt11char_traitsIcEERSt13basic_ostreamIT_T0_ES6_@GOTPCREL(%rip), %rax
	movq	%rax, %rsi
	movq	%rdx, %rdi
	call	_ZNSolsEPFRSoS_E@PLT
.LEHE4:
	.loc 7 22 25
	leaq	-64(%rbp), %rax
	movq	%rax, %rdi
	call	_ZNSt10shared_ptrIiED1Ev
	.loc 7 20 33
	leaq	-80(%rbp), %rax
	movq	%rax, %rdi
	call	_ZNSt10shared_ptrIiED1Ev
	.loc 7 19 30
	leaq	-96(%rbp), %rax
	movq	%rax, %rdi
	call	_ZNSt10shared_ptrIiED1Ev
	.loc 7 15 31
	leaq	-112(%rbp), %rax
	movq	%rax, %rdi
	call	_ZNSt10shared_ptrIiED1Ev
	.loc 7 13 35
	leaq	-128(%rbp), %rax
	movq	%rax, %rdi
	call	_ZNSt10shared_ptrIiED1Ev
	.loc 7 12 25
	leaq	-144(%rbp), %rax
	movq	%rax, %rdi
	call	_ZNSt10shared_ptrIiED1Ev
	.loc 7 10 25
	leaq	-176(%rbp), %rax
	movq	%rax, %rdi
	call	_ZNSt10shared_ptrIiED1Ev
	.loc 7 25 1
	movl	$0, %eax
	movq	-24(%rbp), %rcx
	xorq	%fs:40, %rcx
	je	.L36
	jmp	.L42
.L41:
	endbr64
	movq	%rax, %rbx
	.loc 7 22 25
	leaq	-64(%rbp), %rax
	movq	%rax, %rdi
	call	_ZNSt10shared_ptrIiED1Ev
	jmp	.L32
.L40:
	endbr64
	movq	%rax, %rbx
.L32:
	.loc 7 20 33
	leaq	-80(%rbp), %rax
	movq	%rax, %rdi
	call	_ZNSt10shared_ptrIiED1Ev
	.loc 7 19 30
	leaq	-96(%rbp), %rax
	movq	%rax, %rdi
	call	_ZNSt10shared_ptrIiED1Ev
	jmp	.L33
.L39:
	endbr64
	movq	%rax, %rbx
.L33:
	.loc 7 15 31
	leaq	-112(%rbp), %rax
	movq	%rax, %rdi
	call	_ZNSt10shared_ptrIiED1Ev
	jmp	.L34
.L38:
	endbr64
	movq	%rax, %rbx
.L34:
	.loc 7 13 35
	leaq	-128(%rbp), %rax
	movq	%rax, %rdi
	call	_ZNSt10shared_ptrIiED1Ev
	.loc 7 12 25
	leaq	-144(%rbp), %rax
	movq	%rax, %rdi
	call	_ZNSt10shared_ptrIiED1Ev
	jmp	.L35
.L37:
	endbr64
	movq	%rax, %rbx
.L35:
	.loc 7 10 25
	leaq	-176(%rbp), %rax
	movq	%rax, %rdi
	call	_ZNSt10shared_ptrIiED1Ev
	movq	%rbx, %rax
	movq	%rax, %rdi
.LEHB5:
	call	_Unwind_Resume@PLT
.LEHE5:
.L42:
	.loc 7 25 1
	call	__stack_chk_fail@PLT
.L36:
	addq	$184, %rsp
	popq	%rbx
	popq	%rbp
	.cfi_def_cfa 7, 8
	ret
	.cfi_endproc
.LFE2722:
	.globl	__gxx_personality_v0
	.section	.gcc_except_table,"a",@progbits
.LLSDA2722:
	.byte	0xff
	.byte	0xff
	.byte	0x1
	.uleb128 .LLSDACSE2722-.LLSDACSB2722
.LLSDACSB2722:
	.uleb128 .LEHB0-.LFB2722
	.uleb128 .LEHE0-.LEHB0
	.uleb128 .L37-.LFB2722
	.uleb128 0
	.uleb128 .LEHB1-.LFB2722
	.uleb128 .LEHE1-.LEHB1
	.uleb128 .L38-.LFB2722
	.uleb128 0
	.uleb128 .LEHB2-.LFB2722
	.uleb128 .LEHE2-.LEHB2
	.uleb128 .L39-.LFB2722
	.uleb128 0
	.uleb128 .LEHB3-.LFB2722
	.uleb128 .LEHE3-.LEHB3
	.uleb128 .L40-.LFB2722
	.uleb128 0
	.uleb128 .LEHB4-.LFB2722
	.uleb128 .LEHE4-.LEHB4
	.uleb128 .L41-.LFB2722
	.uleb128 0
	.uleb128 .LEHB5-.LFB2722
	.uleb128 .LEHE5-.LEHB5
	.uleb128 0
	.uleb128 0
.LLSDACSE2722:
	.text
	.size	main, .-main
	.section	.text._ZNKSt16_Sp_counted_baseILN9__gnu_cxx12_Lock_policyE2EE16_M_get_use_countEv,"axG",@progbits,_ZNKSt16_Sp_counted_baseILN9__gnu_cxx12_Lock_policyE2EE16_M_get_use_countEv,comdat
	.align 2
	.weak	_ZNKSt16_Sp_counted_baseILN9__gnu_cxx12_Lock_policyE2EE16_M_get_use_countEv
	.type	_ZNKSt16_Sp_counted_baseILN9__gnu_cxx12_Lock_policyE2EE16_M_get_use_countEv, @function
_ZNKSt16_Sp_counted_baseILN9__gnu_cxx12_Lock_policyE2EE16_M_get_use_countEv:
.LFB2993:
	.loc 5 199 7
	.cfi_startproc
	endbr64
	pushq	%rbp
	.cfi_def_cfa_offset 16
	.cfi_offset 6, -16
	movq	%rsp, %rbp
	.cfi_def_cfa_register 6
	movq	%rdi, -8(%rbp)
	.loc 5 203 33
	movq	-8(%rbp), %rax
	addq	$8, %rax
	.loc 5 203 31
	movl	(%rax), %eax
	.loc 5 203 48
	cltq
	.loc 5 204 7
	popq	%rbp
	.cfi_def_cfa 7, 8
	ret
	.cfi_endproc
.LFE2993:
	.size	_ZNKSt16_Sp_counted_baseILN9__gnu_cxx12_Lock_policyE2EE16_M_get_use_countEv, .-_ZNKSt16_Sp_counted_baseILN9__gnu_cxx12_Lock_policyE2EE16_M_get_use_countEv
	.section	.text._ZNSt14__shared_countILN9__gnu_cxx12_Lock_policyE2EED2Ev,"axG",@progbits,_ZNSt14__shared_countILN9__gnu_cxx12_Lock_policyE2EED5Ev,comdat
	.align 2
	.weak	_ZNSt14__shared_countILN9__gnu_cxx12_Lock_policyE2EED2Ev
	.type	_ZNSt14__shared_countILN9__gnu_cxx12_Lock_policyE2EED2Ev, @function
_ZNSt14__shared_countILN9__gnu_cxx12_Lock_policyE2EED2Ev:
.LFB2996:
	.loc 5 727 7
	.cfi_startproc
	endbr64
	pushq	%rbp
	.cfi_def_cfa_offset 16
	.cfi_offset 6, -16
	movq	%rsp, %rbp
	.cfi_def_cfa_register 6
	subq	$16, %rsp
	movq	%rdi, -8(%rbp)
.LBB5:
	.loc 5 729 6
	movq	-8(%rbp), %rax
	movq	(%rax), %rax
	.loc 5 729 2
	testq	%rax, %rax
	je	.L47
	.loc 5 730 4
	movq	-8(%rbp), %rax
	movq	(%rax), %rax
	movq	%rax, %rdi
	call	_ZNSt16_Sp_counted_baseILN9__gnu_cxx12_Lock_policyE2EE10_M_releaseEv
.L47:
.LBE5:
	.loc 5 731 7
	nop
	leave
	.cfi_def_cfa 7, 8
	ret
	.cfi_endproc
.LFE2996:
	.size	_ZNSt14__shared_countILN9__gnu_cxx12_Lock_policyE2EED2Ev, .-_ZNSt14__shared_countILN9__gnu_cxx12_Lock_policyE2EED2Ev
	.weak	_ZNSt14__shared_countILN9__gnu_cxx12_Lock_policyE2EED1Ev
	.set	_ZNSt14__shared_countILN9__gnu_cxx12_Lock_policyE2EED1Ev,_ZNSt14__shared_countILN9__gnu_cxx12_Lock_policyE2EED2Ev
	.section	.text._ZNSt10shared_ptrIiEC2IivEEPT_,"axG",@progbits,_ZNSt10shared_ptrIiEC5IivEEPT_,comdat
	.align 2
	.weak	_ZNSt10shared_ptrIiEC2IivEEPT_
	.type	_ZNSt10shared_ptrIiEC2IivEEPT_, @function
_ZNSt10shared_ptrIiEC2IivEEPT_:
.LFB2999:
	.loc 6 139 2
	.cfi_startproc
	endbr64
	pushq	%rbp
	.cfi_def_cfa_offset 16
	.cfi_offset 6, -16
	movq	%rsp, %rbp
	.cfi_def_cfa_register 6
	subq	$16, %rsp
	movq	%rdi, -8(%rbp)
	movq	%rsi, -16(%rbp)
.LBB6:
	.loc 6 139 46
	movq	-8(%rbp), %rax
	movq	-16(%rbp), %rdx
	movq	%rdx, %rsi
	movq	%rax, %rdi
	call	_ZNSt12__shared_ptrIiLN9__gnu_cxx12_Lock_policyE2EEC2IivEEPT_
.LBE6:
	.loc 6 139 50
	nop
	leave
	.cfi_def_cfa 7, 8
	ret
	.cfi_endproc
.LFE2999:
	.size	_ZNSt10shared_ptrIiEC2IivEEPT_, .-_ZNSt10shared_ptrIiEC2IivEEPT_
	.weak	_ZNSt10shared_ptrIiEC1IivEEPT_
	.set	_ZNSt10shared_ptrIiEC1IivEEPT_,_ZNSt10shared_ptrIiEC2IivEEPT_
	.section	.text._ZNSt10shared_ptrIiEaSEOS0_,"axG",@progbits,_ZNSt10shared_ptrIiEaSEOS0_,comdat
	.align 2
	.weak	_ZNSt10shared_ptrIiEaSEOS0_
	.type	_ZNSt10shared_ptrIiEaSEOS0_, @function
_ZNSt10shared_ptrIiEaSEOS0_:
.LFB3001:
	.loc 6 333 7
	.cfi_startproc
	endbr64
	pushq	%rbp
	.cfi_def_cfa_offset 16
	.cfi_offset 6, -16
	movq	%rsp, %rbp
	.cfi_def_cfa_register 6
	pushq	%rbx
	subq	$24, %rsp
	.cfi_offset 3, -24
	movq	%rdi, -24(%rbp)
	movq	%rsi, -32(%rbp)
	.loc 6 335 2
	movq	-24(%rbp), %rbx
	.loc 6 335 46
	movq	-32(%rbp), %rax
	movq	%rax, %rdi
	call	_ZSt4moveIRSt10shared_ptrIiEEONSt16remove_referenceIT_E4typeEOS4_
	.loc 6 335 2
	movq	%rax, %rsi
	movq	%rbx, %rdi
	call	_ZNSt12__shared_ptrIiLN9__gnu_cxx12_Lock_policyE2EEaSEOS2_
	.loc 6 336 10
	movq	-24(%rbp), %rax
	.loc 6 337 7
	addq	$24, %rsp
	popq	%rbx
	popq	%rbp
	.cfi_def_cfa 7, 8
	ret
	.cfi_endproc
.LFE3001:
	.size	_ZNSt10shared_ptrIiEaSEOS0_, .-_ZNSt10shared_ptrIiEaSEOS0_
	.section	.text._ZNKSt12__shared_ptrIiLN9__gnu_cxx12_Lock_policyE2EE3getEv,"axG",@progbits,_ZNKSt12__shared_ptrIiLN9__gnu_cxx12_Lock_policyE2EE3getEv,comdat
	.align 2
	.weak	_ZNKSt12__shared_ptrIiLN9__gnu_cxx12_Lock_policyE2EE3getEv
	.type	_ZNKSt12__shared_ptrIiLN9__gnu_cxx12_Lock_policyE2EE3getEv, @function
_ZNKSt12__shared_ptrIiLN9__gnu_cxx12_Lock_policyE2EE3getEv:
.LFB3002:
	.loc 5 1309 7
	.cfi_startproc
	endbr64
	pushq	%rbp
	.cfi_def_cfa_offset 16
	.cfi_offset 6, -16
	movq	%rsp, %rbp
	.cfi_def_cfa_register 6
	movq	%rdi, -8(%rbp)
	.loc 5 1310 16
	movq	-8(%rbp), %rax
	movq	(%rax), %rax
	.loc 5 1310 24
	popq	%rbp
	.cfi_def_cfa 7, 8
	ret
	.cfi_endproc
.LFE3002:
	.size	_ZNKSt12__shared_ptrIiLN9__gnu_cxx12_Lock_policyE2EE3getEv, .-_ZNKSt12__shared_ptrIiLN9__gnu_cxx12_Lock_policyE2EE3getEv
	.section	.text._ZNKSt12__shared_ptrIiLN9__gnu_cxx12_Lock_policyE2EE9use_countEv,"axG",@progbits,_ZNKSt12__shared_ptrIiLN9__gnu_cxx12_Lock_policyE2EE9use_countEv,comdat
	.align 2
	.weak	_ZNKSt12__shared_ptrIiLN9__gnu_cxx12_Lock_policyE2EE9use_countEv
	.type	_ZNKSt12__shared_ptrIiLN9__gnu_cxx12_Lock_policyE2EE9use_countEv, @function
_ZNKSt12__shared_ptrIiLN9__gnu_cxx12_Lock_policyE2EE9use_countEv:
.LFB3007:
	.loc 5 1320 7
	.cfi_startproc
	endbr64
	pushq	%rbp
	.cfi_def_cfa_offset 16
	.cfi_offset 6, -16
	movq	%rsp, %rbp
	.cfi_def_cfa_register 6
	subq	$16, %rsp
	movq	%rdi, -8(%rbp)
	.loc 5 1321 45
	movq	-8(%rbp), %rax
	addq	$8, %rax
	movq	%rax, %rdi
	call	_ZNKSt14__shared_countILN9__gnu_cxx12_Lock_policyE2EE16_M_get_use_countEv
	.loc 5 1321 48
	leave
	.cfi_def_cfa 7, 8
	ret
	.cfi_endproc
.LFE3007:
	.size	_ZNKSt12__shared_ptrIiLN9__gnu_cxx12_Lock_policyE2EE9use_countEv, .-_ZNKSt12__shared_ptrIiLN9__gnu_cxx12_Lock_policyE2EE9use_countEv
	.section	.text._ZNSt10shared_ptrIiEC2IiEERKS_IT_EPi,"axG",@progbits,_ZNSt10shared_ptrIiEC5IiEERKS_IT_EPi,comdat
	.align 2
	.weak	_ZNSt10shared_ptrIiEC2IiEERKS_IT_EPi
	.type	_ZNSt10shared_ptrIiEC2IiEERKS_IT_EPi, @function
_ZNSt10shared_ptrIiEC2IiEERKS_IT_EPi:
.LFB3010:
	.loc 6 234 2
	.cfi_startproc
	endbr64
	pushq	%rbp
	.cfi_def_cfa_offset 16
	.cfi_offset 6, -16
	movq	%rsp, %rbp
	.cfi_def_cfa_register 6
	subq	$32, %rsp
	movq	%rdi, -8(%rbp)
	movq	%rsi, -16(%rbp)
	movq	%rdx, -24(%rbp)
.LBB7:
	.loc 6 235 30
	movq	-8(%rbp), %rax
	movq	-16(%rbp), %rcx
	movq	-24(%rbp), %rdx
	movq	%rcx, %rsi
	movq	%rax, %rdi
	call	_ZNSt12__shared_ptrIiLN9__gnu_cxx12_Lock_policyE2EEC2IiEERKS_IT_LS1_2EEPi
.LBE7:
	.loc 6 235 34
	nop
	leave
	.cfi_def_cfa 7, 8
	ret
	.cfi_endproc
.LFE3010:
	.size	_ZNSt10shared_ptrIiEC2IiEERKS_IT_EPi, .-_ZNSt10shared_ptrIiEC2IiEERKS_IT_EPi
	.weak	_ZNSt10shared_ptrIiEC1IiEERKS_IT_EPi
	.set	_ZNSt10shared_ptrIiEC1IiEERKS_IT_EPi,_ZNSt10shared_ptrIiEC2IiEERKS_IT_EPi
	.section	.text._ZNKSt19__shared_ptr_accessIiLN9__gnu_cxx12_Lock_policyE2ELb0ELb0EEdeEv,"axG",@progbits,_ZNKSt19__shared_ptr_accessIiLN9__gnu_cxx12_Lock_policyE2ELb0ELb0EEdeEv,comdat
	.align 2
	.weak	_ZNKSt19__shared_ptr_accessIiLN9__gnu_cxx12_Lock_policyE2ELb0ELb0EEdeEv
	.type	_ZNKSt19__shared_ptr_accessIiLN9__gnu_cxx12_Lock_policyE2ELb0ELb0EEdeEv, @function
_ZNKSt19__shared_ptr_accessIiLN9__gnu_cxx12_Lock_policyE2ELb0ELb0EEdeEv:
.LFB3012:
	.loc 5 1005 7
	.cfi_startproc
	endbr64
	pushq	%rbp
	.cfi_def_cfa_offset 16
	.cfi_offset 6, -16
	movq	%rsp, %rbp
	.cfi_def_cfa_register 6
	subq	$16, %rsp
	movq	%rdi, -8(%rbp)
	.loc 5 1008 9
	movq	-8(%rbp), %rax
	movq	%rax, %rdi
	call	_ZNKSt19__shared_ptr_accessIiLN9__gnu_cxx12_Lock_policyE2ELb0ELb0EE6_M_getEv
	.loc 5 1009 7
	leave
	.cfi_def_cfa 7, 8
	ret
	.cfi_endproc
.LFE3012:
	.size	_ZNKSt19__shared_ptr_accessIiLN9__gnu_cxx12_Lock_policyE2ELb0ELb0EEdeEv, .-_ZNKSt19__shared_ptr_accessIiLN9__gnu_cxx12_Lock_policyE2ELb0ELb0EEdeEv
	.section	.text._ZSt11make_sharedIiJiEESt10shared_ptrIT_EDpOT0_,"axG",@progbits,_ZSt11make_sharedIiJiEESt10shared_ptrIT_EDpOT0_,comdat
	.weak	_ZSt11make_sharedIiJiEESt10shared_ptrIT_EDpOT0_
	.type	_ZSt11make_sharedIiJiEESt10shared_ptrIT_EDpOT0_, @function
_ZSt11make_sharedIiJiEESt10shared_ptrIT_EDpOT0_:
.LFB3013:
	.loc 6 714 5
	.cfi_startproc
	.cfi_personality 0x9b,DW.ref.__gxx_personality_v0
	.cfi_lsda 0x1b,.LLSDA3013
	endbr64
	pushq	%rbp
	.cfi_def_cfa_offset 16
	.cfi_offset 6, -16
	movq	%rsp, %rbp
	.cfi_def_cfa_register 6
	pushq	%rbx
	subq	$40, %rsp
	.cfi_offset 3, -24
	movq	%rdi, -40(%rbp)
	movq	%rsi, -48(%rbp)
	.loc 6 714 5
	movq	%fs:40, %rax
	movq	%rax, -24(%rbp)
	xorl	%eax, %eax
	.loc 6 718 42
	movq	-48(%rbp), %rax
	movq	%rax, %rdi
	call	_ZSt7forwardIiEOT_RNSt16remove_referenceIS0_E4typeE
	movq	%rax, %rbx
	leaq	-25(%rbp), %rax
	movq	%rax, %rdi
	call	_ZNSaIiEC1Ev
	movq	-40(%rbp), %rax
	leaq	-25(%rbp), %rcx
	movq	%rbx, %rdx
	movq	%rcx, %rsi
	movq	%rax, %rdi
.LEHB6:
	call	_ZSt15allocate_sharedIiSaIiEJiEESt10shared_ptrIT_ERKT0_DpOT1_
.LEHE6:
	leaq	-25(%rbp), %rax
	movq	%rax, %rdi
	call	_ZNSaIiED1Ev
	.loc 6 719 5
	movq	-24(%rbp), %rax
	xorq	%fs:40, %rax
	je	.L61
	jmp	.L63
.L62:
	endbr64
	movq	%rax, %rbx
	.loc 6 718 42
	leaq	-25(%rbp), %rax
	movq	%rax, %rdi
	call	_ZNSaIiED1Ev
	movq	%rbx, %rax
	movq	%rax, %rdi
.LEHB7:
	call	_Unwind_Resume@PLT
.LEHE7:
.L63:
	.loc 6 719 5
	call	__stack_chk_fail@PLT
.L61:
	movq	-40(%rbp), %rax
	addq	$40, %rsp
	popq	%rbx
	popq	%rbp
	.cfi_def_cfa 7, 8
	ret
	.cfi_endproc
.LFE3013:
	.section	.gcc_except_table
.LLSDA3013:
	.byte	0xff
	.byte	0xff
	.byte	0x1
	.uleb128 .LLSDACSE3013-.LLSDACSB3013
.LLSDACSB3013:
	.uleb128 .LEHB6-.LFB3013
	.uleb128 .LEHE6-.LEHB6
	.uleb128 .L62-.LFB3013
	.uleb128 0
	.uleb128 .LEHB7-.LFB3013
	.uleb128 .LEHE7-.LEHB7
	.uleb128 0
	.uleb128 0
.LLSDACSE3013:
	.section	.text._ZSt11make_sharedIiJiEESt10shared_ptrIT_EDpOT0_,"axG",@progbits,_ZSt11make_sharedIiJiEESt10shared_ptrIT_EDpOT0_,comdat
	.size	_ZSt11make_sharedIiJiEESt10shared_ptrIT_EDpOT0_, .-_ZSt11make_sharedIiJiEESt10shared_ptrIT_EDpOT0_
	.section	.text._ZNSt16_Sp_counted_baseILN9__gnu_cxx12_Lock_policyE2EE10_M_releaseEv,"axG",@progbits,_ZNSt16_Sp_counted_baseILN9__gnu_cxx12_Lock_policyE2EE10_M_releaseEv,comdat
	.align 2
	.weak	_ZNSt16_Sp_counted_baseILN9__gnu_cxx12_Lock_policyE2EE10_M_releaseEv
	.type	_ZNSt16_Sp_counted_baseILN9__gnu_cxx12_Lock_policyE2EE10_M_releaseEv, @function
_ZNSt16_Sp_counted_baseILN9__gnu_cxx12_Lock_policyE2EE10_M_releaseEv:
.LFB3089:
	.loc 5 148 7
	.cfi_startproc
	endbr64
	pushq	%rbp
	.cfi_def_cfa_offset 16
	.cfi_offset 6, -16
	movq	%rsp, %rbp
	.cfi_def_cfa_register 6
	subq	$16, %rsp
	movq	%rdi, -8(%rbp)
	.loc 5 152 44
	movq	-8(%rbp), %rax
	addq	$8, %rax
	movl	$-1, %esi
	movq	%rax, %rdi
	call	_ZN9__gnu_cxxL27__exchange_and_add_dispatchEPii
	.loc 5 152 64
	cmpl	$1, %eax
	sete	%al
	.loc 5 152 2
	testb	%al, %al
	je	.L66
	.loc 5 155 6
	movq	-8(%rbp), %rax
	movq	(%rax), %rax
	addq	$16, %rax
	movq	(%rax), %rdx
	movq	-8(%rbp), %rax
	movq	%rax, %rdi
	call	*%rdx
.LVL0:
	.loc 5 167 48
	movq	-8(%rbp), %rax
	addq	$12, %rax
	movl	$-1, %esi
	movq	%rax, %rdi
	call	_ZN9__gnu_cxxL27__exchange_and_add_dispatchEPii
	.loc 5 168 18
	cmpl	$1, %eax
	sete	%al
	.loc 5 167 6
	testb	%al, %al
	je	.L66
	.loc 5 171 10
	movq	-8(%rbp), %rax
	movq	(%rax), %rax
	addq	$24, %rax
	movq	(%rax), %rdx
	movq	-8(%rbp), %rax
	movq	%rax, %rdi
	call	*%rdx
.LVL1:
.L66:
	.loc 5 174 7
	nop
	leave
	.cfi_def_cfa 7, 8
	ret
	.cfi_endproc
.LFE3089:
	.size	_ZNSt16_Sp_counted_baseILN9__gnu_cxx12_Lock_policyE2EE10_M_releaseEv, .-_ZNSt16_Sp_counted_baseILN9__gnu_cxx12_Lock_policyE2EE10_M_releaseEv
	.section	.text._ZNSt12__shared_ptrIiLN9__gnu_cxx12_Lock_policyE2EEC2IivEEPT_,"axG",@progbits,_ZNSt12__shared_ptrIiLN9__gnu_cxx12_Lock_policyE2EEC5IivEEPT_,comdat
	.align 2
	.weak	_ZNSt12__shared_ptrIiLN9__gnu_cxx12_Lock_policyE2EEC2IivEEPT_
	.type	_ZNSt12__shared_ptrIiLN9__gnu_cxx12_Lock_policyE2EEC2IivEEPT_, @function
_ZNSt12__shared_ptrIiLN9__gnu_cxx12_Lock_policyE2EEC2IivEEPT_:
.LFB3091:
	.loc 5 1124 2
	.cfi_startproc
	endbr64
	pushq	%rbp
	.cfi_def_cfa_offset 16
	.cfi_offset 6, -16
	movq	%rsp, %rbp
	.cfi_def_cfa_register 6
	subq	$32, %rsp
	movq	%rdi, -24(%rbp)
	movq	%rsi, -32(%rbp)
	.loc 5 1124 2
	movq	%fs:40, %rax
	movq	%rax, -8(%rbp)
	xorl	%eax, %eax
.LBB8:
	.loc 5 1125 64
	movq	-24(%rbp), %rax
	movq	-32(%rbp), %rdx
	movq	%rdx, (%rax)
	movq	-24(%rbp), %rax
	leaq	8(%rax), %rdx
	movq	-32(%rbp), %rax
	movq	%rax, %rsi
	movq	%rdx, %rdi
	call	_ZNSt14__shared_countILN9__gnu_cxx12_Lock_policyE2EEC1IPiEET_St17integral_constantIbLb0EE
	.loc 5 1129 4
	movq	-32(%rbp), %rdx
	movq	-24(%rbp), %rax
	movq	%rdx, %rsi
	movq	%rax, %rdi
	call	_ZNSt12__shared_ptrIiLN9__gnu_cxx12_Lock_policyE2EE31_M_enable_shared_from_this_withIiiEENSt9enable_ifIXntsrNS2_15__has_esft_baseIT0_vEE5valueEvE4typeEPT_
.LBE8:
	.loc 5 1130 2
	nop
	movq	-8(%rbp), %rax
	xorq	%fs:40, %rax
	je	.L68
	call	__stack_chk_fail@PLT
.L68:
	leave
	.cfi_def_cfa 7, 8
	ret
	.cfi_endproc
.LFE3091:
	.size	_ZNSt12__shared_ptrIiLN9__gnu_cxx12_Lock_policyE2EEC2IivEEPT_, .-_ZNSt12__shared_ptrIiLN9__gnu_cxx12_Lock_policyE2EEC2IivEEPT_
	.weak	_ZNSt12__shared_ptrIiLN9__gnu_cxx12_Lock_policyE2EEC1IivEEPT_
	.set	_ZNSt12__shared_ptrIiLN9__gnu_cxx12_Lock_policyE2EEC1IivEEPT_,_ZNSt12__shared_ptrIiLN9__gnu_cxx12_Lock_policyE2EEC2IivEEPT_
	.section	.text._ZSt4moveIRSt10shared_ptrIiEEONSt16remove_referenceIT_E4typeEOS4_,"axG",@progbits,_ZSt4moveIRSt10shared_ptrIiEEONSt16remove_referenceIT_E4typeEOS4_,comdat
	.weak	_ZSt4moveIRSt10shared_ptrIiEEONSt16remove_referenceIT_E4typeEOS4_
	.type	_ZSt4moveIRSt10shared_ptrIiEEONSt16remove_referenceIT_E4typeEOS4_, @function
_ZSt4moveIRSt10shared_ptrIiEEONSt16remove_referenceIT_E4typeEOS4_:
.LFB3093:
	.file 8 "/usr/include/c++/9/bits/move.h"
	.loc 8 99 5
	.cfi_startproc
	endbr64
	pushq	%rbp
	.cfi_def_cfa_offset 16
	.cfi_offset 6, -16
	movq	%rsp, %rbp
	.cfi_def_cfa_register 6
	movq	%rdi, -8(%rbp)
	.loc 8 100 74
	movq	-8(%rbp), %rax
	.loc 8 100 77
	popq	%rbp
	.cfi_def_cfa 7, 8
	ret
	.cfi_endproc
.LFE3093:
	.size	_ZSt4moveIRSt10shared_ptrIiEEONSt16remove_referenceIT_E4typeEOS4_, .-_ZSt4moveIRSt10shared_ptrIiEEONSt16remove_referenceIT_E4typeEOS4_
	.section	.text._ZNSt12__shared_ptrIiLN9__gnu_cxx12_Lock_policyE2EEaSEOS2_,"axG",@progbits,_ZNSt12__shared_ptrIiLN9__gnu_cxx12_Lock_policyE2EEaSEOS2_,comdat
	.align 2
	.weak	_ZNSt12__shared_ptrIiLN9__gnu_cxx12_Lock_policyE2EEaSEOS2_
	.type	_ZNSt12__shared_ptrIiLN9__gnu_cxx12_Lock_policyE2EEaSEOS2_, @function
_ZNSt12__shared_ptrIiLN9__gnu_cxx12_Lock_policyE2EEaSEOS2_:
.LFB3094:
	.loc 5 1263 7
	.cfi_startproc
	endbr64
	pushq	%rbp
	.cfi_def_cfa_offset 16
	.cfi_offset 6, -16
	movq	%rsp, %rbp
	.cfi_def_cfa_register 6
	subq	$48, %rsp
	movq	%rdi, -40(%rbp)
	movq	%rsi, -48(%rbp)
	.loc 5 1263 7
	movq	%fs:40, %rax
	movq	%rax, -8(%rbp)
	xorl	%eax, %eax
	.loc 5 1265 24
	movq	-48(%rbp), %rax
	movq	%rax, %rdi
	call	_ZSt4moveIRSt12__shared_ptrIiLN9__gnu_cxx12_Lock_policyE2EEEONSt16remove_referenceIT_E4typeEOS6_
	movq	%rax, %rdx
	.loc 5 1265 2
	leaq	-32(%rbp), %rax
	movq	%rdx, %rsi
	movq	%rax, %rdi
	call	_ZNSt12__shared_ptrIiLN9__gnu_cxx12_Lock_policyE2EEC1EOS2_
	movq	-40(%rbp), %rdx
	leaq	-32(%rbp), %rax
	movq	%rdx, %rsi
	movq	%rax, %rdi
	call	_ZNSt12__shared_ptrIiLN9__gnu_cxx12_Lock_policyE2EE4swapERS2_
	leaq	-32(%rbp), %rax
	movq	%rax, %rdi
	call	_ZNSt12__shared_ptrIiLN9__gnu_cxx12_Lock_policyE2EED1Ev
	.loc 5 1266 10
	movq	-40(%rbp), %rax
	.loc 5 1267 7
	movq	-8(%rbp), %rcx
	xorq	%fs:40, %rcx
	je	.L73
	call	__stack_chk_fail@PLT
.L73:
	leave
	.cfi_def_cfa 7, 8
	ret
	.cfi_endproc
.LFE3094:
	.size	_ZNSt12__shared_ptrIiLN9__gnu_cxx12_Lock_policyE2EEaSEOS2_, .-_ZNSt12__shared_ptrIiLN9__gnu_cxx12_Lock_policyE2EEaSEOS2_
	.section	.text._ZNKSt14__shared_countILN9__gnu_cxx12_Lock_policyE2EE16_M_get_use_countEv,"axG",@progbits,_ZNKSt14__shared_countILN9__gnu_cxx12_Lock_policyE2EE16_M_get_use_countEv,comdat
	.align 2
	.weak	_ZNKSt14__shared_countILN9__gnu_cxx12_Lock_policyE2EE16_M_get_use_countEv
	.type	_ZNKSt14__shared_countILN9__gnu_cxx12_Lock_policyE2EE16_M_get_use_countEv, @function
_ZNKSt14__shared_countILN9__gnu_cxx12_Lock_policyE2EE16_M_get_use_countEv:
.LFB3097:
	.loc 5 764 7
	.cfi_startproc
	endbr64
	pushq	%rbp
	.cfi_def_cfa_offset 16
	.cfi_offset 6, -16
	movq	%rsp, %rbp
	.cfi_def_cfa_register 6
	subq	$16, %rsp
	movq	%rdi, -8(%rbp)
	.loc 5 765 16
	movq	-8(%rbp), %rax
	movq	(%rax), %rax
	.loc 5 765 27
	testq	%rax, %rax
	je	.L75
	.loc 5 765 29 discriminator 1
	movq	-8(%rbp), %rax
	movq	(%rax), %rax
	.loc 5 765 27 discriminator 1
	movq	%rax, %rdi
	call	_ZNKSt16_Sp_counted_baseILN9__gnu_cxx12_Lock_policyE2EE16_M_get_use_countEv
	.loc 5 765 57 discriminator 1
	jmp	.L77
.L75:
	.loc 5 765 27 discriminator 2
	movl	$0, %eax
.L77:
	.loc 5 765 60 discriminator 5
	leave
	.cfi_def_cfa 7, 8
	ret
	.cfi_endproc
.LFE3097:
	.size	_ZNKSt14__shared_countILN9__gnu_cxx12_Lock_policyE2EE16_M_get_use_countEv, .-_ZNKSt14__shared_countILN9__gnu_cxx12_Lock_policyE2EE16_M_get_use_countEv
	.section	.text._ZNSt12__shared_ptrIiLN9__gnu_cxx12_Lock_policyE2EEC2IiEERKS_IT_LS1_2EEPi,"axG",@progbits,_ZNSt12__shared_ptrIiLN9__gnu_cxx12_Lock_policyE2EEC5IiEERKS_IT_LS1_2EEPi,comdat
	.align 2
	.weak	_ZNSt12__shared_ptrIiLN9__gnu_cxx12_Lock_policyE2EEC2IiEERKS_IT_LS1_2EEPi
	.type	_ZNSt12__shared_ptrIiLN9__gnu_cxx12_Lock_policyE2EEC2IiEERKS_IT_LS1_2EEPi, @function
_ZNSt12__shared_ptrIiLN9__gnu_cxx12_Lock_policyE2EEC2IiEERKS_IT_LS1_2EEPi:
.LFB3099:
	.loc 5 1162 2
	.cfi_startproc
	endbr64
	pushq	%rbp
	.cfi_def_cfa_offset 16
	.cfi_offset 6, -16
	movq	%rsp, %rbp
	.cfi_def_cfa_register 6
	subq	$32, %rsp
	movq	%rdi, -8(%rbp)
	movq	%rsi, -16(%rbp)
	movq	%rdx, -24(%rbp)
.LBB9:
	.loc 5 1164 44
	movq	-8(%rbp), %rax
	movq	-24(%rbp), %rdx
	movq	%rdx, (%rax)
	movq	-8(%rbp), %rax
	addq	$8, %rax
	.loc 5 1164 33
	movq	-16(%rbp), %rdx
	addq	$8, %rdx
	.loc 5 1164 44
	movq	%rdx, %rsi
	movq	%rax, %rdi
	call	_ZNSt14__shared_countILN9__gnu_cxx12_Lock_policyE2EEC1ERKS2_
.LBE9:
	.loc 5 1165 4
	nop
	leave
	.cfi_def_cfa 7, 8
	ret
	.cfi_endproc
.LFE3099:
	.size	_ZNSt12__shared_ptrIiLN9__gnu_cxx12_Lock_policyE2EEC2IiEERKS_IT_LS1_2EEPi, .-_ZNSt12__shared_ptrIiLN9__gnu_cxx12_Lock_policyE2EEC2IiEERKS_IT_LS1_2EEPi
	.weak	_ZNSt12__shared_ptrIiLN9__gnu_cxx12_Lock_policyE2EEC1IiEERKS_IT_LS1_2EEPi
	.set	_ZNSt12__shared_ptrIiLN9__gnu_cxx12_Lock_policyE2EEC1IiEERKS_IT_LS1_2EEPi,_ZNSt12__shared_ptrIiLN9__gnu_cxx12_Lock_policyE2EEC2IiEERKS_IT_LS1_2EEPi
	.section	.text._ZNKSt19__shared_ptr_accessIiLN9__gnu_cxx12_Lock_policyE2ELb0ELb0EE6_M_getEv,"axG",@progbits,_ZNKSt19__shared_ptr_accessIiLN9__gnu_cxx12_Lock_policyE2ELb0ELb0EE6_M_getEv,comdat
	.align 2
	.weak	_ZNKSt19__shared_ptr_accessIiLN9__gnu_cxx12_Lock_policyE2ELb0ELb0EE6_M_getEv
	.type	_ZNKSt19__shared_ptr_accessIiLN9__gnu_cxx12_Lock_policyE2ELb0ELb0EE6_M_getEv, @function
_ZNKSt19__shared_ptr_accessIiLN9__gnu_cxx12_Lock_policyE2ELb0ELb0EE6_M_getEv:
.LFB3101:
	.loc 5 1020 7
	.cfi_startproc
	endbr64
	pushq	%rbp
	.cfi_def_cfa_offset 16
	.cfi_offset 6, -16
	movq	%rsp, %rbp
	.cfi_def_cfa_register 6
	subq	$16, %rsp
	movq	%rdi, -8(%rbp)
	.loc 5 1021 70
	movq	-8(%rbp), %rax
	movq	%rax, %rdi
	call	_ZNKSt12__shared_ptrIiLN9__gnu_cxx12_Lock_policyE2EE3getEv
	.loc 5 1021 73
	leave
	.cfi_def_cfa 7, 8
	ret
	.cfi_endproc
.LFE3101:
	.size	_ZNKSt19__shared_ptr_accessIiLN9__gnu_cxx12_Lock_policyE2ELb0ELb0EE6_M_getEv, .-_ZNKSt19__shared_ptr_accessIiLN9__gnu_cxx12_Lock_policyE2ELb0ELb0EE6_M_getEv
	.section	.text._ZNSaIiEC2Ev,"axG",@progbits,_ZNSaIiEC5Ev,comdat
	.align 2
	.weak	_ZNSaIiEC2Ev
	.type	_ZNSaIiEC2Ev, @function
_ZNSaIiEC2Ev:
.LFB3103:
	.file 9 "/usr/include/c++/9/bits/allocator.h"
	.loc 9 138 7
	.cfi_startproc
	endbr64
	pushq	%rbp
	.cfi_def_cfa_offset 16
	.cfi_offset 6, -16
	movq	%rsp, %rbp
	.cfi_def_cfa_register 6
	subq	$16, %rsp
	movq	%rdi, -8(%rbp)
.LBB10:
	.loc 9 138 28
	movq	-8(%rbp), %rax
	movq	%rax, %rdi
	call	_ZN9__gnu_cxx13new_allocatorIiEC2Ev
.LBE10:
	.loc 9 138 30
	nop
	leave
	.cfi_def_cfa 7, 8
	ret
	.cfi_endproc
.LFE3103:
	.size	_ZNSaIiEC2Ev, .-_ZNSaIiEC2Ev
	.weak	_ZNSaIiEC1Ev
	.set	_ZNSaIiEC1Ev,_ZNSaIiEC2Ev
	.section	.text._ZNSaIiED2Ev,"axG",@progbits,_ZNSaIiED5Ev,comdat
	.align 2
	.weak	_ZNSaIiED2Ev
	.type	_ZNSaIiED2Ev, @function
_ZNSaIiED2Ev:
.LFB3106:
	.loc 9 153 7
	.cfi_startproc
	endbr64
	pushq	%rbp
	.cfi_def_cfa_offset 16
	.cfi_offset 6, -16
	movq	%rsp, %rbp
	.cfi_def_cfa_register 6
	subq	$16, %rsp
	movq	%rdi, -8(%rbp)
.LBB11:
	.loc 9 153 31
	movq	-8(%rbp), %rax
	movq	%rax, %rdi
	call	_ZN9__gnu_cxx13new_allocatorIiED2Ev
.LBE11:
	nop
	leave
	.cfi_def_cfa 7, 8
	ret
	.cfi_endproc
.LFE3106:
	.size	_ZNSaIiED2Ev, .-_ZNSaIiED2Ev
	.weak	_ZNSaIiED1Ev
	.set	_ZNSaIiED1Ev,_ZNSaIiED2Ev
	.section	.text._ZSt7forwardIiEOT_RNSt16remove_referenceIS0_E4typeE,"axG",@progbits,_ZSt7forwardIiEOT_RNSt16remove_referenceIS0_E4typeE,comdat
	.weak	_ZSt7forwardIiEOT_RNSt16remove_referenceIS0_E4typeE
	.type	_ZSt7forwardIiEOT_RNSt16remove_referenceIS0_E4typeE, @function
_ZSt7forwardIiEOT_RNSt16remove_referenceIS0_E4typeE:
.LFB3108:
	.loc 8 74 5
	.cfi_startproc
	endbr64
	pushq	%rbp
	.cfi_def_cfa_offset 16
	.cfi_offset 6, -16
	movq	%rsp, %rbp
	.cfi_def_cfa_register 6
	movq	%rdi, -8(%rbp)
	.loc 8 75 36
	movq	-8(%rbp), %rax
	.loc 8 75 39
	popq	%rbp
	.cfi_def_cfa 7, 8
	ret
	.cfi_endproc
.LFE3108:
	.size	_ZSt7forwardIiEOT_RNSt16remove_referenceIS0_E4typeE, .-_ZSt7forwardIiEOT_RNSt16remove_referenceIS0_E4typeE
	.section	.text._ZSt15allocate_sharedIiSaIiEJiEESt10shared_ptrIT_ERKT0_DpOT1_,"axG",@progbits,_ZSt15allocate_sharedIiSaIiEJiEESt10shared_ptrIT_ERKT0_DpOT1_,comdat
	.weak	_ZSt15allocate_sharedIiSaIiEJiEESt10shared_ptrIT_ERKT0_DpOT1_
	.type	_ZSt15allocate_sharedIiSaIiEJiEESt10shared_ptrIT_ERKT0_DpOT1_, @function
_ZSt15allocate_sharedIiSaIiEJiEESt10shared_ptrIT_ERKT0_DpOT1_:
.LFB3109:
	.loc 6 699 5
	.cfi_startproc
	endbr64
	pushq	%rbp
	.cfi_def_cfa_offset 16
	.cfi_offset 6, -16
	movq	%rsp, %rbp
	.cfi_def_cfa_register 6
	subq	$32, %rsp
	movq	%rdi, -8(%rbp)
	movq	%rsi, -16(%rbp)
	movq	%rdx, -24(%rbp)
	.loc 6 702 39
	movq	-24(%rbp), %rax
	movq	%rax, %rdi
	call	_ZSt7forwardIiEOT_RNSt16remove_referenceIS0_E4typeE
	movq	%rax, %rdx
	movq	-16(%rbp), %rcx
	movq	-8(%rbp), %rax
	movq	%rcx, %rsi
	movq	%rax, %rdi
	call	_ZNSt10shared_ptrIiEC1ISaIiEJiEEESt20_Sp_alloc_shared_tagIT_EDpOT0_
	.loc 6 703 5
	movq	-8(%rbp), %rax
	leave
	.cfi_def_cfa 7, 8
	ret
	.cfi_endproc
.LFE3109:
	.size	_ZSt15allocate_sharedIiSaIiEJiEESt10shared_ptrIT_ERKT0_DpOT1_, .-_ZSt15allocate_sharedIiSaIiEJiEESt10shared_ptrIT_ERKT0_DpOT1_
	.section	.text._ZNSt16_Sp_counted_baseILN9__gnu_cxx12_Lock_policyE2EE10_M_destroyEv,"axG",@progbits,_ZNSt16_Sp_counted_baseILN9__gnu_cxx12_Lock_policyE2EE10_M_destroyEv,comdat
	.align 2
	.weak	_ZNSt16_Sp_counted_baseILN9__gnu_cxx12_Lock_policyE2EE10_M_destroyEv
	.type	_ZNSt16_Sp_counted_baseILN9__gnu_cxx12_Lock_policyE2EE10_M_destroyEv, @function
_ZNSt16_Sp_counted_baseILN9__gnu_cxx12_Lock_policyE2EE10_M_destroyEv:
.LFB3153:
	.loc 5 131 7
	.cfi_startproc
	endbr64
	pushq	%rbp
	.cfi_def_cfa_offset 16
	.cfi_offset 6, -16
	movq	%rsp, %rbp
	.cfi_def_cfa_register 6
	subq	$16, %rsp
	movq	%rdi, -8(%rbp)
	.loc 5 132 9
	cmpq	$0, -8(%rbp)
	je	.L89
	.loc 5 132 9 is_stmt 0 discriminator 1
	movq	-8(%rbp), %rax
	movq	(%rax), %rax
	addq	$8, %rax
	movq	(%rax), %rdx
	movq	-8(%rbp), %rax
	movq	%rax, %rdi
	call	*%rdx
.LVL2:
.L89:
	.loc 5 132 22 is_stmt 1
	nop
	leave
	.cfi_def_cfa 7, 8
	ret
	.cfi_endproc
.LFE3153:
	.size	_ZNSt16_Sp_counted_baseILN9__gnu_cxx12_Lock_policyE2EE10_M_destroyEv, .-_ZNSt16_Sp_counted_baseILN9__gnu_cxx12_Lock_policyE2EE10_M_destroyEv
	.section	.text._ZNSt14__shared_countILN9__gnu_cxx12_Lock_policyE2EEC2IPiEET_St17integral_constantIbLb0EE,"axG",@progbits,_ZNSt14__shared_countILN9__gnu_cxx12_Lock_policyE2EEC5IPiEET_St17integral_constantIbLb0EE,comdat
	.align 2
	.weak	_ZNSt14__shared_countILN9__gnu_cxx12_Lock_policyE2EEC2IPiEET_St17integral_constantIbLb0EE
	.type	_ZNSt14__shared_countILN9__gnu_cxx12_Lock_policyE2EEC2IPiEET_St17integral_constantIbLb0EE, @function
_ZNSt14__shared_countILN9__gnu_cxx12_Lock_policyE2EEC2IPiEET_St17integral_constantIbLb0EE:
.LFB3155:
	.loc 5 635 2
	.cfi_startproc
	endbr64
	pushq	%rbp
	.cfi_def_cfa_offset 16
	.cfi_offset 6, -16
	movq	%rsp, %rbp
	.cfi_def_cfa_register 6
	subq	$16, %rsp
	movq	%rdi, -8(%rbp)
	movq	%rsi, -16(%rbp)
.LBB12:
	.loc 5 636 22
	movq	-16(%rbp), %rdx
	movq	-8(%rbp), %rax
	movq	%rdx, %rsi
	movq	%rax, %rdi
	call	_ZNSt14__shared_countILN9__gnu_cxx12_Lock_policyE2EEC1IPiEET_
.LBE12:
	.loc 5 637 4
	nop
	leave
	.cfi_def_cfa 7, 8
	ret
	.cfi_endproc
.LFE3155:
	.size	_ZNSt14__shared_countILN9__gnu_cxx12_Lock_policyE2EEC2IPiEET_St17integral_constantIbLb0EE, .-_ZNSt14__shared_countILN9__gnu_cxx12_Lock_policyE2EEC2IPiEET_St17integral_constantIbLb0EE
	.weak	_ZNSt14__shared_countILN9__gnu_cxx12_Lock_policyE2EEC1IPiEET_St17integral_constantIbLb0EE
	.set	_ZNSt14__shared_countILN9__gnu_cxx12_Lock_policyE2EEC1IPiEET_St17integral_constantIbLb0EE,_ZNSt14__shared_countILN9__gnu_cxx12_Lock_policyE2EEC2IPiEET_St17integral_constantIbLb0EE
	.section	.text._ZNSt12__shared_ptrIiLN9__gnu_cxx12_Lock_policyE2EE31_M_enable_shared_from_this_withIiiEENSt9enable_ifIXntsrNS2_15__has_esft_baseIT0_vEE5valueEvE4typeEPT_,"axG",@progbits,_ZNSt12__shared_ptrIiLN9__gnu_cxx12_Lock_policyE2EE31_M_enable_shared_from_this_withIiiEENSt9enable_ifIXntsrNS2_15__has_esft_baseIT0_vEE5valueEvE4typeEPT_,comdat
	.align 2
	.weak	_ZNSt12__shared_ptrIiLN9__gnu_cxx12_Lock_policyE2EE31_M_enable_shared_from_this_withIiiEENSt9enable_ifIXntsrNS2_15__has_esft_baseIT0_vEE5valueEvE4typeEPT_
	.type	_ZNSt12__shared_ptrIiLN9__gnu_cxx12_Lock_policyE2EE31_M_enable_shared_from_this_withIiiEENSt9enable_ifIXntsrNS2_15__has_esft_baseIT0_vEE5valueEvE4typeEPT_, @function
_ZNSt12__shared_ptrIiLN9__gnu_cxx12_Lock_policyE2EE31_M_enable_shared_from_this_withIiiEENSt9enable_ifIXntsrNS2_15__has_esft_baseIT0_vEE5valueEvE4typeEPT_:
.LFB3157:
	.loc 5 1388 2
	.cfi_startproc
	endbr64
	pushq	%rbp
	.cfi_def_cfa_offset 16
	.cfi_offset 6, -16
	movq	%rsp, %rbp
	.cfi_def_cfa_register 6
	movq	%rdi, -8(%rbp)
	movq	%rsi, -16(%rbp)
	.loc 5 1389 4
	nop
	popq	%rbp
	.cfi_def_cfa 7, 8
	ret
	.cfi_endproc
.LFE3157:
	.size	_ZNSt12__shared_ptrIiLN9__gnu_cxx12_Lock_policyE2EE31_M_enable_shared_from_this_withIiiEENSt9enable_ifIXntsrNS2_15__has_esft_baseIT0_vEE5valueEvE4typeEPT_, .-_ZNSt12__shared_ptrIiLN9__gnu_cxx12_Lock_policyE2EE31_M_enable_shared_from_this_withIiiEENSt9enable_ifIXntsrNS2_15__has_esft_baseIT0_vEE5valueEvE4typeEPT_
	.section	.text._ZSt4moveIRSt12__shared_ptrIiLN9__gnu_cxx12_Lock_policyE2EEEONSt16remove_referenceIT_E4typeEOS6_,"axG",@progbits,_ZSt4moveIRSt12__shared_ptrIiLN9__gnu_cxx12_Lock_policyE2EEEONSt16remove_referenceIT_E4typeEOS6_,comdat
	.weak	_ZSt4moveIRSt12__shared_ptrIiLN9__gnu_cxx12_Lock_policyE2EEEONSt16remove_referenceIT_E4typeEOS6_
	.type	_ZSt4moveIRSt12__shared_ptrIiLN9__gnu_cxx12_Lock_policyE2EEEONSt16remove_referenceIT_E4typeEOS6_, @function
_ZSt4moveIRSt12__shared_ptrIiLN9__gnu_cxx12_Lock_policyE2EEEONSt16remove_referenceIT_E4typeEOS6_:
.LFB3158:
	.loc 8 99 5
	.cfi_startproc
	endbr64
	pushq	%rbp
	.cfi_def_cfa_offset 16
	.cfi_offset 6, -16
	movq	%rsp, %rbp
	.cfi_def_cfa_register 6
	movq	%rdi, -8(%rbp)
	.loc 8 100 74
	movq	-8(%rbp), %rax
	.loc 8 100 77
	popq	%rbp
	.cfi_def_cfa 7, 8
	ret
	.cfi_endproc
.LFE3158:
	.size	_ZSt4moveIRSt12__shared_ptrIiLN9__gnu_cxx12_Lock_policyE2EEEONSt16remove_referenceIT_E4typeEOS6_, .-_ZSt4moveIRSt12__shared_ptrIiLN9__gnu_cxx12_Lock_policyE2EEEONSt16remove_referenceIT_E4typeEOS6_
	.section	.text._ZNSt12__shared_ptrIiLN9__gnu_cxx12_Lock_policyE2EEC2EOS2_,"axG",@progbits,_ZNSt12__shared_ptrIiLN9__gnu_cxx12_Lock_policyE2EEC5EOS2_,comdat
	.align 2
	.weak	_ZNSt12__shared_ptrIiLN9__gnu_cxx12_Lock_policyE2EEC2EOS2_
	.type	_ZNSt12__shared_ptrIiLN9__gnu_cxx12_Lock_policyE2EEC2EOS2_, @function
_ZNSt12__shared_ptrIiLN9__gnu_cxx12_Lock_policyE2EEC2EOS2_:
.LFB3160:
	.loc 5 1176 7
	.cfi_startproc
	endbr64
	pushq	%rbp
	.cfi_def_cfa_offset 16
	.cfi_offset 6, -16
	movq	%rsp, %rbp
	.cfi_def_cfa_register 6
	subq	$16, %rsp
	movq	%rdi, -8(%rbp)
	movq	%rsi, -16(%rbp)
.LBB13:
	.loc 5 1177 20
	movq	-16(%rbp), %rax
	movq	(%rax), %rdx
	.loc 5 1177 41
	movq	-8(%rbp), %rax
	movq	%rdx, (%rax)
	movq	-8(%rbp), %rax
	addq	$8, %rax
	movq	%rax, %rdi
	call	_ZNSt14__shared_countILN9__gnu_cxx12_Lock_policyE2EEC1Ev
	.loc 5 1179 2
	movq	-8(%rbp), %rax
	addq	$8, %rax
	.loc 5 1179 26
	movq	-16(%rbp), %rdx
	addq	$8, %rdx
	.loc 5 1179 2
	movq	%rdx, %rsi
	movq	%rax, %rdi
	call	_ZNSt14__shared_countILN9__gnu_cxx12_Lock_policyE2EE7_M_swapERS2_
	.loc 5 1180 2
	movq	-16(%rbp), %rax
	movq	$0, (%rax)
.LBE13:
	.loc 5 1181 7
	nop
	leave
	.cfi_def_cfa 7, 8
	ret
	.cfi_endproc
.LFE3160:
	.size	_ZNSt12__shared_ptrIiLN9__gnu_cxx12_Lock_policyE2EEC2EOS2_, .-_ZNSt12__shared_ptrIiLN9__gnu_cxx12_Lock_policyE2EEC2EOS2_
	.weak	_ZNSt12__shared_ptrIiLN9__gnu_cxx12_Lock_policyE2EEC1EOS2_
	.set	_ZNSt12__shared_ptrIiLN9__gnu_cxx12_Lock_policyE2EEC1EOS2_,_ZNSt12__shared_ptrIiLN9__gnu_cxx12_Lock_policyE2EEC2EOS2_
	.section	.text._ZNSt12__shared_ptrIiLN9__gnu_cxx12_Lock_policyE2EE4swapERS2_,"axG",@progbits,_ZNSt12__shared_ptrIiLN9__gnu_cxx12_Lock_policyE2EE4swapERS2_,comdat
	.align 2
	.weak	_ZNSt12__shared_ptrIiLN9__gnu_cxx12_Lock_policyE2EE4swapERS2_
	.type	_ZNSt12__shared_ptrIiLN9__gnu_cxx12_Lock_policyE2EE4swapERS2_, @function
_ZNSt12__shared_ptrIiLN9__gnu_cxx12_Lock_policyE2EE4swapERS2_:
.LFB3162:
	.loc 5 1324 7
	.cfi_startproc
	endbr64
	pushq	%rbp
	.cfi_def_cfa_offset 16
	.cfi_offset 6, -16
	movq	%rsp, %rbp
	.cfi_def_cfa_register 6
	subq	$16, %rsp
	movq	%rdi, -8(%rbp)
	movq	%rsi, -16(%rbp)
	.loc 5 1326 28
	movq	-16(%rbp), %rdx
	.loc 5 1326 12
	movq	-8(%rbp), %rax
	.loc 5 1326 11
	movq	%rdx, %rsi
	movq	%rax, %rdi
	call	_ZSt4swapIPiENSt9enable_ifIXsrSt6__and_IJSt6__not_ISt15__is_tuple_likeIT_EESt21is_move_constructibleIS5_ESt18is_move_assignableIS5_EEE5valueEvE4typeERS5_SF_
	.loc 5 1327 2
	movq	-8(%rbp), %rax
	addq	$8, %rax
	.loc 5 1327 30
	movq	-16(%rbp), %rdx
	addq	$8, %rdx
	.loc 5 1327 2
	movq	%rdx, %rsi
	movq	%rax, %rdi
	call	_ZNSt14__shared_countILN9__gnu_cxx12_Lock_policyE2EE7_M_swapERS2_
	.loc 5 1328 7
	nop
	leave
	.cfi_def_cfa 7, 8
	ret
	.cfi_endproc
.LFE3162:
	.size	_ZNSt12__shared_ptrIiLN9__gnu_cxx12_Lock_policyE2EE4swapERS2_, .-_ZNSt12__shared_ptrIiLN9__gnu_cxx12_Lock_policyE2EE4swapERS2_
	.section	.text._ZNSt14__shared_countILN9__gnu_cxx12_Lock_policyE2EEC2ERKS2_,"axG",@progbits,_ZNSt14__shared_countILN9__gnu_cxx12_Lock_policyE2EEC5ERKS2_,comdat
	.align 2
	.weak	_ZNSt14__shared_countILN9__gnu_cxx12_Lock_policyE2EEC2ERKS2_
	.type	_ZNSt14__shared_countILN9__gnu_cxx12_Lock_policyE2EEC2ERKS2_, @function
_ZNSt14__shared_countILN9__gnu_cxx12_Lock_policyE2EEC2ERKS2_:
.LFB3165:
	.loc 5 733 7
	.cfi_startproc
	endbr64
	pushq	%rbp
	.cfi_def_cfa_offset 16
	.cfi_offset 6, -16
	movq	%rsp, %rbp
	.cfi_def_cfa_register 6
	subq	$16, %rsp
	movq	%rdi, -8(%rbp)
	movq	%rsi, -16(%rbp)
.LBB14:
	.loc 5 734 19
	movq	-16(%rbp), %rax
	movq	(%rax), %rdx
	.loc 5 734 24
	movq	-8(%rbp), %rax
	movq	%rdx, (%rax)
	.loc 5 736 6
	movq	-8(%rbp), %rax
	movq	(%rax), %rax
	.loc 5 736 2
	testq	%rax, %rax
	je	.L98
	.loc 5 737 4
	movq	-8(%rbp), %rax
	movq	(%rax), %rax
	movq	%rax, %rdi
	call	_ZNSt16_Sp_counted_baseILN9__gnu_cxx12_Lock_policyE2EE15_M_add_ref_copyEv
.L98:
.LBE14:
	.loc 5 738 7
	nop
	leave
	.cfi_def_cfa 7, 8
	ret
	.cfi_endproc
.LFE3165:
	.size	_ZNSt14__shared_countILN9__gnu_cxx12_Lock_policyE2EEC2ERKS2_, .-_ZNSt14__shared_countILN9__gnu_cxx12_Lock_policyE2EEC2ERKS2_
	.weak	_ZNSt14__shared_countILN9__gnu_cxx12_Lock_policyE2EEC1ERKS2_
	.set	_ZNSt14__shared_countILN9__gnu_cxx12_Lock_policyE2EEC1ERKS2_,_ZNSt14__shared_countILN9__gnu_cxx12_Lock_policyE2EEC2ERKS2_
	.section	.text._ZN9__gnu_cxx13new_allocatorIiEC2Ev,"axG",@progbits,_ZN9__gnu_cxx13new_allocatorIiEC5Ev,comdat
	.align 2
	.weak	_ZN9__gnu_cxx13new_allocatorIiEC2Ev
	.type	_ZN9__gnu_cxx13new_allocatorIiEC2Ev, @function
_ZN9__gnu_cxx13new_allocatorIiEC2Ev:
.LFB3168:
	.file 10 "/usr/include/c++/9/ext/new_allocator.h"
	.loc 10 80 7
	.cfi_startproc
	endbr64
	pushq	%rbp
	.cfi_def_cfa_offset 16
	.cfi_offset 6, -16
	movq	%rsp, %rbp
	.cfi_def_cfa_register 6
	movq	%rdi, -8(%rbp)
	.loc 10 80 34
	nop
	popq	%rbp
	.cfi_def_cfa 7, 8
	ret
	.cfi_endproc
.LFE3168:
	.size	_ZN9__gnu_cxx13new_allocatorIiEC2Ev, .-_ZN9__gnu_cxx13new_allocatorIiEC2Ev
	.weak	_ZN9__gnu_cxx13new_allocatorIiEC1Ev
	.set	_ZN9__gnu_cxx13new_allocatorIiEC1Ev,_ZN9__gnu_cxx13new_allocatorIiEC2Ev
	.section	.text._ZN9__gnu_cxx13new_allocatorIiED2Ev,"axG",@progbits,_ZN9__gnu_cxx13new_allocatorIiED5Ev,comdat
	.align 2
	.weak	_ZN9__gnu_cxx13new_allocatorIiED2Ev
	.type	_ZN9__gnu_cxx13new_allocatorIiED2Ev, @function
_ZN9__gnu_cxx13new_allocatorIiED2Ev:
.LFB3171:
	.loc 10 89 7
	.cfi_startproc
	endbr64
	pushq	%rbp
	.cfi_def_cfa_offset 16
	.cfi_offset 6, -16
	movq	%rsp, %rbp
	.cfi_def_cfa_register 6
	movq	%rdi, -8(%rbp)
	.loc 10 89 35
	nop
	popq	%rbp
	.cfi_def_cfa 7, 8
	ret
	.cfi_endproc
.LFE3171:
	.size	_ZN9__gnu_cxx13new_allocatorIiED2Ev, .-_ZN9__gnu_cxx13new_allocatorIiED2Ev
	.weak	_ZN9__gnu_cxx13new_allocatorIiED1Ev
	.set	_ZN9__gnu_cxx13new_allocatorIiED1Ev,_ZN9__gnu_cxx13new_allocatorIiED2Ev
	.section	.text._ZNSt10shared_ptrIiEC2ISaIiEJiEEESt20_Sp_alloc_shared_tagIT_EDpOT0_,"axG",@progbits,_ZNSt10shared_ptrIiEC5ISaIiEJiEEESt20_Sp_alloc_shared_tagIT_EDpOT0_,comdat
	.align 2
	.weak	_ZNSt10shared_ptrIiEC2ISaIiEJiEEESt20_Sp_alloc_shared_tagIT_EDpOT0_
	.type	_ZNSt10shared_ptrIiEC2ISaIiEJiEEESt20_Sp_alloc_shared_tagIT_EDpOT0_, @function
_ZNSt10shared_ptrIiEC2ISaIiEJiEEESt20_Sp_alloc_shared_tagIT_EDpOT0_:
.LFB3174:
	.loc 6 358 2
	.cfi_startproc
	endbr64
	pushq	%rbp
	.cfi_def_cfa_offset 16
	.cfi_offset 6, -16
	movq	%rsp, %rbp
	.cfi_def_cfa_register 6
	pushq	%rbx
	subq	$40, %rsp
	.cfi_offset 3, -24
	movq	%rdi, -24(%rbp)
	movq	%rsi, -32(%rbp)
	movq	%rdx, -40(%rbp)
.LBB15:
	.loc 6 359 59
	movq	-24(%rbp), %rbx
	movq	-40(%rbp), %rax
	movq	%rax, %rdi
	call	_ZSt7forwardIiEOT_RNSt16remove_referenceIS0_E4typeE
	movq	%rax, %rdx
	movq	-32(%rbp), %rax
	movq	%rax, %rsi
	movq	%rbx, %rdi
	call	_ZNSt12__shared_ptrIiLN9__gnu_cxx12_Lock_policyE2EEC2ISaIiEJiEEESt20_Sp_alloc_shared_tagIT_EDpOT0_
.LBE15:
	.loc 6 360 4
	nop
	addq	$40, %rsp
	popq	%rbx
	popq	%rbp
	.cfi_def_cfa 7, 8
	ret
	.cfi_endproc
.LFE3174:
	.size	_ZNSt10shared_ptrIiEC2ISaIiEJiEEESt20_Sp_alloc_shared_tagIT_EDpOT0_, .-_ZNSt10shared_ptrIiEC2ISaIiEJiEEESt20_Sp_alloc_shared_tagIT_EDpOT0_
	.weak	_ZNSt10shared_ptrIiEC1ISaIiEJiEEESt20_Sp_alloc_shared_tagIT_EDpOT0_
	.set	_ZNSt10shared_ptrIiEC1ISaIiEJiEEESt20_Sp_alloc_shared_tagIT_EDpOT0_,_ZNSt10shared_ptrIiEC2ISaIiEJiEEESt20_Sp_alloc_shared_tagIT_EDpOT0_
	.section	.text._ZNSt16_Sp_counted_baseILN9__gnu_cxx12_Lock_policyE2EED2Ev,"axG",@progbits,_ZNSt16_Sp_counted_baseILN9__gnu_cxx12_Lock_policyE2EED5Ev,comdat
	.align 2
	.weak	_ZNSt16_Sp_counted_baseILN9__gnu_cxx12_Lock_policyE2EED2Ev
	.type	_ZNSt16_Sp_counted_baseILN9__gnu_cxx12_Lock_policyE2EED2Ev, @function
_ZNSt16_Sp_counted_baseILN9__gnu_cxx12_Lock_policyE2EED2Ev:
.LFB3218:
	.loc 5 121 7
	.cfi_startproc
	endbr64
	pushq	%rbp
	.cfi_def_cfa_offset 16
	.cfi_offset 6, -16
	movq	%rsp, %rbp
	.cfi_def_cfa_register 6
	movq	%rdi, -8(%rbp)
.LBB16:
	.loc 5 122 9
	leaq	16+_ZTVSt16_Sp_counted_baseILN9__gnu_cxx12_Lock_policyE2EE(%rip), %rdx
	movq	-8(%rbp), %rax
	movq	%rdx, (%rax)
.LBE16:
	nop
	popq	%rbp
	.cfi_def_cfa 7, 8
	ret
	.cfi_endproc
.LFE3218:
	.size	_ZNSt16_Sp_counted_baseILN9__gnu_cxx12_Lock_policyE2EED2Ev, .-_ZNSt16_Sp_counted_baseILN9__gnu_cxx12_Lock_policyE2EED2Ev
	.weak	_ZNSt16_Sp_counted_baseILN9__gnu_cxx12_Lock_policyE2EED1Ev
	.set	_ZNSt16_Sp_counted_baseILN9__gnu_cxx12_Lock_policyE2EED1Ev,_ZNSt16_Sp_counted_baseILN9__gnu_cxx12_Lock_policyE2EED2Ev
	.section	.text._ZNSt16_Sp_counted_baseILN9__gnu_cxx12_Lock_policyE2EED0Ev,"axG",@progbits,_ZNSt16_Sp_counted_baseILN9__gnu_cxx12_Lock_policyE2EED5Ev,comdat
	.align 2
	.weak	_ZNSt16_Sp_counted_baseILN9__gnu_cxx12_Lock_policyE2EED0Ev
	.type	_ZNSt16_Sp_counted_baseILN9__gnu_cxx12_Lock_policyE2EED0Ev, @function
_ZNSt16_Sp_counted_baseILN9__gnu_cxx12_Lock_policyE2EED0Ev:
.LFB3220:
	.loc 5 121 7
	.cfi_startproc
	endbr64
	pushq	%rbp
	.cfi_def_cfa_offset 16
	.cfi_offset 6, -16
	movq	%rsp, %rbp
	.cfi_def_cfa_register 6
	subq	$16, %rsp
	movq	%rdi, -8(%rbp)
	.loc 5 122 9
	movq	-8(%rbp), %rax
	movq	%rax, %rdi
	call	_ZNSt16_Sp_counted_baseILN9__gnu_cxx12_Lock_policyE2EED1Ev
	movq	-8(%rbp), %rax
	movl	$16, %esi
	movq	%rax, %rdi
	call	_ZdlPvm@PLT
	leave
	.cfi_def_cfa 7, 8
	ret
	.cfi_endproc
.LFE3220:
	.size	_ZNSt16_Sp_counted_baseILN9__gnu_cxx12_Lock_policyE2EED0Ev, .-_ZNSt16_Sp_counted_baseILN9__gnu_cxx12_Lock_policyE2EED0Ev
	.section	.text._ZNSt14__shared_countILN9__gnu_cxx12_Lock_policyE2EEC2IPiEET_,"axG",@progbits,_ZNSt14__shared_countILN9__gnu_cxx12_Lock_policyE2EEC5IPiEET_,comdat
	.align 2
	.weak	_ZNSt14__shared_countILN9__gnu_cxx12_Lock_policyE2EEC2IPiEET_
	.type	_ZNSt14__shared_countILN9__gnu_cxx12_Lock_policyE2EEC2IPiEET_, @function
_ZNSt14__shared_countILN9__gnu_cxx12_Lock_policyE2EEC2IPiEET_:
.LFB3222:
	.loc 5 621 2
	.cfi_startproc
	.cfi_personality 0x9b,DW.ref.__gxx_personality_v0
	.cfi_lsda 0x1b,.LLSDA3222
	endbr64
	pushq	%rbp
	.cfi_def_cfa_offset 16
	.cfi_offset 6, -16
	movq	%rsp, %rbp
	.cfi_def_cfa_register 6
	pushq	%rbx
	subq	$24, %rsp
	.cfi_offset 3, -24
	movq	%rdi, -24(%rbp)
	movq	%rsi, -32(%rbp)
.LBB17:
	.loc 5 621 36
	movq	-24(%rbp), %rax
	movq	$0, (%rax)
	.loc 5 625 16
	movl	$24, %edi
.LEHB8:
	call	_Znwm@PLT
.LEHE8:
	movq	%rax, %rbx
	movq	-32(%rbp), %rax
	movq	%rax, %rsi
	movq	%rbx, %rdi
	call	_ZNSt15_Sp_counted_ptrIPiLN9__gnu_cxx12_Lock_policyE2EEC1ES0_
	.loc 5 625 8
	movq	-24(%rbp), %rax
	movq	%rbx, (%rax)
.LBE17:
	.loc 5 632 2
	jmp	.L110
.L108:
	endbr64
.LBB18:
	.loc 5 627 4
	movq	%rax, %rdi
	call	__cxa_begin_catch@PLT
	.loc 5 629 15
	movq	-32(%rbp), %rax
	.loc 5 629 8
	testq	%rax, %rax
	je	.L106
	.loc 5 629 8 is_stmt 0 discriminator 1
	movl	$4, %esi
	movq	%rax, %rdi
	call	_ZdlPvm@PLT
.L106:
.LEHB9:
	.loc 5 630 8 is_stmt 1
	call	__cxa_rethrow@PLT
.LEHE9:
.L109:
	endbr64
	movq	%rax, %rbx
	.loc 5 627 4
	call	__cxa_end_catch@PLT
	movq	%rbx, %rax
	movq	%rax, %rdi
.LEHB10:
	call	_Unwind_Resume@PLT
.LEHE10:
.L110:
.LBE18:
	.loc 5 632 2
	addq	$24, %rsp
	popq	%rbx
	popq	%rbp
	.cfi_def_cfa 7, 8
	ret
	.cfi_endproc
.LFE3222:
	.section	.gcc_except_table
	.align 4
.LLSDA3222:
	.byte	0xff
	.byte	0x9b
	.uleb128 .LLSDATT3222-.LLSDATTD3222
.LLSDATTD3222:
	.byte	0x1
	.uleb128 .LLSDACSE3222-.LLSDACSB3222
.LLSDACSB3222:
	.uleb128 .LEHB8-.LFB3222
	.uleb128 .LEHE8-.LEHB8
	.uleb128 .L108-.LFB3222
	.uleb128 0x1
	.uleb128 .LEHB9-.LFB3222
	.uleb128 .LEHE9-.LEHB9
	.uleb128 .L109-.LFB3222
	.uleb128 0
	.uleb128 .LEHB10-.LFB3222
	.uleb128 .LEHE10-.LEHB10
	.uleb128 0
	.uleb128 0
.LLSDACSE3222:
	.byte	0x1
	.byte	0
	.align 4
	.long	0

.LLSDATT3222:
	.section	.text._ZNSt14__shared_countILN9__gnu_cxx12_Lock_policyE2EEC2IPiEET_,"axG",@progbits,_ZNSt14__shared_countILN9__gnu_cxx12_Lock_policyE2EEC5IPiEET_,comdat
	.size	_ZNSt14__shared_countILN9__gnu_cxx12_Lock_policyE2EEC2IPiEET_, .-_ZNSt14__shared_countILN9__gnu_cxx12_Lock_policyE2EEC2IPiEET_
	.weak	_ZNSt14__shared_countILN9__gnu_cxx12_Lock_policyE2EEC1IPiEET_
	.set	_ZNSt14__shared_countILN9__gnu_cxx12_Lock_policyE2EEC1IPiEET_,_ZNSt14__shared_countILN9__gnu_cxx12_Lock_policyE2EEC2IPiEET_
	.section	.text._ZNSt14__shared_countILN9__gnu_cxx12_Lock_policyE2EE7_M_swapERS2_,"axG",@progbits,_ZNSt14__shared_countILN9__gnu_cxx12_Lock_policyE2EE7_M_swapERS2_,comdat
	.align 2
	.weak	_ZNSt14__shared_countILN9__gnu_cxx12_Lock_policyE2EE7_M_swapERS2_
	.type	_ZNSt14__shared_countILN9__gnu_cxx12_Lock_policyE2EE7_M_swapERS2_, @function
_ZNSt14__shared_countILN9__gnu_cxx12_Lock_policyE2EE7_M_swapERS2_:
.LFB3224:
	.loc 5 756 7
	.cfi_startproc
	endbr64
	pushq	%rbp
	.cfi_def_cfa_offset 16
	.cfi_offset 6, -16
	movq	%rsp, %rbp
	.cfi_def_cfa_register 6
	movq	%rdi, -24(%rbp)
	movq	%rsi, -32(%rbp)
	.loc 5 758 25
	movq	-32(%rbp), %rax
	movq	(%rax), %rax
	movq	%rax, -8(%rbp)
	.loc 5 759 14
	movq	-24(%rbp), %rax
	movq	(%rax), %rdx
	.loc 5 759 2
	movq	-32(%rbp), %rax
	movq	%rdx, (%rax)
	.loc 5 760 2
	movq	-24(%rbp), %rax
	movq	-8(%rbp), %rdx
	movq	%rdx, (%rax)
	.loc 5 761 7
	nop
	popq	%rbp
	.cfi_def_cfa 7, 8
	ret
	.cfi_endproc
.LFE3224:
	.size	_ZNSt14__shared_countILN9__gnu_cxx12_Lock_policyE2EE7_M_swapERS2_, .-_ZNSt14__shared_countILN9__gnu_cxx12_Lock_policyE2EE7_M_swapERS2_
	.section	.text._ZSt4moveIRPiEONSt16remove_referenceIT_E4typeEOS3_,"axG",@progbits,_ZSt4moveIRPiEONSt16remove_referenceIT_E4typeEOS3_,comdat
	.weak	_ZSt4moveIRPiEONSt16remove_referenceIT_E4typeEOS3_
	.type	_ZSt4moveIRPiEONSt16remove_referenceIT_E4typeEOS3_, @function
_ZSt4moveIRPiEONSt16remove_referenceIT_E4typeEOS3_:
.LFB3226:
	.loc 8 99 5
	.cfi_startproc
	endbr64
	pushq	%rbp
	.cfi_def_cfa_offset 16
	.cfi_offset 6, -16
	movq	%rsp, %rbp
	.cfi_def_cfa_register 6
	movq	%rdi, -8(%rbp)
	.loc 8 100 74
	movq	-8(%rbp), %rax
	.loc 8 100 77
	popq	%rbp
	.cfi_def_cfa 7, 8
	ret
	.cfi_endproc
.LFE3226:
	.size	_ZSt4moveIRPiEONSt16remove_referenceIT_E4typeEOS3_, .-_ZSt4moveIRPiEONSt16remove_referenceIT_E4typeEOS3_
	.section	.text._ZSt4swapIPiENSt9enable_ifIXsrSt6__and_IJSt6__not_ISt15__is_tuple_likeIT_EESt21is_move_constructibleIS5_ESt18is_move_assignableIS5_EEE5valueEvE4typeERS5_SF_,"axG",@progbits,_ZSt4swapIPiENSt9enable_ifIXsrSt6__and_IJSt6__not_ISt15__is_tuple_likeIT_EESt21is_move_constructibleIS5_ESt18is_move_assignableIS5_EEE5valueEvE4typeERS5_SF_,comdat
	.weak	_ZSt4swapIPiENSt9enable_ifIXsrSt6__and_IJSt6__not_ISt15__is_tuple_likeIT_EESt21is_move_constructibleIS5_ESt18is_move_assignableIS5_EEE5valueEvE4typeERS5_SF_
	.type	_ZSt4swapIPiENSt9enable_ifIXsrSt6__and_IJSt6__not_ISt15__is_tuple_likeIT_EESt21is_move_constructibleIS5_ESt18is_move_assignableIS5_EEE5valueEvE4typeERS5_SF_, @function
_ZSt4swapIPiENSt9enable_ifIXsrSt6__and_IJSt6__not_ISt15__is_tuple_likeIT_EESt21is_move_constructibleIS5_ESt18is_move_assignableIS5_EEE5valueEvE4typeERS5_SF_:
.LFB3225:
	.loc 8 182 5
	.cfi_startproc
	endbr64
	pushq	%rbp
	.cfi_def_cfa_offset 16
	.cfi_offset 6, -16
	movq	%rsp, %rbp
	.cfi_def_cfa_register 6
	subq	$32, %rsp
	movq	%rdi, -24(%rbp)
	movq	%rsi, -32(%rbp)
	.loc 8 182 5
	movq	%fs:40, %rax
	movq	%rax, -8(%rbp)
	xorl	%eax, %eax
	.loc 8 193 28
	movq	-24(%rbp), %rax
	movq	%rax, %rdi
	call	_ZSt4moveIRPiEONSt16remove_referenceIT_E4typeEOS3_
	.loc 8 193 11
	movq	(%rax), %rax
	movq	%rax, -16(%rbp)
	.loc 8 194 22
	movq	-32(%rbp), %rax
	movq	%rax, %rdi
	call	_ZSt4moveIRPiEONSt16remove_referenceIT_E4typeEOS3_
	.loc 8 194 7
	movq	(%rax), %rdx
	movq	-24(%rbp), %rax
	movq	%rdx, (%rax)
	.loc 8 195 22
	leaq	-16(%rbp), %rax
	movq	%rax, %rdi
	call	_ZSt4moveIRPiEONSt16remove_referenceIT_E4typeEOS3_
	.loc 8 195 7
	movq	(%rax), %rdx
	movq	-32(%rbp), %rax
	movq	%rdx, (%rax)
	.loc 8 196 5
	nop
	movq	-8(%rbp), %rax
	xorq	%fs:40, %rax
	je	.L115
	call	__stack_chk_fail@PLT
.L115:
	leave
	.cfi_def_cfa 7, 8
	ret
	.cfi_endproc
.LFE3225:
	.size	_ZSt4swapIPiENSt9enable_ifIXsrSt6__and_IJSt6__not_ISt15__is_tuple_likeIT_EESt21is_move_constructibleIS5_ESt18is_move_assignableIS5_EEE5valueEvE4typeERS5_SF_, .-_ZSt4swapIPiENSt9enable_ifIXsrSt6__and_IJSt6__not_ISt15__is_tuple_likeIT_EESt21is_move_constructibleIS5_ESt18is_move_assignableIS5_EEE5valueEvE4typeERS5_SF_
	.section	.text._ZNSt16_Sp_counted_baseILN9__gnu_cxx12_Lock_policyE2EE15_M_add_ref_copyEv,"axG",@progbits,_ZNSt16_Sp_counted_baseILN9__gnu_cxx12_Lock_policyE2EE15_M_add_ref_copyEv,comdat
	.align 2
	.weak	_ZNSt16_Sp_counted_baseILN9__gnu_cxx12_Lock_policyE2EE15_M_add_ref_copyEv
	.type	_ZNSt16_Sp_counted_baseILN9__gnu_cxx12_Lock_policyE2EE15_M_add_ref_copyEv, @function
_ZNSt16_Sp_counted_baseILN9__gnu_cxx12_Lock_policyE2EE15_M_add_ref_copyEv:
.LFB3227:
	.loc 5 138 7
	.cfi_startproc
	endbr64
	pushq	%rbp
	.cfi_def_cfa_offset 16
	.cfi_offset 6, -16
	movq	%rsp, %rbp
	.cfi_def_cfa_register 6
	subq	$8, %rsp
	movq	%rdi, -8(%rbp)
	.loc 5 139 41
	movq	-8(%rbp), %rax
	addq	$8, %rax
	movl	$1, %esi
	movq	%rax, %rdi
	call	_ZN9__gnu_cxxL21__atomic_add_dispatchEPii
	.loc 5 139 61
	nop
	leave
	.cfi_def_cfa 7, 8
	ret
	.cfi_endproc
.LFE3227:
	.size	_ZNSt16_Sp_counted_baseILN9__gnu_cxx12_Lock_policyE2EE15_M_add_ref_copyEv, .-_ZNSt16_Sp_counted_baseILN9__gnu_cxx12_Lock_policyE2EE15_M_add_ref_copyEv
	.section	.text._ZNSt12__shared_ptrIiLN9__gnu_cxx12_Lock_policyE2EEC2ISaIiEJiEEESt20_Sp_alloc_shared_tagIT_EDpOT0_,"axG",@progbits,_ZNSt12__shared_ptrIiLN9__gnu_cxx12_Lock_policyE2EEC5ISaIiEJiEEESt20_Sp_alloc_shared_tagIT_EDpOT0_,comdat
	.align 2
	.weak	_ZNSt12__shared_ptrIiLN9__gnu_cxx12_Lock_policyE2EEC2ISaIiEJiEEESt20_Sp_alloc_shared_tagIT_EDpOT0_
	.type	_ZNSt12__shared_ptrIiLN9__gnu_cxx12_Lock_policyE2EEC2ISaIiEJiEEESt20_Sp_alloc_shared_tagIT_EDpOT0_, @function
_ZNSt12__shared_ptrIiLN9__gnu_cxx12_Lock_policyE2EEC2ISaIiEJiEEESt20_Sp_alloc_shared_tagIT_EDpOT0_:
.LFB3229:
	.loc 5 1343 2
	.cfi_startproc
	endbr64
	pushq	%rbp
	.cfi_def_cfa_offset 16
	.cfi_offset 6, -16
	movq	%rsp, %rbp
	.cfi_def_cfa_register 6
	pushq	%rbx
	subq	$40, %rsp
	.cfi_offset 3, -24
	movq	%rdi, -24(%rbp)
	movq	%rsi, -32(%rbp)
	movq	%rdx, -40(%rbp)
.LBB19:
	.loc 5 1344 71
	movq	-24(%rbp), %rax
	movq	$0, (%rax)
	movq	-24(%rbp), %rax
	leaq	8(%rax), %rbx
	movq	-40(%rbp), %rax
	movq	%rax, %rdi
	call	_ZSt7forwardIiEOT_RNSt16remove_referenceIS0_E4typeE
	movq	%rax, %rcx
	.loc 5 1344 26
	movq	-24(%rbp), %rax
	.loc 5 1344 71
	movq	-32(%rbp), %rdx
	movq	%rax, %rsi
	movq	%rbx, %rdi
	call	_ZNSt14__shared_countILN9__gnu_cxx12_Lock_policyE2EEC1IiSaIiEJiEEERPT_St20_Sp_alloc_shared_tagIT0_EDpOT1_
	.loc 5 1345 4
	movq	-24(%rbp), %rax
	movq	(%rax), %rdx
	movq	-24(%rbp), %rax
	movq	%rdx, %rsi
	movq	%rax, %rdi
	call	_ZNSt12__shared_ptrIiLN9__gnu_cxx12_Lock_policyE2EE31_M_enable_shared_from_this_withIiiEENSt9enable_ifIXntsrNS2_15__has_esft_baseIT0_vEE5valueEvE4typeEPT_
.LBE19:
	.loc 5 1345 45
	nop
	addq	$40, %rsp
	popq	%rbx
	popq	%rbp
	.cfi_def_cfa 7, 8
	ret
	.cfi_endproc
.LFE3229:
	.size	_ZNSt12__shared_ptrIiLN9__gnu_cxx12_Lock_policyE2EEC2ISaIiEJiEEESt20_Sp_alloc_shared_tagIT_EDpOT0_, .-_ZNSt12__shared_ptrIiLN9__gnu_cxx12_Lock_policyE2EEC2ISaIiEJiEEESt20_Sp_alloc_shared_tagIT_EDpOT0_
	.weak	_ZNSt12__shared_ptrIiLN9__gnu_cxx12_Lock_policyE2EEC1ISaIiEJiEEESt20_Sp_alloc_shared_tagIT_EDpOT0_
	.set	_ZNSt12__shared_ptrIiLN9__gnu_cxx12_Lock_policyE2EEC1ISaIiEJiEEESt20_Sp_alloc_shared_tagIT_EDpOT0_,_ZNSt12__shared_ptrIiLN9__gnu_cxx12_Lock_policyE2EEC2ISaIiEJiEEESt20_Sp_alloc_shared_tagIT_EDpOT0_
	.section	.text._ZNSt15_Sp_counted_ptrIPiLN9__gnu_cxx12_Lock_policyE2EEC2ES0_,"axG",@progbits,_ZNSt15_Sp_counted_ptrIPiLN9__gnu_cxx12_Lock_policyE2EEC5ES0_,comdat
	.align 2
	.weak	_ZNSt15_Sp_counted_ptrIPiLN9__gnu_cxx12_Lock_policyE2EEC2ES0_
	.type	_ZNSt15_Sp_counted_ptrIPiLN9__gnu_cxx12_Lock_policyE2EEC2ES0_, @function
_ZNSt15_Sp_counted_ptrIPiLN9__gnu_cxx12_Lock_policyE2EEC2ES0_:
.LFB3276:
	.loc 5 372 7
	.cfi_startproc
	endbr64
	pushq	%rbp
	.cfi_def_cfa_offset 16
	.cfi_offset 6, -16
	movq	%rsp, %rbp
	.cfi_def_cfa_register 6
	subq	$16, %rsp
	movq	%rdi, -8(%rbp)
	movq	%rsi, -16(%rbp)
.LBB20:
	.loc 5 373 19
	movq	-8(%rbp), %rax
	movq	%rax, %rdi
	call	_ZNSt16_Sp_counted_baseILN9__gnu_cxx12_Lock_policyE2EEC2Ev
	leaq	16+_ZTVSt15_Sp_counted_ptrIPiLN9__gnu_cxx12_Lock_policyE2EE(%rip), %rdx
	movq	-8(%rbp), %rax
	movq	%rdx, (%rax)
	movq	-8(%rbp), %rax
	movq	-16(%rbp), %rdx
	movq	%rdx, 16(%rax)
.LBE20:
	.loc 5 373 23
	nop
	leave
	.cfi_def_cfa 7, 8
	ret
	.cfi_endproc
.LFE3276:
	.size	_ZNSt15_Sp_counted_ptrIPiLN9__gnu_cxx12_Lock_policyE2EEC2ES0_, .-_ZNSt15_Sp_counted_ptrIPiLN9__gnu_cxx12_Lock_policyE2EEC2ES0_
	.weak	_ZNSt15_Sp_counted_ptrIPiLN9__gnu_cxx12_Lock_policyE2EEC1ES0_
	.set	_ZNSt15_Sp_counted_ptrIPiLN9__gnu_cxx12_Lock_policyE2EEC1ES0_,_ZNSt15_Sp_counted_ptrIPiLN9__gnu_cxx12_Lock_policyE2EEC2ES0_
	.section	.text._ZNSt14__shared_countILN9__gnu_cxx12_Lock_policyE2EEC2IiSaIiEJiEEERPT_St20_Sp_alloc_shared_tagIT0_EDpOT1_,"axG",@progbits,_ZNSt14__shared_countILN9__gnu_cxx12_Lock_policyE2EEC5IiSaIiEJiEEERPT_St20_Sp_alloc_shared_tagIT0_EDpOT1_,comdat
	.align 2
	.weak	_ZNSt14__shared_countILN9__gnu_cxx12_Lock_policyE2EEC2IiSaIiEJiEEERPT_St20_Sp_alloc_shared_tagIT0_EDpOT1_
	.type	_ZNSt14__shared_countILN9__gnu_cxx12_Lock_policyE2EEC2IiSaIiEJiEEERPT_St20_Sp_alloc_shared_tagIT0_EDpOT1_, @function
_ZNSt14__shared_countILN9__gnu_cxx12_Lock_policyE2EEC2IiSaIiEJiEEERPT_St20_Sp_alloc_shared_tagIT0_EDpOT1_:
.LFB3279:
	.loc 5 672 2
	.cfi_startproc
	.cfi_personality 0x9b,DW.ref.__gxx_personality_v0
	.cfi_lsda 0x1b,.LLSDA3279
	endbr64
	pushq	%rbp
	.cfi_def_cfa_offset 16
	.cfi_offset 6, -16
	movq	%rsp, %rbp
	.cfi_def_cfa_register 6
	pushq	%r13
	pushq	%r12
	pushq	%rbx
	subq	$104, %rsp
	.cfi_offset 13, -24
	.cfi_offset 12, -32
	.cfi_offset 3, -40
	movq	%rdi, -104(%rbp)
	movq	%rsi, -112(%rbp)
	movq	%rdx, -120(%rbp)
	movq	%rcx, -128(%rbp)
	.loc 5 672 2
	movq	%fs:40, %rax
	movq	%rax, -40(%rbp)
	xorl	%eax, %eax
.LBB21:
.LBB22:
	.loc 5 676 43
	movq	-120(%rbp), %rdx
	leaq	-82(%rbp), %rax
	movq	%rdx, %rsi
	movq	%rax, %rdi
	call	_ZNSaISt23_Sp_counted_ptr_inplaceIiSaIiELN9__gnu_cxx12_Lock_policyE2EEEC1IiEERKSaIT_E
	.loc 5 677 9
	leaq	-64(%rbp), %rax
	leaq	-82(%rbp), %rdx
	movq	%rdx, %rsi
	movq	%rax, %rdi
.LEHB11:
	call	_ZSt18__allocate_guardedISaISt23_Sp_counted_ptr_inplaceIiSaIiELN9__gnu_cxx12_Lock_policyE2EEEESt15__allocated_ptrIT_ERS7_
.LEHE11:
	.loc 5 678 17
	leaq	-64(%rbp), %rax
	movq	%rax, %rdi
	call	_ZNSt15__allocated_ptrISaISt23_Sp_counted_ptr_inplaceIiSaIiELN9__gnu_cxx12_Lock_policyE2EEEE3getEv
	movq	%rax, -80(%rbp)
	.loc 5 679 9
	movq	-120(%rbp), %rdx
	leaq	-81(%rbp), %rax
	movq	%rdx, %rsi
	movq	%rax, %rdi
	call	_ZNSaIiEC1ERKS_
	leaq	-81(%rbp), %r12
	.loc 5 680 47
	movq	-128(%rbp), %rax
	movq	%rax, %rdi
	call	_ZSt7forwardIiEOT_RNSt16remove_referenceIS0_E4typeE
	movq	%rax, %r13
	.loc 5 679 9
	movq	-80(%rbp), %rax
	.loc 5 679 16
	movq	%rax, %rsi
	movl	$24, %edi
	call	_ZnwmPv
	movq	%rax, %rbx
	movq	%r13, %rdx
	movq	%r12, %rsi
	movq	%rbx, %rdi
	call	_ZNSt23_Sp_counted_ptr_inplaceIiSaIiELN9__gnu_cxx12_Lock_policyE2EEC1IJiEEES0_DpOT_
	.loc 5 679 9
	movq	%rbx, -72(%rbp)
	leaq	-81(%rbp), %rax
	movq	%rax, %rdi
	call	_ZNSaIiED1Ev
	.loc 5 681 12
	leaq	-64(%rbp), %rax
	movl	$0, %esi
	movq	%rax, %rdi
	call	_ZNSt15__allocated_ptrISaISt23_Sp_counted_ptr_inplaceIiSaIiELN9__gnu_cxx12_Lock_policyE2EEEEaSEDn
	.loc 5 682 4
	movq	-104(%rbp), %rax
	movq	-72(%rbp), %rdx
	movq	%rdx, (%rax)
	.loc 5 683 8
	movq	-72(%rbp), %rax
	movq	%rax, %rdi
	call	_ZNSt23_Sp_counted_ptr_inplaceIiSaIiELN9__gnu_cxx12_Lock_policyE2EE6_M_ptrEv
	.loc 5 683 4
	movq	-112(%rbp), %rdx
	movq	%rax, (%rdx)
	.loc 5 677 9
	leaq	-64(%rbp), %rax
	movq	%rax, %rdi
	call	_ZNSt15__allocated_ptrISaISt23_Sp_counted_ptr_inplaceIiSaIiELN9__gnu_cxx12_Lock_policyE2EEEED1Ev
	.loc 5 676 43
	leaq	-82(%rbp), %rax
	movq	%rax, %rdi
	call	_ZNSaISt23_Sp_counted_ptr_inplaceIiSaIiELN9__gnu_cxx12_Lock_policyE2EEED1Ev
.LBE22:
.LBE21:
	.loc 5 684 2
	nop
	movq	-40(%rbp), %rax
	xorq	%fs:40, %rax
	je	.L121
	jmp	.L123
.L122:
	endbr64
	movq	%rax, %rbx
.LBB24:
.LBB23:
	.loc 5 676 43
	leaq	-82(%rbp), %rax
	movq	%rax, %rdi
	call	_ZNSaISt23_Sp_counted_ptr_inplaceIiSaIiELN9__gnu_cxx12_Lock_policyE2EEED1Ev
	movq	%rbx, %rax
	movq	%rax, %rdi
.LEHB12:
	call	_Unwind_Resume@PLT
.LEHE12:
.L123:
.LBE23:
.LBE24:
	.loc 5 684 2
	call	__stack_chk_fail@PLT
.L121:
	addq	$104, %rsp
	popq	%rbx
	popq	%r12
	popq	%r13
	popq	%rbp
	.cfi_def_cfa 7, 8
	ret
	.cfi_endproc
.LFE3279:
	.section	.gcc_except_table
.LLSDA3279:
	.byte	0xff
	.byte	0xff
	.byte	0x1
	.uleb128 .LLSDACSE3279-.LLSDACSB3279
.LLSDACSB3279:
	.uleb128 .LEHB11-.LFB3279
	.uleb128 .LEHE11-.LEHB11
	.uleb128 .L122-.LFB3279
	.uleb128 0
	.uleb128 .LEHB12-.LFB3279
	.uleb128 .LEHE12-.LEHB12
	.uleb128 0
	.uleb128 0
.LLSDACSE3279:
	.section	.text._ZNSt14__shared_countILN9__gnu_cxx12_Lock_policyE2EEC2IiSaIiEJiEEERPT_St20_Sp_alloc_shared_tagIT0_EDpOT1_,"axG",@progbits,_ZNSt14__shared_countILN9__gnu_cxx12_Lock_policyE2EEC5IiSaIiEJiEEERPT_St20_Sp_alloc_shared_tagIT0_EDpOT1_,comdat
	.size	_ZNSt14__shared_countILN9__gnu_cxx12_Lock_policyE2EEC2IiSaIiEJiEEERPT_St20_Sp_alloc_shared_tagIT0_EDpOT1_, .-_ZNSt14__shared_countILN9__gnu_cxx12_Lock_policyE2EEC2IiSaIiEJiEEERPT_St20_Sp_alloc_shared_tagIT0_EDpOT1_
	.weak	_ZNSt14__shared_countILN9__gnu_cxx12_Lock_policyE2EEC1IiSaIiEJiEEERPT_St20_Sp_alloc_shared_tagIT0_EDpOT1_
	.set	_ZNSt14__shared_countILN9__gnu_cxx12_Lock_policyE2EEC1IiSaIiEJiEEERPT_St20_Sp_alloc_shared_tagIT0_EDpOT1_,_ZNSt14__shared_countILN9__gnu_cxx12_Lock_policyE2EEC2IiSaIiEJiEEERPT_St20_Sp_alloc_shared_tagIT0_EDpOT1_
	.section	.text._ZNSt16_Sp_counted_baseILN9__gnu_cxx12_Lock_policyE2EEC2Ev,"axG",@progbits,_ZNSt16_Sp_counted_baseILN9__gnu_cxx12_Lock_policyE2EEC5Ev,comdat
	.align 2
	.weak	_ZNSt16_Sp_counted_baseILN9__gnu_cxx12_Lock_policyE2EEC2Ev
	.type	_ZNSt16_Sp_counted_baseILN9__gnu_cxx12_Lock_policyE2EEC2Ev, @function
_ZNSt16_Sp_counted_baseILN9__gnu_cxx12_Lock_policyE2EEC2Ev:
.LFB3306:
	.loc 5 117 7
	.cfi_startproc
	endbr64
	pushq	%rbp
	.cfi_def_cfa_offset 16
	.cfi_offset 6, -16
	movq	%rsp, %rbp
	.cfi_def_cfa_register 6
	movq	%rdi, -8(%rbp)
.LBB25:
	.loc 5 118 41
	leaq	16+_ZTVSt16_Sp_counted_baseILN9__gnu_cxx12_Lock_policyE2EE(%rip), %rdx
	movq	-8(%rbp), %rax
	movq	%rdx, (%rax)
	movq	-8(%rbp), %rax
	movl	$1, 8(%rax)
	movq	-8(%rbp), %rax
	movl	$1, 12(%rax)
.LBE25:
	.loc 5 118 45
	nop
	popq	%rbp
	.cfi_def_cfa 7, 8
	ret
	.cfi_endproc
.LFE3306:
	.size	_ZNSt16_Sp_counted_baseILN9__gnu_cxx12_Lock_policyE2EEC2Ev, .-_ZNSt16_Sp_counted_baseILN9__gnu_cxx12_Lock_policyE2EEC2Ev
	.weak	_ZNSt16_Sp_counted_baseILN9__gnu_cxx12_Lock_policyE2EEC1Ev
	.set	_ZNSt16_Sp_counted_baseILN9__gnu_cxx12_Lock_policyE2EEC1Ev,_ZNSt16_Sp_counted_baseILN9__gnu_cxx12_Lock_policyE2EEC2Ev
	.section	.text._ZNSaISt23_Sp_counted_ptr_inplaceIiSaIiELN9__gnu_cxx12_Lock_policyE2EEEC2IiEERKSaIT_E,"axG",@progbits,_ZNSaISt23_Sp_counted_ptr_inplaceIiSaIiELN9__gnu_cxx12_Lock_policyE2EEEC5IiEERKSaIT_E,comdat
	.align 2
	.weak	_ZNSaISt23_Sp_counted_ptr_inplaceIiSaIiELN9__gnu_cxx12_Lock_policyE2EEEC2IiEERKSaIT_E
	.type	_ZNSaISt23_Sp_counted_ptr_inplaceIiSaIiELN9__gnu_cxx12_Lock_policyE2EEEC2IiEERKSaIT_E, @function
_ZNSaISt23_Sp_counted_ptr_inplaceIiSaIiELN9__gnu_cxx12_Lock_policyE2EEEC2IiEERKSaIT_E:
.LFB3309:
	.loc 9 151 2
	.cfi_startproc
	endbr64
	pushq	%rbp
	.cfi_def_cfa_offset 16
	.cfi_offset 6, -16
	movq	%rsp, %rbp
	.cfi_def_cfa_register 6
	subq	$16, %rsp
	movq	%rdi, -8(%rbp)
	movq	%rsi, -16(%rbp)
.LBB26:
	.loc 9 151 45
	movq	-8(%rbp), %rax
	movq	%rax, %rdi
	call	_ZN9__gnu_cxx13new_allocatorISt23_Sp_counted_ptr_inplaceIiSaIiELNS_12_Lock_policyE2EEEC2Ev
.LBE26:
	.loc 9 151 47
	nop
	leave
	.cfi_def_cfa 7, 8
	ret
	.cfi_endproc
.LFE3309:
	.size	_ZNSaISt23_Sp_counted_ptr_inplaceIiSaIiELN9__gnu_cxx12_Lock_policyE2EEEC2IiEERKSaIT_E, .-_ZNSaISt23_Sp_counted_ptr_inplaceIiSaIiELN9__gnu_cxx12_Lock_policyE2EEEC2IiEERKSaIT_E
	.weak	_ZNSaISt23_Sp_counted_ptr_inplaceIiSaIiELN9__gnu_cxx12_Lock_policyE2EEEC1IiEERKSaIT_E
	.set	_ZNSaISt23_Sp_counted_ptr_inplaceIiSaIiELN9__gnu_cxx12_Lock_policyE2EEEC1IiEERKSaIT_E,_ZNSaISt23_Sp_counted_ptr_inplaceIiSaIiELN9__gnu_cxx12_Lock_policyE2EEEC2IiEERKSaIT_E
	.section	.text._ZNSaISt23_Sp_counted_ptr_inplaceIiSaIiELN9__gnu_cxx12_Lock_policyE2EEED2Ev,"axG",@progbits,_ZNSaISt23_Sp_counted_ptr_inplaceIiSaIiELN9__gnu_cxx12_Lock_policyE2EEED5Ev,comdat
	.align 2
	.weak	_ZNSaISt23_Sp_counted_ptr_inplaceIiSaIiELN9__gnu_cxx12_Lock_policyE2EEED2Ev
	.type	_ZNSaISt23_Sp_counted_ptr_inplaceIiSaIiELN9__gnu_cxx12_Lock_policyE2EEED2Ev, @function
_ZNSaISt23_Sp_counted_ptr_inplaceIiSaIiELN9__gnu_cxx12_Lock_policyE2EEED2Ev:
.LFB3312:
	.loc 9 153 7
	.cfi_startproc
	endbr64
	pushq	%rbp
	.cfi_def_cfa_offset 16
	.cfi_offset 6, -16
	movq	%rsp, %rbp
	.cfi_def_cfa_register 6
	subq	$16, %rsp
	movq	%rdi, -8(%rbp)
.LBB27:
	.loc 9 153 31
	movq	-8(%rbp), %rax
	movq	%rax, %rdi
	call	_ZN9__gnu_cxx13new_allocatorISt23_Sp_counted_ptr_inplaceIiSaIiELNS_12_Lock_policyE2EEED2Ev
.LBE27:
	nop
	leave
	.cfi_def_cfa 7, 8
	ret
	.cfi_endproc
.LFE3312:
	.size	_ZNSaISt23_Sp_counted_ptr_inplaceIiSaIiELN9__gnu_cxx12_Lock_policyE2EEED2Ev, .-_ZNSaISt23_Sp_counted_ptr_inplaceIiSaIiELN9__gnu_cxx12_Lock_policyE2EEED2Ev
	.weak	_ZNSaISt23_Sp_counted_ptr_inplaceIiSaIiELN9__gnu_cxx12_Lock_policyE2EEED1Ev
	.set	_ZNSaISt23_Sp_counted_ptr_inplaceIiSaIiELN9__gnu_cxx12_Lock_policyE2EEED1Ev,_ZNSaISt23_Sp_counted_ptr_inplaceIiSaIiELN9__gnu_cxx12_Lock_policyE2EEED2Ev
	.section	.text._ZSt18__allocate_guardedISaISt23_Sp_counted_ptr_inplaceIiSaIiELN9__gnu_cxx12_Lock_policyE2EEEESt15__allocated_ptrIT_ERS7_,"axG",@progbits,_ZSt18__allocate_guardedISaISt23_Sp_counted_ptr_inplaceIiSaIiELN9__gnu_cxx12_Lock_policyE2EEEESt15__allocated_ptrIT_ERS7_,comdat
	.weak	_ZSt18__allocate_guardedISaISt23_Sp_counted_ptr_inplaceIiSaIiELN9__gnu_cxx12_Lock_policyE2EEEESt15__allocated_ptrIT_ERS7_
	.type	_ZSt18__allocate_guardedISaISt23_Sp_counted_ptr_inplaceIiSaIiELN9__gnu_cxx12_Lock_policyE2EEEESt15__allocated_ptrIT_ERS7_, @function
_ZSt18__allocate_guardedISaISt23_Sp_counted_ptr_inplaceIiSaIiELN9__gnu_cxx12_Lock_policyE2EEEESt15__allocated_ptrIT_ERS7_:
.LFB3314:
	.file 11 "/usr/include/c++/9/bits/allocated_ptr.h"
	.loc 11 95 5
	.cfi_startproc
	endbr64
	pushq	%rbp
	.cfi_def_cfa_offset 16
	.cfi_offset 6, -16
	movq	%rsp, %rbp
	.cfi_def_cfa_register 6
	subq	$16, %rsp
	movq	%rdi, -8(%rbp)
	movq	%rsi, -16(%rbp)
	.loc 11 97 69
	movq	-16(%rbp), %rax
	movl	$1, %esi
	movq	%rax, %rdi
	call	_ZNSt16allocator_traitsISaISt23_Sp_counted_ptr_inplaceIiSaIiELN9__gnu_cxx12_Lock_policyE2EEEE8allocateERS5_m
	movq	%rax, %rdx
	movq	-16(%rbp), %rcx
	movq	-8(%rbp), %rax
	movq	%rcx, %rsi
	movq	%rax, %rdi
	call	_ZNSt15__allocated_ptrISaISt23_Sp_counted_ptr_inplaceIiSaIiELN9__gnu_cxx12_Lock_policyE2EEEEC1ERS5_PS4_
	.loc 11 98 5
	movq	-8(%rbp), %rax
	leave
	.cfi_def_cfa 7, 8
	ret
	.cfi_endproc
.LFE3314:
	.size	_ZSt18__allocate_guardedISaISt23_Sp_counted_ptr_inplaceIiSaIiELN9__gnu_cxx12_Lock_policyE2EEEESt15__allocated_ptrIT_ERS7_, .-_ZSt18__allocate_guardedISaISt23_Sp_counted_ptr_inplaceIiSaIiELN9__gnu_cxx12_Lock_policyE2EEEESt15__allocated_ptrIT_ERS7_
	.section	.text._ZNSt15__allocated_ptrISaISt23_Sp_counted_ptr_inplaceIiSaIiELN9__gnu_cxx12_Lock_policyE2EEEED2Ev,"axG",@progbits,_ZNSt15__allocated_ptrISaISt23_Sp_counted_ptr_inplaceIiSaIiELN9__gnu_cxx12_Lock_policyE2EEEED5Ev,comdat
	.align 2
	.weak	_ZNSt15__allocated_ptrISaISt23_Sp_counted_ptr_inplaceIiSaIiELN9__gnu_cxx12_Lock_policyE2EEEED2Ev
	.type	_ZNSt15__allocated_ptrISaISt23_Sp_counted_ptr_inplaceIiSaIiELN9__gnu_cxx12_Lock_policyE2EEEED2Ev, @function
_ZNSt15__allocated_ptrISaISt23_Sp_counted_ptr_inplaceIiSaIiELN9__gnu_cxx12_Lock_policyE2EEEED2Ev:
.LFB3316:
	.loc 11 70 7
	.cfi_startproc
	.cfi_personality 0x9b,DW.ref.__gxx_personality_v0
	.cfi_lsda 0x1b,.LLSDA3316
	endbr64
	pushq	%rbp
	.cfi_def_cfa_offset 16
	.cfi_offset 6, -16
	movq	%rsp, %rbp
	.cfi_def_cfa_register 6
	subq	$16, %rsp
	movq	%rdi, -8(%rbp)
.LBB28:
	.loc 11 72 6
	movq	-8(%rbp), %rax
	movq	8(%rax), %rax
	.loc 11 72 2
	testq	%rax, %rax
	je	.L131
	.loc 11 73 45
	movq	-8(%rbp), %rax
	movq	8(%rax), %rcx
	.loc 11 73 47
	movq	-8(%rbp), %rax
	movq	(%rax), %rax
	.loc 11 73 45
	movl	$1, %edx
	movq	%rcx, %rsi
	movq	%rax, %rdi
	call	_ZNSt16allocator_traitsISaISt23_Sp_counted_ptr_inplaceIiSaIiELN9__gnu_cxx12_Lock_policyE2EEEE10deallocateERS5_PS4_m
.L131:
.LBE28:
	.loc 11 74 7
	nop
	leave
	.cfi_def_cfa 7, 8
	ret
	.cfi_endproc
.LFE3316:
	.section	.gcc_except_table
.LLSDA3316:
	.byte	0xff
	.byte	0xff
	.byte	0x1
	.uleb128 .LLSDACSE3316-.LLSDACSB3316
.LLSDACSB3316:
.LLSDACSE3316:
	.section	.text._ZNSt15__allocated_ptrISaISt23_Sp_counted_ptr_inplaceIiSaIiELN9__gnu_cxx12_Lock_policyE2EEEED2Ev,"axG",@progbits,_ZNSt15__allocated_ptrISaISt23_Sp_counted_ptr_inplaceIiSaIiELN9__gnu_cxx12_Lock_policyE2EEEED5Ev,comdat
	.size	_ZNSt15__allocated_ptrISaISt23_Sp_counted_ptr_inplaceIiSaIiELN9__gnu_cxx12_Lock_policyE2EEEED2Ev, .-_ZNSt15__allocated_ptrISaISt23_Sp_counted_ptr_inplaceIiSaIiELN9__gnu_cxx12_Lock_policyE2EEEED2Ev
	.weak	_ZNSt15__allocated_ptrISaISt23_Sp_counted_ptr_inplaceIiSaIiELN9__gnu_cxx12_Lock_policyE2EEEED1Ev
	.set	_ZNSt15__allocated_ptrISaISt23_Sp_counted_ptr_inplaceIiSaIiELN9__gnu_cxx12_Lock_policyE2EEEED1Ev,_ZNSt15__allocated_ptrISaISt23_Sp_counted_ptr_inplaceIiSaIiELN9__gnu_cxx12_Lock_policyE2EEEED2Ev
	.section	.text._ZNSt15__allocated_ptrISaISt23_Sp_counted_ptr_inplaceIiSaIiELN9__gnu_cxx12_Lock_policyE2EEEE3getEv,"axG",@progbits,_ZNSt15__allocated_ptrISaISt23_Sp_counted_ptr_inplaceIiSaIiELN9__gnu_cxx12_Lock_policyE2EEEE3getEv,comdat
	.align 2
	.weak	_ZNSt15__allocated_ptrISaISt23_Sp_counted_ptr_inplaceIiSaIiELN9__gnu_cxx12_Lock_policyE2EEEE3getEv
	.type	_ZNSt15__allocated_ptrISaISt23_Sp_counted_ptr_inplaceIiSaIiELN9__gnu_cxx12_Lock_policyE2EEEE3getEv, @function
_ZNSt15__allocated_ptrISaISt23_Sp_counted_ptr_inplaceIiSaIiELN9__gnu_cxx12_Lock_policyE2EEEE3getEv:
.LFB3318:
	.loc 11 85 19
	.cfi_startproc
	endbr64
	pushq	%rbp
	.cfi_def_cfa_offset 16
	.cfi_offset 6, -16
	movq	%rsp, %rbp
	.cfi_def_cfa_register 6
	subq	$16, %rsp
	movq	%rdi, -8(%rbp)
	.loc 11 85 51
	movq	-8(%rbp), %rax
	movq	8(%rax), %rax
	movq	%rax, %rdi
	call	_ZSt12__to_addressISt23_Sp_counted_ptr_inplaceIiSaIiELN9__gnu_cxx12_Lock_policyE2EEEPT_S6_
	.loc 11 85 61
	leave
	.cfi_def_cfa 7, 8
	ret
	.cfi_endproc
.LFE3318:
	.size	_ZNSt15__allocated_ptrISaISt23_Sp_counted_ptr_inplaceIiSaIiELN9__gnu_cxx12_Lock_policyE2EEEE3getEv, .-_ZNSt15__allocated_ptrISaISt23_Sp_counted_ptr_inplaceIiSaIiELN9__gnu_cxx12_Lock_policyE2EEEE3getEv
	.section	.text._ZNSaIiEC2ERKS_,"axG",@progbits,_ZNSaIiEC5ERKS_,comdat
	.align 2
	.weak	_ZNSaIiEC2ERKS_
	.type	_ZNSaIiEC2ERKS_, @function
_ZNSaIiEC2ERKS_:
.LFB3320:
	.loc 9 141 7
	.cfi_startproc
	endbr64
	pushq	%rbp
	.cfi_def_cfa_offset 16
	.cfi_offset 6, -16
	movq	%rsp, %rbp
	.cfi_def_cfa_register 6
	subq	$16, %rsp
	movq	%rdi, -8(%rbp)
	movq	%rsi, -16(%rbp)
.LBB29:
	.loc 9 142 34
	movq	-16(%rbp), %rdx
	movq	-8(%rbp), %rax
	movq	%rdx, %rsi
	movq	%rax, %rdi
	call	_ZN9__gnu_cxx13new_allocatorIiEC2ERKS1_
.LBE29:
	.loc 9 142 38
	nop
	leave
	.cfi_def_cfa 7, 8
	ret
	.cfi_endproc
.LFE3320:
	.size	_ZNSaIiEC2ERKS_, .-_ZNSaIiEC2ERKS_
	.weak	_ZNSaIiEC1ERKS_
	.set	_ZNSaIiEC1ERKS_,_ZNSaIiEC2ERKS_
	.section	.text._ZNSt14_Sp_ebo_helperILi0ESaIiELb1EED2Ev,"axG",@progbits,_ZNSt14_Sp_ebo_helperILi0ESaIiELb1EED5Ev,comdat
	.align 2
	.weak	_ZNSt14_Sp_ebo_helperILi0ESaIiELb1EED2Ev
	.type	_ZNSt14_Sp_ebo_helperILi0ESaIiELb1EED2Ev, @function
_ZNSt14_Sp_ebo_helperILi0ESaIiELb1EED2Ev:
.LFB3325:
	.loc 5 412 12
	.cfi_startproc
	endbr64
	pushq	%rbp
	.cfi_def_cfa_offset 16
	.cfi_offset 6, -16
	movq	%rsp, %rbp
	.cfi_def_cfa_register 6
	subq	$16, %rsp
	movq	%rdi, -8(%rbp)
.LBB30:
	.loc 5 412 12
	movq	-8(%rbp), %rax
	movq	%rax, %rdi
	call	_ZNSaIiED2Ev
.LBE30:
	nop
	leave
	.cfi_def_cfa 7, 8
	ret
	.cfi_endproc
.LFE3325:
	.size	_ZNSt14_Sp_ebo_helperILi0ESaIiELb1EED2Ev, .-_ZNSt14_Sp_ebo_helperILi0ESaIiELb1EED2Ev
	.weak	_ZNSt14_Sp_ebo_helperILi0ESaIiELb1EED1Ev
	.set	_ZNSt14_Sp_ebo_helperILi0ESaIiELb1EED1Ev,_ZNSt14_Sp_ebo_helperILi0ESaIiELb1EED2Ev
	.section	.text._ZNSt23_Sp_counted_ptr_inplaceIiSaIiELN9__gnu_cxx12_Lock_policyE2EE5_ImplD2Ev,"axG",@progbits,_ZNSt23_Sp_counted_ptr_inplaceIiSaIiELN9__gnu_cxx12_Lock_policyE2EE5_ImplD5Ev,comdat
	.align 2
	.weak	_ZNSt23_Sp_counted_ptr_inplaceIiSaIiELN9__gnu_cxx12_Lock_policyE2EE5_ImplD2Ev
	.type	_ZNSt23_Sp_counted_ptr_inplaceIiSaIiELN9__gnu_cxx12_Lock_policyE2EE5_ImplD2Ev, @function
_ZNSt23_Sp_counted_ptr_inplaceIiSaIiELN9__gnu_cxx12_Lock_policyE2EE5_ImplD2Ev:
.LFB3327:
	.loc 5 526 13
	.cfi_startproc
	endbr64
	pushq	%rbp
	.cfi_def_cfa_offset 16
	.cfi_offset 6, -16
	movq	%rsp, %rbp
	.cfi_def_cfa_register 6
	subq	$16, %rsp
	movq	%rdi, -8(%rbp)
.LBB31:
	.loc 5 526 13
	movq	-8(%rbp), %rax
	movq	%rax, %rdi
	call	_ZNSt14_Sp_ebo_helperILi0ESaIiELb1EED2Ev
.LBE31:
	nop
	leave
	.cfi_def_cfa 7, 8
	ret
	.cfi_endproc
.LFE3327:
	.size	_ZNSt23_Sp_counted_ptr_inplaceIiSaIiELN9__gnu_cxx12_Lock_policyE2EE5_ImplD2Ev, .-_ZNSt23_Sp_counted_ptr_inplaceIiSaIiELN9__gnu_cxx12_Lock_policyE2EE5_ImplD2Ev
	.weak	_ZNSt23_Sp_counted_ptr_inplaceIiSaIiELN9__gnu_cxx12_Lock_policyE2EE5_ImplD1Ev
	.set	_ZNSt23_Sp_counted_ptr_inplaceIiSaIiELN9__gnu_cxx12_Lock_policyE2EE5_ImplD1Ev,_ZNSt23_Sp_counted_ptr_inplaceIiSaIiELN9__gnu_cxx12_Lock_policyE2EE5_ImplD2Ev
	.section	.text._ZNSt23_Sp_counted_ptr_inplaceIiSaIiELN9__gnu_cxx12_Lock_policyE2EEC2IJiEEES0_DpOT_,"axG",@progbits,_ZNSt23_Sp_counted_ptr_inplaceIiSaIiELN9__gnu_cxx12_Lock_policyE2EEC5IJiEEES0_DpOT_,comdat
	.align 2
	.weak	_ZNSt23_Sp_counted_ptr_inplaceIiSaIiELN9__gnu_cxx12_Lock_policyE2EEC2IJiEEES0_DpOT_
	.type	_ZNSt23_Sp_counted_ptr_inplaceIiSaIiELN9__gnu_cxx12_Lock_policyE2EEC2IJiEEES0_DpOT_, @function
_ZNSt23_Sp_counted_ptr_inplaceIiSaIiELN9__gnu_cxx12_Lock_policyE2EEC2IJiEEES0_DpOT_:
.LFB3329:
	.loc 5 543 2
	.cfi_startproc
	endbr64
	pushq	%rbp
	.cfi_def_cfa_offset 16
	.cfi_offset 6, -16
	movq	%rsp, %rbp
	.cfi_def_cfa_register 6
	pushq	%rbx
	subq	$56, %rsp
	.cfi_offset 3, -24
	movq	%rdi, -40(%rbp)
	movq	%rsi, -48(%rbp)
	movq	%rdx, -56(%rbp)
	.loc 5 543 2
	movq	%fs:40, %rax
	movq	%rax, -24(%rbp)
	xorl	%eax, %eax
.LBB32:
	.loc 5 544 15
	movq	-40(%rbp), %rax
	movq	%rax, %rdi
	call	_ZNSt16_Sp_counted_baseILN9__gnu_cxx12_Lock_policyE2EEC2Ev
	leaq	16+_ZTVSt23_Sp_counted_ptr_inplaceIiSaIiELN9__gnu_cxx12_Lock_policyE2EE(%rip), %rdx
	movq	-40(%rbp), %rax
	movq	%rdx, (%rax)
	movq	-40(%rbp), %rax
	leaq	16(%rax), %rbx
	movq	-48(%rbp), %rdx
	leaq	-25(%rbp), %rax
	movq	%rdx, %rsi
	movq	%rax, %rdi
	call	_ZNSaIiEC1ERKS_
	leaq	-25(%rbp), %rax
	movq	%rax, %rsi
	movq	%rbx, %rdi
	call	_ZNSt23_Sp_counted_ptr_inplaceIiSaIiELN9__gnu_cxx12_Lock_policyE2EE5_ImplC1ES0_
	leaq	-25(%rbp), %rax
	movq	%rax, %rdi
	call	_ZNSaIiED1Ev
	.loc 5 548 39
	movq	-56(%rbp), %rax
	movq	%rax, %rdi
	call	_ZSt7forwardIiEOT_RNSt16remove_referenceIS0_E4typeE
	movq	%rax, %rbx
	movq	-40(%rbp), %rax
	movq	%rax, %rdi
	call	_ZNSt23_Sp_counted_ptr_inplaceIiSaIiELN9__gnu_cxx12_Lock_policyE2EE6_M_ptrEv
	movq	%rax, %rcx
	movq	-48(%rbp), %rax
	movq	%rbx, %rdx
	movq	%rcx, %rsi
	movq	%rax, %rdi
	call	_ZNSt16allocator_traitsISaIiEE9constructIiJiEEEvRS0_PT_DpOT0_
.LBE32:
	.loc 5 550 2
	nop
	movq	-24(%rbp), %rax
	xorq	%fs:40, %rax
	je	.L138
	call	__stack_chk_fail@PLT
.L138:
	addq	$56, %rsp
	popq	%rbx
	popq	%rbp
	.cfi_def_cfa 7, 8
	ret
	.cfi_endproc
.LFE3329:
	.size	_ZNSt23_Sp_counted_ptr_inplaceIiSaIiELN9__gnu_cxx12_Lock_policyE2EEC2IJiEEES0_DpOT_, .-_ZNSt23_Sp_counted_ptr_inplaceIiSaIiELN9__gnu_cxx12_Lock_policyE2EEC2IJiEEES0_DpOT_
	.weak	_ZNSt23_Sp_counted_ptr_inplaceIiSaIiELN9__gnu_cxx12_Lock_policyE2EEC1IJiEEES0_DpOT_
	.set	_ZNSt23_Sp_counted_ptr_inplaceIiSaIiELN9__gnu_cxx12_Lock_policyE2EEC1IJiEEES0_DpOT_,_ZNSt23_Sp_counted_ptr_inplaceIiSaIiELN9__gnu_cxx12_Lock_policyE2EEC2IJiEEES0_DpOT_
	.section	.text._ZNSt15__allocated_ptrISaISt23_Sp_counted_ptr_inplaceIiSaIiELN9__gnu_cxx12_Lock_policyE2EEEEaSEDn,"axG",@progbits,_ZNSt15__allocated_ptrISaISt23_Sp_counted_ptr_inplaceIiSaIiELN9__gnu_cxx12_Lock_policyE2EEEEaSEDn,comdat
	.align 2
	.weak	_ZNSt15__allocated_ptrISaISt23_Sp_counted_ptr_inplaceIiSaIiELN9__gnu_cxx12_Lock_policyE2EEEEaSEDn
	.type	_ZNSt15__allocated_ptrISaISt23_Sp_counted_ptr_inplaceIiSaIiELN9__gnu_cxx12_Lock_policyE2EEEEaSEDn, @function
_ZNSt15__allocated_ptrISaISt23_Sp_counted_ptr_inplaceIiSaIiELN9__gnu_cxx12_Lock_policyE2EEEEaSEDn:
.LFB3331:
	.loc 11 78 7
	.cfi_startproc
	endbr64
	pushq	%rbp
	.cfi_def_cfa_offset 16
	.cfi_offset 6, -16
	movq	%rsp, %rbp
	.cfi_def_cfa_register 6
	movq	%rdi, -8(%rbp)
	movq	%rsi, -16(%rbp)
	.loc 11 80 2
	movq	-8(%rbp), %rax
	movq	$0, 8(%rax)
	.loc 11 81 10
	movq	-8(%rbp), %rax
	.loc 11 82 7
	popq	%rbp
	.cfi_def_cfa 7, 8
	ret
	.cfi_endproc
.LFE3331:
	.size	_ZNSt15__allocated_ptrISaISt23_Sp_counted_ptr_inplaceIiSaIiELN9__gnu_cxx12_Lock_policyE2EEEEaSEDn, .-_ZNSt15__allocated_ptrISaISt23_Sp_counted_ptr_inplaceIiSaIiELN9__gnu_cxx12_Lock_policyE2EEEEaSEDn
	.section	.text._ZNSt23_Sp_counted_ptr_inplaceIiSaIiELN9__gnu_cxx12_Lock_policyE2EE6_M_ptrEv,"axG",@progbits,_ZNSt23_Sp_counted_ptr_inplaceIiSaIiELN9__gnu_cxx12_Lock_policyE2EE6_M_ptrEv,comdat
	.align 2
	.weak	_ZNSt23_Sp_counted_ptr_inplaceIiSaIiELN9__gnu_cxx12_Lock_policyE2EE6_M_ptrEv
	.type	_ZNSt23_Sp_counted_ptr_inplaceIiSaIiELN9__gnu_cxx12_Lock_policyE2EE6_M_ptrEv, @function
_ZNSt23_Sp_counted_ptr_inplaceIiSaIiELN9__gnu_cxx12_Lock_policyE2EE6_M_ptrEv:
.LFB3332:
	.loc 5 594 12
	.cfi_startproc
	endbr64
	pushq	%rbp
	.cfi_def_cfa_offset 16
	.cfi_offset 6, -16
	movq	%rsp, %rbp
	.cfi_def_cfa_register 6
	subq	$16, %rsp
	movq	%rdi, -8(%rbp)
	.loc 5 594 65
	movq	-8(%rbp), %rax
	addq	$16, %rax
	movq	%rax, %rdi
	call	_ZN9__gnu_cxx16__aligned_bufferIiE6_M_ptrEv
	.loc 5 594 68
	leave
	.cfi_def_cfa 7, 8
	ret
	.cfi_endproc
.LFE3332:
	.size	_ZNSt23_Sp_counted_ptr_inplaceIiSaIiELN9__gnu_cxx12_Lock_policyE2EE6_M_ptrEv, .-_ZNSt23_Sp_counted_ptr_inplaceIiSaIiELN9__gnu_cxx12_Lock_policyE2EE6_M_ptrEv
	.section	.text._ZN9__gnu_cxx13new_allocatorISt23_Sp_counted_ptr_inplaceIiSaIiELNS_12_Lock_policyE2EEEC2Ev,"axG",@progbits,_ZN9__gnu_cxx13new_allocatorISt23_Sp_counted_ptr_inplaceIiSaIiELNS_12_Lock_policyE2EEEC5Ev,comdat
	.align 2
	.weak	_ZN9__gnu_cxx13new_allocatorISt23_Sp_counted_ptr_inplaceIiSaIiELNS_12_Lock_policyE2EEEC2Ev
	.type	_ZN9__gnu_cxx13new_allocatorISt23_Sp_counted_ptr_inplaceIiSaIiELNS_12_Lock_policyE2EEEC2Ev, @function
_ZN9__gnu_cxx13new_allocatorISt23_Sp_counted_ptr_inplaceIiSaIiELNS_12_Lock_policyE2EEEC2Ev:
.LFB3344:
	.loc 10 80 7
	.cfi_startproc
	endbr64
	pushq	%rbp
	.cfi_def_cfa_offset 16
	.cfi_offset 6, -16
	movq	%rsp, %rbp
	.cfi_def_cfa_register 6
	movq	%rdi, -8(%rbp)
	.loc 10 80 34
	nop
	popq	%rbp
	.cfi_def_cfa 7, 8
	ret
	.cfi_endproc
.LFE3344:
	.size	_ZN9__gnu_cxx13new_allocatorISt23_Sp_counted_ptr_inplaceIiSaIiELNS_12_Lock_policyE2EEEC2Ev, .-_ZN9__gnu_cxx13new_allocatorISt23_Sp_counted_ptr_inplaceIiSaIiELNS_12_Lock_policyE2EEEC2Ev
	.weak	_ZN9__gnu_cxx13new_allocatorISt23_Sp_counted_ptr_inplaceIiSaIiELNS_12_Lock_policyE2EEEC1Ev
	.set	_ZN9__gnu_cxx13new_allocatorISt23_Sp_counted_ptr_inplaceIiSaIiELNS_12_Lock_policyE2EEEC1Ev,_ZN9__gnu_cxx13new_allocatorISt23_Sp_counted_ptr_inplaceIiSaIiELNS_12_Lock_policyE2EEEC2Ev
	.section	.text._ZN9__gnu_cxx13new_allocatorISt23_Sp_counted_ptr_inplaceIiSaIiELNS_12_Lock_policyE2EEED2Ev,"axG",@progbits,_ZN9__gnu_cxx13new_allocatorISt23_Sp_counted_ptr_inplaceIiSaIiELNS_12_Lock_policyE2EEED5Ev,comdat
	.align 2
	.weak	_ZN9__gnu_cxx13new_allocatorISt23_Sp_counted_ptr_inplaceIiSaIiELNS_12_Lock_policyE2EEED2Ev
	.type	_ZN9__gnu_cxx13new_allocatorISt23_Sp_counted_ptr_inplaceIiSaIiELNS_12_Lock_policyE2EEED2Ev, @function
_ZN9__gnu_cxx13new_allocatorISt23_Sp_counted_ptr_inplaceIiSaIiELNS_12_Lock_policyE2EEED2Ev:
.LFB3347:
	.loc 10 89 7
	.cfi_startproc
	endbr64
	pushq	%rbp
	.cfi_def_cfa_offset 16
	.cfi_offset 6, -16
	movq	%rsp, %rbp
	.cfi_def_cfa_register 6
	movq	%rdi, -8(%rbp)
	.loc 10 89 35
	nop
	popq	%rbp
	.cfi_def_cfa 7, 8
	ret
	.cfi_endproc
.LFE3347:
	.size	_ZN9__gnu_cxx13new_allocatorISt23_Sp_counted_ptr_inplaceIiSaIiELNS_12_Lock_policyE2EEED2Ev, .-_ZN9__gnu_cxx13new_allocatorISt23_Sp_counted_ptr_inplaceIiSaIiELNS_12_Lock_policyE2EEED2Ev
	.weak	_ZN9__gnu_cxx13new_allocatorISt23_Sp_counted_ptr_inplaceIiSaIiELNS_12_Lock_policyE2EEED1Ev
	.set	_ZN9__gnu_cxx13new_allocatorISt23_Sp_counted_ptr_inplaceIiSaIiELNS_12_Lock_policyE2EEED1Ev,_ZN9__gnu_cxx13new_allocatorISt23_Sp_counted_ptr_inplaceIiSaIiELNS_12_Lock_policyE2EEED2Ev
	.section	.text._ZNSt16allocator_traitsISaISt23_Sp_counted_ptr_inplaceIiSaIiELN9__gnu_cxx12_Lock_policyE2EEEE8allocateERS5_m,"axG",@progbits,_ZNSt16allocator_traitsISaISt23_Sp_counted_ptr_inplaceIiSaIiELN9__gnu_cxx12_Lock_policyE2EEEE8allocateERS5_m,comdat
	.weak	_ZNSt16allocator_traitsISaISt23_Sp_counted_ptr_inplaceIiSaIiELN9__gnu_cxx12_Lock_policyE2EEEE8allocateERS5_m
	.type	_ZNSt16allocator_traitsISaISt23_Sp_counted_ptr_inplaceIiSaIiELN9__gnu_cxx12_Lock_policyE2EEEE8allocateERS5_m, @function
_ZNSt16allocator_traitsISaISt23_Sp_counted_ptr_inplaceIiSaIiELN9__gnu_cxx12_Lock_policyE2EEEE8allocateERS5_m:
.LFB3349:
	.file 12 "/usr/include/c++/9/bits/alloc_traits.h"
	.loc 12 443 7
	.cfi_startproc
	endbr64
	pushq	%rbp
	.cfi_def_cfa_offset 16
	.cfi_offset 6, -16
	movq	%rsp, %rbp
	.cfi_def_cfa_register 6
	subq	$16, %rsp
	movq	%rdi, -8(%rbp)
	movq	%rsi, -16(%rbp)
	.loc 12 444 32
	movq	-16(%rbp), %rcx
	movq	-8(%rbp), %rax
	movl	$0, %edx
	movq	%rcx, %rsi
	movq	%rax, %rdi
	call	_ZN9__gnu_cxx13new_allocatorISt23_Sp_counted_ptr_inplaceIiSaIiELNS_12_Lock_policyE2EEE8allocateEmPKv
	.loc 12 444 35
	leave
	.cfi_def_cfa 7, 8
	ret
	.cfi_endproc
.LFE3349:
	.size	_ZNSt16allocator_traitsISaISt23_Sp_counted_ptr_inplaceIiSaIiELN9__gnu_cxx12_Lock_policyE2EEEE8allocateERS5_m, .-_ZNSt16allocator_traitsISaISt23_Sp_counted_ptr_inplaceIiSaIiELN9__gnu_cxx12_Lock_policyE2EEEE8allocateERS5_m
	.section	.text._ZNSt15__allocated_ptrISaISt23_Sp_counted_ptr_inplaceIiSaIiELN9__gnu_cxx12_Lock_policyE2EEEEC2ERS5_PS4_,"axG",@progbits,_ZNSt15__allocated_ptrISaISt23_Sp_counted_ptr_inplaceIiSaIiELN9__gnu_cxx12_Lock_policyE2EEEEC5ERS5_PS4_,comdat
	.align 2
	.weak	_ZNSt15__allocated_ptrISaISt23_Sp_counted_ptr_inplaceIiSaIiELN9__gnu_cxx12_Lock_policyE2EEEEC2ERS5_PS4_
	.type	_ZNSt15__allocated_ptrISaISt23_Sp_counted_ptr_inplaceIiSaIiELN9__gnu_cxx12_Lock_policyE2EEEEC2ERS5_PS4_, @function
_ZNSt15__allocated_ptrISaISt23_Sp_counted_ptr_inplaceIiSaIiELN9__gnu_cxx12_Lock_policyE2EEEEC2ERS5_PS4_:
.LFB3351:
	.loc 11 52 7
	.cfi_startproc
	endbr64
	pushq	%rbp
	.cfi_def_cfa_offset 16
	.cfi_offset 6, -16
	movq	%rsp, %rbp
	.cfi_def_cfa_register 6
	subq	$32, %rsp
	movq	%rdi, -8(%rbp)
	movq	%rsi, -16(%rbp)
	movq	%rdx, -24(%rbp)
.LBB33:
	.loc 11 53 34
	movq	-16(%rbp), %rax
	movq	%rax, %rdi
	call	_ZSt11__addressofISaISt23_Sp_counted_ptr_inplaceIiSaIiELN9__gnu_cxx12_Lock_policyE2EEEEPT_RS6_
	.loc 11 53 54
	movq	-8(%rbp), %rdx
	movq	%rax, (%rdx)
	movq	-8(%rbp), %rax
	movq	-24(%rbp), %rdx
	movq	%rdx, 8(%rax)
.LBE33:
	.loc 11 54 9
	nop
	leave
	.cfi_def_cfa 7, 8
	ret
	.cfi_endproc
.LFE3351:
	.size	_ZNSt15__allocated_ptrISaISt23_Sp_counted_ptr_inplaceIiSaIiELN9__gnu_cxx12_Lock_policyE2EEEEC2ERS5_PS4_, .-_ZNSt15__allocated_ptrISaISt23_Sp_counted_ptr_inplaceIiSaIiELN9__gnu_cxx12_Lock_policyE2EEEEC2ERS5_PS4_
	.weak	_ZNSt15__allocated_ptrISaISt23_Sp_counted_ptr_inplaceIiSaIiELN9__gnu_cxx12_Lock_policyE2EEEEC1ERS5_PS4_
	.set	_ZNSt15__allocated_ptrISaISt23_Sp_counted_ptr_inplaceIiSaIiELN9__gnu_cxx12_Lock_policyE2EEEEC1ERS5_PS4_,_ZNSt15__allocated_ptrISaISt23_Sp_counted_ptr_inplaceIiSaIiELN9__gnu_cxx12_Lock_policyE2EEEEC2ERS5_PS4_
	.section	.text._ZNSt16allocator_traitsISaISt23_Sp_counted_ptr_inplaceIiSaIiELN9__gnu_cxx12_Lock_policyE2EEEE10deallocateERS5_PS4_m,"axG",@progbits,_ZNSt16allocator_traitsISaISt23_Sp_counted_ptr_inplaceIiSaIiELN9__gnu_cxx12_Lock_policyE2EEEE10deallocateERS5_PS4_m,comdat
	.weak	_ZNSt16allocator_traitsISaISt23_Sp_counted_ptr_inplaceIiSaIiELN9__gnu_cxx12_Lock_policyE2EEEE10deallocateERS5_PS4_m
	.type	_ZNSt16allocator_traitsISaISt23_Sp_counted_ptr_inplaceIiSaIiELN9__gnu_cxx12_Lock_policyE2EEEE10deallocateERS5_PS4_m, @function
_ZNSt16allocator_traitsISaISt23_Sp_counted_ptr_inplaceIiSaIiELN9__gnu_cxx12_Lock_policyE2EEEE10deallocateERS5_PS4_m:
.LFB3353:
	.loc 12 469 7
	.cfi_startproc
	endbr64
	pushq	%rbp
	.cfi_def_cfa_offset 16
	.cfi_offset 6, -16
	movq	%rsp, %rbp
	.cfi_def_cfa_register 6
	subq	$32, %rsp
	movq	%rdi, -8(%rbp)
	movq	%rsi, -16(%rbp)
	movq	%rdx, -24(%rbp)
	.loc 12 470 9
	movq	-24(%rbp), %rdx
	movq	-16(%rbp), %rcx
	movq	-8(%rbp), %rax
	movq	%rcx, %rsi
	movq	%rax, %rdi
	call	_ZN9__gnu_cxx13new_allocatorISt23_Sp_counted_ptr_inplaceIiSaIiELNS_12_Lock_policyE2EEE10deallocateEPS4_m
	.loc 12 470 35
	nop
	leave
	.cfi_def_cfa 7, 8
	ret
	.cfi_endproc
.LFE3353:
	.size	_ZNSt16allocator_traitsISaISt23_Sp_counted_ptr_inplaceIiSaIiELN9__gnu_cxx12_Lock_policyE2EEEE10deallocateERS5_PS4_m, .-_ZNSt16allocator_traitsISaISt23_Sp_counted_ptr_inplaceIiSaIiELN9__gnu_cxx12_Lock_policyE2EEEE10deallocateERS5_PS4_m
	.section	.text._ZSt12__to_addressISt23_Sp_counted_ptr_inplaceIiSaIiELN9__gnu_cxx12_Lock_policyE2EEEPT_S6_,"axG",@progbits,_ZSt12__to_addressISt23_Sp_counted_ptr_inplaceIiSaIiELN9__gnu_cxx12_Lock_policyE2EEEPT_S6_,comdat
	.weak	_ZSt12__to_addressISt23_Sp_counted_ptr_inplaceIiSaIiELN9__gnu_cxx12_Lock_policyE2EEEPT_S6_
	.type	_ZSt12__to_addressISt23_Sp_counted_ptr_inplaceIiSaIiELN9__gnu_cxx12_Lock_policyE2EEEPT_S6_, @function
_ZSt12__to_addressISt23_Sp_counted_ptr_inplaceIiSaIiELN9__gnu_cxx12_Lock_policyE2EEEPT_S6_:
.LFB3354:
	.file 13 "/usr/include/c++/9/bits/ptr_traits.h"
	.loc 13 156 5
	.cfi_startproc
	endbr64
	pushq	%rbp
	.cfi_def_cfa_offset 16
	.cfi_offset 6, -16
	movq	%rsp, %rbp
	.cfi_def_cfa_register 6
	movq	%rdi, -8(%rbp)
	.loc 13 159 14
	movq	-8(%rbp), %rax
	.loc 13 160 5
	popq	%rbp
	.cfi_def_cfa 7, 8
	ret
	.cfi_endproc
.LFE3354:
	.size	_ZSt12__to_addressISt23_Sp_counted_ptr_inplaceIiSaIiELN9__gnu_cxx12_Lock_policyE2EEEPT_S6_, .-_ZSt12__to_addressISt23_Sp_counted_ptr_inplaceIiSaIiELN9__gnu_cxx12_Lock_policyE2EEEPT_S6_
	.section	.text._ZN9__gnu_cxx13new_allocatorIiEC2ERKS1_,"axG",@progbits,_ZN9__gnu_cxx13new_allocatorIiEC5ERKS1_,comdat
	.align 2
	.weak	_ZN9__gnu_cxx13new_allocatorIiEC2ERKS1_
	.type	_ZN9__gnu_cxx13new_allocatorIiEC2ERKS1_, @function
_ZN9__gnu_cxx13new_allocatorIiEC2ERKS1_:
.LFB3356:
	.loc 10 83 7
	.cfi_startproc
	endbr64
	pushq	%rbp
	.cfi_def_cfa_offset 16
	.cfi_offset 6, -16
	movq	%rsp, %rbp
	.cfi_def_cfa_register 6
	movq	%rdi, -8(%rbp)
	movq	%rsi, -16(%rbp)
	.loc 10 83 54
	nop
	popq	%rbp
	.cfi_def_cfa 7, 8
	ret
	.cfi_endproc
.LFE3356:
	.size	_ZN9__gnu_cxx13new_allocatorIiEC2ERKS1_, .-_ZN9__gnu_cxx13new_allocatorIiEC2ERKS1_
	.weak	_ZN9__gnu_cxx13new_allocatorIiEC1ERKS1_
	.set	_ZN9__gnu_cxx13new_allocatorIiEC1ERKS1_,_ZN9__gnu_cxx13new_allocatorIiEC2ERKS1_
	.section	.text._ZNSt23_Sp_counted_ptr_inplaceIiSaIiELN9__gnu_cxx12_Lock_policyE2EE5_ImplC2ES0_,"axG",@progbits,_ZNSt23_Sp_counted_ptr_inplaceIiSaIiELN9__gnu_cxx12_Lock_policyE2EE5_ImplC5ES0_,comdat
	.align 2
	.weak	_ZNSt23_Sp_counted_ptr_inplaceIiSaIiELN9__gnu_cxx12_Lock_policyE2EE5_ImplC2ES0_
	.type	_ZNSt23_Sp_counted_ptr_inplaceIiSaIiELN9__gnu_cxx12_Lock_policyE2EE5_ImplC2ES0_, @function
_ZNSt23_Sp_counted_ptr_inplaceIiSaIiELN9__gnu_cxx12_Lock_policyE2EE5_ImplC2ES0_:
.LFB3359:
	.loc 5 531 11
	.cfi_startproc
	endbr64
	pushq	%rbp
	.cfi_def_cfa_offset 16
	.cfi_offset 6, -16
	movq	%rsp, %rbp
	.cfi_def_cfa_register 6
	subq	$16, %rsp
	movq	%rdi, -8(%rbp)
	movq	%rsi, -16(%rbp)
.LBB34:
	.loc 5 531 51
	movq	-16(%rbp), %rdx
	movq	-8(%rbp), %rax
	movq	%rdx, %rsi
	movq	%rax, %rdi
	call	_ZNSt14_Sp_ebo_helperILi0ESaIiELb1EEC2ERKS0_
.LBE34:
	.loc 5 531 55
	nop
	leave
	.cfi_def_cfa 7, 8
	ret
	.cfi_endproc
.LFE3359:
	.size	_ZNSt23_Sp_counted_ptr_inplaceIiSaIiELN9__gnu_cxx12_Lock_policyE2EE5_ImplC2ES0_, .-_ZNSt23_Sp_counted_ptr_inplaceIiSaIiELN9__gnu_cxx12_Lock_policyE2EE5_ImplC2ES0_
	.weak	_ZNSt23_Sp_counted_ptr_inplaceIiSaIiELN9__gnu_cxx12_Lock_policyE2EE5_ImplC1ES0_
	.set	_ZNSt23_Sp_counted_ptr_inplaceIiSaIiELN9__gnu_cxx12_Lock_policyE2EE5_ImplC1ES0_,_ZNSt23_Sp_counted_ptr_inplaceIiSaIiELN9__gnu_cxx12_Lock_policyE2EE5_ImplC2ES0_
	.section	.text._ZNSt16allocator_traitsISaIiEE9constructIiJiEEEvRS0_PT_DpOT0_,"axG",@progbits,_ZNSt16allocator_traitsISaIiEE9constructIiJiEEEvRS0_PT_DpOT0_,comdat
	.weak	_ZNSt16allocator_traitsISaIiEE9constructIiJiEEEvRS0_PT_DpOT0_
	.type	_ZNSt16allocator_traitsISaIiEE9constructIiJiEEEvRS0_PT_DpOT0_, @function
_ZNSt16allocator_traitsISaIiEE9constructIiJiEEEvRS0_PT_DpOT0_:
.LFB3361:
	.loc 12 482 2
	.cfi_startproc
	endbr64
	pushq	%rbp
	.cfi_def_cfa_offset 16
	.cfi_offset 6, -16
	movq	%rsp, %rbp
	.cfi_def_cfa_register 6
	subq	$32, %rsp
	movq	%rdi, -8(%rbp)
	movq	%rsi, -16(%rbp)
	movq	%rdx, -24(%rbp)
	.loc 12 484 4
	movq	-24(%rbp), %rax
	movq	%rax, %rdi
	call	_ZSt7forwardIiEOT_RNSt16remove_referenceIS0_E4typeE
	movq	%rax, %rdx
	movq	-16(%rbp), %rcx
	movq	-8(%rbp), %rax
	movq	%rcx, %rsi
	movq	%rax, %rdi
	call	_ZN9__gnu_cxx13new_allocatorIiE9constructIiJiEEEvPT_DpOT0_
	.loc 12 484 56
	nop
	leave
	.cfi_def_cfa 7, 8
	ret
	.cfi_endproc
.LFE3361:
	.size	_ZNSt16allocator_traitsISaIiEE9constructIiJiEEEvRS0_PT_DpOT0_, .-_ZNSt16allocator_traitsISaIiEE9constructIiJiEEEvRS0_PT_DpOT0_
	.section	.text._ZN9__gnu_cxx16__aligned_bufferIiE6_M_ptrEv,"axG",@progbits,_ZN9__gnu_cxx16__aligned_bufferIiE6_M_ptrEv,comdat
	.align 2
	.weak	_ZN9__gnu_cxx16__aligned_bufferIiE6_M_ptrEv
	.type	_ZN9__gnu_cxx16__aligned_bufferIiE6_M_ptrEv, @function
_ZN9__gnu_cxx16__aligned_bufferIiE6_M_ptrEv:
.LFB3362:
	.file 14 "/usr/include/c++/9/ext/aligned_buffer.h"
	.loc 14 114 7
	.cfi_startproc
	endbr64
	pushq	%rbp
	.cfi_def_cfa_offset 16
	.cfi_offset 6, -16
	movq	%rsp, %rbp
	.cfi_def_cfa_register 6
	subq	$16, %rsp
	movq	%rdi, -8(%rbp)
	.loc 14 115 16
	movq	-8(%rbp), %rax
	movq	%rax, %rdi
	call	_ZN9__gnu_cxx16__aligned_bufferIiE7_M_addrEv
	.loc 14 115 46
	leave
	.cfi_def_cfa 7, 8
	ret
	.cfi_endproc
.LFE3362:
	.size	_ZN9__gnu_cxx16__aligned_bufferIiE6_M_ptrEv, .-_ZN9__gnu_cxx16__aligned_bufferIiE6_M_ptrEv
	.section	.text._ZN9__gnu_cxx13new_allocatorISt23_Sp_counted_ptr_inplaceIiSaIiELNS_12_Lock_policyE2EEE8allocateEmPKv,"axG",@progbits,_ZN9__gnu_cxx13new_allocatorISt23_Sp_counted_ptr_inplaceIiSaIiELNS_12_Lock_policyE2EEE8allocateEmPKv,comdat
	.align 2
	.weak	_ZN9__gnu_cxx13new_allocatorISt23_Sp_counted_ptr_inplaceIiSaIiELNS_12_Lock_policyE2EEE8allocateEmPKv
	.type	_ZN9__gnu_cxx13new_allocatorISt23_Sp_counted_ptr_inplaceIiSaIiELNS_12_Lock_policyE2EEE8allocateEmPKv, @function
_ZN9__gnu_cxx13new_allocatorISt23_Sp_counted_ptr_inplaceIiSaIiELNS_12_Lock_policyE2EEE8allocateEmPKv:
.LFB3365:
	.loc 10 102 7
	.cfi_startproc
	endbr64
	pushq	%rbp
	.cfi_def_cfa_offset 16
	.cfi_offset 6, -16
	movq	%rsp, %rbp
	.cfi_def_cfa_register 6
	subq	$32, %rsp
	movq	%rdi, -8(%rbp)
	movq	%rsi, -16(%rbp)
	movq	%rdx, -24(%rbp)
	.loc 10 104 10
	movq	-8(%rbp), %rax
	movq	%rax, %rdi
	call	_ZNK9__gnu_cxx13new_allocatorISt23_Sp_counted_ptr_inplaceIiSaIiELNS_12_Lock_policyE2EEE8max_sizeEv
	cmpq	%rax, -16(%rbp)
	seta	%al
	.loc 10 104 2
	testb	%al, %al
	je	.L157
	.loc 10 105 26
	call	_ZSt17__throw_bad_allocv@PLT
.L157:
	.loc 10 114 41
	movq	-16(%rbp), %rdx
	movq	%rdx, %rax
	addq	%rax, %rax
	addq	%rdx, %rax
	salq	$3, %rax
	movq	%rax, %rdi
	call	_Znwm@PLT
	.loc 10 114 60
	nop
	.loc 10 115 7
	leave
	.cfi_def_cfa 7, 8
	ret
	.cfi_endproc
.LFE3365:
	.size	_ZN9__gnu_cxx13new_allocatorISt23_Sp_counted_ptr_inplaceIiSaIiELNS_12_Lock_policyE2EEE8allocateEmPKv, .-_ZN9__gnu_cxx13new_allocatorISt23_Sp_counted_ptr_inplaceIiSaIiELNS_12_Lock_policyE2EEE8allocateEmPKv
	.section	.text._ZSt11__addressofISaISt23_Sp_counted_ptr_inplaceIiSaIiELN9__gnu_cxx12_Lock_policyE2EEEEPT_RS6_,"axG",@progbits,_ZSt11__addressofISaISt23_Sp_counted_ptr_inplaceIiSaIiELN9__gnu_cxx12_Lock_policyE2EEEEPT_RS6_,comdat
	.weak	_ZSt11__addressofISaISt23_Sp_counted_ptr_inplaceIiSaIiELN9__gnu_cxx12_Lock_policyE2EEEEPT_RS6_
	.type	_ZSt11__addressofISaISt23_Sp_counted_ptr_inplaceIiSaIiELN9__gnu_cxx12_Lock_policyE2EEEEPT_RS6_, @function
_ZSt11__addressofISaISt23_Sp_counted_ptr_inplaceIiSaIiELN9__gnu_cxx12_Lock_policyE2EEEEPT_RS6_:
.LFB3366:
	.loc 8 47 5
	.cfi_startproc
	endbr64
	pushq	%rbp
	.cfi_def_cfa_offset 16
	.cfi_offset 6, -16
	movq	%rsp, %rbp
	.cfi_def_cfa_register 6
	movq	%rdi, -8(%rbp)
	.loc 8 48 37
	movq	-8(%rbp), %rax
	.loc 8 48 40
	popq	%rbp
	.cfi_def_cfa 7, 8
	ret
	.cfi_endproc
.LFE3366:
	.size	_ZSt11__addressofISaISt23_Sp_counted_ptr_inplaceIiSaIiELN9__gnu_cxx12_Lock_policyE2EEEEPT_RS6_, .-_ZSt11__addressofISaISt23_Sp_counted_ptr_inplaceIiSaIiELN9__gnu_cxx12_Lock_policyE2EEEEPT_RS6_
	.section	.text._ZN9__gnu_cxx13new_allocatorISt23_Sp_counted_ptr_inplaceIiSaIiELNS_12_Lock_policyE2EEE10deallocateEPS4_m,"axG",@progbits,_ZN9__gnu_cxx13new_allocatorISt23_Sp_counted_ptr_inplaceIiSaIiELNS_12_Lock_policyE2EEE10deallocateEPS4_m,comdat
	.align 2
	.weak	_ZN9__gnu_cxx13new_allocatorISt23_Sp_counted_ptr_inplaceIiSaIiELNS_12_Lock_policyE2EEE10deallocateEPS4_m
	.type	_ZN9__gnu_cxx13new_allocatorISt23_Sp_counted_ptr_inplaceIiSaIiELNS_12_Lock_policyE2EEE10deallocateEPS4_m, @function
_ZN9__gnu_cxx13new_allocatorISt23_Sp_counted_ptr_inplaceIiSaIiELNS_12_Lock_policyE2EEE10deallocateEPS4_m:
.LFB3367:
	.loc 10 119 7
	.cfi_startproc
	endbr64
	pushq	%rbp
	.cfi_def_cfa_offset 16
	.cfi_offset 6, -16
	movq	%rsp, %rbp
	.cfi_def_cfa_register 6
	subq	$32, %rsp
	movq	%rdi, -8(%rbp)
	movq	%rsi, -16(%rbp)
	movq	%rdx, -24(%rbp)
	.loc 10 128 19
	movq	-16(%rbp), %rax
	movq	%rax, %rdi
	call	_ZdlPv@PLT
	.loc 10 129 7
	leave
	.cfi_def_cfa 7, 8
	ret
	.cfi_endproc
.LFE3367:
	.size	_ZN9__gnu_cxx13new_allocatorISt23_Sp_counted_ptr_inplaceIiSaIiELNS_12_Lock_policyE2EEE10deallocateEPS4_m, .-_ZN9__gnu_cxx13new_allocatorISt23_Sp_counted_ptr_inplaceIiSaIiELNS_12_Lock_policyE2EEE10deallocateEPS4_m
	.section	.text._ZNSt14_Sp_ebo_helperILi0ESaIiELb1EEC2ERKS0_,"axG",@progbits,_ZNSt14_Sp_ebo_helperILi0ESaIiELb1EEC5ERKS0_,comdat
	.align 2
	.weak	_ZNSt14_Sp_ebo_helperILi0ESaIiELb1EEC2ERKS0_
	.type	_ZNSt14_Sp_ebo_helperILi0ESaIiELb1EEC2ERKS0_, @function
_ZNSt14_Sp_ebo_helperILi0ESaIiELb1EEC2ERKS0_:
.LFB3369:
	.loc 5 414 16
	.cfi_startproc
	endbr64
	pushq	%rbp
	.cfi_def_cfa_offset 16
	.cfi_offset 6, -16
	movq	%rsp, %rbp
	.cfi_def_cfa_register 6
	subq	$16, %rsp
	movq	%rdi, -8(%rbp)
	movq	%rsi, -16(%rbp)
.LBB35:
	.loc 5 414 58
	movq	-16(%rbp), %rdx
	movq	-8(%rbp), %rax
	movq	%rdx, %rsi
	movq	%rax, %rdi
	call	_ZNSaIiEC2ERKS_
.LBE35:
	.loc 5 414 62
	nop
	leave
	.cfi_def_cfa 7, 8
	ret
	.cfi_endproc
.LFE3369:
	.size	_ZNSt14_Sp_ebo_helperILi0ESaIiELb1EEC2ERKS0_, .-_ZNSt14_Sp_ebo_helperILi0ESaIiELb1EEC2ERKS0_
	.weak	_ZNSt14_Sp_ebo_helperILi0ESaIiELb1EEC1ERKS0_
	.set	_ZNSt14_Sp_ebo_helperILi0ESaIiELb1EEC1ERKS0_,_ZNSt14_Sp_ebo_helperILi0ESaIiELb1EEC2ERKS0_
	.section	.text._ZN9__gnu_cxx13new_allocatorIiE9constructIiJiEEEvPT_DpOT0_,"axG",@progbits,_ZN9__gnu_cxx13new_allocatorIiE9constructIiJiEEEvPT_DpOT0_,comdat
	.align 2
	.weak	_ZN9__gnu_cxx13new_allocatorIiE9constructIiJiEEEvPT_DpOT0_
	.type	_ZN9__gnu_cxx13new_allocatorIiE9constructIiJiEEEvPT_DpOT0_, @function
_ZN9__gnu_cxx13new_allocatorIiE9constructIiJiEEEvPT_DpOT0_:
.LFB3371:
	.loc 10 144 2
	.cfi_startproc
	endbr64
	pushq	%rbp
	.cfi_def_cfa_offset 16
	.cfi_offset 6, -16
	movq	%rsp, %rbp
	.cfi_def_cfa_register 6
	pushq	%rbx
	subq	$40, %rsp
	.cfi_offset 3, -24
	movq	%rdi, -24(%rbp)
	movq	%rsi, -32(%rbp)
	movq	%rdx, -40(%rbp)
	.loc 10 147 46
	movq	-40(%rbp), %rax
	movq	%rax, %rdi
	call	_ZSt7forwardIiEOT_RNSt16remove_referenceIS0_E4typeE
	.loc 10 147 4
	movl	(%rax), %ebx
	.loc 10 147 18
	movq	-32(%rbp), %rax
	.loc 10 147 4
	movq	%rax, %rsi
	movl	$4, %edi
	call	_ZnwmPv
	movl	%ebx, (%rax)
	.loc 10 147 60
	nop
	addq	$40, %rsp
	popq	%rbx
	popq	%rbp
	.cfi_def_cfa 7, 8
	ret
	.cfi_endproc
.LFE3371:
	.size	_ZN9__gnu_cxx13new_allocatorIiE9constructIiJiEEEvPT_DpOT0_, .-_ZN9__gnu_cxx13new_allocatorIiE9constructIiJiEEEvPT_DpOT0_
	.section	.text._ZN9__gnu_cxx16__aligned_bufferIiE7_M_addrEv,"axG",@progbits,_ZN9__gnu_cxx16__aligned_bufferIiE7_M_addrEv,comdat
	.align 2
	.weak	_ZN9__gnu_cxx16__aligned_bufferIiE7_M_addrEv
	.type	_ZN9__gnu_cxx16__aligned_bufferIiE7_M_addrEv, @function
_ZN9__gnu_cxx16__aligned_bufferIiE7_M_addrEv:
.LFB3372:
	.loc 14 102 7
	.cfi_startproc
	endbr64
	pushq	%rbp
	.cfi_def_cfa_offset 16
	.cfi_offset 6, -16
	movq	%rsp, %rbp
	.cfi_def_cfa_register 6
	movq	%rdi, -8(%rbp)
	.loc 14 104 46
	movq	-8(%rbp), %rax
	.loc 14 105 7
	popq	%rbp
	.cfi_def_cfa 7, 8
	ret
	.cfi_endproc
.LFE3372:
	.size	_ZN9__gnu_cxx16__aligned_bufferIiE7_M_addrEv, .-_ZN9__gnu_cxx16__aligned_bufferIiE7_M_addrEv
	.section	.text._ZNK9__gnu_cxx13new_allocatorISt23_Sp_counted_ptr_inplaceIiSaIiELNS_12_Lock_policyE2EEE8max_sizeEv,"axG",@progbits,_ZNK9__gnu_cxx13new_allocatorISt23_Sp_counted_ptr_inplaceIiSaIiELNS_12_Lock_policyE2EEE8max_sizeEv,comdat
	.align 2
	.weak	_ZNK9__gnu_cxx13new_allocatorISt23_Sp_counted_ptr_inplaceIiSaIiELNS_12_Lock_policyE2EEE8max_sizeEv
	.type	_ZNK9__gnu_cxx13new_allocatorISt23_Sp_counted_ptr_inplaceIiSaIiELNS_12_Lock_policyE2EEE8max_sizeEv, @function
_ZNK9__gnu_cxx13new_allocatorISt23_Sp_counted_ptr_inplaceIiSaIiELNS_12_Lock_policyE2EEE8max_sizeEv:
.LFB3373:
	.loc 10 132 7
	.cfi_startproc
	endbr64
	pushq	%rbp
	.cfi_def_cfa_offset 16
	.cfi_offset 6, -16
	movq	%rsp, %rbp
	.cfi_def_cfa_register 6
	movq	%rdi, -8(%rbp)
	.loc 10 135 49
	movabsq	$384307168202282325, %rax
	.loc 10 139 7
	popq	%rbp
	.cfi_def_cfa 7, 8
	ret
	.cfi_endproc
.LFE3373:
	.size	_ZNK9__gnu_cxx13new_allocatorISt23_Sp_counted_ptr_inplaceIiSaIiELNS_12_Lock_policyE2EEE8max_sizeEv, .-_ZNK9__gnu_cxx13new_allocatorISt23_Sp_counted_ptr_inplaceIiSaIiELNS_12_Lock_policyE2EEE8max_sizeEv
	.weak	_ZTVSt23_Sp_counted_ptr_inplaceIiSaIiELN9__gnu_cxx12_Lock_policyE2EE
	.section	.data.rel.ro.local._ZTVSt23_Sp_counted_ptr_inplaceIiSaIiELN9__gnu_cxx12_Lock_policyE2EE,"awG",@progbits,_ZTVSt23_Sp_counted_ptr_inplaceIiSaIiELN9__gnu_cxx12_Lock_policyE2EE,comdat
	.align 8
	.type	_ZTVSt23_Sp_counted_ptr_inplaceIiSaIiELN9__gnu_cxx12_Lock_policyE2EE, @object
	.size	_ZTVSt23_Sp_counted_ptr_inplaceIiSaIiELN9__gnu_cxx12_Lock_policyE2EE, 56
_ZTVSt23_Sp_counted_ptr_inplaceIiSaIiELN9__gnu_cxx12_Lock_policyE2EE:
	.quad	0
	.quad	_ZTISt23_Sp_counted_ptr_inplaceIiSaIiELN9__gnu_cxx12_Lock_policyE2EE
	.quad	_ZNSt23_Sp_counted_ptr_inplaceIiSaIiELN9__gnu_cxx12_Lock_policyE2EED1Ev
	.quad	_ZNSt23_Sp_counted_ptr_inplaceIiSaIiELN9__gnu_cxx12_Lock_policyE2EED0Ev
	.quad	_ZNSt23_Sp_counted_ptr_inplaceIiSaIiELN9__gnu_cxx12_Lock_policyE2EE10_M_disposeEv
	.quad	_ZNSt23_Sp_counted_ptr_inplaceIiSaIiELN9__gnu_cxx12_Lock_policyE2EE10_M_destroyEv
	.quad	_ZNSt23_Sp_counted_ptr_inplaceIiSaIiELN9__gnu_cxx12_Lock_policyE2EE14_M_get_deleterERKSt9type_info
	.weak	_ZTVSt15_Sp_counted_ptrIPiLN9__gnu_cxx12_Lock_policyE2EE
	.section	.data.rel.ro.local._ZTVSt15_Sp_counted_ptrIPiLN9__gnu_cxx12_Lock_policyE2EE,"awG",@progbits,_ZTVSt15_Sp_counted_ptrIPiLN9__gnu_cxx12_Lock_policyE2EE,comdat
	.align 8
	.type	_ZTVSt15_Sp_counted_ptrIPiLN9__gnu_cxx12_Lock_policyE2EE, @object
	.size	_ZTVSt15_Sp_counted_ptrIPiLN9__gnu_cxx12_Lock_policyE2EE, 56
_ZTVSt15_Sp_counted_ptrIPiLN9__gnu_cxx12_Lock_policyE2EE:
	.quad	0
	.quad	_ZTISt15_Sp_counted_ptrIPiLN9__gnu_cxx12_Lock_policyE2EE
	.quad	_ZNSt15_Sp_counted_ptrIPiLN9__gnu_cxx12_Lock_policyE2EED1Ev
	.quad	_ZNSt15_Sp_counted_ptrIPiLN9__gnu_cxx12_Lock_policyE2EED0Ev
	.quad	_ZNSt15_Sp_counted_ptrIPiLN9__gnu_cxx12_Lock_policyE2EE10_M_disposeEv
	.quad	_ZNSt15_Sp_counted_ptrIPiLN9__gnu_cxx12_Lock_policyE2EE10_M_destroyEv
	.quad	_ZNSt15_Sp_counted_ptrIPiLN9__gnu_cxx12_Lock_policyE2EE14_M_get_deleterERKSt9type_info
	.section	.text._ZNSt15_Sp_counted_ptrIPiLN9__gnu_cxx12_Lock_policyE2EED2Ev,"axG",@progbits,_ZNSt15_Sp_counted_ptrIPiLN9__gnu_cxx12_Lock_policyE2EED5Ev,comdat
	.align 2
	.weak	_ZNSt15_Sp_counted_ptrIPiLN9__gnu_cxx12_Lock_policyE2EED2Ev
	.type	_ZNSt15_Sp_counted_ptrIPiLN9__gnu_cxx12_Lock_policyE2EED2Ev, @function
_ZNSt15_Sp_counted_ptrIPiLN9__gnu_cxx12_Lock_policyE2EED2Ev:
.LFB3375:
	.loc 5 368 11
	.cfi_startproc
	endbr64
	pushq	%rbp
	.cfi_def_cfa_offset 16
	.cfi_offset 6, -16
	movq	%rsp, %rbp
	.cfi_def_cfa_register 6
	subq	$16, %rsp
	movq	%rdi, -8(%rbp)
.LBB36:
	.loc 5 368 11
	leaq	16+_ZTVSt15_Sp_counted_ptrIPiLN9__gnu_cxx12_Lock_policyE2EE(%rip), %rdx
	movq	-8(%rbp), %rax
	movq	%rdx, (%rax)
	movq	-8(%rbp), %rax
	movq	%rax, %rdi
	call	_ZNSt16_Sp_counted_baseILN9__gnu_cxx12_Lock_policyE2EED2Ev
.LBE36:
	nop
	leave
	.cfi_def_cfa 7, 8
	ret
	.cfi_endproc
.LFE3375:
	.size	_ZNSt15_Sp_counted_ptrIPiLN9__gnu_cxx12_Lock_policyE2EED2Ev, .-_ZNSt15_Sp_counted_ptrIPiLN9__gnu_cxx12_Lock_policyE2EED2Ev
	.weak	_ZNSt15_Sp_counted_ptrIPiLN9__gnu_cxx12_Lock_policyE2EED1Ev
	.set	_ZNSt15_Sp_counted_ptrIPiLN9__gnu_cxx12_Lock_policyE2EED1Ev,_ZNSt15_Sp_counted_ptrIPiLN9__gnu_cxx12_Lock_policyE2EED2Ev
	.section	.text._ZNSt15_Sp_counted_ptrIPiLN9__gnu_cxx12_Lock_policyE2EED0Ev,"axG",@progbits,_ZNSt15_Sp_counted_ptrIPiLN9__gnu_cxx12_Lock_policyE2EED5Ev,comdat
	.align 2
	.weak	_ZNSt15_Sp_counted_ptrIPiLN9__gnu_cxx12_Lock_policyE2EED0Ev
	.type	_ZNSt15_Sp_counted_ptrIPiLN9__gnu_cxx12_Lock_policyE2EED0Ev, @function
_ZNSt15_Sp_counted_ptrIPiLN9__gnu_cxx12_Lock_policyE2EED0Ev:
.LFB3377:
	.loc 5 368 11
	.cfi_startproc
	endbr64
	pushq	%rbp
	.cfi_def_cfa_offset 16
	.cfi_offset 6, -16
	movq	%rsp, %rbp
	.cfi_def_cfa_register 6
	subq	$16, %rsp
	movq	%rdi, -8(%rbp)
	.loc 5 368 11
	movq	-8(%rbp), %rax
	movq	%rax, %rdi
	call	_ZNSt15_Sp_counted_ptrIPiLN9__gnu_cxx12_Lock_policyE2EED1Ev
	movq	-8(%rbp), %rax
	movl	$24, %esi
	movq	%rax, %rdi
	call	_ZdlPvm@PLT
	leave
	.cfi_def_cfa 7, 8
	ret
	.cfi_endproc
.LFE3377:
	.size	_ZNSt15_Sp_counted_ptrIPiLN9__gnu_cxx12_Lock_policyE2EED0Ev, .-_ZNSt15_Sp_counted_ptrIPiLN9__gnu_cxx12_Lock_policyE2EED0Ev
	.weak	_ZTVSt16_Sp_counted_baseILN9__gnu_cxx12_Lock_policyE2EE
	.section	.data.rel.ro._ZTVSt16_Sp_counted_baseILN9__gnu_cxx12_Lock_policyE2EE,"awG",@progbits,_ZTVSt16_Sp_counted_baseILN9__gnu_cxx12_Lock_policyE2EE,comdat
	.align 8
	.type	_ZTVSt16_Sp_counted_baseILN9__gnu_cxx12_Lock_policyE2EE, @object
	.size	_ZTVSt16_Sp_counted_baseILN9__gnu_cxx12_Lock_policyE2EE, 56
_ZTVSt16_Sp_counted_baseILN9__gnu_cxx12_Lock_policyE2EE:
	.quad	0
	.quad	_ZTISt16_Sp_counted_baseILN9__gnu_cxx12_Lock_policyE2EE
	.quad	0
	.quad	0
	.quad	__cxa_pure_virtual
	.quad	_ZNSt16_Sp_counted_baseILN9__gnu_cxx12_Lock_policyE2EE10_M_destroyEv
	.quad	__cxa_pure_virtual
	.weak	_ZTISt23_Sp_counted_ptr_inplaceIiSaIiELN9__gnu_cxx12_Lock_policyE2EE
	.section	.data.rel.ro._ZTISt23_Sp_counted_ptr_inplaceIiSaIiELN9__gnu_cxx12_Lock_policyE2EE,"awG",@progbits,_ZTISt23_Sp_counted_ptr_inplaceIiSaIiELN9__gnu_cxx12_Lock_policyE2EE,comdat
	.align 8
	.type	_ZTISt23_Sp_counted_ptr_inplaceIiSaIiELN9__gnu_cxx12_Lock_policyE2EE, @object
	.size	_ZTISt23_Sp_counted_ptr_inplaceIiSaIiELN9__gnu_cxx12_Lock_policyE2EE, 24
_ZTISt23_Sp_counted_ptr_inplaceIiSaIiELN9__gnu_cxx12_Lock_policyE2EE:
	.quad	_ZTVN10__cxxabiv120__si_class_type_infoE+16
	.quad	_ZTSSt23_Sp_counted_ptr_inplaceIiSaIiELN9__gnu_cxx12_Lock_policyE2EE
	.quad	_ZTISt16_Sp_counted_baseILN9__gnu_cxx12_Lock_policyE2EE
	.weak	_ZTSSt23_Sp_counted_ptr_inplaceIiSaIiELN9__gnu_cxx12_Lock_policyE2EE
	.section	.rodata._ZTSSt23_Sp_counted_ptr_inplaceIiSaIiELN9__gnu_cxx12_Lock_policyE2EE,"aG",@progbits,_ZTSSt23_Sp_counted_ptr_inplaceIiSaIiELN9__gnu_cxx12_Lock_policyE2EE,comdat
	.align 32
	.type	_ZTSSt23_Sp_counted_ptr_inplaceIiSaIiELN9__gnu_cxx12_Lock_policyE2EE, @object
	.size	_ZTSSt23_Sp_counted_ptr_inplaceIiSaIiELN9__gnu_cxx12_Lock_policyE2EE, 65
_ZTSSt23_Sp_counted_ptr_inplaceIiSaIiELN9__gnu_cxx12_Lock_policyE2EE:
	.string	"St23_Sp_counted_ptr_inplaceIiSaIiELN9__gnu_cxx12_Lock_policyE2EE"
	.weak	_ZTISt15_Sp_counted_ptrIPiLN9__gnu_cxx12_Lock_policyE2EE
	.section	.data.rel.ro._ZTISt15_Sp_counted_ptrIPiLN9__gnu_cxx12_Lock_policyE2EE,"awG",@progbits,_ZTISt15_Sp_counted_ptrIPiLN9__gnu_cxx12_Lock_policyE2EE,comdat
	.align 8
	.type	_ZTISt15_Sp_counted_ptrIPiLN9__gnu_cxx12_Lock_policyE2EE, @object
	.size	_ZTISt15_Sp_counted_ptrIPiLN9__gnu_cxx12_Lock_policyE2EE, 24
_ZTISt15_Sp_counted_ptrIPiLN9__gnu_cxx12_Lock_policyE2EE:
	.quad	_ZTVN10__cxxabiv120__si_class_type_infoE+16
	.quad	_ZTSSt15_Sp_counted_ptrIPiLN9__gnu_cxx12_Lock_policyE2EE
	.quad	_ZTISt16_Sp_counted_baseILN9__gnu_cxx12_Lock_policyE2EE
	.weak	_ZTSSt15_Sp_counted_ptrIPiLN9__gnu_cxx12_Lock_policyE2EE
	.section	.rodata._ZTSSt15_Sp_counted_ptrIPiLN9__gnu_cxx12_Lock_policyE2EE,"aG",@progbits,_ZTSSt15_Sp_counted_ptrIPiLN9__gnu_cxx12_Lock_policyE2EE,comdat
	.align 32
	.type	_ZTSSt15_Sp_counted_ptrIPiLN9__gnu_cxx12_Lock_policyE2EE, @object
	.size	_ZTSSt15_Sp_counted_ptrIPiLN9__gnu_cxx12_Lock_policyE2EE, 53
_ZTSSt15_Sp_counted_ptrIPiLN9__gnu_cxx12_Lock_policyE2EE:
	.string	"St15_Sp_counted_ptrIPiLN9__gnu_cxx12_Lock_policyE2EE"
	.weak	_ZTISt16_Sp_counted_baseILN9__gnu_cxx12_Lock_policyE2EE
	.section	.data.rel.ro._ZTISt16_Sp_counted_baseILN9__gnu_cxx12_Lock_policyE2EE,"awG",@progbits,_ZTISt16_Sp_counted_baseILN9__gnu_cxx12_Lock_policyE2EE,comdat
	.align 8
	.type	_ZTISt16_Sp_counted_baseILN9__gnu_cxx12_Lock_policyE2EE, @object
	.size	_ZTISt16_Sp_counted_baseILN9__gnu_cxx12_Lock_policyE2EE, 24
_ZTISt16_Sp_counted_baseILN9__gnu_cxx12_Lock_policyE2EE:
	.quad	_ZTVN10__cxxabiv120__si_class_type_infoE+16
	.quad	_ZTSSt16_Sp_counted_baseILN9__gnu_cxx12_Lock_policyE2EE
	.quad	_ZTISt11_Mutex_baseILN9__gnu_cxx12_Lock_policyE2EE
	.weak	_ZTSSt16_Sp_counted_baseILN9__gnu_cxx12_Lock_policyE2EE
	.section	.rodata._ZTSSt16_Sp_counted_baseILN9__gnu_cxx12_Lock_policyE2EE,"aG",@progbits,_ZTSSt16_Sp_counted_baseILN9__gnu_cxx12_Lock_policyE2EE,comdat
	.align 32
	.type	_ZTSSt16_Sp_counted_baseILN9__gnu_cxx12_Lock_policyE2EE, @object
	.size	_ZTSSt16_Sp_counted_baseILN9__gnu_cxx12_Lock_policyE2EE, 52
_ZTSSt16_Sp_counted_baseILN9__gnu_cxx12_Lock_policyE2EE:
	.string	"St16_Sp_counted_baseILN9__gnu_cxx12_Lock_policyE2EE"
	.text
	.type	_Z41__static_initialization_and_destruction_0ii, @function
_Z41__static_initialization_and_destruction_0ii:
.LFB3394:
	.loc 7 25 1
	.cfi_startproc
	endbr64
	pushq	%rbp
	.cfi_def_cfa_offset 16
	.cfi_offset 6, -16
	movq	%rsp, %rbp
	.cfi_def_cfa_register 6
	subq	$16, %rsp
	movl	%edi, -4(%rbp)
	movl	%esi, -8(%rbp)
	.loc 7 25 1
	cmpl	$1, -4(%rbp)
	jne	.L173
	.loc 7 25 1 is_stmt 0 discriminator 1
	cmpl	$65535, -8(%rbp)
	jne	.L173
	.file 15 "/usr/include/c++/9/iostream"
	.loc 15 74 25 is_stmt 1
	leaq	_ZStL8__ioinit(%rip), %rdi
	call	_ZNSt8ios_base4InitC1Ev@PLT
	leaq	__dso_handle(%rip), %rdx
	leaq	_ZStL8__ioinit(%rip), %rsi
	movq	_ZNSt8ios_base4InitD1Ev@GOTPCREL(%rip), %rax
	movq	%rax, %rdi
	call	__cxa_atexit@PLT
.L173:
	.loc 7 25 1
	nop
	leave
	.cfi_def_cfa 7, 8
	ret
	.cfi_endproc
.LFE3394:
	.size	_Z41__static_initialization_and_destruction_0ii, .-_Z41__static_initialization_and_destruction_0ii
	.section	.text._ZNSt23_Sp_counted_ptr_inplaceIiSaIiELN9__gnu_cxx12_Lock_policyE2EED2Ev,"axG",@progbits,_ZNSt23_Sp_counted_ptr_inplaceIiSaIiELN9__gnu_cxx12_Lock_policyE2EED5Ev,comdat
	.align 2
	.weak	_ZNSt23_Sp_counted_ptr_inplaceIiSaIiELN9__gnu_cxx12_Lock_policyE2EED2Ev
	.type	_ZNSt23_Sp_counted_ptr_inplaceIiSaIiELN9__gnu_cxx12_Lock_policyE2EED2Ev, @function
_ZNSt23_Sp_counted_ptr_inplaceIiSaIiELN9__gnu_cxx12_Lock_policyE2EED2Ev:
.LFB3396:
	.loc 5 552 7
	.cfi_startproc
	endbr64
	pushq	%rbp
	.cfi_def_cfa_offset 16
	.cfi_offset 6, -16
	movq	%rsp, %rbp
	.cfi_def_cfa_register 6
	subq	$16, %rsp
	movq	%rdi, -8(%rbp)
.LBB37:
	.loc 5 552 45
	leaq	16+_ZTVSt23_Sp_counted_ptr_inplaceIiSaIiELN9__gnu_cxx12_Lock_policyE2EE(%rip), %rdx
	movq	-8(%rbp), %rax
	movq	%rdx, (%rax)
	movq	-8(%rbp), %rax
	addq	$16, %rax
	movq	%rax, %rdi
	call	_ZNSt23_Sp_counted_ptr_inplaceIiSaIiELN9__gnu_cxx12_Lock_policyE2EE5_ImplD1Ev
	movq	-8(%rbp), %rax
	movq	%rax, %rdi
	call	_ZNSt16_Sp_counted_baseILN9__gnu_cxx12_Lock_policyE2EED2Ev
.LBE37:
	nop
	leave
	.cfi_def_cfa 7, 8
	ret
	.cfi_endproc
.LFE3396:
	.size	_ZNSt23_Sp_counted_ptr_inplaceIiSaIiELN9__gnu_cxx12_Lock_policyE2EED2Ev, .-_ZNSt23_Sp_counted_ptr_inplaceIiSaIiELN9__gnu_cxx12_Lock_policyE2EED2Ev
	.weak	_ZNSt23_Sp_counted_ptr_inplaceIiSaIiELN9__gnu_cxx12_Lock_policyE2EED1Ev
	.set	_ZNSt23_Sp_counted_ptr_inplaceIiSaIiELN9__gnu_cxx12_Lock_policyE2EED1Ev,_ZNSt23_Sp_counted_ptr_inplaceIiSaIiELN9__gnu_cxx12_Lock_policyE2EED2Ev
	.section	.text._ZNSt23_Sp_counted_ptr_inplaceIiSaIiELN9__gnu_cxx12_Lock_policyE2EED0Ev,"axG",@progbits,_ZNSt23_Sp_counted_ptr_inplaceIiSaIiELN9__gnu_cxx12_Lock_policyE2EED5Ev,comdat
	.align 2
	.weak	_ZNSt23_Sp_counted_ptr_inplaceIiSaIiELN9__gnu_cxx12_Lock_policyE2EED0Ev
	.type	_ZNSt23_Sp_counted_ptr_inplaceIiSaIiELN9__gnu_cxx12_Lock_policyE2EED0Ev, @function
_ZNSt23_Sp_counted_ptr_inplaceIiSaIiELN9__gnu_cxx12_Lock_policyE2EED0Ev:
.LFB3398:
	.loc 5 552 7
	.cfi_startproc
	endbr64
	pushq	%rbp
	.cfi_def_cfa_offset 16
	.cfi_offset 6, -16
	movq	%rsp, %rbp
	.cfi_def_cfa_register 6
	subq	$16, %rsp
	movq	%rdi, -8(%rbp)
	.loc 5 552 45
	movq	-8(%rbp), %rax
	movq	%rax, %rdi
	call	_ZNSt23_Sp_counted_ptr_inplaceIiSaIiELN9__gnu_cxx12_Lock_policyE2EED1Ev
	movq	-8(%rbp), %rax
	movl	$24, %esi
	movq	%rax, %rdi
	call	_ZdlPvm@PLT
	leave
	.cfi_def_cfa 7, 8
	ret
	.cfi_endproc
.LFE3398:
	.size	_ZNSt23_Sp_counted_ptr_inplaceIiSaIiELN9__gnu_cxx12_Lock_policyE2EED0Ev, .-_ZNSt23_Sp_counted_ptr_inplaceIiSaIiELN9__gnu_cxx12_Lock_policyE2EED0Ev
	.section	.text._ZNSt23_Sp_counted_ptr_inplaceIiSaIiELN9__gnu_cxx12_Lock_policyE2EE10_M_disposeEv,"axG",@progbits,_ZNSt23_Sp_counted_ptr_inplaceIiSaIiELN9__gnu_cxx12_Lock_policyE2EE10_M_disposeEv,comdat
	.align 2
	.weak	_ZNSt23_Sp_counted_ptr_inplaceIiSaIiELN9__gnu_cxx12_Lock_policyE2EE10_M_disposeEv
	.type	_ZNSt23_Sp_counted_ptr_inplaceIiSaIiELN9__gnu_cxx12_Lock_policyE2EE10_M_disposeEv, @function
_ZNSt23_Sp_counted_ptr_inplaceIiSaIiELN9__gnu_cxx12_Lock_policyE2EE10_M_disposeEv:
.LFB3399:
	.loc 5 555 7
	.cfi_startproc
	endbr64
	pushq	%rbp
	.cfi_def_cfa_offset 16
	.cfi_offset 6, -16
	movq	%rsp, %rbp
	.cfi_def_cfa_register 6
	pushq	%rbx
	subq	$24, %rsp
	.cfi_offset 3, -24
	movq	%rdi, -24(%rbp)
	.loc 5 557 35
	movq	-24(%rbp), %rax
	movq	%rax, %rdi
	call	_ZNSt23_Sp_counted_ptr_inplaceIiSaIiELN9__gnu_cxx12_Lock_policyE2EE6_M_ptrEv
	movq	%rax, %rbx
	movq	-24(%rbp), %rax
	addq	$16, %rax
	movq	%rax, %rdi
	call	_ZNSt23_Sp_counted_ptr_inplaceIiSaIiELN9__gnu_cxx12_Lock_policyE2EE5_Impl8_M_allocEv
	movq	%rbx, %rsi
	movq	%rax, %rdi
	call	_ZNSt16allocator_traitsISaIiEE7destroyIiEEvRS0_PT_
	.loc 5 558 7
	nop
	addq	$24, %rsp
	popq	%rbx
	popq	%rbp
	.cfi_def_cfa 7, 8
	ret
	.cfi_endproc
.LFE3399:
	.size	_ZNSt23_Sp_counted_ptr_inplaceIiSaIiELN9__gnu_cxx12_Lock_policyE2EE10_M_disposeEv, .-_ZNSt23_Sp_counted_ptr_inplaceIiSaIiELN9__gnu_cxx12_Lock_policyE2EE10_M_disposeEv
	.section	.text._ZNSt23_Sp_counted_ptr_inplaceIiSaIiELN9__gnu_cxx12_Lock_policyE2EE10_M_destroyEv,"axG",@progbits,_ZNSt23_Sp_counted_ptr_inplaceIiSaIiELN9__gnu_cxx12_Lock_policyE2EE10_M_destroyEv,comdat
	.align 2
	.weak	_ZNSt23_Sp_counted_ptr_inplaceIiSaIiELN9__gnu_cxx12_Lock_policyE2EE10_M_destroyEv
	.type	_ZNSt23_Sp_counted_ptr_inplaceIiSaIiELN9__gnu_cxx12_Lock_policyE2EE10_M_destroyEv, @function
_ZNSt23_Sp_counted_ptr_inplaceIiSaIiELN9__gnu_cxx12_Lock_policyE2EE10_M_destroyEv:
.LFB3400:
	.loc 5 562 7
	.cfi_startproc
	endbr64
	pushq	%rbp
	.cfi_def_cfa_offset 16
	.cfi_offset 6, -16
	movq	%rsp, %rbp
	.cfi_def_cfa_register 6
	subq	$64, %rsp
	movq	%rdi, -56(%rbp)
	.loc 5 562 7
	movq	%fs:40, %rax
	movq	%rax, -8(%rbp)
	xorl	%eax, %eax
	.loc 5 564 19
	movq	-56(%rbp), %rax
	addq	$16, %rax
	movq	%rax, %rdi
	call	_ZNSt23_Sp_counted_ptr_inplaceIiSaIiELN9__gnu_cxx12_Lock_policyE2EE5_Impl8_M_allocEv
	movq	%rax, %rdx
	leaq	-33(%rbp), %rax
	movq	%rdx, %rsi
	movq	%rax, %rdi
	call	_ZNSaISt23_Sp_counted_ptr_inplaceIiSaIiELN9__gnu_cxx12_Lock_policyE2EEEC1IiEERKSaIT_E
	.loc 5 565 36
	movq	-56(%rbp), %rdx
	leaq	-33(%rbp), %rcx
	leaq	-32(%rbp), %rax
	movq	%rcx, %rsi
	movq	%rax, %rdi
	call	_ZNSt15__allocated_ptrISaISt23_Sp_counted_ptr_inplaceIiSaIiELN9__gnu_cxx12_Lock_policyE2EEEEC1ERS5_PS4_
	.loc 5 566 2
	movq	-56(%rbp), %rax
	movq	%rax, %rdi
	call	_ZNSt23_Sp_counted_ptr_inplaceIiSaIiELN9__gnu_cxx12_Lock_policyE2EED1Ev
	.loc 5 565 36
	leaq	-32(%rbp), %rax
	movq	%rax, %rdi
	call	_ZNSt15__allocated_ptrISaISt23_Sp_counted_ptr_inplaceIiSaIiELN9__gnu_cxx12_Lock_policyE2EEEED1Ev
	.loc 5 564 19
	leaq	-33(%rbp), %rax
	movq	%rax, %rdi
	call	_ZNSaISt23_Sp_counted_ptr_inplaceIiSaIiELN9__gnu_cxx12_Lock_policyE2EEED1Ev
	.loc 5 567 7
	nop
	movq	-8(%rbp), %rax
	xorq	%fs:40, %rax
	je	.L178
	call	__stack_chk_fail@PLT
.L178:
	leave
	.cfi_def_cfa 7, 8
	ret
	.cfi_endproc
.LFE3400:
	.size	_ZNSt23_Sp_counted_ptr_inplaceIiSaIiELN9__gnu_cxx12_Lock_policyE2EE10_M_destroyEv, .-_ZNSt23_Sp_counted_ptr_inplaceIiSaIiELN9__gnu_cxx12_Lock_policyE2EE10_M_destroyEv
	.section	.text._ZNSt23_Sp_counted_ptr_inplaceIiSaIiELN9__gnu_cxx12_Lock_policyE2EE14_M_get_deleterERKSt9type_info,"axG",@progbits,_ZNSt23_Sp_counted_ptr_inplaceIiSaIiELN9__gnu_cxx12_Lock_policyE2EE14_M_get_deleterERKSt9type_info,comdat
	.align 2
	.weak	_ZNSt23_Sp_counted_ptr_inplaceIiSaIiELN9__gnu_cxx12_Lock_policyE2EE14_M_get_deleterERKSt9type_info
	.type	_ZNSt23_Sp_counted_ptr_inplaceIiSaIiELN9__gnu_cxx12_Lock_policyE2EE14_M_get_deleterERKSt9type_info, @function
_ZNSt23_Sp_counted_ptr_inplaceIiSaIiELN9__gnu_cxx12_Lock_policyE2EE14_M_get_deleterERKSt9type_info:
.LFB3401:
	.loc 5 575 7
	.cfi_startproc
	endbr64
	pushq	%rbp
	.cfi_def_cfa_offset 16
	.cfi_offset 6, -16
	movq	%rsp, %rbp
	.cfi_def_cfa_register 6
	subq	$32, %rsp
	movq	%rdi, -24(%rbp)
	movq	%rsi, -32(%rbp)
	.loc 5 577 15
	movq	-24(%rbp), %rax
	movq	%rax, %rdi
	call	_ZNSt23_Sp_counted_ptr_inplaceIiSaIiELN9__gnu_cxx12_Lock_policyE2EE6_M_ptrEv
	movq	%rax, -8(%rbp)
	.loc 5 582 43
	call	_ZNSt19_Sp_make_shared_tag5_S_tiEv
	.loc 5 583 6
	cmpq	%rax, -32(%rbp)
	je	.L180
	.loc 5 585 11 discriminator 2
	movq	-32(%rbp), %rax
	leaq	_ZTISt19_Sp_make_shared_tag(%rip), %rsi
	movq	%rax, %rdi
	call	_ZNKSt9type_infoeqERKS_
	.loc 5 583 6 discriminator 2
	testb	%al, %al
	je	.L181
.L180:
	.loc 5 583 6 is_stmt 0 discriminator 3
	movl	$1, %eax
	jmp	.L182
.L181:
	.loc 5 583 6 discriminator 4
	movl	$0, %eax
.L182:
	.loc 5 582 2 is_stmt 1 discriminator 6
	testb	%al, %al
	je	.L183
	.loc 5 590 11
	movq	-8(%rbp), %rax
	jmp	.L184
.L183:
	.loc 5 591 9
	movl	$0, %eax
.L184:
	.loc 5 592 7
	leave
	.cfi_def_cfa 7, 8
	ret
	.cfi_endproc
.LFE3401:
	.size	_ZNSt23_Sp_counted_ptr_inplaceIiSaIiELN9__gnu_cxx12_Lock_policyE2EE14_M_get_deleterERKSt9type_info, .-_ZNSt23_Sp_counted_ptr_inplaceIiSaIiELN9__gnu_cxx12_Lock_policyE2EE14_M_get_deleterERKSt9type_info
	.section	.text._ZNSt15_Sp_counted_ptrIPiLN9__gnu_cxx12_Lock_policyE2EE10_M_disposeEv,"axG",@progbits,_ZNSt15_Sp_counted_ptrIPiLN9__gnu_cxx12_Lock_policyE2EE10_M_disposeEv,comdat
	.align 2
	.weak	_ZNSt15_Sp_counted_ptrIPiLN9__gnu_cxx12_Lock_policyE2EE10_M_disposeEv
	.type	_ZNSt15_Sp_counted_ptrIPiLN9__gnu_cxx12_Lock_policyE2EE10_M_disposeEv, @function
_ZNSt15_Sp_counted_ptrIPiLN9__gnu_cxx12_Lock_policyE2EE10_M_disposeEv:
.LFB3402:
	.loc 5 376 7
	.cfi_startproc
	endbr64
	pushq	%rbp
	.cfi_def_cfa_offset 16
	.cfi_offset 6, -16
	movq	%rsp, %rbp
	.cfi_def_cfa_register 6
	subq	$16, %rsp
	movq	%rdi, -8(%rbp)
	.loc 5 377 16
	movq	-8(%rbp), %rax
	movq	16(%rax), %rax
	.loc 5 377 9
	testq	%rax, %rax
	je	.L187
	.loc 5 377 9 is_stmt 0 discriminator 1
	movl	$4, %esi
	movq	%rax, %rdi
	call	_ZdlPvm@PLT
.L187:
	.loc 5 377 24 is_stmt 1
	nop
	leave
	.cfi_def_cfa 7, 8
	ret
	.cfi_endproc
.LFE3402:
	.size	_ZNSt15_Sp_counted_ptrIPiLN9__gnu_cxx12_Lock_policyE2EE10_M_disposeEv, .-_ZNSt15_Sp_counted_ptrIPiLN9__gnu_cxx12_Lock_policyE2EE10_M_disposeEv
	.section	.text._ZNSt15_Sp_counted_ptrIPiLN9__gnu_cxx12_Lock_policyE2EE10_M_destroyEv,"axG",@progbits,_ZNSt15_Sp_counted_ptrIPiLN9__gnu_cxx12_Lock_policyE2EE10_M_destroyEv,comdat
	.align 2
	.weak	_ZNSt15_Sp_counted_ptrIPiLN9__gnu_cxx12_Lock_policyE2EE10_M_destroyEv
	.type	_ZNSt15_Sp_counted_ptrIPiLN9__gnu_cxx12_Lock_policyE2EE10_M_destroyEv, @function
_ZNSt15_Sp_counted_ptrIPiLN9__gnu_cxx12_Lock_policyE2EE10_M_destroyEv:
.LFB3403:
	.loc 5 380 7
	.cfi_startproc
	endbr64
	pushq	%rbp
	.cfi_def_cfa_offset 16
	.cfi_offset 6, -16
	movq	%rsp, %rbp
	.cfi_def_cfa_register 6
	subq	$16, %rsp
	movq	%rdi, -8(%rbp)
	.loc 5 381 9
	cmpq	$0, -8(%rbp)
	je	.L190
	.loc 5 381 9 is_stmt 0 discriminator 1
	movq	-8(%rbp), %rax
	movq	%rax, %rdi
	call	_ZNSt15_Sp_counted_ptrIPiLN9__gnu_cxx12_Lock_policyE2EED0Ev
.L190:
	.loc 5 381 22 is_stmt 1
	nop
	leave
	.cfi_def_cfa 7, 8
	ret
	.cfi_endproc
.LFE3403:
	.size	_ZNSt15_Sp_counted_ptrIPiLN9__gnu_cxx12_Lock_policyE2EE10_M_destroyEv, .-_ZNSt15_Sp_counted_ptrIPiLN9__gnu_cxx12_Lock_policyE2EE10_M_destroyEv
	.section	.text._ZNSt15_Sp_counted_ptrIPiLN9__gnu_cxx12_Lock_policyE2EE14_M_get_deleterERKSt9type_info,"axG",@progbits,_ZNSt15_Sp_counted_ptrIPiLN9__gnu_cxx12_Lock_policyE2EE14_M_get_deleterERKSt9type_info,comdat
	.align 2
	.weak	_ZNSt15_Sp_counted_ptrIPiLN9__gnu_cxx12_Lock_policyE2EE14_M_get_deleterERKSt9type_info
	.type	_ZNSt15_Sp_counted_ptrIPiLN9__gnu_cxx12_Lock_policyE2EE14_M_get_deleterERKSt9type_info, @function
_ZNSt15_Sp_counted_ptrIPiLN9__gnu_cxx12_Lock_policyE2EE14_M_get_deleterERKSt9type_info:
.LFB3404:
	.loc 5 384 7
	.cfi_startproc
	endbr64
	pushq	%rbp
	.cfi_def_cfa_offset 16
	.cfi_offset 6, -16
	movq	%rsp, %rbp
	.cfi_def_cfa_register 6
	movq	%rdi, -8(%rbp)
	movq	%rsi, -16(%rbp)
	.loc 5 385 16
	movl	$0, %eax
	.loc 5 385 25
	popq	%rbp
	.cfi_def_cfa 7, 8
	ret
	.cfi_endproc
.LFE3404:
	.size	_ZNSt15_Sp_counted_ptrIPiLN9__gnu_cxx12_Lock_policyE2EE14_M_get_deleterERKSt9type_info, .-_ZNSt15_Sp_counted_ptrIPiLN9__gnu_cxx12_Lock_policyE2EE14_M_get_deleterERKSt9type_info
	.section	.text._ZNSt23_Sp_counted_ptr_inplaceIiSaIiELN9__gnu_cxx12_Lock_policyE2EE5_Impl8_M_allocEv,"axG",@progbits,_ZNSt23_Sp_counted_ptr_inplaceIiSaIiELN9__gnu_cxx12_Lock_policyE2EE5_Impl8_M_allocEv,comdat
	.align 2
	.weak	_ZNSt23_Sp_counted_ptr_inplaceIiSaIiELN9__gnu_cxx12_Lock_policyE2EE5_Impl8_M_allocEv
	.type	_ZNSt23_Sp_counted_ptr_inplaceIiSaIiELN9__gnu_cxx12_Lock_policyE2EE5_Impl8_M_allocEv, @function
_ZNSt23_Sp_counted_ptr_inplaceIiSaIiELN9__gnu_cxx12_Lock_policyE2EE5_Impl8_M_allocEv:
.LFB3405:
	.loc 5 533 10
	.cfi_startproc
	endbr64
	pushq	%rbp
	.cfi_def_cfa_offset 16
	.cfi_offset 6, -16
	movq	%rsp, %rbp
	.cfi_def_cfa_register 6
	subq	$16, %rsp
	movq	%rdi, -8(%rbp)
	.loc 5 533 54
	movq	-8(%rbp), %rax
	movq	%rax, %rdi
	call	_ZNSt14_Sp_ebo_helperILi0ESaIiELb1EE6_S_getERS1_
	.loc 5 533 63
	leave
	.cfi_def_cfa 7, 8
	ret
	.cfi_endproc
.LFE3405:
	.size	_ZNSt23_Sp_counted_ptr_inplaceIiSaIiELN9__gnu_cxx12_Lock_policyE2EE5_Impl8_M_allocEv, .-_ZNSt23_Sp_counted_ptr_inplaceIiSaIiELN9__gnu_cxx12_Lock_policyE2EE5_Impl8_M_allocEv
	.section	.text._ZNSt16allocator_traitsISaIiEE7destroyIiEEvRS0_PT_,"axG",@progbits,_ZNSt16allocator_traitsISaIiEE7destroyIiEEvRS0_PT_,comdat
	.weak	_ZNSt16allocator_traitsISaIiEE7destroyIiEEvRS0_PT_
	.type	_ZNSt16allocator_traitsISaIiEE7destroyIiEEvRS0_PT_, @function
_ZNSt16allocator_traitsISaIiEE7destroyIiEEvRS0_PT_:
.LFB3406:
	.loc 12 495 2
	.cfi_startproc
	endbr64
	pushq	%rbp
	.cfi_def_cfa_offset 16
	.cfi_offset 6, -16
	movq	%rsp, %rbp
	.cfi_def_cfa_register 6
	subq	$16, %rsp
	movq	%rdi, -8(%rbp)
	movq	%rsi, -16(%rbp)
	.loc 12 497 4
	movq	-16(%rbp), %rdx
	movq	-8(%rbp), %rax
	movq	%rdx, %rsi
	movq	%rax, %rdi
	call	_ZN9__gnu_cxx13new_allocatorIiE7destroyIiEEvPT_
	.loc 12 497 22
	nop
	leave
	.cfi_def_cfa 7, 8
	ret
	.cfi_endproc
.LFE3406:
	.size	_ZNSt16allocator_traitsISaIiEE7destroyIiEEvRS0_PT_, .-_ZNSt16allocator_traitsISaIiEE7destroyIiEEvRS0_PT_
	.section	.text._ZNSt14_Sp_ebo_helperILi0ESaIiELb1EE6_S_getERS1_,"axG",@progbits,_ZNSt14_Sp_ebo_helperILi0ESaIiELb1EE6_S_getERS1_,comdat
	.weak	_ZNSt14_Sp_ebo_helperILi0ESaIiELb1EE6_S_getERS1_
	.type	_ZNSt14_Sp_ebo_helperILi0ESaIiELb1EE6_S_getERS1_, @function
_ZNSt14_Sp_ebo_helperILi0ESaIiELb1EE6_S_getERS1_:
.LFB3407:
	.loc 5 418 7
	.cfi_startproc
	endbr64
	pushq	%rbp
	.cfi_def_cfa_offset 16
	.cfi_offset 6, -16
	movq	%rsp, %rbp
	.cfi_def_cfa_register 6
	movq	%rdi, -8(%rbp)
	.loc 5 418 71
	movq	-8(%rbp), %rax
	.loc 5 418 74
	popq	%rbp
	.cfi_def_cfa 7, 8
	ret
	.cfi_endproc
.LFE3407:
	.size	_ZNSt14_Sp_ebo_helperILi0ESaIiELb1EE6_S_getERS1_, .-_ZNSt14_Sp_ebo_helperILi0ESaIiELb1EE6_S_getERS1_
	.section	.text._ZN9__gnu_cxx13new_allocatorIiE7destroyIiEEvPT_,"axG",@progbits,_ZN9__gnu_cxx13new_allocatorIiE7destroyIiEEvPT_,comdat
	.align 2
	.weak	_ZN9__gnu_cxx13new_allocatorIiE7destroyIiEEvPT_
	.type	_ZN9__gnu_cxx13new_allocatorIiE7destroyIiEEvPT_, @function
_ZN9__gnu_cxx13new_allocatorIiE7destroyIiEEvPT_:
.LFB3408:
	.loc 10 151 2
	.cfi_startproc
	endbr64
	pushq	%rbp
	.cfi_def_cfa_offset 16
	.cfi_offset 6, -16
	movq	%rsp, %rbp
	.cfi_def_cfa_register 6
	movq	%rdi, -8(%rbp)
	movq	%rsi, -16(%rbp)
	.loc 10 153 17
	nop
	popq	%rbp
	.cfi_def_cfa 7, 8
	ret
	.cfi_endproc
.LFE3408:
	.size	_ZN9__gnu_cxx13new_allocatorIiE7destroyIiEEvPT_, .-_ZN9__gnu_cxx13new_allocatorIiE7destroyIiEEvPT_
	.weak	_ZTISt19_Sp_make_shared_tag
	.section	.data.rel.ro._ZTISt19_Sp_make_shared_tag,"awG",@progbits,_ZTISt19_Sp_make_shared_tag,comdat
	.align 8
	.type	_ZTISt19_Sp_make_shared_tag, @object
	.size	_ZTISt19_Sp_make_shared_tag, 16
_ZTISt19_Sp_make_shared_tag:
	.quad	_ZTVN10__cxxabiv117__class_type_infoE+16
	.quad	_ZTSSt19_Sp_make_shared_tag
	.weak	_ZTSSt19_Sp_make_shared_tag
	.section	.rodata._ZTSSt19_Sp_make_shared_tag,"aG",@progbits,_ZTSSt19_Sp_make_shared_tag,comdat
	.align 16
	.type	_ZTSSt19_Sp_make_shared_tag, @object
	.size	_ZTSSt19_Sp_make_shared_tag, 24
_ZTSSt19_Sp_make_shared_tag:
	.string	"St19_Sp_make_shared_tag"
	.weak	_ZTISt11_Mutex_baseILN9__gnu_cxx12_Lock_policyE2EE
	.section	.data.rel.ro._ZTISt11_Mutex_baseILN9__gnu_cxx12_Lock_policyE2EE,"awG",@progbits,_ZTISt11_Mutex_baseILN9__gnu_cxx12_Lock_policyE2EE,comdat
	.align 8
	.type	_ZTISt11_Mutex_baseILN9__gnu_cxx12_Lock_policyE2EE, @object
	.size	_ZTISt11_Mutex_baseILN9__gnu_cxx12_Lock_policyE2EE, 16
_ZTISt11_Mutex_baseILN9__gnu_cxx12_Lock_policyE2EE:
	.quad	_ZTVN10__cxxabiv117__class_type_infoE+16
	.quad	_ZTSSt11_Mutex_baseILN9__gnu_cxx12_Lock_policyE2EE
	.weak	_ZTSSt11_Mutex_baseILN9__gnu_cxx12_Lock_policyE2EE
	.section	.rodata._ZTSSt11_Mutex_baseILN9__gnu_cxx12_Lock_policyE2EE,"aG",@progbits,_ZTSSt11_Mutex_baseILN9__gnu_cxx12_Lock_policyE2EE,comdat
	.align 32
	.type	_ZTSSt11_Mutex_baseILN9__gnu_cxx12_Lock_policyE2EE, @object
	.size	_ZTSSt11_Mutex_baseILN9__gnu_cxx12_Lock_policyE2EE, 47
_ZTSSt11_Mutex_baseILN9__gnu_cxx12_Lock_policyE2EE:
	.string	"St11_Mutex_baseILN9__gnu_cxx12_Lock_policyE2EE"
	.text
	.type	_GLOBAL__sub_I_main, @function
_GLOBAL__sub_I_main:
.LFB3409:
	.loc 7 25 1
	.cfi_startproc
	endbr64
	pushq	%rbp
	.cfi_def_cfa_offset 16
	.cfi_offset 6, -16
	movq	%rsp, %rbp
	.cfi_def_cfa_register 6
	.loc 7 25 1
	movl	$65535, %esi
	movl	$1, %edi
	call	_Z41__static_initialization_and_destruction_0ii
	popq	%rbp
	.cfi_def_cfa 7, 8
	ret
	.cfi_endproc
.LFE3409:
	.size	_GLOBAL__sub_I_main, .-_GLOBAL__sub_I_main
	.section	.init_array,"aw"
	.align 8
	.quad	_GLOBAL__sub_I_main
	.weakref	_ZL28__gthrw___pthread_key_createPjPFvPvE,__pthread_key_create
	.text
.Letext0:
	.file 16 "/usr/include/c++/9/cwchar"
	.file 17 "/usr/include/c++/9/bits/exception_ptr.h"
	.file 18 "/usr/include/c++/9/type_traits"
	.file 19 "/usr/include/x86_64-linux-gnu/c++/9/bits/c++config.h"
	.file 20 "/usr/include/c++/9/bits/stl_pair.h"
	.file 21 "/usr/include/c++/9/debug/debug.h"
	.file 22 "/usr/include/c++/9/bits/char_traits.h"
	.file 23 "/usr/include/c++/9/cstdint"
	.file 24 "/usr/include/c++/9/clocale"
	.file 25 "/usr/include/c++/9/limits"
	.file 26 "/usr/include/c++/9/string_view"
	.file 27 "/usr/include/c++/9/bits/basic_string.h"
	.file 28 "/usr/include/c++/9/cstdlib"
	.file 29 "/usr/include/c++/9/cstdio"
	.file 30 "/usr/include/c++/9/system_error"
	.file 31 "/usr/include/c++/9/bits/ios_base.h"
	.file 32 "/usr/include/c++/9/cwctype"
	.file 33 "/usr/include/c++/9/istream"
	.file 34 "/usr/include/c++/9/iosfwd"
	.file 35 "/usr/include/c++/9/utility"
	.file 36 "/usr/include/c++/9/bits/uses_allocator.h"
	.file 37 "/usr/include/c++/9/bits/stl_iterator_base_types.h"
	.file 38 "/usr/include/c++/9/tuple"
	.file 39 "/usr/include/c++/9/bits/atomic_base.h"
	.file 40 "/usr/include/c++/9/ostream"
	.file 41 "/usr/include/c++/9/bits/predefined_ops.h"
	.file 42 "/usr/include/c++/9/ext/numeric_traits.h"
	.file 43 "/usr/include/c++/9/ext/concurrence.h"
	.file 44 "/usr/lib/gcc/x86_64-linux-gnu/9/include/stddef.h"
	.file 45 "<built-in>"
	.file 46 "/usr/include/x86_64-linux-gnu/bits/types/wint_t.h"
	.file 47 "/usr/include/x86_64-linux-gnu/bits/types/__mbstate_t.h"
	.file 48 "/usr/include/x86_64-linux-gnu/bits/types/mbstate_t.h"
	.file 49 "/usr/include/x86_64-linux-gnu/bits/types/__FILE.h"
	.file 50 "/usr/include/x86_64-linux-gnu/bits/types/struct_FILE.h"
	.file 51 "/usr/include/x86_64-linux-gnu/bits/types/FILE.h"
	.file 52 "/usr/include/wchar.h"
	.file 53 "/usr/include/x86_64-linux-gnu/bits/types/struct_tm.h"
	.file 54 "/usr/include/x86_64-linux-gnu/bits/types.h"
	.file 55 "/usr/include/x86_64-linux-gnu/bits/stdint-intn.h"
	.file 56 "/usr/include/x86_64-linux-gnu/bits/stdint-uintn.h"
	.file 57 "/usr/include/stdint.h"
	.file 58 "/usr/include/locale.h"
	.file 59 "/usr/include/time.h"
	.file 60 "/usr/include/x86_64-linux-gnu/c++/9/bits/atomic_word.h"
	.file 61 "/usr/include/stdlib.h"
	.file 62 "/usr/include/x86_64-linux-gnu/bits/types/__fpos_t.h"
	.file 63 "/usr/include/stdio.h"
	.file 64 "/usr/include/x86_64-linux-gnu/bits/sys_errlist.h"
	.file 65 "/usr/include/errno.h"
	.file 66 "/usr/include/x86_64-linux-gnu/bits/wctype-wchar.h"
	.file 67 "/usr/include/wctype.h"
	.file 68 "/usr/include/c++/9/pstl/execution_defs.h"
	.section	.data.rel.local.DW.ref.__gxx_personality_v0,"awG",@progbits,DW.ref.__gxx_personality_v0,comdat
	.align 8
	.type	DW.ref.__gxx_personality_v0, @object
	.size	DW.ref.__gxx_personality_v0, 8
DW.ref.__gxx_personality_v0:
	.quad	__gxx_personality_v0
	.hidden	__dso_handle
	.ident	"GCC: (Ubuntu 9.3.0-17ubuntu1~20.04) 9.3.0"
	.section	.note.GNU-stack,"",@progbits
	.section	.note.gnu.property,"a"
	.align 8
	.long	 1f - 0f
	.long	 4f - 1f
	.long	 5
0:
	.string	 "GNU"
1:
	.align 8
	.long	 0xc0000002
	.long	 3f - 2f
2:
	.long	 0x3
3:
	.align 8
4:
