	.file	"mainALGraph.cpp"
	.text
.Ltext0:
	.section	.text._ZnwmPv,"axG",@progbits,_ZnwmPv,comdat
	.weak	_ZnwmPv
	.type	_ZnwmPv, @function
_ZnwmPv:
.LASANPC38:
.LFB38:
	.file 1 "/usr/include/c++/9/new"
	.loc 1 174 1
	.cfi_startproc
	endbr64
	pushq	%rbp
	.cfi_def_cfa_offset 16
	.cfi_offset 6, -16
	movq	%rsp, %rbp
	.cfi_def_cfa_register 6
	movq	%rdi, -8(%rbp)
	movq	%rsi, -16(%rbp)
	.loc 1 174 10
	movq	-16(%rbp), %rax
	.loc 1 174 15
	popq	%rbp
	.cfi_def_cfa 7, 8
	ret
	.cfi_endproc
.LFE38:
	.size	_ZnwmPv, .-_ZnwmPv
	.section	.text._ZdlPvS_,"axG",@progbits,_ZdlPvS_,comdat
	.weak	_ZdlPvS_
	.type	_ZdlPvS_, @function
_ZdlPvS_:
.LASANPC40:
.LFB40:
	.loc 1 179 53
	.cfi_startproc
	endbr64
	pushq	%rbp
	.cfi_def_cfa_offset 16
	.cfi_offset 6, -16
	movq	%rsp, %rbp
	.cfi_def_cfa_register 6
	movq	%rdi, -8(%rbp)
	movq	%rsi, -16(%rbp)
	.loc 1 179 55
	nop
	popq	%rbp
	.cfi_def_cfa 7, 8
	ret
	.cfi_endproc
.LFE40:
	.size	_ZdlPvS_, .-_ZdlPvS_
	.section	.text._ZSt4__lgl,"axG",@progbits,_ZSt4__lgl,comdat
	.weak	_ZSt4__lgl
	.type	_ZSt4__lgl, @function
_ZSt4__lgl:
.LASANPC363:
.LFB363:
	.file 2 "/usr/include/c++/9/bits/stl_algobase.h"
	.loc 2 1029 3
	.cfi_startproc
	endbr64
	pushq	%rbp
	.cfi_def_cfa_offset 16
	.cfi_offset 6, -16
	movq	%rsp, %rbp
	.cfi_def_cfa_register 6
	movq	%rdi, -8(%rbp)
	.loc 2 1029 54
	movq	-8(%rbp), %rax
	bsrq	%rax, %rax
	xorq	$63, %rax
	.loc 2 1029 38
	movl	$63, %edx
	subl	%eax, %edx
	movl	%edx, %eax
	.loc 2 1029 58
	cltq
	.loc 2 1029 61
	popq	%rbp
	.cfi_def_cfa 7, 8
	ret
	.cfi_endproc
.LFE363:
	.size	_ZSt4__lgl, .-_ZSt4__lgl
	.section	.text._ZNSt11char_traitsIcE6lengthEPKc,"axG",@progbits,_ZNSt11char_traitsIcE6lengthEPKc,comdat
	.weak	_ZNSt11char_traitsIcE6lengthEPKc
	.type	_ZNSt11char_traitsIcE6lengthEPKc, @function
_ZNSt11char_traitsIcE6lengthEPKc:
.LASANPC402:
.LFB402:
	.file 3 "/usr/include/c++/9/bits/char_traits.h"
	.loc 3 329 7
	.cfi_startproc
	endbr64
	pushq	%rbp
	.cfi_def_cfa_offset 16
	.cfi_offset 6, -16
	movq	%rsp, %rbp
	.cfi_def_cfa_register 6
	subq	$32, %rsp
	movq	%rdi, -24(%rbp)
	movq	-24(%rbp), %rax
	movq	%rax, -8(%rbp)
.LBB4:
.LBB5:
	.loc 3 236 46
	movl	$0, %eax
.LBE5:
.LBE4:
	.loc 3 332 2
	testb	%al, %al
	je	.L8
	.loc 3 333 52
	movq	-24(%rbp), %rax
	movq	%rax, %rdi
	call	_ZN9__gnu_cxx11char_traitsIcE6lengthEPKc
	.loc 3 333 56
	jmp	.L9
.L8:
	.loc 3 335 25
	movq	-24(%rbp), %rax
	movq	%rax, %rdi
	call	strlen@PLT
	.loc 3 335 29
	nop
.L9:
	.loc 3 336 7
	leave
	.cfi_def_cfa 7, 8
	ret
	.cfi_endproc
.LFE402:
	.size	_ZNSt11char_traitsIcE6lengthEPKc, .-_ZNSt11char_traitsIcE6lengthEPKc
	.section	.text._ZStorSt13_Ios_OpenmodeS_,"axG",@progbits,_ZStorSt13_Ios_OpenmodeS_,comdat
	.weak	_ZStorSt13_Ios_OpenmodeS_
	.type	_ZStorSt13_Ios_OpenmodeS_, @function
_ZStorSt13_Ios_OpenmodeS_:
.LASANPC1423:
.LFB1423:
	.file 4 "/usr/include/c++/9/bits/ios_base.h"
	.loc 4 130 3
	.cfi_startproc
	endbr64
	pushq	%rbp
	.cfi_def_cfa_offset 16
	.cfi_offset 6, -16
	movq	%rsp, %rbp
	.cfi_def_cfa_register 6
	movl	%edi, -4(%rbp)
	movl	%esi, -8(%rbp)
	.loc 4 130 71
	movl	-4(%rbp), %eax
	orl	-8(%rbp), %eax
	.loc 4 130 74
	popq	%rbp
	.cfi_def_cfa 7, 8
	ret
	.cfi_endproc
.LFE1423:
	.size	_ZStorSt13_Ios_OpenmodeS_, .-_ZStorSt13_Ios_OpenmodeS_
	.bss
	.align 32
	.type	_ZStL8__ioinit, @object
	.size	_ZStL8__ioinit, 1
_ZStL8__ioinit:
	.zero	64
	.section	.text._ZNSt14_Bit_referenceC2EPmm,"axG",@progbits,_ZNSt14_Bit_referenceC5EPmm,comdat
	.align 2
	.weak	_ZNSt14_Bit_referenceC2EPmm
	.type	_ZNSt14_Bit_referenceC2EPmm, @function
_ZNSt14_Bit_referenceC2EPmm:
.LASANPC2033:
.LFB2033:
	.file 5 "/usr/include/c++/9/bits/stl_bvector.h"
	.loc 5 77 5
	.cfi_startproc
	endbr64
	pushq	%rbp
	.cfi_def_cfa_offset 16
	.cfi_offset 6, -16
	movq	%rsp, %rbp
	.cfi_def_cfa_register 6
	subq	$32, %rsp
	movq	%rdi, -8(%rbp)
	movq	%rsi, -16(%rbp)
	movq	%rdx, -24(%rbp)
.LBB6:
	.loc 5 78 29
	movq	-8(%rbp), %rax
	movq	%rax, %rdx
	shrq	$3, %rdx
	addq	$2147450880, %rdx
	movzbl	(%rdx), %edx
	testb	%dl, %dl
	je	.L13
	movq	%rax, %rdi
	call	__asan_report_store8@PLT
.L13:
	movq	-8(%rbp), %rax
	movq	-16(%rbp), %rdx
	movq	%rdx, (%rax)
	movq	-8(%rbp), %rax
	addq	$8, %rax
	movq	%rax, %rdx
	shrq	$3, %rdx
	addq	$2147450880, %rdx
	movzbl	(%rdx), %edx
	testb	%dl, %dl
	je	.L14
	movq	%rax, %rdi
	call	__asan_report_store8@PLT
.L14:
	movq	-8(%rbp), %rax
	movq	-24(%rbp), %rdx
	movq	%rdx, 8(%rax)
.LBE6:
	.loc 5 78 33
	nop
	leave
	.cfi_def_cfa 7, 8
	ret
	.cfi_endproc
.LFE2033:
	.size	_ZNSt14_Bit_referenceC2EPmm, .-_ZNSt14_Bit_referenceC2EPmm
	.weak	_ZNSt14_Bit_referenceC1EPmm
	.set	_ZNSt14_Bit_referenceC1EPmm,_ZNSt14_Bit_referenceC2EPmm
	.section	.text._ZNKSt14_Bit_referencecvbEv,"axG",@progbits,_ZNKSt14_Bit_referencecvbEv,comdat
	.align 2
	.weak	_ZNKSt14_Bit_referencecvbEv
	.type	_ZNKSt14_Bit_referencecvbEv, @function
_ZNKSt14_Bit_referencecvbEv:
.LASANPC2038:
.LFB2038:
	.loc 5 86 5
	.cfi_startproc
	endbr64
	pushq	%rbp
	.cfi_def_cfa_offset 16
	.cfi_offset 6, -16
	movq	%rsp, %rbp
	.cfi_def_cfa_register 6
	subq	$16, %rsp
	movq	%rdi, -8(%rbp)
	.loc 5 87 18
	movq	-8(%rbp), %rax
	movq	%rax, %rdx
	shrq	$3, %rdx
	addq	$2147450880, %rdx
	movzbl	(%rdx), %edx
	testb	%dl, %dl
	je	.L16
	movq	%rax, %rdi
	call	__asan_report_load8@PLT
.L16:
	movq	-8(%rbp), %rax
	movq	(%rax), %rax
	.loc 5 87 17
	movq	%rax, %rdx
	movq	%rdx, %rcx
	shrq	$3, %rcx
	addq	$2147450880, %rcx
	movzbl	(%rcx), %ecx
	testb	%cl, %cl
	je	.L17
	movq	%rdx, %rdi
	call	__asan_report_load8@PLT
.L17:
	movq	(%rax), %rcx
	.loc 5 87 25
	movq	-8(%rbp), %rax
	addq	$8, %rax
	movq	%rax, %rdx
	shrq	$3, %rdx
	addq	$2147450880, %rdx
	movzbl	(%rdx), %edx
	testb	%dl, %dl
	je	.L18
	movq	%rax, %rdi
	call	__asan_report_load8@PLT
.L18:
	movq	-8(%rbp), %rax
	movq	8(%rax), %rax
	.loc 5 87 23
	andq	%rcx, %rax
	.loc 5 87 32
	testq	%rax, %rax
	setne	%al
	.loc 5 87 35
	leave
	.cfi_def_cfa 7, 8
	ret
	.cfi_endproc
.LFE2038:
	.size	_ZNKSt14_Bit_referencecvbEv, .-_ZNKSt14_Bit_referencecvbEv
	.section	.text._ZNSt14_Bit_referenceaSEb,"axG",@progbits,_ZNSt14_Bit_referenceaSEb,comdat
	.align 2
	.weak	_ZNSt14_Bit_referenceaSEb
	.type	_ZNSt14_Bit_referenceaSEb, @function
_ZNSt14_Bit_referenceaSEb:
.LASANPC2039:
.LFB2039:
	.loc 5 90 5
	.cfi_startproc
	endbr64
	pushq	%rbp
	.cfi_def_cfa_offset 16
	.cfi_offset 6, -16
	movq	%rsp, %rbp
	.cfi_def_cfa_register 6
	subq	$16, %rsp
	movq	%rdi, -8(%rbp)
	movl	%esi, %eax
	movb	%al, -12(%rbp)
	.loc 5 92 7
	cmpb	$0, -12(%rbp)
	je	.L21
	.loc 5 93 3
	movq	-8(%rbp), %rax
	movq	%rax, %rdx
	shrq	$3, %rdx
	addq	$2147450880, %rdx
	movzbl	(%rdx), %edx
	testb	%dl, %dl
	je	.L22
	movq	%rax, %rdi
	call	__asan_report_load8@PLT
.L22:
	movq	-8(%rbp), %rax
	movq	(%rax), %rax
	.loc 5 93 8
	movq	%rax, %rdx
	movq	%rdx, %rcx
	shrq	$3, %rcx
	addq	$2147450880, %rcx
	movzbl	(%rcx), %ecx
	testb	%cl, %cl
	je	.L23
	movq	%rdx, %rdi
	call	__asan_report_load8@PLT
.L23:
	movq	(%rax), %rcx
	.loc 5 93 11
	movq	-8(%rbp), %rax
	addq	$8, %rax
	movq	%rax, %rdx
	shrq	$3, %rdx
	addq	$2147450880, %rdx
	movzbl	(%rdx), %edx
	testb	%dl, %dl
	je	.L24
	movq	%rax, %rdi
	call	__asan_report_load8@PLT
.L24:
	movq	-8(%rbp), %rax
	movq	8(%rax), %rdx
	.loc 5 93 3
	movq	-8(%rbp), %rax
	movq	(%rax), %rax
	.loc 5 93 8
	movq	%rcx, %rsi
	orq	%rdx, %rsi
	movq	%rax, %rdx
	movq	%rdx, %rcx
	shrq	$3, %rcx
	addq	$2147450880, %rcx
	movzbl	(%rcx), %ecx
	testb	%cl, %cl
	je	.L25
	movq	%rdx, %rdi
	call	__asan_report_store8@PLT
.L25:
	movq	%rsi, (%rax)
	jmp	.L26
.L21:
	.loc 5 95 3
	movq	-8(%rbp), %rax
	movq	%rax, %rdx
	shrq	$3, %rdx
	addq	$2147450880, %rdx
	movzbl	(%rdx), %edx
	testb	%dl, %dl
	je	.L27
	movq	%rax, %rdi
	call	__asan_report_load8@PLT
.L27:
	movq	-8(%rbp), %rax
	movq	(%rax), %rax
	.loc 5 95 8
	movq	%rax, %rdx
	movq	%rdx, %rcx
	shrq	$3, %rcx
	addq	$2147450880, %rcx
	movzbl	(%rcx), %ecx
	testb	%cl, %cl
	je	.L28
	movq	%rdx, %rdi
	call	__asan_report_load8@PLT
.L28:
	movq	(%rax), %rcx
	.loc 5 95 12
	movq	-8(%rbp), %rax
	addq	$8, %rax
	movq	%rax, %rdx
	shrq	$3, %rdx
	addq	$2147450880, %rdx
	movzbl	(%rdx), %edx
	testb	%dl, %dl
	je	.L29
	movq	%rax, %rdi
	call	__asan_report_load8@PLT
.L29:
	movq	-8(%rbp), %rax
	movq	8(%rax), %rax
	.loc 5 95 11
	notq	%rax
	movq	%rax, %rdx
	.loc 5 95 3
	movq	-8(%rbp), %rax
	movq	(%rax), %rax
	.loc 5 95 8
	movq	%rcx, %rsi
	andq	%rdx, %rsi
	movq	%rax, %rdx
	movq	%rdx, %rcx
	shrq	$3, %rcx
	addq	$2147450880, %rcx
	movzbl	(%rcx), %ecx
	testb	%cl, %cl
	je	.L30
	movq	%rdx, %rdi
	call	__asan_report_store8@PLT
.L30:
	movq	%rsi, (%rax)
.L26:
	.loc 5 96 15
	movq	-8(%rbp), %rax
	.loc 5 97 5
	leave
	.cfi_def_cfa 7, 8
	ret
	.cfi_endproc
.LFE2039:
	.size	_ZNSt14_Bit_referenceaSEb, .-_ZNSt14_Bit_referenceaSEb
	.section	.text._ZNSt18_Bit_iterator_baseC2EPmj,"axG",@progbits,_ZNSt18_Bit_iterator_baseC5EPmj,comdat
	.align 2
	.weak	_ZNSt18_Bit_iterator_baseC2EPmj
	.type	_ZNSt18_Bit_iterator_baseC2EPmj, @function
_ZNSt18_Bit_iterator_baseC2EPmj:
.LASANPC2048:
.LFB2048:
	.loc 5 148 5
	.cfi_startproc
	endbr64
	pushq	%rbp
	.cfi_def_cfa_offset 16
	.cfi_offset 6, -16
	movq	%rsp, %rbp
	.cfi_def_cfa_register 6
	subq	$32, %rsp
	movq	%rdi, -8(%rbp)
	movq	%rsi, -16(%rbp)
	movl	%edx, -20(%rbp)
.LBB7:
	.loc 5 149 31
	movq	-8(%rbp), %rax
	movq	%rax, %rdx
	shrq	$3, %rdx
	addq	$2147450880, %rdx
	movzbl	(%rdx), %edx
	testb	%dl, %dl
	je	.L33
	movq	%rax, %rdi
	call	__asan_report_store8@PLT
.L33:
	movq	-8(%rbp), %rax
	movq	-16(%rbp), %rdx
	movq	%rdx, (%rax)
	movq	-8(%rbp), %rax
	addq	$8, %rax
	movq	%rax, %rdx
	movq	%rdx, %rax
	shrq	$3, %rax
	addq	$2147450880, %rax
	movzbl	(%rax), %eax
	testb	%al, %al
	setne	%cl
	cmpb	$3, %al
	setle	%al
	andl	%ecx, %eax
	testb	%al, %al
	je	.L34
	movq	%rdx, %rdi
	call	__asan_report_store4@PLT
.L34:
	movq	-8(%rbp), %rax
	movl	-20(%rbp), %edx
	movl	%edx, 8(%rax)
.LBE7:
	.loc 5 149 35
	nop
	leave
	.cfi_def_cfa 7, 8
	ret
	.cfi_endproc
.LFE2048:
	.size	_ZNSt18_Bit_iterator_baseC2EPmj, .-_ZNSt18_Bit_iterator_baseC2EPmj
	.weak	_ZNSt18_Bit_iterator_baseC1EPmj
	.set	_ZNSt18_Bit_iterator_baseC1EPmj,_ZNSt18_Bit_iterator_baseC2EPmj
	.section	.text._ZNSt18_Bit_iterator_base10_M_bump_upEv,"axG",@progbits,_ZNSt18_Bit_iterator_base10_M_bump_upEv,comdat
	.align 2
	.weak	_ZNSt18_Bit_iterator_base10_M_bump_upEv
	.type	_ZNSt18_Bit_iterator_base10_M_bump_upEv, @function
_ZNSt18_Bit_iterator_base10_M_bump_upEv:
.LASANPC2050:
.LFB2050:
	.loc 5 152 5
	.cfi_startproc
	endbr64
	pushq	%rbp
	.cfi_def_cfa_offset 16
	.cfi_offset 6, -16
	movq	%rsp, %rbp
	.cfi_def_cfa_register 6
	subq	$16, %rsp
	movq	%rdi, -8(%rbp)
	.loc 5 154 11
	movq	-8(%rbp), %rax
	addq	$8, %rax
	movq	%rax, %rdx
	movq	%rdx, %rax
	shrq	$3, %rax
	addq	$2147450880, %rax
	movzbl	(%rax), %eax
	testb	%al, %al
	setne	%cl
	cmpb	$3, %al
	setle	%al
	andl	%ecx, %eax
	testb	%al, %al
	je	.L36
	movq	%rdx, %rdi
	call	__asan_report_load4@PLT
.L36:
	movq	-8(%rbp), %rax
	movl	8(%rax), %eax
	.loc 5 154 20
	leal	1(%rax), %ecx
	movq	-8(%rbp), %rdx
	movl	%ecx, 8(%rdx)
	.loc 5 154 23
	cmpl	$63, %eax
	sete	%al
	.loc 5 154 7
	testb	%al, %al
	je	.L39
	.loc 5 156 14
	movq	-8(%rbp), %rax
	movl	$0, 8(%rax)
	.loc 5 157 6
	movq	-8(%rbp), %rax
	movq	%rax, %rdx
	shrq	$3, %rdx
	addq	$2147450880, %rdx
	movzbl	(%rdx), %edx
	testb	%dl, %dl
	je	.L38
	movq	%rax, %rdi
	call	__asan_report_load8@PLT
.L38:
	movq	-8(%rbp), %rax
	movq	(%rax), %rax
	.loc 5 157 4
	leaq	8(%rax), %rdx
	movq	-8(%rbp), %rax
	movq	%rdx, (%rax)
.L39:
	.loc 5 159 5
	nop
	leave
	.cfi_def_cfa 7, 8
	ret
	.cfi_endproc
.LFE2050:
	.size	_ZNSt18_Bit_iterator_base10_M_bump_upEv, .-_ZNSt18_Bit_iterator_base10_M_bump_upEv
	.section	.text._ZNSt18_Bit_iterator_base7_M_incrEl,"axG",@progbits,_ZNSt18_Bit_iterator_base7_M_incrEl,comdat
	.align 2
	.weak	_ZNSt18_Bit_iterator_base7_M_incrEl
	.type	_ZNSt18_Bit_iterator_base7_M_incrEl, @function
_ZNSt18_Bit_iterator_base7_M_incrEl:
.LASANPC2052:
.LFB2052:
	.loc 5 172 5
	.cfi_startproc
	endbr64
	pushq	%rbp
	.cfi_def_cfa_offset 16
	.cfi_offset 6, -16
	movq	%rsp, %rbp
	.cfi_def_cfa_register 6
	subq	$32, %rsp
	movq	%rdi, -24(%rbp)
	movq	%rsi, -32(%rbp)
	.loc 5 174 35
	movq	-24(%rbp), %rax
	addq	$8, %rax
	movq	%rax, %rdx
	movq	%rdx, %rax
	shrq	$3, %rax
	addq	$2147450880, %rax
	movzbl	(%rax), %eax
	testb	%al, %al
	setne	%cl
	cmpb	$3, %al
	setle	%al
	andl	%ecx, %eax
	testb	%al, %al
	je	.L41
	movq	%rdx, %rdi
	call	__asan_report_load4@PLT
.L41:
	movq	-24(%rbp), %rax
	movl	8(%rax), %eax
	movl	%eax, %edx
	.loc 5 174 23
	movq	-32(%rbp), %rax
	addq	%rdx, %rax
	movq	%rax, -8(%rbp)
	.loc 5 175 12
	movq	-24(%rbp), %rax
	movq	%rax, %rdx
	shrq	$3, %rdx
	addq	$2147450880, %rdx
	movzbl	(%rdx), %edx
	testb	%dl, %dl
	je	.L42
	movq	%rax, %rdi
	call	__asan_report_load8@PLT
.L42:
	movq	-24(%rbp), %rax
	movq	(%rax), %rdx
	.loc 5 175 19
	movq	-8(%rbp), %rax
	leaq	63(%rax), %rcx
	testq	%rax, %rax
	cmovs	%rcx, %rax
	sarq	$6, %rax
	.loc 5 175 12
	salq	$3, %rax
	addq	%rax, %rdx
	movq	-24(%rbp), %rax
	movq	%rdx, (%rax)
	.loc 5 176 11
	movq	-8(%rbp), %rax
	cqto
	shrq	$58, %rdx
	addq	%rdx, %rax
	andl	$63, %eax
	subq	%rdx, %rax
	movq	%rax, -8(%rbp)
	.loc 5 177 7
	cmpq	$0, -8(%rbp)
	jns	.L43
	.loc 5 179 8
	addq	$64, -8(%rbp)
	.loc 5 180 6
	movq	-24(%rbp), %rax
	movq	(%rax), %rax
	.loc 5 180 4
	leaq	-8(%rax), %rdx
	movq	-24(%rbp), %rax
	movq	%rdx, (%rax)
.L43:
	.loc 5 182 17
	movq	-8(%rbp), %rax
	movl	%eax, %esi
	movq	-24(%rbp), %rax
	addq	$8, %rax
	movq	%rax, %rdx
	movq	%rdx, %rax
	shrq	$3, %rax
	addq	$2147450880, %rax
	movzbl	(%rax), %eax
	testb	%al, %al
	setne	%cl
	cmpb	$3, %al
	setle	%al
	andl	%ecx, %eax
	testb	%al, %al
	je	.L44
	movq	%rdx, %rdi
	call	__asan_report_store4@PLT
.L44:
	movq	-24(%rbp), %rax
	movl	%esi, 8(%rax)
	.loc 5 183 5
	nop
	leave
	.cfi_def_cfa 7, 8
	ret
	.cfi_endproc
.LFE2052:
	.size	_ZNSt18_Bit_iterator_base7_M_incrEl, .-_ZNSt18_Bit_iterator_base7_M_incrEl
	.section	.text._ZStmiRKSt18_Bit_iterator_baseS1_,"axG",@progbits,_ZStmiRKSt18_Bit_iterator_baseS1_,comdat
	.weak	_ZStmiRKSt18_Bit_iterator_baseS1_
	.type	_ZStmiRKSt18_Bit_iterator_baseS1_, @function
_ZStmiRKSt18_Bit_iterator_baseS1_:
.LASANPC2059:
.LFB2059:
	.loc 5 215 3
	.cfi_startproc
	endbr64
	pushq	%rbp
	.cfi_def_cfa_offset 16
	.cfi_offset 6, -16
	movq	%rsp, %rbp
	.cfi_def_cfa_register 6
	subq	$16, %rsp
	movq	%rdi, -8(%rbp)
	movq	%rsi, -16(%rbp)
	.loc 5 216 37
	movq	-8(%rbp), %rax
	movq	%rax, %rdx
	shrq	$3, %rdx
	addq	$2147450880, %rdx
	movzbl	(%rdx), %edx
	testb	%dl, %dl
	je	.L46
	movq	%rax, %rdi
	call	__asan_report_load8@PLT
.L46:
	movq	-8(%rbp), %rax
	movq	(%rax), %rcx
	.loc 5 216 48
	movq	-16(%rbp), %rax
	movq	%rax, %rdx
	shrq	$3, %rdx
	addq	$2147450880, %rdx
	movzbl	(%rdx), %edx
	testb	%dl, %dl
	je	.L47
	movq	%rax, %rdi
	call	__asan_report_load8@PLT
.L47:
	movq	-16(%rbp), %rax
	movq	(%rax), %rax
	.loc 5 216 42
	subq	%rax, %rcx
	movq	%rcx, %rax
	.loc 5 217 6
	leaq	0(,%rax,8), %rcx
	.loc 5 217 12
	movq	-8(%rbp), %rax
	addq	$8, %rax
	movq	%rax, %rdx
	movq	%rdx, %rax
	shrq	$3, %rax
	addq	$2147450880, %rax
	movzbl	(%rax), %eax
	testb	%al, %al
	setne	%sil
	cmpb	$3, %al
	setle	%al
	andl	%esi, %eax
	testb	%al, %al
	je	.L48
	movq	%rdx, %rdi
	call	__asan_report_load4@PLT
.L48:
	movq	-8(%rbp), %rax
	movl	8(%rax), %eax
	movl	%eax, %eax
	.loc 5 217 6
	addq	%rax, %rcx
	.loc 5 217 28
	movq	-16(%rbp), %rax
	addq	$8, %rax
	movq	%rax, %rdx
	movq	%rdx, %rax
	shrq	$3, %rax
	addq	$2147450880, %rax
	movzbl	(%rax), %eax
	testb	%al, %al
	setne	%sil
	cmpb	$3, %al
	setle	%al
	andl	%esi, %eax
	testb	%al, %al
	je	.L49
	movq	%rdx, %rdi
	call	__asan_report_load4@PLT
.L49:
	movq	-16(%rbp), %rax
	movl	8(%rax), %eax
	movl	%eax, %eax
	.loc 5 217 37
	subq	%rax, %rcx
	movq	%rcx, %rax
	.loc 5 218 3
	leave
	.cfi_def_cfa 7, 8
	ret
	.cfi_endproc
.LFE2059:
	.size	_ZStmiRKSt18_Bit_iterator_baseS1_, .-_ZStmiRKSt18_Bit_iterator_baseS1_
	.section	.text._ZNSt13_Bit_iteratorC2Ev,"axG",@progbits,_ZNSt13_Bit_iteratorC5Ev,comdat
	.align 2
	.weak	_ZNSt13_Bit_iteratorC2Ev
	.type	_ZNSt13_Bit_iteratorC2Ev, @function
_ZNSt13_Bit_iteratorC2Ev:
.LASANPC2061:
.LFB2061:
	.loc 5 226 5
	.cfi_startproc
	endbr64
	pushq	%rbp
	.cfi_def_cfa_offset 16
	.cfi_offset 6, -16
	movq	%rsp, %rbp
	.cfi_def_cfa_register 6
	subq	$16, %rsp
	movq	%rdi, -8(%rbp)
.LBB8:
	.loc 5 226 46
	movq	-8(%rbp), %rax
	movl	$0, %edx
	movl	$0, %esi
	movq	%rax, %rdi
	call	_ZNSt18_Bit_iterator_baseC2EPmj
.LBE8:
	.loc 5 226 50
	nop
	leave
	.cfi_def_cfa 7, 8
	ret
	.cfi_endproc
.LFE2061:
	.size	_ZNSt13_Bit_iteratorC2Ev, .-_ZNSt13_Bit_iteratorC2Ev
	.weak	_ZNSt13_Bit_iteratorC1Ev
	.set	_ZNSt13_Bit_iteratorC1Ev,_ZNSt13_Bit_iteratorC2Ev
	.section	.text._ZNSt13_Bit_iteratorC2EPmj,"axG",@progbits,_ZNSt13_Bit_iteratorC5EPmj,comdat
	.align 2
	.weak	_ZNSt13_Bit_iteratorC2EPmj
	.type	_ZNSt13_Bit_iteratorC2EPmj, @function
_ZNSt13_Bit_iteratorC2EPmj:
.LASANPC2064:
.LFB2064:
	.loc 5 228 5
	.cfi_startproc
	endbr64
	pushq	%rbp
	.cfi_def_cfa_offset 16
	.cfi_offset 6, -16
	movq	%rsp, %rbp
	.cfi_def_cfa_register 6
	subq	$32, %rsp
	movq	%rdi, -8(%rbp)
	movq	%rsi, -16(%rbp)
	movl	%edx, -20(%rbp)
.LBB9:
	.loc 5 229 34
	movq	-8(%rbp), %rax
	movl	-20(%rbp), %edx
	movq	-16(%rbp), %rcx
	movq	%rcx, %rsi
	movq	%rax, %rdi
	call	_ZNSt18_Bit_iterator_baseC2EPmj
.LBE9:
	.loc 5 229 38
	nop
	leave
	.cfi_def_cfa 7, 8
	ret
	.cfi_endproc
.LFE2064:
	.size	_ZNSt13_Bit_iteratorC2EPmj, .-_ZNSt13_Bit_iteratorC2EPmj
	.weak	_ZNSt13_Bit_iteratorC1EPmj
	.set	_ZNSt13_Bit_iteratorC1EPmj,_ZNSt13_Bit_iteratorC2EPmj
	.globl	__asan_stack_malloc_0
	.section	.rodata
.LC0:
	.string	"1 32 16 9 <unknown>"
	.section	.text._ZNKSt13_Bit_iteratordeEv,"axG",@progbits,_ZNKSt13_Bit_iteratordeEv,comdat
	.align 2
	.weak	_ZNKSt13_Bit_iteratordeEv
	.type	_ZNKSt13_Bit_iteratordeEv, @function
_ZNKSt13_Bit_iteratordeEv:
.LASANPC2067:
.LFB2067:
	.loc 5 236 5
	.cfi_startproc
	endbr64
	pushq	%rbp
	.cfi_def_cfa_offset 16
	.cfi_offset 6, -16
	movq	%rsp, %rbp
	.cfi_def_cfa_register 6
	pushq	%r14
	pushq	%r13
	pushq	%r12
	pushq	%rbx
	subq	$112, %rsp
	.cfi_offset 14, -24
	.cfi_offset 13, -32
	.cfi_offset 12, -40
	.cfi_offset 3, -48
	movq	%rdi, -136(%rbp)
	leaq	-128(%rbp), %rbx
	movq	%rbx, %r14
	cmpl	$0, __asan_option_detect_stack_use_after_return(%rip)
	je	.L53
	movl	$64, %edi
	call	__asan_stack_malloc_0@PLT
.LVL0:
	testq	%rax, %rax
	je	.L53
	movq	%rax, %rbx
.L53:
	leaq	96(%rbx), %rax
	movq	%rax, %r13
	movq	$1102416563, (%rbx)
	leaq	.LC0(%rip), %rax
	movq	%rax, 8(%rbx)
	leaq	.LASANPC2067(%rip), %rax
	movq	%rax, 16(%rbx)
	movq	%rbx, %r12
	shrq	$3, %r12
	movl	$-235802127, 2147450880(%r12)
	movl	$-202178560, 2147450884(%r12)
	.loc 5 236 5
	movq	%fs:40, %rax
	movq	%rax, -40(%rbp)
	xorl	%eax, %eax
	.loc 5 237 37
	movq	-136(%rbp), %rax
	addq	$8, %rax
	movq	%rax, %rdx
	movq	%rdx, %rax
	shrq	$3, %rax
	addq	$2147450880, %rax
	movzbl	(%rax), %eax
	testb	%al, %al
	setne	%cl
	cmpb	$3, %al
	setle	%al
	andl	%ecx, %eax
	testb	%al, %al
	je	.L57
	movq	%rdx, %rdi
	call	__asan_report_load4@PLT
.L57:
	movq	-136(%rbp), %rax
	movl	8(%rax), %eax
	.loc 5 237 14
	movl	$1, %edx
	movl	%eax, %ecx
	salq	%cl, %rdx
	.loc 5 237 24
	movq	-136(%rbp), %rax
	movq	%rax, %rcx
	shrq	$3, %rcx
	addq	$2147450880, %rcx
	movzbl	(%rcx), %ecx
	testb	%cl, %cl
	je	.L58
	movq	%rax, %rdi
	call	__asan_report_load8@PLT
.L58:
	movq	-136(%rbp), %rax
	movq	(%rax), %rcx
	.loc 5 237 14
	leaq	-64(%r13), %rax
	movq	%rcx, %rsi
	movq	%rax, %rdi
	call	_ZNSt14_Bit_referenceC1EPmm
	.loc 5 237 46
	leaq	-64(%r13), %rax
	movq	%rax, %rdx
	shrq	$3, %rdx
	addq	$2147450880, %rdx
	movzwl	(%rdx), %edx
	testw	%dx, %dx
	je	.L59
	movq	%rax, %rdi
	call	__asan_report_load16@PLT
.L59:
	movq	-64(%r13), %rax
	movq	-56(%r13), %rdx
	.loc 5 236 5
	cmpq	%rbx, %r14
	je	.L54
	movq	$1172321806, (%rbx)
	movabsq	$-723401728380766731, %rsi
	movq	%rsi, 2147450880(%r12)
	movq	56(%rbx), %rcx
	movb	$0, (%rcx)
	jmp	.L55
.L54:
	movq	$0, 2147450880(%r12)
.L55:
	.loc 5 237 49
	movq	-40(%rbp), %rsi
	xorq	%fs:40, %rsi
	je	.L61
	call	__stack_chk_fail@PLT
.L61:
	addq	$112, %rsp
	popq	%rbx
	popq	%r12
	popq	%r13
	popq	%r14
	popq	%rbp
	.cfi_def_cfa 7, 8
	ret
	.cfi_endproc
.LFE2067:
	.size	_ZNKSt13_Bit_iteratordeEv, .-_ZNKSt13_Bit_iteratordeEv
	.section	.text._ZNSt13_Bit_iteratorppEv,"axG",@progbits,_ZNSt13_Bit_iteratorppEv,comdat
	.align 2
	.weak	_ZNSt13_Bit_iteratorppEv
	.type	_ZNSt13_Bit_iteratorppEv, @function
_ZNSt13_Bit_iteratorppEv:
.LASANPC2068:
.LFB2068:
	.loc 5 240 5
	.cfi_startproc
	endbr64
	pushq	%rbp
	.cfi_def_cfa_offset 16
	.cfi_offset 6, -16
	movq	%rsp, %rbp
	.cfi_def_cfa_register 6
	subq	$16, %rsp
	movq	%rdi, -8(%rbp)
	.loc 5 242 17
	movq	-8(%rbp), %rax
	movq	%rax, %rdi
	call	_ZNSt18_Bit_iterator_base10_M_bump_upEv
	.loc 5 243 15
	movq	-8(%rbp), %rax
	.loc 5 244 5
	leave
	.cfi_def_cfa 7, 8
	ret
	.cfi_endproc
.LFE2068:
	.size	_ZNSt13_Bit_iteratorppEv, .-_ZNSt13_Bit_iteratorppEv
	.section	.text._ZNSt13_Bit_iteratorpLEl,"axG",@progbits,_ZNSt13_Bit_iteratorpLEl,comdat
	.align 2
	.weak	_ZNSt13_Bit_iteratorpLEl
	.type	_ZNSt13_Bit_iteratorpLEl, @function
_ZNSt13_Bit_iteratorpLEl:
.LASANPC2072:
.LFB2072:
	.loc 5 270 5
	.cfi_startproc
	endbr64
	pushq	%rbp
	.cfi_def_cfa_offset 16
	.cfi_offset 6, -16
	movq	%rsp, %rbp
	.cfi_def_cfa_register 6
	subq	$16, %rsp
	movq	%rdi, -8(%rbp)
	movq	%rsi, -16(%rbp)
	.loc 5 272 14
	movq	-8(%rbp), %rax
	movq	-16(%rbp), %rdx
	movq	%rdx, %rsi
	movq	%rax, %rdi
	call	_ZNSt18_Bit_iterator_base7_M_incrEl
	.loc 5 273 15
	movq	-8(%rbp), %rax
	.loc 5 274 5
	leave
	.cfi_def_cfa 7, 8
	ret
	.cfi_endproc
.LFE2072:
	.size	_ZNSt13_Bit_iteratorpLEl, .-_ZNSt13_Bit_iteratorpLEl
	.section	.rodata
.LC1:
	.string	"1 32 16 9 __tmp:286"
	.section	.text._ZNKSt13_Bit_iteratorplEl,"axG",@progbits,_ZNKSt13_Bit_iteratorplEl,comdat
	.align 2
	.weak	_ZNKSt13_Bit_iteratorplEl
	.type	_ZNKSt13_Bit_iteratorplEl, @function
_ZNKSt13_Bit_iteratorplEl:
.LASANPC2074:
.LFB2074:
	.loc 5 284 5
	.cfi_startproc
	endbr64
	pushq	%rbp
	.cfi_def_cfa_offset 16
	.cfi_offset 6, -16
	movq	%rsp, %rbp
	.cfi_def_cfa_register 6
	pushq	%r13
	pushq	%r12
	pushq	%rbx
	subq	$152, %rsp
	.cfi_offset 13, -24
	.cfi_offset 12, -32
	.cfi_offset 3, -40
	movq	%rdi, -152(%rbp)
	movq	%rsi, -160(%rbp)
	leaq	-128(%rbp), %rbx
	movq	%rbx, %r13
	cmpl	$0, __asan_option_detect_stack_use_after_return(%rip)
	je	.L66
	movl	$64, %edi
	call	__asan_stack_malloc_0@PLT
.LVL1:
	testq	%rax, %rax
	je	.L66
	movq	%rax, %rbx
.L66:
	leaq	96(%rbx), %rax
	movq	$1102416563, (%rbx)
	leaq	.LC1(%rip), %rdx
	movq	%rdx, 8(%rbx)
	leaq	.LASANPC2074(%rip), %rdx
	movq	%rdx, 16(%rbx)
	movq	%rbx, %r12
	shrq	$3, %r12
	movl	$-235802127, 2147450880(%r12)
	movl	$-202178560, 2147450884(%r12)
	.loc 5 284 5
	movq	%fs:40, %rsi
	movq	%rsi, -40(%rbp)
	xorl	%esi, %esi
	.loc 5 286 16
	leaq	-64(%rax), %rdx
	movq	%rdx, %rcx
	shrq	$3, %rcx
	addq	$2147450880, %rcx
	movzwl	(%rcx), %ecx
	testw	%cx, %cx
	je	.L70
	movq	%rdx, %rdi
	call	__asan_report_store16@PLT
.L70:
	movq	-152(%rbp), %rdx
	movq	%rdx, %rcx
	shrq	$3, %rcx
	addq	$2147450880, %rcx
	movzwl	(%rcx), %ecx
	testw	%cx, %cx
	je	.L71
	movq	%rdx, %rdi
	call	__asan_report_load16@PLT
.L71:
	movq	-152(%rbp), %rdx
	movq	(%rdx), %rsi
	movq	8(%rdx), %rdi
	movq	%rsi, -64(%rax)
	movq	%rdi, -56(%rax)
	.loc 5 287 23
	movq	-160(%rbp), %rdx
	subq	$64, %rax
	movq	%rdx, %rsi
	movq	%rax, %rdi
	call	_ZNSt13_Bit_iteratorpLEl
	movq	%rax, %rdx
	movq	%rdx, %rcx
	shrq	$3, %rcx
	addq	$2147450880, %rcx
	movzwl	(%rcx), %ecx
	testw	%cx, %cx
	je	.L72
	movq	%rdx, %rdi
	call	__asan_report_load16@PLT
.L72:
	movq	8(%rax), %rdx
	movq	(%rax), %rax
	movq	%rax, -144(%rbp)
	movq	%rdx, -136(%rbp)
	movq	-144(%rbp), %rax
	movq	-136(%rbp), %rdx
	.loc 5 284 5
	cmpq	%rbx, %r13
	je	.L67
	movq	$1172321806, (%rbx)
	movabsq	$-723401728380766731, %rsi
	movq	%rsi, 2147450880(%r12)
	movq	56(%rbx), %rcx
	movb	$0, (%rcx)
	jmp	.L68
.L67:
	movq	$0, 2147450880(%r12)
.L68:
	.loc 5 288 5
	movq	-40(%rbp), %rdi
	xorq	%fs:40, %rdi
	je	.L74
	call	__stack_chk_fail@PLT
.L74:
	addq	$152, %rsp
	popq	%rbx
	popq	%r12
	popq	%r13
	popq	%rbp
	.cfi_def_cfa 7, 8
	ret
	.cfi_endproc
.LFE2074:
	.size	_ZNKSt13_Bit_iteratorplEl, .-_ZNKSt13_Bit_iteratorplEl
	.section	.text._ZNSt19_Bit_const_iteratorC2EPmj,"axG",@progbits,_ZNSt19_Bit_const_iteratorC5EPmj,comdat
	.align 2
	.weak	_ZNSt19_Bit_const_iteratorC2EPmj
	.type	_ZNSt19_Bit_const_iteratorC2EPmj, @function
_ZNSt19_Bit_const_iteratorC2EPmj:
.LASANPC2082:
.LFB2082:
	.loc 5 315 5
	.cfi_startproc
	endbr64
	pushq	%rbp
	.cfi_def_cfa_offset 16
	.cfi_offset 6, -16
	movq	%rsp, %rbp
	.cfi_def_cfa_register 6
	subq	$32, %rsp
	movq	%rdi, -8(%rbp)
	movq	%rsi, -16(%rbp)
	movl	%edx, -20(%rbp)
.LBB10:
	.loc 5 316 34
	movq	-8(%rbp), %rax
	movl	-20(%rbp), %edx
	movq	-16(%rbp), %rcx
	movq	%rcx, %rsi
	movq	%rax, %rdi
	call	_ZNSt18_Bit_iterator_baseC2EPmj
.LBE10:
	.loc 5 316 38
	nop
	leave
	.cfi_def_cfa 7, 8
	ret
	.cfi_endproc
.LFE2082:
	.size	_ZNSt19_Bit_const_iteratorC2EPmj, .-_ZNSt19_Bit_const_iteratorC2EPmj
	.weak	_ZNSt19_Bit_const_iteratorC1EPmj
	.set	_ZNSt19_Bit_const_iteratorC1EPmj,_ZNSt19_Bit_const_iteratorC2EPmj
	.section	.text._ZNSt19_Bit_const_iteratorC2ERKSt13_Bit_iterator,"axG",@progbits,_ZNSt19_Bit_const_iteratorC5ERKSt13_Bit_iterator,comdat
	.align 2
	.weak	_ZNSt19_Bit_const_iteratorC2ERKSt13_Bit_iterator
	.type	_ZNSt19_Bit_const_iteratorC2ERKSt13_Bit_iterator, @function
_ZNSt19_Bit_const_iteratorC2ERKSt13_Bit_iterator:
.LASANPC2085:
.LFB2085:
	.loc 5 318 5
	.cfi_startproc
	endbr64
	pushq	%rbp
	.cfi_def_cfa_offset 16
	.cfi_offset 6, -16
	movq	%rsp, %rbp
	.cfi_def_cfa_register 6
	subq	$16, %rsp
	movq	%rdi, -8(%rbp)
	movq	%rsi, -16(%rbp)
.LBB11:
	.loc 5 319 49
	movq	-8(%rbp), %rcx
	.loc 5 319 40
	movq	-16(%rbp), %rax
	addq	$8, %rax
	movq	%rax, %rdx
	movq	%rdx, %rax
	shrq	$3, %rax
	addq	$2147450880, %rax
	movzbl	(%rax), %eax
	testb	%al, %al
	setne	%sil
	cmpb	$3, %al
	setle	%al
	andl	%esi, %eax
	testb	%al, %al
	je	.L77
	movq	%rdx, %rdi
	call	__asan_report_load4@PLT
.L77:
	movq	-16(%rbp), %rax
	movl	8(%rax), %edx
	.loc 5 319 30
	movq	-16(%rbp), %rax
	movq	%rax, %rsi
	shrq	$3, %rsi
	addq	$2147450880, %rsi
	movzbl	(%rsi), %esi
	testb	%sil, %sil
	je	.L78
	movq	%rax, %rdi
	call	__asan_report_load8@PLT
.L78:
	movq	-16(%rbp), %rax
	movq	(%rax), %rax
	.loc 5 319 49
	movq	%rax, %rsi
	movq	%rcx, %rdi
	call	_ZNSt18_Bit_iterator_baseC2EPmj
.LBE11:
	.loc 5 319 53
	nop
	leave
	.cfi_def_cfa 7, 8
	ret
	.cfi_endproc
.LFE2085:
	.size	_ZNSt19_Bit_const_iteratorC2ERKSt13_Bit_iterator, .-_ZNSt19_Bit_const_iteratorC2ERKSt13_Bit_iterator
	.weak	_ZNSt19_Bit_const_iteratorC1ERKSt13_Bit_iterator
	.set	_ZNSt19_Bit_const_iteratorC1ERKSt13_Bit_iterator,_ZNSt19_Bit_const_iteratorC2ERKSt13_Bit_iterator
	.section	.text._ZNKSt19_Bit_const_iteratordeEv,"axG",@progbits,_ZNKSt19_Bit_const_iteratordeEv,comdat
	.align 2
	.weak	_ZNKSt19_Bit_const_iteratordeEv
	.type	_ZNKSt19_Bit_const_iteratordeEv, @function
_ZNKSt19_Bit_const_iteratordeEv:
.LASANPC2088:
.LFB2088:
	.loc 5 326 5
	.cfi_startproc
	endbr64
	pushq	%rbp
	.cfi_def_cfa_offset 16
	.cfi_offset 6, -16
	movq	%rsp, %rbp
	.cfi_def_cfa_register 6
	pushq	%r14
	pushq	%r13
	pushq	%r12
	pushq	%rbx
	subq	$112, %rsp
	.cfi_offset 14, -24
	.cfi_offset 13, -32
	.cfi_offset 12, -40
	.cfi_offset 3, -48
	movq	%rdi, -136(%rbp)
	leaq	-128(%rbp), %rbx
	movq	%rbx, %r14
	cmpl	$0, __asan_option_detect_stack_use_after_return(%rip)
	je	.L79
	movl	$64, %edi
	call	__asan_stack_malloc_0@PLT
.LVL2:
	testq	%rax, %rax
	je	.L79
	movq	%rax, %rbx
.L79:
	leaq	96(%rbx), %rax
	movq	%rax, %r13
	movq	$1102416563, (%rbx)
	leaq	.LC0(%rip), %rax
	movq	%rax, 8(%rbx)
	leaq	.LASANPC2088(%rip), %rax
	movq	%rax, 16(%rbx)
	movq	%rbx, %r12
	shrq	$3, %r12
	movl	$-235802127, 2147450880(%r12)
	movl	$-202178560, 2147450884(%r12)
	.loc 5 326 5
	movq	%fs:40, %rax
	movq	%rax, -40(%rbp)
	xorl	%eax, %eax
	.loc 5 327 42
	movq	-136(%rbp), %rax
	addq	$8, %rax
	movq	%rax, %rdx
	movq	%rdx, %rax
	shrq	$3, %rax
	addq	$2147450880, %rax
	movzbl	(%rax), %eax
	testb	%al, %al
	setne	%cl
	cmpb	$3, %al
	setle	%al
	andl	%ecx, %eax
	testb	%al, %al
	je	.L83
	movq	%rdx, %rdi
	call	__asan_report_load4@PLT
.L83:
	movq	-136(%rbp), %rax
	movl	8(%rax), %eax
	.loc 5 327 14
	movl	$1, %edx
	movl	%eax, %ecx
	salq	%cl, %rdx
	.loc 5 327 29
	movq	-136(%rbp), %rax
	movq	%rax, %rcx
	shrq	$3, %rcx
	addq	$2147450880, %rcx
	movzbl	(%rcx), %ecx
	testb	%cl, %cl
	je	.L84
	movq	%rax, %rdi
	call	__asan_report_load8@PLT
.L84:
	movq	-136(%rbp), %rax
	movq	(%rax), %rcx
	.loc 5 327 14
	leaq	-64(%r13), %rax
	movq	%rcx, %rsi
	movq	%rax, %rdi
	call	_ZNSt14_Bit_referenceC1EPmm
	.loc 5 327 51
	leaq	-64(%r13), %rax
	movq	%rax, %rdi
	call	_ZNKSt14_Bit_referencecvbEv
	movl	%eax, %edx
	.loc 5 326 5
	cmpq	%rbx, %r14
	je	.L80
	movq	$1172321806, (%rbx)
	movabsq	$-723401728380766731, %rax
	movq	%rax, 2147450880(%r12)
	movq	56(%rbx), %rax
	movb	$0, (%rax)
	jmp	.L81
.L80:
	movq	$0, 2147450880(%r12)
.L81:
	.loc 5 327 54
	movq	-40(%rbp), %rax
	xorq	%fs:40, %rax
	je	.L86
	call	__stack_chk_fail@PLT
.L86:
	movl	%edx, %eax
	addq	$112, %rsp
	popq	%rbx
	popq	%r12
	popq	%r13
	popq	%r14
	popq	%rbp
	.cfi_def_cfa 7, 8
	ret
	.cfi_endproc
.LFE2088:
	.size	_ZNKSt19_Bit_const_iteratordeEv, .-_ZNKSt19_Bit_const_iteratordeEv
	.section	.text._ZNSt19_Bit_const_iteratorppEv,"axG",@progbits,_ZNSt19_Bit_const_iteratorppEv,comdat
	.align 2
	.weak	_ZNSt19_Bit_const_iteratorppEv
	.type	_ZNSt19_Bit_const_iteratorppEv, @function
_ZNSt19_Bit_const_iteratorppEv:
.LASANPC2089:
.LFB2089:
	.loc 5 330 5
	.cfi_startproc
	endbr64
	pushq	%rbp
	.cfi_def_cfa_offset 16
	.cfi_offset 6, -16
	movq	%rsp, %rbp
	.cfi_def_cfa_register 6
	subq	$16, %rsp
	movq	%rdi, -8(%rbp)
	.loc 5 332 17
	movq	-8(%rbp), %rax
	movq	%rax, %rdi
	call	_ZNSt18_Bit_iterator_base10_M_bump_upEv
	.loc 5 333 15
	movq	-8(%rbp), %rax
	.loc 5 334 5
	leave
	.cfi_def_cfa 7, 8
	ret
	.cfi_endproc
.LFE2089:
	.size	_ZNSt19_Bit_const_iteratorppEv, .-_ZNSt19_Bit_const_iteratorppEv
	.section	.text._ZSt16__deque_buf_sizem,"axG",@progbits,_ZSt16__deque_buf_sizem,comdat
	.weak	_ZSt16__deque_buf_sizem
	.type	_ZSt16__deque_buf_sizem, @function
_ZSt16__deque_buf_sizem:
.LASANPC2273:
.LFB2273:
	.file 6 "/usr/include/c++/9/bits/stl_deque.h"
	.loc 6 94 3
	.cfi_startproc
	endbr64
	pushq	%rbp
	.cfi_def_cfa_offset 16
	.cfi_offset 6, -16
	movq	%rsp, %rbp
	.cfi_def_cfa_register 6
	movq	%rdi, -8(%rbp)
	.loc 6 95 6
	cmpq	$511, -8(%rbp)
	ja	.L90
	.loc 6 95 6 is_stmt 0 discriminator 1
	movl	$512, %eax
	movl	$0, %edx
	divq	-8(%rbp)
	.loc 6 95 40 is_stmt 1 discriminator 1
	jmp	.L92
.L90:
	.loc 6 95 6 discriminator 2
	movl	$1, %eax
.L92:
	.loc 6 95 43 discriminator 5
	popq	%rbp
	.cfi_def_cfa 7, 8
	ret
	.cfi_endproc
.LFE2273:
	.size	_ZSt16__deque_buf_sizem, .-_ZSt16__deque_buf_sizem
	.section	.text._ZSt3minImERKT_S2_S2_,"axG",@progbits,_ZSt3minImERKT_S2_S2_,comdat
	.weak	_ZSt3minImERKT_S2_S2_
	.type	_ZSt3minImERKT_S2_S2_, @function
_ZSt3minImERKT_S2_S2_:
.LASANPC3132:
.LFB3132:
	.loc 2 198 5
	.cfi_startproc
	endbr64
	pushq	%rbp
	.cfi_def_cfa_offset 16
	.cfi_offset 6, -16
	movq	%rsp, %rbp
	.cfi_def_cfa_register 6
	subq	$16, %rsp
	movq	%rdi, -8(%rbp)
	movq	%rsi, -16(%rbp)
	.loc 2 203 15
	movq	-16(%rbp), %rax
	movq	%rax, %rdx
	shrq	$3, %rdx
	addq	$2147450880, %rdx
	movzbl	(%rdx), %edx
	testb	%dl, %dl
	je	.L94
	movq	%rax, %rdi
	call	__asan_report_load8@PLT
.L94:
	movq	-16(%rbp), %rax
	movq	(%rax), %rcx
	movq	-8(%rbp), %rax
	movq	%rax, %rdx
	shrq	$3, %rdx
	addq	$2147450880, %rdx
	movzbl	(%rdx), %edx
	testb	%dl, %dl
	je	.L95
	movq	%rax, %rdi
	call	__asan_report_load8@PLT
.L95:
	movq	-8(%rbp), %rax
	movq	(%rax), %rax
	.loc 2 203 7
	cmpq	%rax, %rcx
	jnb	.L96
	.loc 2 204 9
	movq	-16(%rbp), %rax
	jmp	.L97
.L96:
	.loc 2 205 14
	movq	-8(%rbp), %rax
.L97:
	.loc 2 206 5
	leave
	.cfi_def_cfa 7, 8
	ret
	.cfi_endproc
.LFE3132:
	.size	_ZSt3minImERKT_S2_S2_, .-_ZSt3minImERKT_S2_S2_
	.section	.rodata
	.align 32
	.type	_ZN6__pstl9execution2v1L3seqE, @object
	.size	_ZN6__pstl9execution2v1L3seqE, 1
_ZN6__pstl9execution2v1L3seqE:
	.zero	1
	.zero	63
	.align 32
	.type	_ZN6__pstl9execution2v1L3parE, @object
	.size	_ZN6__pstl9execution2v1L3parE, 1
_ZN6__pstl9execution2v1L3parE:
	.zero	1
	.zero	63
	.align 32
	.type	_ZN6__pstl9execution2v1L9par_unseqE, @object
	.size	_ZN6__pstl9execution2v1L9par_unseqE, 1
_ZN6__pstl9execution2v1L9par_unseqE:
	.zero	1
	.zero	63
	.align 32
	.type	_ZN6__pstl9execution2v1L5unseqE, @object
	.size	_ZN6__pstl9execution2v1L5unseqE, 1
_ZN6__pstl9execution2v1L5unseqE:
	.zero	1
	.zero	63
	.section	.text._ZSt11setiosflagsSt13_Ios_Fmtflags,"axG",@progbits,_ZSt11setiosflagsSt13_Ios_Fmtflags,comdat
	.weak	_ZSt11setiosflagsSt13_Ios_Fmtflags
	.type	_ZSt11setiosflagsSt13_Ios_Fmtflags, @function
_ZSt11setiosflagsSt13_Ios_Fmtflags:
.LASANPC4046:
.LFB4046:
	.file 7 "/usr/include/c++/9/iomanip"
	.loc 7 97 3
	.cfi_startproc
	endbr64
	pushq	%rbp
	.cfi_def_cfa_offset 16
	.cfi_offset 6, -16
	movq	%rsp, %rbp
	.cfi_def_cfa_register 6
	movl	%edi, -4(%rbp)
	.loc 7 97 21
	movl	-4(%rbp), %eax
	.loc 7 97 24
	popq	%rbp
	.cfi_def_cfa 7, 8
	ret
	.cfi_endproc
.LFE4046:
	.size	_ZSt11setiosflagsSt13_Ios_Fmtflags, .-_ZSt11setiosflagsSt13_Ios_Fmtflags
	.section	.text._ZSt4setwi,"axG",@progbits,_ZSt4setwi,comdat
	.weak	_ZSt4setwi
	.type	_ZSt4setwi, @function
_ZSt4setwi:
.LASANPC4058:
.LFB4058:
	.loc 7 226 3
	.cfi_startproc
	endbr64
	pushq	%rbp
	.cfi_def_cfa_offset 16
	.cfi_offset 6, -16
	movq	%rsp, %rbp
	.cfi_def_cfa_register 6
	movl	%edi, -4(%rbp)
	.loc 7 226 18
	movl	-4(%rbp), %eax
	.loc 7 226 21
	popq	%rbp
	.cfi_def_cfa 7, 8
	ret
	.cfi_endproc
.LFE4058:
	.size	_ZSt4setwi, .-_ZSt4setwi
	.section	.text._ZN6MatrixIbED2Ev,"axG",@progbits,_ZN6MatrixIbED5Ev,comdat
	.align 2
	.weak	_ZN6MatrixIbED2Ev
	.type	_ZN6MatrixIbED2Ev, @function
_ZN6MatrixIbED2Ev:
.LASANPC4165:
.LFB4165:
	.file 8 "../src/Matrix.h"
	.loc 8 16 8
	.cfi_startproc
	endbr64
	pushq	%rbp
	.cfi_def_cfa_offset 16
	.cfi_offset 6, -16
	movq	%rsp, %rbp
	.cfi_def_cfa_register 6
	subq	$16, %rsp
	movq	%rdi, -8(%rbp)
.LBB12:
	.loc 8 16 8
	movq	-8(%rbp), %rax
	movq	%rax, %rdi
	call	_ZNSt6vectorIS_IbSaIbEESaIS1_EED1Ev
.LBE12:
	nop
	leave
	.cfi_def_cfa 7, 8
	ret
	.cfi_endproc
.LFE4165:
	.size	_ZN6MatrixIbED2Ev, .-_ZN6MatrixIbED2Ev
	.weak	_ZN6MatrixIbED1Ev
	.set	_ZN6MatrixIbED1Ev,_ZN6MatrixIbED2Ev
	.globl	__asan_stack_malloc_4
	.section	.rodata
	.align 8
.LC2:
	.string	"11 48 1 9 <unknown> 64 1 9 <unknown> 80 24 9 <unknown> 144 24 9 <unknown> 208 40 9 <unknown> 288 40 9 <unknown> 368 40 9 <unknown> 448 48 3 ALG 528 48 4 ALG2 608 32 9 <unknown> 672 32 9 <unknown>"
	.align 32
.LC3:
	.string	"(A,B,E)(B,A,F)(C,D,F,H)(D,C,H)(E,A,F,I)(F,B,E,G,J,C)(G,F,K)(H,C,D)(I,E,F)(J,F,K)(K,J,G,F,L)(L,K)"
	.zero	63
	.align 32
.LC4:
	.string	"(A,B,D)(B,C,F)(C,A,D,E)(D,E)(E)(F,C)(G,F,H)(H,F,J)(I,H)(J,I)"
	.zero	35
	.text
	.globl	main
	.type	main, @function
main:
.LASANPC4163:
.LFB4163:
	.file 9 "../mainALGraph.cpp"
	.loc 9 9 1
	.cfi_startproc
	.cfi_personality 0x9b,DW.ref.__gxx_personality_v0
	.cfi_lsda 0x1b,.LLSDA4163
	endbr64
	pushq	%rbp
	.cfi_def_cfa_offset 16
	.cfi_offset 6, -16
	movq	%rsp, %rbp
	.cfi_def_cfa_register 6
	pushq	%r15
	pushq	%r14
	pushq	%r13
	pushq	%r12
	pushq	%rbx
	subq	$792, %rsp
	.cfi_offset 15, -24
	.cfi_offset 14, -32
	.cfi_offset 13, -40
	.cfi_offset 12, -48
	.cfi_offset 3, -56
	leaq	-816(%rbp), %r13
	movq	%r13, %r15
	cmpl	$0, __asan_option_detect_stack_use_after_return(%rip)
	je	.L103
	movl	$736, %edi
	call	__asan_stack_malloc_4@PLT
.LVL3:
	testq	%rax, %rax
	je	.L103
	movq	%rax, %r13
.L103:
	leaq	768(%r13), %rax
	movq	%rax, %rbx
	movq	$1102416563, 0(%r13)
	leaq	.LC2(%rip), %rax
	movq	%rax, 8(%r13)
	leaq	.LASANPC4163(%rip), %rax
	movq	%rax, 16(%r13)
	movq	%r13, %r12
	shrq	$3, %r12
	movl	$-235802127, 2147450880(%r12)
	movl	$-234753551, 2147450884(%r12)
	movl	$61953, 2147450888(%r12)
	movl	$-218959360, 2147450892(%r12)
	movl	$62194, 2147450896(%r12)
	movl	$-218959360, 2147450900(%r12)
	movl	$62194, 2147450904(%r12)
	movl	$-234881024, 2147450908(%r12)
	movl	$-218959118, 2147450912(%r12)
	movl	$-218959360, 2147450920(%r12)
	movl	$62194, 2147450924(%r12)
	movl	$-234881024, 2147450928(%r12)
	movl	$-218959118, 2147450932(%r12)
	movl	$-219021312, 2147450940(%r12)
	movl	$62194, 2147450944(%r12)
	movl	$-218959118, 2147450952(%r12)
	movl	$-218959118, 2147450960(%r12)
	movl	$-202116109, 2147450968(%r12)
	.loc 9 9 1
	movq	%fs:40, %rax
	movq	%rax, -56(%rbp)
	xorl	%eax, %eax
	.loc 9 63 41
	leaq	-720(%rbx), %rax
	movq	%rax, %rdi
	call	_ZNSaIcEC1Ev@PLT
	leaq	-720(%rbx), %rdx
	leaq	-160(%rbx), %rax
	leaq	.LC3(%rip), %rsi
	movq	%rax, %rdi
.LEHB0:
	call	_ZNSt7__cxx1112basic_stringIcSt11char_traitsIcESaIcEEC1IS3_EEPKcRKS3_
.LEHE0:
	.loc 9 63 41 is_stmt 0 discriminator 1
	leaq	-688(%rbx), %rax
	movq	%rax, %rdx
	shrq	$3, %rdx
	addq	$2147450880, %rdx
	movzbl	(%rdx), %edx
	testb	%dl, %dl
	setne	%cl
	testb	%dl, %dl
	setle	%dl
	andl	%edx, %ecx
	movl	%ecx, %edi
	movl	$24, %edx
	subq	$1, %rdx
	leaq	(%rax,%rdx), %rcx
	movq	%rcx, %rdx
	shrq	$3, %rdx
	addq	$2147450880, %rdx
	movzbl	(%rdx), %edx
	testb	%dl, %dl
	setne	%sil
	andl	$7, %ecx
	cmpb	%dl, %cl
	setge	%dl
	andl	%esi, %edx
	orl	%edi, %edx
	testb	%dl, %dl
	je	.L107
	.loc 9 63 41
	movl	$24, %esi
	movq	%rax, %rdi
	call	__asan_report_store_n@PLT
.L107:
	.loc 9 63 41 discriminator 1
	leaq	-688(%rbx), %rax
	leaq	-160(%rbx), %rdx
	movq	%rdx, %rsi
	movq	%rax, %rdi
.LEHB1:
	call	_ZN7ALGraphIccE9getRelateERKNSt7__cxx1112basic_stringIcSt11char_traitsIcESaIcEEE
.LEHE1:
	.loc 9 63 153 is_stmt 1 discriminator 2
	leaq	-688(%rbx), %rcx
	leaq	-320(%rbx), %rax
	movl	$0, %edx
	movq	%rcx, %rsi
	movq	%rax, %rdi
.LEHB2:
	call	_ZN7ALGraphIccEC1ERKSt6vectorIS1_IcSaIcEESaIS3_EE6Direct
.LEHE2:
	leaq	-688(%rbx), %rax
	movq	%rax, %rdi
	call	_ZNSt6vectorIS_IcSaIcEESaIS1_EED1Ev
	.loc 9 63 41
	leaq	-688(%rbx), %rax
	shrq	$3, %rax
	addq	$2147450880, %rax
	movw	$-1800, (%rax)
	movb	$-8, 2(%rax)
	leaq	-160(%rbx), %rax
	movq	%rax, %rdi
	call	_ZNSt7__cxx1112basic_stringIcSt11char_traitsIcESaIcEED1Ev@PLT
	leaq	-160(%rbx), %rax
	shrq	$3, %rax
	addq	$2147450880, %rax
	movl	$-117901064, (%rax)
	leaq	-720(%rbx), %rax
	movq	%rax, %rdi
	call	_ZNSaIcED1Ev@PLT
	leaq	-720(%rbx), %rax
	shrq	$3, %rax
	addq	$2147450880, %rax
	movb	$-8, (%rax)
	.loc 9 64 10
	leaq	-560(%rbx), %rax
	shrq	$3, %rax
	addq	$2147450880, %rax
	movl	$0, (%rax)
	movb	$0, 4(%rax)
	.loc 9 64 31
	leaq	-560(%rbx), %rax
	movq	%rax, %rdx
	shrq	$3, %rdx
	addq	$2147450880, %rdx
	movzbl	(%rdx), %edx
	testb	%dl, %dl
	setne	%cl
	testb	%dl, %dl
	setle	%dl
	andl	%edx, %ecx
	movl	%ecx, %edi
	movl	$40, %edx
	subq	$1, %rdx
	leaq	(%rax,%rdx), %rcx
	movq	%rcx, %rdx
	shrq	$3, %rdx
	addq	$2147450880, %rdx
	movzbl	(%rdx), %edx
	testb	%dl, %dl
	setne	%sil
	andl	$7, %ecx
	cmpb	%dl, %cl
	setge	%dl
	andl	%esi, %edx
	orl	%edi, %edx
	testb	%dl, %dl
	je	.L108
	movl	$40, %esi
	movq	%rax, %rdi
	call	__asan_report_store_n@PLT
.L108:
	leaq	-560(%rbx), %rax
	leaq	-320(%rbx), %rdx
	movq	%rdx, %rsi
	movq	%rax, %rdi
.LEHB3:
	call	_ZN7ALGraphIccE14adjacentMatrixEv
.LEHE3:
	.loc 9 64 32 discriminator 1
	leaq	-560(%rbx), %rax
	movq	%rax, %rsi
	leaq	_ZSt4cout(%rip), %rdi
.LEHB4:
	call	_ZlsIbERSoS0_RK6MatrixIT_E
.LEHE4:
	.loc 9 64 31 discriminator 3
	leaq	-560(%rbx), %rax
	movq	%rax, %rdi
	call	_ZN6MatrixIbED1Ev
	leaq	-560(%rbx), %rax
	shrq	$3, %rax
	addq	$2147450880, %rax
	movl	$-117901064, (%rax)
	movb	$-8, 4(%rax)
	.loc 9 65 12 discriminator 3
	leaq	-320(%rbx), %rax
	movq	%rax, %rdi
.LEHB5:
	call	_ZN5GraphIccE3bccEv
	.loc 9 66 52
	leaq	-320(%rbx), %rax
	movq	%rax, %rdi
	call	_ZN5GraphIccE9getReveseI7ALGraphIccEEEPT_v
	movq	%rax, -824(%rbp)
	.loc 9 67 33
	leaq	-480(%rbx), %rax
	shrq	$3, %rax
	addq	$2147450880, %rax
	movl	$0, (%rax)
	movb	$0, 4(%rax)
	.loc 9 67 30
	leaq	-480(%rbx), %rax
	movq	%rax, %rdx
	shrq	$3, %rdx
	addq	$2147450880, %rdx
	movzbl	(%rdx), %edx
	testb	%dl, %dl
	setne	%cl
	testb	%dl, %dl
	setle	%dl
	andl	%edx, %ecx
	movl	%ecx, %edi
	movl	$40, %edx
	subq	$1, %rdx
	leaq	(%rax,%rdx), %rcx
	movq	%rcx, %rdx
	shrq	$3, %rdx
	addq	$2147450880, %rdx
	movzbl	(%rdx), %edx
	testb	%dl, %dl
	setne	%sil
	andl	$7, %ecx
	cmpb	%dl, %cl
	setge	%dl
	andl	%esi, %edx
	orl	%edi, %edx
	testb	%dl, %dl
	je	.L109
	movl	$40, %esi
	movq	%rax, %rdi
	call	__asan_report_store_n@PLT
.L109:
	.loc 9 67 30 is_stmt 0 discriminator 1
	leaq	-480(%rbx), %rax
	movq	-824(%rbp), %rdx
	movq	%rdx, %rsi
	movq	%rax, %rdi
	call	_ZN7ALGraphIccE14adjacentMatrixEv
.LEHE5:
	.loc 9 67 31 is_stmt 1 discriminator 1
	leaq	-480(%rbx), %rax
	movq	%rax, %rsi
	leaq	_ZSt4cout(%rip), %rdi
.LEHB6:
	call	_ZlsIbERSoS0_RK6MatrixIT_E
	movq	%rax, %rdx
	.loc 9 67 36 discriminator 1
	movq	_ZSt4endlIcSt11char_traitsIcEERSt13basic_ostreamIT_T0_ES6_@GOTPCREL(%rip), %rax
	movq	%rax, %rsi
	movq	%rdx, %rdi
	call	_ZNSolsEPFRSoS_E@PLT
.LEHE6:
	.loc 9 67 30 discriminator 5
	leaq	-480(%rbx), %rax
	movq	%rax, %rdi
	call	_ZN6MatrixIbED1Ev
	leaq	-480(%rbx), %rax
	shrq	$3, %rax
	addq	$2147450880, %rax
	movl	$-117901064, (%rax)
	movb	$-8, 4(%rax)
	.loc 9 68 12 discriminator 5
	movq	-824(%rbp), %r14
	.loc 9 68 13 discriminator 5
	testq	%r14, %r14
	je	.L110
	.loc 9 68 12 discriminator 1
	movq	%r14, %rdi
	call	_ZN7ALGraphIccED1Ev
	movl	$48, %esi
	movq	%r14, %rdi
	call	_ZdlPvm@PLT
.L110:
	.loc 9 69 13
	leaq	-240(%rbx), %rax
	shrq	$3, %rax
	addq	$2147450880, %rax
	movl	$0, (%rax)
	movw	$0, 4(%rax)
	.loc 9 69 106
	leaq	-624(%rbx), %rax
	shrq	$3, %rax
	addq	$2147450880, %rax
	movw	$0, (%rax)
	movb	$0, 2(%rax)
	.loc 9 69 42
	leaq	-96(%rbx), %rax
	shrq	$3, %rax
	addq	$2147450880, %rax
	movl	$0, (%rax)
	leaq	-704(%rbx), %rax
	shrq	$3, %rax
	addq	$2147450880, %rax
	movb	$1, (%rax)
	leaq	-704(%rbx), %rax
	movq	%rax, %rdi
	call	_ZNSaIcEC1Ev@PLT
	leaq	-704(%rbx), %rdx
	leaq	-96(%rbx), %rax
	leaq	.LC4(%rip), %rsi
	movq	%rax, %rdi
.LEHB7:
	call	_ZNSt7__cxx1112basic_stringIcSt11char_traitsIcESaIcEEC1IS3_EEPKcRKS3_
.LEHE7:
	.loc 9 69 42 is_stmt 0 discriminator 1
	leaq	-624(%rbx), %rax
	movq	%rax, %rdx
	shrq	$3, %rdx
	addq	$2147450880, %rdx
	movzbl	(%rdx), %edx
	testb	%dl, %dl
	setne	%cl
	testb	%dl, %dl
	setle	%dl
	andl	%edx, %ecx
	movl	%ecx, %edi
	movl	$24, %edx
	subq	$1, %rdx
	leaq	(%rax,%rdx), %rcx
	movq	%rcx, %rdx
	shrq	$3, %rdx
	addq	$2147450880, %rdx
	movzbl	(%rdx), %edx
	testb	%dl, %dl
	setne	%sil
	andl	$7, %ecx
	cmpb	%dl, %cl
	setge	%dl
	andl	%esi, %edx
	orl	%edi, %edx
	testb	%dl, %dl
	je	.L111
	.loc 9 69 42
	movl	$24, %esi
	movq	%rax, %rdi
	call	__asan_report_store_n@PLT
.L111:
	.loc 9 69 42 discriminator 1
	leaq	-624(%rbx), %rax
	leaq	-96(%rbx), %rdx
	movq	%rdx, %rsi
	movq	%rax, %rdi
.LEHB8:
	call	_ZN7ALGraphIccE9getRelateERKNSt7__cxx1112basic_stringIcSt11char_traitsIcESaIcEEE
.LEHE8:
	.loc 9 69 106 is_stmt 1 discriminator 2
	leaq	-624(%rbx), %rcx
	leaq	-240(%rbx), %rax
	movl	$1, %edx
	movq	%rcx, %rsi
	movq	%rax, %rdi
.LEHB9:
	call	_ZN7ALGraphIccEC1ERKSt6vectorIS1_IcSaIcEESaIS3_EE6Direct
.LEHE9:
	leaq	-624(%rbx), %rax
	movq	%rax, %rdi
	call	_ZNSt6vectorIS_IcSaIcEESaIS1_EED1Ev
	.loc 9 69 42
	leaq	-624(%rbx), %rax
	shrq	$3, %rax
	addq	$2147450880, %rax
	movw	$-1800, (%rax)
	movb	$-8, 2(%rax)
	leaq	-96(%rbx), %rax
	movq	%rax, %rdi
	call	_ZNSt7__cxx1112basic_stringIcSt11char_traitsIcESaIcEED1Ev@PLT
	leaq	-96(%rbx), %rax
	shrq	$3, %rax
	addq	$2147450880, %rax
	movl	$-117901064, (%rax)
	leaq	-704(%rbx), %rax
	movq	%rax, %rdi
	call	_ZNSaIcED1Ev@PLT
	leaq	-704(%rbx), %rax
	shrq	$3, %rax
	addq	$2147450880, %rax
	movb	$-8, (%rax)
	.loc 9 70 35
	leaq	-400(%rbx), %rax
	shrq	$3, %rax
	addq	$2147450880, %rax
	movl	$0, (%rax)
	movb	$0, 4(%rax)
	.loc 9 70 32
	leaq	-400(%rbx), %rax
	movq	%rax, %rdx
	shrq	$3, %rdx
	addq	$2147450880, %rdx
	movzbl	(%rdx), %edx
	testb	%dl, %dl
	setne	%cl
	testb	%dl, %dl
	setle	%dl
	andl	%edx, %ecx
	movl	%ecx, %edi
	movl	$40, %edx
	subq	$1, %rdx
	leaq	(%rax,%rdx), %rcx
	movq	%rcx, %rdx
	shrq	$3, %rdx
	addq	$2147450880, %rdx
	movzbl	(%rdx), %edx
	testb	%dl, %dl
	setne	%sil
	andl	$7, %ecx
	cmpb	%dl, %cl
	setge	%dl
	andl	%esi, %edx
	orl	%edi, %edx
	testb	%dl, %dl
	je	.L112
	movl	$40, %esi
	movq	%rax, %rdi
	call	__asan_report_store_n@PLT
.L112:
	leaq	-400(%rbx), %rax
	leaq	-240(%rbx), %rdx
	movq	%rdx, %rsi
	movq	%rax, %rdi
.LEHB10:
	call	_ZN7ALGraphIccE14adjacentMatrixEv
.LEHE10:
	.loc 9 70 33 discriminator 1
	leaq	-400(%rbx), %rax
	movq	%rax, %rsi
	leaq	_ZSt4cout(%rip), %rdi
.LEHB11:
	call	_ZlsIbERSoS0_RK6MatrixIT_E
	movq	%rax, %rdx
	.loc 9 70 38 discriminator 1
	movq	_ZSt4endlIcSt11char_traitsIcEERSt13basic_ostreamIT_T0_ES6_@GOTPCREL(%rip), %rax
	movq	%rax, %rsi
	movq	%rdx, %rdi
	call	_ZNSolsEPFRSoS_E@PLT
.LEHE11:
	.loc 9 70 32 discriminator 5
	leaq	-400(%rbx), %rax
	movq	%rax, %rdi
	call	_ZN6MatrixIbED1Ev
	leaq	-400(%rbx), %rax
	shrq	$3, %rax
	addq	$2147450880, %rax
	movl	$-117901064, (%rax)
	movb	$-8, 4(%rax)
	.loc 9 71 13 discriminator 5
	leaq	-240(%rbx), %rax
	movq	%rax, %rdi
.LEHB12:
	call	_ZN5GraphIccE3sccEv
	.loc 9 72 30
	leaq	-240(%rbx), %rax
	movq	%rax, %rdi
	call	_ZN5GraphIccE4scc2I7ALGraphIccEEEvv
.LEHE12:
	.loc 9 69 106
	leaq	-240(%rbx), %rax
	movq	%rax, %rdi
	call	_ZN7ALGraphIccED1Ev
	.loc 9 63 153
	leaq	-320(%rbx), %rax
	movq	%rax, %rdi
	call	_ZN7ALGraphIccED1Ev
	.loc 9 73 1
	movl	$0, %eax
	movl	%eax, %edx
	.loc 9 9 1
	cmpq	%r13, %r15
	je	.L104
	jmp	.L137
.L128:
	endbr64
	movq	%rax, %r12
	leaq	-688(%rbx), %rax
	movq	%rax, %rdi
	call	_ZNSt6vectorIS_IcSaIcEESaIS1_EED1Ev
	movq	%r12, %rdx
	.loc 9 63 41
	leaq	-688(%rbx), %rax
	shrq	$3, %rax
	addq	$2147450880, %rax
	movw	$-1800, (%rax)
	movb	$-8, 2(%rax)
	movq	%rdx, %r12
	jmp	.L115
.L127:
	endbr64
	movq	%rax, %r12
.L115:
	leaq	-160(%rbx), %rax
	movq	%rax, %rdi
	call	_ZNSt7__cxx1112basic_stringIcSt11char_traitsIcESaIcEED1Ev@PLT
	movq	%r12, %rdx
	leaq	-160(%rbx), %rax
	shrq	$3, %rax
	addq	$2147450880, %rax
	movl	$-117901064, (%rax)
	movq	%rdx, %r12
	jmp	.L116
.L126:
	endbr64
	movq	%rax, %r12
.L116:
	leaq	-720(%rbx), %rax
	movq	%rax, %rdi
	call	_ZNSaIcED1Ev@PLT
	movq	%r12, %rbx
	call	__asan_handle_no_return@PLT
	movq	%rbx, %rdi
.LEHB13:
	call	_Unwind_Resume@PLT
.L130:
	endbr64
	movq	%rax, %r12
	.loc 9 64 31
	leaq	-560(%rbx), %rax
	movq	%rax, %rdi
	call	_ZN6MatrixIbED1Ev
	movq	%r12, %rdx
	leaq	-560(%rbx), %rax
	shrq	$3, %rax
	addq	$2147450880, %rax
	movl	$-117901064, (%rax)
	movb	$-8, 4(%rax)
	movq	%rdx, %r12
	jmp	.L118
.L131:
	endbr64
	movq	%rax, %r12
	.loc 9 67 30
	leaq	-480(%rbx), %rax
	movq	%rax, %rdi
	call	_ZN6MatrixIbED1Ev
	movq	%r12, %rdx
	leaq	-480(%rbx), %rax
	shrq	$3, %rax
	addq	$2147450880, %rax
	movl	$-117901064, (%rax)
	movb	$-8, 4(%rax)
	movq	%rdx, %r12
	jmp	.L118
.L134:
	endbr64
	movq	%rax, %r12
	leaq	-624(%rbx), %rax
	movq	%rax, %rdi
	call	_ZNSt6vectorIS_IcSaIcEESaIS1_EED1Ev
	movq	%r12, %rdx
	.loc 9 69 42
	leaq	-624(%rbx), %rax
	shrq	$3, %rax
	addq	$2147450880, %rax
	movw	$-1800, (%rax)
	movb	$-8, 2(%rax)
	movq	%rdx, %r12
	jmp	.L121
.L133:
	endbr64
	movq	%rax, %r12
.L121:
	leaq	-96(%rbx), %rax
	movq	%rax, %rdi
	call	_ZNSt7__cxx1112basic_stringIcSt11char_traitsIcESaIcEED1Ev@PLT
	movq	%r12, %rdx
	leaq	-96(%rbx), %rax
	shrq	$3, %rax
	addq	$2147450880, %rax
	movl	$-117901064, (%rax)
	movq	%rdx, %r12
	jmp	.L122
.L132:
	endbr64
	movq	%rax, %r12
.L122:
	leaq	-704(%rbx), %rax
	movq	%rax, %rdi
	call	_ZNSaIcED1Ev@PLT
	movq	%r12, %rdx
	leaq	-704(%rbx), %rax
	shrq	$3, %rax
	addq	$2147450880, %rax
	movb	$-8, (%rax)
	movq	%rdx, %r12
	jmp	.L118
.L136:
	endbr64
	movq	%rax, %r12
	.loc 9 70 32
	leaq	-400(%rbx), %rax
	movq	%rax, %rdi
	call	_ZN6MatrixIbED1Ev
	movq	%r12, %rdx
	leaq	-400(%rbx), %rax
	shrq	$3, %rax
	addq	$2147450880, %rax
	movl	$-117901064, (%rax)
	movb	$-8, 4(%rax)
	movq	%rdx, %r12
	jmp	.L124
.L135:
	endbr64
	movq	%rax, %r12
.L124:
	.loc 9 69 106
	leaq	-240(%rbx), %rax
	movq	%rax, %rdi
	call	_ZN7ALGraphIccED1Ev
	jmp	.L118
.L129:
	endbr64
	movq	%rax, %r12
.L118:
	.loc 9 63 153
	leaq	-320(%rbx), %rax
	movq	%rax, %rdi
	call	_ZN7ALGraphIccED1Ev
	movq	%r12, %rbx
	call	__asan_handle_no_return@PLT
	movq	%rbx, %rdi
	call	_Unwind_Resume@PLT
.LEHE13:
.L137:
	.loc 9 9 1
	movq	$1172321806, 0(%r13)
	movabsq	$-723401728380766731, %rsi
	movabsq	$-723401728380766731, %rdi
	movq	%rsi, 2147450880(%r12)
	movq	%rdi, 2147450888(%r12)
	movq	%rsi, 2147450896(%r12)
	movq	%rdi, 2147450904(%r12)
	movq	%rsi, 2147450912(%r12)
	movq	%rdi, 2147450920(%r12)
	movq	%rsi, 2147450928(%r12)
	movq	%rdi, 2147450936(%r12)
	movq	%rsi, 2147450944(%r12)
	movq	%rdi, 2147450952(%r12)
	movabsq	$-723401728380766731, %rax
	movq	%rax, 2147450960(%r12)
	movl	$-168430091, 2147450968(%r12)
	movq	1016(%r13), %rax
	movb	$0, (%rax)
	jmp	.L105
.L104:
	movq	$0, 2147450880(%r12)
	movq	$0, 2147450888(%r12)
	movq	$0, 2147450896(%r12)
	movq	$0, 2147450904(%r12)
	movq	$0, 2147450912(%r12)
	movq	$0, 2147450920(%r12)
	movq	$0, 2147450928(%r12)
	movq	$0, 2147450940(%r12)
	movq	$0, 2147450952(%r12)
	movq	$0, 2147450960(%r12)
	movl	$0, 2147450968(%r12)
.L105:
	.loc 9 73 1
	movq	-56(%rbp), %rax
	xorq	%fs:40, %rax
	je	.L125
	call	__stack_chk_fail@PLT
.L125:
	movl	%edx, %eax
	addq	$792, %rsp
	popq	%rbx
	popq	%r12
	popq	%r13
	popq	%r14
	popq	%r15
	popq	%rbp
	.cfi_def_cfa 7, 8
	ret
	.cfi_endproc
.LFE4163:
	.globl	__gxx_personality_v0
	.section	.gcc_except_table,"a",@progbits
.LLSDA4163:
	.byte	0xff
	.byte	0xff
	.byte	0x1
	.uleb128 .LLSDACSE4163-.LLSDACSB4163
.LLSDACSB4163:
	.uleb128 .LEHB0-.LFB4163
	.uleb128 .LEHE0-.LEHB0
	.uleb128 .L126-.LFB4163
	.uleb128 0
	.uleb128 .LEHB1-.LFB4163
	.uleb128 .LEHE1-.LEHB1
	.uleb128 .L127-.LFB4163
	.uleb128 0
	.uleb128 .LEHB2-.LFB4163
	.uleb128 .LEHE2-.LEHB2
	.uleb128 .L128-.LFB4163
	.uleb128 0
	.uleb128 .LEHB3-.LFB4163
	.uleb128 .LEHE3-.LEHB3
	.uleb128 .L129-.LFB4163
	.uleb128 0
	.uleb128 .LEHB4-.LFB4163
	.uleb128 .LEHE4-.LEHB4
	.uleb128 .L130-.LFB4163
	.uleb128 0
	.uleb128 .LEHB5-.LFB4163
	.uleb128 .LEHE5-.LEHB5
	.uleb128 .L129-.LFB4163
	.uleb128 0
	.uleb128 .LEHB6-.LFB4163
	.uleb128 .LEHE6-.LEHB6
	.uleb128 .L131-.LFB4163
	.uleb128 0
	.uleb128 .LEHB7-.LFB4163
	.uleb128 .LEHE7-.LEHB7
	.uleb128 .L132-.LFB4163
	.uleb128 0
	.uleb128 .LEHB8-.LFB4163
	.uleb128 .LEHE8-.LEHB8
	.uleb128 .L133-.LFB4163
	.uleb128 0
	.uleb128 .LEHB9-.LFB4163
	.uleb128 .LEHE9-.LEHB9
	.uleb128 .L134-.LFB4163
	.uleb128 0
	.uleb128 .LEHB10-.LFB4163
	.uleb128 .LEHE10-.LEHB10
	.uleb128 .L135-.LFB4163
	.uleb128 0
	.uleb128 .LEHB11-.LFB4163
	.uleb128 .LEHE11-.LEHB11
	.uleb128 .L136-.LFB4163
	.uleb128 0
	.uleb128 .LEHB12-.LFB4163
	.uleb128 .LEHE12-.LEHB12
	.uleb128 .L135-.LFB4163
	.uleb128 0
	.uleb128 .LEHB13-.LFB4163
	.uleb128 .LEHE13-.LEHB13
	.uleb128 0
	.uleb128 0
.LLSDACSE4163:
	.text
	.size	main, .-main
	.section	.text._ZN9__gnu_cxx11char_traitsIcE2eqERKcS3_,"axG",@progbits,_ZN9__gnu_cxx11char_traitsIcE2eqERKcS3_,comdat
	.weak	_ZN9__gnu_cxx11char_traitsIcE2eqERKcS3_
	.type	_ZN9__gnu_cxx11char_traitsIcE2eqERKcS3_, @function
_ZN9__gnu_cxx11char_traitsIcE2eqERKcS3_:
.LASANPC4170:
.LFB4170:
	.loc 3 100 7
	.cfi_startproc
	endbr64
	pushq	%rbp
	.cfi_def_cfa_offset 16
	.cfi_offset 6, -16
	movq	%rsp, %rbp
	.cfi_def_cfa_register 6
	subq	$16, %rsp
	movq	%rdi, -8(%rbp)
	movq	%rsi, -16(%rbp)
	.loc 3 101 21
	movq	-8(%rbp), %rax
	movq	%rax, %rdx
	shrq	$3, %rdx
	addq	$2147450880, %rdx
	movzbl	(%rdx), %edx
	testb	%dl, %dl
	setne	%cl
	movq	%rax, %rsi
	andl	$7, %esi
	cmpb	%dl, %sil
	setge	%dl
	andl	%ecx, %edx
	testb	%dl, %dl
	je	.L139
	movq	%rax, %rdi
	call	__asan_report_load1@PLT
.L139:
	movq	-8(%rbp), %rax
	movzbl	(%rax), %ecx
	movq	-16(%rbp), %rax
	movq	%rax, %rdx
	shrq	$3, %rdx
	addq	$2147450880, %rdx
	movzbl	(%rdx), %edx
	testb	%dl, %dl
	setne	%sil
	movq	%rax, %rdi
	andl	$7, %edi
	cmpb	%dl, %dil
	setge	%dl
	andl	%esi, %edx
	testb	%dl, %dl
	je	.L140
	movq	%rax, %rdi
	call	__asan_report_load1@PLT
.L140:
	movq	-16(%rbp), %rax
	movzbl	(%rax), %eax
	.loc 3 101 24
	cmpb	%al, %cl
	sete	%al
	.loc 3 101 30
	leave
	.cfi_def_cfa 7, 8
	ret
	.cfi_endproc
.LFE4170:
	.size	_ZN9__gnu_cxx11char_traitsIcE2eqERKcS3_, .-_ZN9__gnu_cxx11char_traitsIcE2eqERKcS3_
	.section	.rodata
.LC5:
	.string	"1 32 1 9 <unknown>"
	.section	.text._ZN9__gnu_cxx11char_traitsIcE6lengthEPKc,"axG",@progbits,_ZN9__gnu_cxx11char_traitsIcE6lengthEPKc,comdat
	.align 2
	.weak	_ZN9__gnu_cxx11char_traitsIcE6lengthEPKc
	.type	_ZN9__gnu_cxx11char_traitsIcE6lengthEPKc, @function
_ZN9__gnu_cxx11char_traitsIcE6lengthEPKc:
.LASANPC4169:
.LFB4169:
	.loc 3 161 5
	.cfi_startproc
	endbr64
	pushq	%rbp
	.cfi_def_cfa_offset 16
	.cfi_offset 6, -16
	movq	%rsp, %rbp
	.cfi_def_cfa_register 6
	pushq	%r14
	pushq	%r13
	pushq	%r12
	pushq	%rbx
	addq	$-128, %rsp
	.cfi_offset 14, -24
	.cfi_offset 13, -32
	.cfi_offset 12, -40
	.cfi_offset 3, -48
	movq	%rdi, -152(%rbp)
	leaq	-128(%rbp), %rbx
	movq	%rbx, %r14
	cmpl	$0, __asan_option_detect_stack_use_after_return(%rip)
	je	.L142
	movl	$64, %edi
	call	__asan_stack_malloc_0@PLT
.LVL4:
	testq	%rax, %rax
	je	.L142
	movq	%rax, %rbx
.L142:
	leaq	96(%rbx), %rax
	movq	%rax, %r12
	movq	$1102416563, (%rbx)
	leaq	.LC5(%rip), %rax
	movq	%rax, 8(%rbx)
	leaq	.LASANPC4169(%rip), %rax
	movq	%rax, 16(%rbx)
	movq	%rbx, %r13
	shrq	$3, %r13
	movl	$-235802127, 2147450880(%r13)
	movl	$-202116351, 2147450884(%r13)
	.loc 3 161 5
	movq	%fs:40, %rax
	movq	%rax, -40(%rbp)
	xorl	%eax, %eax
	.loc 3 164 19
	movq	$0, -136(%rbp)
.L148:
	.loc 3 165 14
	leaq	-64(%r12), %rax
	shrq	$3, %rax
	addq	$2147450880, %rax
	movb	$1, (%rax)
	.loc 3 165 17
	leaq	-64(%r12), %rax
	movq	%rax, %rdx
	movq	%rdx, %rax
	shrq	$3, %rax
	addq	$2147450880, %rax
	movzbl	(%rax), %eax
	testb	%al, %al
	setne	%cl
	testb	%al, %al
	setle	%al
	andl	%ecx, %eax
	testb	%al, %al
	je	.L146
	movq	%rdx, %rdi
	call	__asan_report_store1@PLT
.L146:
	movb	$0, -64(%r12)
	.loc 3 165 21
	movq	-152(%rbp), %rdx
	movq	-136(%rbp), %rax
	addq	%rax, %rdx
	.loc 3 165 17
	leaq	-64(%r12), %rax
	movq	%rax, %rsi
	movq	%rdx, %rdi
	call	_ZN9__gnu_cxx11char_traitsIcE2eqERKcS3_
	.loc 3 165 14
	xorl	$1, %eax
	movl	%eax, %edx
	.loc 3 165 17
	leaq	-64(%r12), %rax
	shrq	$3, %rax
	addq	$2147450880, %rax
	movb	$-8, (%rax)
	.loc 3 165 14
	testb	%dl, %dl
	je	.L147
	.loc 3 166 9
	addq	$1, -136(%rbp)
	.loc 3 165 7
	jmp	.L148
.L147:
	.loc 3 167 14
	movq	-136(%rbp), %rax
	movq	%rax, %rdx
	.loc 3 161 5
	cmpq	%rbx, %r14
	je	.L143
	movq	$1172321806, (%rbx)
	movabsq	$-723401728380766731, %rax
	movq	%rax, 2147450880(%r13)
	movq	56(%rbx), %rax
	movb	$0, (%rax)
	jmp	.L144
.L143:
	movq	$0, 2147450880(%r13)
.L144:
	.loc 3 168 5
	movq	-40(%rbp), %rax
	xorq	%fs:40, %rax
	je	.L150
	call	__stack_chk_fail@PLT
.L150:
	movq	%rdx, %rax
	subq	$-128, %rsp
	popq	%rbx
	popq	%r12
	popq	%r13
	popq	%r14
	popq	%rbp
	.cfi_def_cfa 7, 8
	ret
	.cfi_endproc
.LFE4169:
	.size	_ZN9__gnu_cxx11char_traitsIcE6lengthEPKc, .-_ZN9__gnu_cxx11char_traitsIcE6lengthEPKc
	.section	.text._ZNSt7__cxx1112basic_stringIcSt11char_traitsIcESaIcEE12_Alloc_hiderD2Ev,"axG",@progbits,_ZNSt7__cxx1112basic_stringIcSt11char_traitsIcESaIcEE12_Alloc_hiderD5Ev,comdat
	.align 2
	.weak	_ZNSt7__cxx1112basic_stringIcSt11char_traitsIcESaIcEE12_Alloc_hiderD2Ev
	.type	_ZNSt7__cxx1112basic_stringIcSt11char_traitsIcESaIcEE12_Alloc_hiderD2Ev, @function
_ZNSt7__cxx1112basic_stringIcSt11char_traitsIcESaIcEE12_Alloc_hiderD2Ev:
.LASANPC4272:
.LFB4272:
	.file 10 "/usr/include/c++/9/bits/basic_string.h"
	.loc 10 150 14
	.cfi_startproc
	endbr64
	pushq	%rbp
	.cfi_def_cfa_offset 16
	.cfi_offset 6, -16
	movq	%rsp, %rbp
	.cfi_def_cfa_register 6
	subq	$16, %rsp
	movq	%rdi, -8(%rbp)
.LBB13:
	.loc 10 150 14
	movq	-8(%rbp), %rax
	movq	%rax, %rdi
	call	_ZNSaIcED2Ev@PLT
.LBE13:
	nop
	leave
	.cfi_def_cfa 7, 8
	ret
	.cfi_endproc
.LFE4272:
	.size	_ZNSt7__cxx1112basic_stringIcSt11char_traitsIcESaIcEE12_Alloc_hiderD2Ev, .-_ZNSt7__cxx1112basic_stringIcSt11char_traitsIcESaIcEE12_Alloc_hiderD2Ev
	.weak	_ZNSt7__cxx1112basic_stringIcSt11char_traitsIcESaIcEE12_Alloc_hiderD1Ev
	.set	_ZNSt7__cxx1112basic_stringIcSt11char_traitsIcESaIcEE12_Alloc_hiderD1Ev,_ZNSt7__cxx1112basic_stringIcSt11char_traitsIcESaIcEE12_Alloc_hiderD2Ev
	.section	.text._ZSt3maxImERKT_S2_S2_,"axG",@progbits,_ZSt3maxImERKT_S2_S2_,comdat
	.weak	_ZSt3maxImERKT_S2_S2_
	.type	_ZSt3maxImERKT_S2_S2_, @function
_ZSt3maxImERKT_S2_S2_:
.LASANPC4419:
.LFB4419:
	.loc 2 222 5
	.cfi_startproc
	endbr64
	pushq	%rbp
	.cfi_def_cfa_offset 16
	.cfi_offset 6, -16
	movq	%rsp, %rbp
	.cfi_def_cfa_register 6
	subq	$16, %rsp
	movq	%rdi, -8(%rbp)
	movq	%rsi, -16(%rbp)
	.loc 2 227 15
	movq	-8(%rbp), %rax
	movq	%rax, %rdx
	shrq	$3, %rdx
	addq	$2147450880, %rdx
	movzbl	(%rdx), %edx
	testb	%dl, %dl
	je	.L153
	movq	%rax, %rdi
	call	__asan_report_load8@PLT
.L153:
	movq	-8(%rbp), %rax
	movq	(%rax), %rcx
	movq	-16(%rbp), %rax
	movq	%rax, %rdx
	shrq	$3, %rdx
	addq	$2147450880, %rdx
	movzbl	(%rdx), %edx
	testb	%dl, %dl
	je	.L154
	movq	%rax, %rdi
	call	__asan_report_load8@PLT
.L154:
	movq	-16(%rbp), %rax
	movq	(%rax), %rax
	.loc 2 227 7
	cmpq	%rax, %rcx
	jnb	.L155
	.loc 2 228 9
	movq	-16(%rbp), %rax
	jmp	.L156
.L155:
	.loc 2 229 14
	movq	-8(%rbp), %rax
.L156:
	.loc 2 230 5
	leave
	.cfi_def_cfa 7, 8
	ret
	.cfi_endproc
.LFE4419:
	.size	_ZSt3maxImERKT_S2_S2_, .-_ZSt3maxImERKT_S2_S2_
	.section	.text._ZNSt12_Vector_baseISt6vectorIcSaIcEESaIS2_EE12_Vector_implD2Ev,"axG",@progbits,_ZNSt12_Vector_baseISt6vectorIcSaIcEESaIS2_EE12_Vector_implD5Ev,comdat
	.align 2
	.weak	_ZNSt12_Vector_baseISt6vectorIcSaIcEESaIS2_EE12_Vector_implD2Ev
	.type	_ZNSt12_Vector_baseISt6vectorIcSaIcEESaIS2_EE12_Vector_implD2Ev, @function
_ZNSt12_Vector_baseISt6vectorIcSaIcEESaIS2_EE12_Vector_implD2Ev:
.LASANPC4460:
.LFB4460:
	.file 11 "/usr/include/c++/9/bits/stl_vector.h"
	.loc 11 125 14
	.cfi_startproc
	endbr64
	pushq	%rbp
	.cfi_def_cfa_offset 16
	.cfi_offset 6, -16
	movq	%rsp, %rbp
	.cfi_def_cfa_register 6
	subq	$16, %rsp
	movq	%rdi, -8(%rbp)
.LBB14:
	.loc 11 125 14
	movq	-8(%rbp), %rax
	movq	%rax, %rdi
	call	_ZNSaISt6vectorIcSaIcEEED2Ev
.LBE14:
	nop
	leave
	.cfi_def_cfa 7, 8
	ret
	.cfi_endproc
.LFE4460:
	.size	_ZNSt12_Vector_baseISt6vectorIcSaIcEESaIS2_EE12_Vector_implD2Ev, .-_ZNSt12_Vector_baseISt6vectorIcSaIcEESaIS2_EE12_Vector_implD2Ev
	.weak	_ZNSt12_Vector_baseISt6vectorIcSaIcEESaIS2_EE12_Vector_implD1Ev
	.set	_ZNSt12_Vector_baseISt6vectorIcSaIcEESaIS2_EE12_Vector_implD1Ev,_ZNSt12_Vector_baseISt6vectorIcSaIcEESaIS2_EE12_Vector_implD2Ev
	.section	.text._ZNSt12_Vector_baseISt6vectorIcSaIcEESaIS2_EEC2Ev,"axG",@progbits,_ZNSt12_Vector_baseISt6vectorIcSaIcEESaIS2_EEC5Ev,comdat
	.align 2
	.weak	_ZNSt12_Vector_baseISt6vectorIcSaIcEESaIS2_EEC2Ev
	.type	_ZNSt12_Vector_baseISt6vectorIcSaIcEESaIS2_EEC2Ev, @function
_ZNSt12_Vector_baseISt6vectorIcSaIcEESaIS2_EEC2Ev:
.LASANPC4462:
.LFB4462:
	.loc 11 285 7
	.cfi_startproc
	endbr64
	pushq	%rbp
	.cfi_def_cfa_offset 16
	.cfi_offset 6, -16
	movq	%rsp, %rbp
	.cfi_def_cfa_register 6
	subq	$16, %rsp
	movq	%rdi, -8(%rbp)
.LBB15:
	.loc 11 285 7
	movq	-8(%rbp), %rax
	movq	%rax, %rdi
	call	_ZNSt12_Vector_baseISt6vectorIcSaIcEESaIS2_EE12_Vector_implC1Ev
.LBE15:
	nop
	leave
	.cfi_def_cfa 7, 8
	ret
	.cfi_endproc
.LFE4462:
	.size	_ZNSt12_Vector_baseISt6vectorIcSaIcEESaIS2_EEC2Ev, .-_ZNSt12_Vector_baseISt6vectorIcSaIcEESaIS2_EEC2Ev
	.weak	_ZNSt12_Vector_baseISt6vectorIcSaIcEESaIS2_EEC1Ev
	.set	_ZNSt12_Vector_baseISt6vectorIcSaIcEESaIS2_EEC1Ev,_ZNSt12_Vector_baseISt6vectorIcSaIcEESaIS2_EEC2Ev
	.section	.text._ZNSt6vectorIS_IcSaIcEESaIS1_EEC2Ev,"axG",@progbits,_ZNSt6vectorIS_IcSaIcEESaIS1_EEC5Ev,comdat
	.align 2
	.weak	_ZNSt6vectorIS_IcSaIcEESaIS1_EEC2Ev
	.type	_ZNSt6vectorIS_IcSaIcEESaIS1_EEC2Ev, @function
_ZNSt6vectorIS_IcSaIcEESaIS1_EEC2Ev:
.LASANPC4464:
.LFB4464:
	.loc 11 484 7
	.cfi_startproc
	endbr64
	pushq	%rbp
	.cfi_def_cfa_offset 16
	.cfi_offset 6, -16
	movq	%rsp, %rbp
	.cfi_def_cfa_register 6
	subq	$16, %rsp
	movq	%rdi, -8(%rbp)
.LBB16:
	.loc 11 484 7
	movq	-8(%rbp), %rax
	movq	%rax, %rdi
	call	_ZNSt12_Vector_baseISt6vectorIcSaIcEESaIS2_EEC2Ev
.LBE16:
	nop
	leave
	.cfi_def_cfa 7, 8
	ret
	.cfi_endproc
.LFE4464:
	.size	_ZNSt6vectorIS_IcSaIcEESaIS1_EEC2Ev, .-_ZNSt6vectorIS_IcSaIcEESaIS1_EEC2Ev
	.weak	_ZNSt6vectorIS_IcSaIcEESaIS1_EEC1Ev
	.set	_ZNSt6vectorIS_IcSaIcEESaIS1_EEC1Ev,_ZNSt6vectorIS_IcSaIcEESaIS1_EEC2Ev
	.section	.text._ZNSt12_Vector_baseIcSaIcEE12_Vector_implD2Ev,"axG",@progbits,_ZNSt12_Vector_baseIcSaIcEE12_Vector_implD5Ev,comdat
	.align 2
	.weak	_ZNSt12_Vector_baseIcSaIcEE12_Vector_implD2Ev
	.type	_ZNSt12_Vector_baseIcSaIcEE12_Vector_implD2Ev, @function
_ZNSt12_Vector_baseIcSaIcEE12_Vector_implD2Ev:
.LASANPC4469:
.LFB4469:
	.loc 11 125 14
	.cfi_startproc
	endbr64
	pushq	%rbp
	.cfi_def_cfa_offset 16
	.cfi_offset 6, -16
	movq	%rsp, %rbp
	.cfi_def_cfa_register 6
	subq	$16, %rsp
	movq	%rdi, -8(%rbp)
.LBB17:
	.loc 11 125 14
	movq	-8(%rbp), %rax
	movq	%rax, %rdi
	call	_ZNSaIcED2Ev@PLT
.LBE17:
	nop
	leave
	.cfi_def_cfa 7, 8
	ret
	.cfi_endproc
.LFE4469:
	.size	_ZNSt12_Vector_baseIcSaIcEE12_Vector_implD2Ev, .-_ZNSt12_Vector_baseIcSaIcEE12_Vector_implD2Ev
	.weak	_ZNSt12_Vector_baseIcSaIcEE12_Vector_implD1Ev
	.set	_ZNSt12_Vector_baseIcSaIcEE12_Vector_implD1Ev,_ZNSt12_Vector_baseIcSaIcEE12_Vector_implD2Ev
	.section	.text._ZNSt12_Vector_baseIcSaIcEEC2Ev,"axG",@progbits,_ZNSt12_Vector_baseIcSaIcEEC5Ev,comdat
	.align 2
	.weak	_ZNSt12_Vector_baseIcSaIcEEC2Ev
	.type	_ZNSt12_Vector_baseIcSaIcEEC2Ev, @function
_ZNSt12_Vector_baseIcSaIcEEC2Ev:
.LASANPC4471:
.LFB4471:
	.loc 11 285 7
	.cfi_startproc
	endbr64
	pushq	%rbp
	.cfi_def_cfa_offset 16
	.cfi_offset 6, -16
	movq	%rsp, %rbp
	.cfi_def_cfa_register 6
	subq	$16, %rsp
	movq	%rdi, -8(%rbp)
.LBB18:
	.loc 11 285 7
	movq	-8(%rbp), %rax
	movq	%rax, %rdi
	call	_ZNSt12_Vector_baseIcSaIcEE12_Vector_implC1Ev
.LBE18:
	nop
	leave
	.cfi_def_cfa 7, 8
	ret
	.cfi_endproc
.LFE4471:
	.size	_ZNSt12_Vector_baseIcSaIcEEC2Ev, .-_ZNSt12_Vector_baseIcSaIcEEC2Ev
	.weak	_ZNSt12_Vector_baseIcSaIcEEC1Ev
	.set	_ZNSt12_Vector_baseIcSaIcEEC1Ev,_ZNSt12_Vector_baseIcSaIcEEC2Ev
	.section	.text._ZNSt6vectorIcSaIcEEC2Ev,"axG",@progbits,_ZNSt6vectorIcSaIcEEC5Ev,comdat
	.align 2
	.weak	_ZNSt6vectorIcSaIcEEC2Ev
	.type	_ZNSt6vectorIcSaIcEEC2Ev, @function
_ZNSt6vectorIcSaIcEEC2Ev:
.LASANPC4473:
.LFB4473:
	.loc 11 484 7
	.cfi_startproc
	endbr64
	pushq	%rbp
	.cfi_def_cfa_offset 16
	.cfi_offset 6, -16
	movq	%rsp, %rbp
	.cfi_def_cfa_register 6
	subq	$16, %rsp
	movq	%rdi, -8(%rbp)
.LBB19:
	.loc 11 484 7
	movq	-8(%rbp), %rax
	movq	%rax, %rdi
	call	_ZNSt12_Vector_baseIcSaIcEEC2Ev
.LBE19:
	nop
	leave
	.cfi_def_cfa 7, 8
	ret
	.cfi_endproc
.LFE4473:
	.size	_ZNSt6vectorIcSaIcEEC2Ev, .-_ZNSt6vectorIcSaIcEEC2Ev
	.weak	_ZNSt6vectorIcSaIcEEC1Ev
	.set	_ZNSt6vectorIcSaIcEEC1Ev,_ZNSt6vectorIcSaIcEEC2Ev
	.globl	__asan_stack_malloc_5
	.section	.rodata
	.align 8
.LC6:
	.string	"6 32 1 5 x:138 48 1 5 c:141 64 24 10 relate:140 128 32 7 str:137 192 392 6 ss:136 656 392 8 strs:136"
	.globl	__asan_stack_free_5
	.section	.text._ZN7ALGraphIccE9getRelateERKNSt7__cxx1112basic_stringIcSt11char_traitsIcESaIcEEE,"axG",@progbits,_ZN7ALGraphIccE9getRelateERKNSt7__cxx1112basic_stringIcSt11char_traitsIcESaIcEEE,comdat
	.weak	_ZN7ALGraphIccE9getRelateERKNSt7__cxx1112basic_stringIcSt11char_traitsIcESaIcEEE
	.type	_ZN7ALGraphIccE9getRelateERKNSt7__cxx1112basic_stringIcSt11char_traitsIcESaIcEEE, @function
_ZN7ALGraphIccE9getRelateERKNSt7__cxx1112basic_stringIcSt11char_traitsIcESaIcEEE:
.LASANPC4456:
.LFB4456:
	.file 12 "../src/GraphAdjacencyList.h"
	.loc 12 134 31
	.cfi_startproc
	.cfi_personality 0x9b,DW.ref.__gxx_personality_v0
	.cfi_lsda 0x1b,.LLSDA4456
	endbr64
	pushq	%rbp
	.cfi_def_cfa_offset 16
	.cfi_offset 6, -16
	movq	%rsp, %rbp
	.cfi_def_cfa_register 6
	pushq	%r14
	pushq	%r13
	pushq	%r12
	pushq	%rbx
	subq	$1168, %rsp
	.cfi_offset 14, -24
	.cfi_offset 13, -32
	.cfi_offset 12, -40
	.cfi_offset 3, -48
	movq	%rdi, -1192(%rbp)
	movq	%rsi, -1200(%rbp)
	leaq	-1184(%rbp), %r13
	movq	%r13, %r14
	cmpl	$0, __asan_option_detect_stack_use_after_return(%rip)
	je	.L163
	movl	$1120, %edi
	call	__asan_stack_malloc_5@PLT
.LVL5:
	testq	%rax, %rax
	je	.L163
	movq	%rax, %r13
.L163:
	leaq	1152(%r13), %rax
	movq	%rax, %rbx
	movq	$1102416563, 0(%r13)
	leaq	.LC6(%rip), %rax
	movq	%rax, 8(%r13)
	leaq	.LASANPC4456(%rip), %rax
	movq	%rax, 16(%r13)
	movq	%r13, %r12
	shrq	$3, %r12
	movl	$-235802127, 2147450880(%r12)
	movl	$-234753535, 2147450884(%r12)
	movl	$-234881024, 2147450888(%r12)
	movl	$-218959118, 2147450892(%r12)
	movl	$-218959118, 2147450900(%r12)
	movl	$-218959360, 2147450952(%r12)
	movl	$-218959118, 2147450956(%r12)
	movl	$62194, 2147450960(%r12)
	movl	$-218103808, 2147451008(%r12)
	movl	$-202116109, 2147451012(%r12)
	movl	$-202116109, 2147451016(%r12)
	.loc 12 134 31
	movq	%fs:40, %rax
	movq	%rax, -40(%rbp)
	xorl	%eax, %eax
	.loc 12 136 27
	movl	$8, %esi
	movl	$16, %edi
	call	_ZStorSt13_Ios_OpenmodeS_
	movl	%eax, %edx
	movq	-1200(%rbp), %rcx
	leaq	-960(%rbx), %rax
	movq	%rcx, %rsi
	movq	%rax, %rdi
.LEHB14:
	call	_ZNSt7__cxx1118basic_stringstreamIcSt11char_traitsIcESaIcEEC1ERKNS_12basic_stringIcS2_S3_EESt13_Ios_Openmode@PLT
.LEHE14:
	.loc 12 136 34
	leaq	-496(%rbx), %rax
	movq	%rax, %rdi
.LEHB15:
	call	_ZNSt7__cxx1118basic_stringstreamIcSt11char_traitsIcESaIcEEC1Ev@PLT
.LEHE15:
	.loc 12 137 16
	leaq	-1024(%rbx), %rax
	movq	%rax, %rdi
	call	_ZNSt7__cxx1112basic_stringIcSt11char_traitsIcESaIcEEC1Ev@PLT
	.loc 12 139 28
	movq	-1192(%rbp), %rax
	movq	%rax, %rdi
	call	_ZNSt6vectorIS_IcSaIcEESaIS1_EEC1Ev
	.loc 12 140 20
	leaq	-1088(%rbx), %rax
	movq	%rax, %rdi
	call	_ZNSt6vectorIcSaIcEEC1Ev
.L174:
	.loc 12 142 41
	leaq	-1024(%rbx), %rcx
	leaq	-960(%rbx), %rax
	movl	$41, %edx
	movq	%rcx, %rsi
	movq	%rax, %rdi
.LEHB16:
	call	_ZSt7getlineIcSt11char_traitsIcESaIcEERSt13basic_istreamIT_T0_ES7_RNSt7__cxx1112basic_stringIS4_S5_T1_EES4_@PLT
	.loc 12 142 9
	movq	%rax, %rdx
	movq	%rdx, %rcx
	shrq	$3, %rcx
	addq	$2147450880, %rcx
	movzbl	(%rcx), %ecx
	testb	%cl, %cl
	je	.L167
	movq	%rdx, %rdi
	call	__asan_report_load8@PLT
.L167:
	.loc 12 142 9 is_stmt 0 discriminator 1
	movq	(%rax), %rdx
	subq	$24, %rdx
	movq	%rdx, %rcx
	movq	%rcx, %rsi
	shrq	$3, %rsi
	addq	$2147450880, %rsi
	movzbl	(%rsi), %esi
	testb	%sil, %sil
	je	.L168
	.loc 12 142 9
	movq	%rcx, %rdi
	call	__asan_report_load8@PLT
.L168:
	.loc 12 142 9 discriminator 1
	movq	(%rdx), %rdx
	addq	%rdx, %rax
	movq	%rax, %rdi
	call	_ZNKSt9basic_iosIcSt11char_traitsIcEEcvbEv@PLT
	testb	%al, %al
	je	.L183
	.loc 12 144 18 is_stmt 1
	leaq	-1024(%rbx), %rax
	leaq	-496(%rbx), %rdx
	addq	$16, %rdx
	movq	%rax, %rsi
	movq	%rdx, %rdi
	call	_ZStlsIcSt11char_traitsIcESaIcEERSt13basic_ostreamIT_T0_ES7_RKNSt7__cxx1112basic_stringIS4_S5_T1_EE@PLT
.L173:
	.loc 12 145 30
	leaq	-1104(%rbx), %rdx
	leaq	-496(%rbx), %rax
	movq	%rdx, %rsi
	movq	%rax, %rdi
	call	_ZStrsIcSt11char_traitsIcEERSt13basic_istreamIT_T0_ES6_RS3_@PLT
	movq	%rax, %rdx
	leaq	-1120(%rbx), %rax
	movq	%rax, %rsi
	movq	%rdx, %rdi
	call	_ZStrsIcSt11char_traitsIcEERSt13basic_istreamIT_T0_ES6_RS3_@PLT
	.loc 12 145 13 discriminator 1
	movq	%rax, %rdx
	movq	%rdx, %rcx
	shrq	$3, %rcx
	addq	$2147450880, %rcx
	movzbl	(%rcx), %ecx
	testb	%cl, %cl
	je	.L170
	.loc 12 145 13 is_stmt 0
	movq	%rdx, %rdi
	call	__asan_report_load8@PLT
.L170:
	.loc 12 145 13 discriminator 2
	movq	(%rax), %rdx
	subq	$24, %rdx
	movq	%rdx, %rcx
	movq	%rcx, %rsi
	shrq	$3, %rsi
	addq	$2147450880, %rsi
	movzbl	(%rsi), %esi
	testb	%sil, %sil
	je	.L171
	.loc 12 145 13
	movq	%rcx, %rdi
	call	__asan_report_load8@PLT
.L171:
	.loc 12 145 13 discriminator 2
	movq	(%rdx), %rdx
	addq	%rdx, %rax
	movq	%rax, %rdi
	call	_ZNKSt9basic_iosIcSt11char_traitsIcEEcvbEv@PLT
	testb	%al, %al
	je	.L172
	.loc 12 146 17 is_stmt 1
	leaq	-1120(%rbx), %rdx
	leaq	-1088(%rbx), %rax
	movq	%rdx, %rsi
	movq	%rax, %rdi
	call	_ZNSt6vectorIcSaIcEE9push_backERKc
	.loc 12 145 13
	jmp	.L173
.L172:
	.loc 12 147 13
	leaq	-1088(%rbx), %rdx
	movq	-1192(%rbp), %rax
	movq	%rdx, %rsi
	movq	%rax, %rdi
	call	_ZNSt6vectorIS_IcSaIcEESaIS1_EE9push_backERKS1_
	.loc 12 148 23
	leaq	-496(%rbx), %rax
	subq	$-128, %rax
	movl	$0, %esi
	movq	%rax, %rdi
	call	_ZNSt9basic_iosIcSt11char_traitsIcEE5clearESt12_Ios_Iostate@PLT
.LEHE16:
	.loc 12 149 13
	leaq	-1088(%rbx), %rax
	movq	%rax, %rdi
	call	_ZNSt6vectorIcSaIcEE5clearEv
	.loc 12 142 9
	jmp	.L174
.L183:
	.loc 12 151 16
	nop
	.loc 12 140 20
	leaq	-1088(%rbx), %rax
	movq	%rax, %rdi
	call	_ZNSt6vectorIcSaIcEED1Ev
	.loc 12 137 16
	leaq	-1024(%rbx), %rax
	movq	%rax, %rdi
	call	_ZNSt7__cxx1112basic_stringIcSt11char_traitsIcESaIcEED1Ev@PLT
	.loc 12 136 34
	leaq	-496(%rbx), %rax
	movq	%rax, %rdi
	call	_ZNSt7__cxx1118basic_stringstreamIcSt11char_traitsIcESaIcEED1Ev@PLT
	.loc 12 136 27
	leaq	-960(%rbx), %rax
	movq	%rax, %rdi
	call	_ZNSt7__cxx1118basic_stringstreamIcSt11char_traitsIcESaIcEED1Ev@PLT
	.loc 12 151 16
	nop
	.loc 12 134 31
	cmpq	%r13, %r14
	je	.L164
	jmp	.L182
.L180:
	endbr64
	movq	%rax, %r12
	.loc 12 140 20
	leaq	-1088(%rbx), %rax
	movq	%rax, %rdi
	call	_ZNSt6vectorIcSaIcEED1Ev
	movq	-1192(%rbp), %rax
	movq	%rax, %rdi
	call	_ZNSt6vectorIS_IcSaIcEESaIS1_EED1Ev
	.loc 12 137 16
	leaq	-1024(%rbx), %rax
	movq	%rax, %rdi
	call	_ZNSt7__cxx1112basic_stringIcSt11char_traitsIcESaIcEED1Ev@PLT
	.loc 12 136 34
	leaq	-496(%rbx), %rax
	movq	%rax, %rdi
	call	_ZNSt7__cxx1118basic_stringstreamIcSt11char_traitsIcESaIcEED1Ev@PLT
	jmp	.L177
.L179:
	endbr64
	movq	%rax, %r12
.L177:
	.loc 12 136 27 discriminator 2
	leaq	-960(%rbx), %rax
	movq	%rax, %rdi
	call	_ZNSt7__cxx1118basic_stringstreamIcSt11char_traitsIcESaIcEED1Ev@PLT
	movq	%r12, %rbx
	call	__asan_handle_no_return@PLT
	movq	%rbx, %rdi
.LEHB17:
	call	_Unwind_Resume@PLT
.LEHE17:
.L182:
	.loc 12 134 31
	movq	$1172321806, 0(%r13)
	movq	%r14, %rdx
	movl	$1120, %esi
	movq	%r13, %rdi
	call	__asan_stack_free_5@PLT
.LVL6:
	jmp	.L165
.L164:
	movq	$0, 2147450880(%r12)
	movq	$0, 2147450888(%r12)
	movl	$0, 2147450900(%r12)
	movq	$0, 2147450952(%r12)
	movl	$0, 2147450960(%r12)
	movq	$0, 2147451008(%r12)
	movl	$0, 2147451016(%r12)
.L165:
	.loc 12 152 5
	movq	-40(%rbp), %rax
	xorq	%fs:40, %rax
	je	.L178
	call	__stack_chk_fail@PLT
.L178:
	movq	-1192(%rbp), %rax
	addq	$1168, %rsp
	popq	%rbx
	popq	%r12
	popq	%r13
	popq	%r14
	popq	%rbp
	.cfi_def_cfa 7, 8
	ret
	.cfi_endproc
.LFE4456:
	.section	.gcc_except_table
.LLSDA4456:
	.byte	0xff
	.byte	0xff
	.byte	0x1
	.uleb128 .LLSDACSE4456-.LLSDACSB4456
.LLSDACSB4456:
	.uleb128 .LEHB14-.LFB4456
	.uleb128 .LEHE14-.LEHB14
	.uleb128 0
	.uleb128 0
	.uleb128 .LEHB15-.LFB4456
	.uleb128 .LEHE15-.LEHB15
	.uleb128 .L179-.LFB4456
	.uleb128 0
	.uleb128 .LEHB16-.LFB4456
	.uleb128 .LEHE16-.LEHB16
	.uleb128 .L180-.LFB4456
	.uleb128 0
	.uleb128 .LEHB17-.LFB4456
	.uleb128 .LEHE17-.LEHB17
	.uleb128 0
	.uleb128 0
.LLSDACSE4456:
	.section	.text._ZN7ALGraphIccE9getRelateERKNSt7__cxx1112basic_stringIcSt11char_traitsIcESaIcEEE,"axG",@progbits,_ZN7ALGraphIccE9getRelateERKNSt7__cxx1112basic_stringIcSt11char_traitsIcESaIcEEE,comdat
	.size	_ZN7ALGraphIccE9getRelateERKNSt7__cxx1112basic_stringIcSt11char_traitsIcESaIcEEE, .-_ZN7ALGraphIccE9getRelateERKNSt7__cxx1112basic_stringIcSt11char_traitsIcESaIcEEE
	.section	.text._ZNSt7__cxx1112basic_stringIcSt11char_traitsIcESaIcEEC2IS3_EEPKcRKS3_,"axG",@progbits,_ZNSt7__cxx1112basic_stringIcSt11char_traitsIcESaIcEEC5IS3_EEPKcRKS3_,comdat
	.align 2
	.weak	_ZNSt7__cxx1112basic_stringIcSt11char_traitsIcESaIcEEC2IS3_EEPKcRKS3_
	.type	_ZNSt7__cxx1112basic_stringIcSt11char_traitsIcESaIcEEC2IS3_EEPKcRKS3_, @function
_ZNSt7__cxx1112basic_stringIcSt11char_traitsIcESaIcEEC2IS3_EEPKcRKS3_:
.LASANPC4482:
.LFB4482:
	.loc 10 525 7
	.cfi_startproc
	.cfi_personality 0x9b,DW.ref.__gxx_personality_v0
	.cfi_lsda 0x1b,.LLSDA4482
	endbr64
	pushq	%rbp
	.cfi_def_cfa_offset 16
	.cfi_offset 6, -16
	movq	%rsp, %rbp
	.cfi_def_cfa_register 6
	pushq	%rbx
	subq	$40, %rsp
	.cfi_offset 3, -24
	movq	%rdi, -24(%rbp)
	movq	%rsi, -32(%rbp)
	movq	%rdx, -40(%rbp)
.LBB20:
	.loc 10 526 41
	movq	-24(%rbp), %rbx
	movq	-24(%rbp), %rax
	movq	%rax, %rdi
.LEHB18:
	call	_ZNSt7__cxx1112basic_stringIcSt11char_traitsIcESaIcEE13_M_local_dataEv@PLT
	movq	%rax, %rcx
	movq	-40(%rbp), %rax
	movq	%rax, %rdx
	movq	%rcx, %rsi
	movq	%rbx, %rdi
	call	_ZNSt7__cxx1112basic_stringIcSt11char_traitsIcESaIcEE12_Alloc_hiderC1EPcRKS3_@PLT
.LEHE18:
	.loc 10 527 9
	cmpq	$0, -32(%rbp)
	je	.L185
	.loc 10 527 58 discriminator 1
	movq	-32(%rbp), %rax
	movq	%rax, %rdi
.LEHB19:
	call	_ZNSt11char_traitsIcE6lengthEPKc
	.loc 10 527 9 discriminator 1
	movq	-32(%rbp), %rdx
	addq	%rdx, %rax
	jmp	.L186
.L185:
	.loc 10 527 9 is_stmt 0 discriminator 2
	movq	-32(%rbp), %rax
	subq	$1, %rax
.L186:
	.loc 10 527 9 discriminator 5
	movq	-32(%rbp), %rsi
	movq	-24(%rbp), %rcx
	movq	%rax, %rdx
	movq	%rcx, %rdi
	call	_ZNSt7__cxx1112basic_stringIcSt11char_traitsIcESaIcEE12_M_constructIPKcEEvT_S8_
.LEHE19:
.LBE20:
	.loc 10 527 77 is_stmt 1
	jmp	.L189
.L188:
	endbr64
	movq	%rax, %rbx
.LBB21:
	.loc 10 526 41
	movq	-24(%rbp), %rax
	movq	%rax, %rdi
	call	_ZNSt7__cxx1112basic_stringIcSt11char_traitsIcESaIcEE12_Alloc_hiderD1Ev
	call	__asan_handle_no_return@PLT
	movq	%rbx, %rdi
.LEHB20:
	call	_Unwind_Resume@PLT
.LEHE20:
.L189:
.LBE21:
	.loc 10 527 77
	addq	$40, %rsp
	popq	%rbx
	popq	%rbp
	.cfi_def_cfa 7, 8
	ret
	.cfi_endproc
.LFE4482:
	.section	.gcc_except_table
.LLSDA4482:
	.byte	0xff
	.byte	0xff
	.byte	0x1
	.uleb128 .LLSDACSE4482-.LLSDACSB4482
.LLSDACSB4482:
	.uleb128 .LEHB18-.LFB4482
	.uleb128 .LEHE18-.LEHB18
	.uleb128 0
	.uleb128 0
	.uleb128 .LEHB19-.LFB4482
	.uleb128 .LEHE19-.LEHB19
	.uleb128 .L188-.LFB4482
	.uleb128 0
	.uleb128 .LEHB20-.LFB4482
	.uleb128 .LEHE20-.LEHB20
	.uleb128 0
	.uleb128 0
.LLSDACSE4482:
	.section	.text._ZNSt7__cxx1112basic_stringIcSt11char_traitsIcESaIcEEC2IS3_EEPKcRKS3_,"axG",@progbits,_ZNSt7__cxx1112basic_stringIcSt11char_traitsIcESaIcEEC5IS3_EEPKcRKS3_,comdat
	.size	_ZNSt7__cxx1112basic_stringIcSt11char_traitsIcESaIcEEC2IS3_EEPKcRKS3_, .-_ZNSt7__cxx1112basic_stringIcSt11char_traitsIcESaIcEEC2IS3_EEPKcRKS3_
	.weak	_ZNSt7__cxx1112basic_stringIcSt11char_traitsIcESaIcEEC1IS3_EEPKcRKS3_
	.set	_ZNSt7__cxx1112basic_stringIcSt11char_traitsIcESaIcEEC1IS3_EEPKcRKS3_,_ZNSt7__cxx1112basic_stringIcSt11char_traitsIcESaIcEEC2IS3_EEPKcRKS3_
	.section	.text._ZNSt6vectorIS_IcSaIcEESaIS1_EED2Ev,"axG",@progbits,_ZNSt6vectorIS_IcSaIcEESaIS1_EED5Ev,comdat
	.align 2
	.weak	_ZNSt6vectorIS_IcSaIcEESaIS1_EED2Ev
	.type	_ZNSt6vectorIS_IcSaIcEESaIS1_EED2Ev, @function
_ZNSt6vectorIS_IcSaIcEESaIS1_EED2Ev:
.LASANPC4485:
.LFB4485:
	.loc 11 675 7
	.cfi_startproc
	.cfi_personality 0x9b,DW.ref.__gxx_personality_v0
	.cfi_lsda 0x1b,.LLSDA4485
	endbr64
	pushq	%rbp
	.cfi_def_cfa_offset 16
	.cfi_offset 6, -16
	movq	%rsp, %rbp
	.cfi_def_cfa_register 6
	subq	$16, %rsp
	movq	%rdi, -8(%rbp)
.LBB22:
	.loc 11 678 28
	movq	-8(%rbp), %rax
	movq	%rax, %rdi
	call	_ZNSt12_Vector_baseISt6vectorIcSaIcEESaIS2_EE19_M_get_Tp_allocatorEv
	movq	%rax, %rsi
	.loc 11 677 15
	movq	-8(%rbp), %rax
	addq	$8, %rax
	movq	%rax, %rdx
	shrq	$3, %rdx
	addq	$2147450880, %rdx
	movzbl	(%rdx), %edx
	testb	%dl, %dl
	je	.L191
	movq	%rax, %rdi
	call	__asan_report_load8@PLT
.L191:
	movq	-8(%rbp), %rax
	movq	8(%rax), %rcx
	movq	-8(%rbp), %rax
	movq	%rax, %rdx
	shrq	$3, %rdx
	addq	$2147450880, %rdx
	movzbl	(%rdx), %edx
	testb	%dl, %dl
	je	.L192
	movq	%rax, %rdi
	call	__asan_report_load8@PLT
.L192:
	movq	-8(%rbp), %rax
	movq	(%rax), %rax
	movq	%rsi, %rdx
	movq	%rcx, %rsi
	movq	%rax, %rdi
	call	_ZSt8_DestroyIPSt6vectorIcSaIcEES2_EvT_S4_RSaIT0_E
	.loc 11 680 7
	movq	-8(%rbp), %rax
	movq	%rax, %rdi
	call	_ZNSt12_Vector_baseISt6vectorIcSaIcEESaIS2_EED2Ev
.LBE22:
	nop
	leave
	.cfi_def_cfa 7, 8
	ret
	.cfi_endproc
.LFE4485:
	.section	.gcc_except_table
.LLSDA4485:
	.byte	0xff
	.byte	0xff
	.byte	0x1
	.uleb128 .LLSDACSE4485-.LLSDACSB4485
.LLSDACSB4485:
.LLSDACSE4485:
	.section	.text._ZNSt6vectorIS_IcSaIcEESaIS1_EED2Ev,"axG",@progbits,_ZNSt6vectorIS_IcSaIcEESaIS1_EED5Ev,comdat
	.size	_ZNSt6vectorIS_IcSaIcEESaIS1_EED2Ev, .-_ZNSt6vectorIS_IcSaIcEESaIS1_EED2Ev
	.weak	_ZNSt6vectorIS_IcSaIcEESaIS1_EED1Ev
	.set	_ZNSt6vectorIS_IcSaIcEESaIS1_EED1Ev,_ZNSt6vectorIS_IcSaIcEESaIS1_EED2Ev
	.globl	__asan_stack_malloc_1
	.section	.rodata
	.align 8
.LC7:
	.string	"3 32 1 9 <unknown> 48 1 9 <unknown> 64 32 9 <unknown>"
	.section	.text._ZN7ALGraphIccEC2ERKSt6vectorIS1_IcSaIcEESaIS3_EE6Direct,"axG",@progbits,_ZN7ALGraphIccEC5ERKSt6vectorIS1_IcSaIcEESaIS3_EE6Direct,comdat
	.align 2
	.weak	_ZN7ALGraphIccEC2ERKSt6vectorIS1_IcSaIcEESaIS3_EE6Direct
	.type	_ZN7ALGraphIccEC2ERKSt6vectorIS1_IcSaIcEESaIS3_EE6Direct, @function
_ZN7ALGraphIccEC2ERKSt6vectorIS1_IcSaIcEESaIS3_EE6Direct:
.LASANPC4488:
.LFB4488:
	.loc 12 35 5
	.cfi_startproc
	.cfi_personality 0x9b,DW.ref.__gxx_personality_v0
	.cfi_lsda 0x1b,.LLSDA4488
	endbr64
	pushq	%rbp
	.cfi_def_cfa_offset 16
	.cfi_offset 6, -16
	movq	%rsp, %rbp
	.cfi_def_cfa_register 6
	pushq	%r15
	pushq	%r14
	pushq	%r13
	pushq	%r12
	pushq	%rbx
	subq	$232, %rsp
	.cfi_offset 15, -24
	.cfi_offset 14, -32
	.cfi_offset 13, -40
	.cfi_offset 12, -48
	.cfi_offset 3, -56
	movq	%rdi, -232(%rbp)
	movq	%rsi, -240(%rbp)
	movl	%edx, -244(%rbp)
	leaq	-208(%rbp), %r12
	movq	%r12, -264(%rbp)
	cmpl	$0, __asan_option_detect_stack_use_after_return(%rip)
	je	.L193
	movl	$128, %edi
	call	__asan_stack_malloc_1@PLT
.LVL7:
	testq	%rax, %rax
	je	.L193
	movq	%rax, %r12
.L193:
	leaq	160(%r12), %rax
	movq	%rax, %rbx
	movq	$1102416563, (%r12)
	leaq	.LC7(%rip), %rax
	movq	%rax, 8(%r12)
	leaq	.LASANPC4488(%rip), %rax
	movq	%rax, 16(%r12)
	movq	%r12, %r13
	shrq	$3, %r13
	movl	$-235802127, 2147450880(%r13)
	movl	$-234753535, 2147450884(%r13)
	movl	$-202116109, 2147450892(%r13)
	.loc 12 35 5
	movq	%fs:40, %rax
	movq	%rax, -56(%rbp)
	xorl	%eax, %eax
.LBB23:
	.loc 12 35 141
	movq	-232(%rbp), %r14
	movq	-240(%rbp), %rax
	movq	%rax, %rdi
	call	_ZNKSt6vectorIS_IcSaIcEESaIS1_EE4sizeEv
	movl	%eax, %esi
	movl	-244(%rbp), %eax
	movl	%eax, %ecx
	movl	$0, %edx
	movq	%r14, %rdi
	call	_ZN5GraphIccEC2Eii6Direct
	leaq	16+_ZTV7ALGraphIccE(%rip), %rcx
	movq	-232(%rbp), %rax
	movq	%rax, %rdx
	shrq	$3, %rdx
	addq	$2147450880, %rdx
	movzbl	(%rdx), %edx
	testb	%dl, %dl
	je	.L197
	movq	%rax, %rdi
	call	__asan_report_store8@PLT
.L197:
	movq	-232(%rbp), %rax
	movq	%rcx, (%rax)
	movq	-232(%rbp), %rax
	leaq	24(%rax), %r14
	leaq	-128(%rbx), %rax
	movq	%rax, %rdi
	call	_ZNSaI5VNodeIccEEC1Ev
	movq	-240(%rbp), %rax
	movq	%rax, %rdi
	call	_ZNKSt6vectorIS_IcSaIcEESaIS1_EE4sizeEv
	movq	%rax, %rcx
	leaq	-128(%rbx), %rax
	movq	%rax, %rdx
	movq	%rcx, %rsi
	movq	%r14, %rdi
.LEHB21:
	call	_ZNSt6vectorI5VNodeIccESaIS1_EEC1EmRKS2_
.LEHE21:
	.loc 12 35 141 is_stmt 0 discriminator 2
	leaq	-128(%rbx), %rax
	movq	%rax, %rdi
	call	_ZNSaI5VNodeIccEED1Ev
	leaq	-128(%rbx), %rax
	shrq	$3, %rax
	addq	$2147450880, %rax
	movb	$-8, (%rax)
.LBB24:
	.loc 12 37 29 is_stmt 1 discriminator 2
	movq	-240(%rbp), %rax
	movl	$0, %esi
	movq	%rax, %rdi
	call	_ZNKSt6vectorIS_IcSaIcEESaIS1_EEixEm
	.loc 12 37 32 discriminator 2
	movl	$0, %esi
	movq	%rax, %rdi
	call	_ZNKSt6vectorIcSaIcEEixEm
	movq	%rax, %rdx
	.loc 12 37 12 discriminator 2
	movq	%rdx, %rax
	movq	%rax, %rcx
	shrq	$3, %rcx
	addq	$2147450880, %rcx
	movzbl	(%rcx), %ecx
	testb	%cl, %cl
	setne	%sil
	movq	%rax, %rdi
	andl	$7, %edi
	cmpb	%cl, %dil
	setge	%cl
	andl	%esi, %ecx
	testb	%cl, %cl
	je	.L198
	.loc 12 37 12 is_stmt 0
	movq	%rax, %rdi
	call	__asan_report_load1@PLT
.L198:
	.loc 12 37 12 discriminator 2
	movzbl	(%rdx), %eax
	movb	%al, -217(%rbp)
.LBB25:
	.loc 12 38 18 is_stmt 1 discriminator 2
	movl	$0, -216(%rbp)
.L212:
	.loc 12 38 29 discriminator 1
	movq	-232(%rbp), %rax
	addq	$8, %rax
	movq	%rax, %rdx
	movq	%rdx, %rax
	shrq	$3, %rax
	addq	$2147450880, %rax
	movzbl	(%rax), %eax
	testb	%al, %al
	setne	%cl
	cmpb	$3, %al
	setle	%al
	andl	%ecx, %eax
	testb	%al, %al
	je	.L199
	.loc 12 38 29 is_stmt 0
	movq	%rdx, %rdi
	call	__asan_report_load4@PLT
.L199:
	.loc 12 38 29 discriminator 1
	movq	-232(%rbp), %rax
	movl	8(%rax), %eax
	.loc 12 38 27 is_stmt 1 discriminator 1
	cmpl	%eax, -216(%rbp)
	jge	.L220
.LBB26:
	.loc 12 40 13
	leaq	-96(%rbx), %rax
	shrq	$3, %rax
	addq	$2147450880, %rax
	movl	$0, (%rax)
	.loc 12 40 52
	movl	-216(%rbp), %eax
	movslq	%eax, %rdx
	movq	-240(%rbp), %rax
	movq	%rdx, %rsi
	movq	%rax, %rdi
	call	_ZNKSt6vectorIS_IcSaIcEESaIS1_EEixEm
	.loc 12 40 55
	movl	$0, %esi
	movq	%rax, %rdi
	call	_ZNKSt6vectorIcSaIcEEixEm
	movq	%rax, %rdx
	.loc 12 40 13
	leaq	-96(%rbx), %rax
	movq	%rdx, %rsi
	movq	%rax, %rdi
	call	_ZN6VertexIcEC1ERKc
	.loc 12 40 18
	movq	-232(%rbp), %rax
	leaq	24(%rax), %rdx
	movl	-216(%rbp), %eax
	cltq
	movq	%rax, %rsi
	movq	%rdx, %rdi
	call	_ZNSt6vectorI5VNodeIccESaIS1_EEixEm
	.loc 12 40 13
	movq	%rax, %rdx
	movq	%rdx, %rcx
	shrq	$3, %rcx
	addq	$2147450880, %rcx
	movzbl	(%rcx), %ecx
	testb	%cl, %cl
	setne	%sil
	testb	%cl, %cl
	setle	%cl
	andl	%ecx, %esi
	movl	%esi, %r8d
	movl	$32, %ecx
	subq	$1, %rcx
	leaq	(%rdx,%rcx), %rsi
	movq	%rsi, %rcx
	shrq	$3, %rcx
	addq	$2147450880, %rcx
	movzbl	(%rcx), %ecx
	testb	%cl, %cl
	setne	%dil
	andl	$7, %esi
	cmpb	%cl, %sil
	setge	%cl
	andl	%edi, %ecx
	orl	%r8d, %ecx
	testb	%cl, %cl
	je	.L201
	movl	$32, %esi
	movq	%rdx, %rdi
	call	__asan_report_store_n@PLT
.L201:
	leaq	-96(%rbx), %rdx
	movq	%rdx, %rcx
	shrq	$3, %rcx
	addq	$2147450880, %rcx
	movzbl	(%rcx), %ecx
	testb	%cl, %cl
	setne	%sil
	testb	%cl, %cl
	setle	%cl
	andl	%ecx, %esi
	movl	%esi, %r8d
	movl	$32, %ecx
	subq	$1, %rcx
	leaq	(%rdx,%rcx), %rsi
	movq	%rsi, %rcx
	shrq	$3, %rcx
	addq	$2147450880, %rcx
	movzbl	(%rcx), %ecx
	testb	%cl, %cl
	setne	%dil
	andl	$7, %esi
	cmpb	%cl, %sil
	setge	%cl
	andl	%edi, %ecx
	orl	%r8d, %ecx
	testb	%cl, %cl
	je	.L202
	movl	$32, %esi
	movq	%rdx, %rdi
	call	__asan_report_load_n@PLT
.L202:
	movq	-96(%rbx), %rsi
	movq	-88(%rbx), %rdi
	movq	%rsi, (%rax)
	movq	%rdi, 8(%rax)
	movq	-80(%rbx), %rsi
	movq	-72(%rbx), %rdi
	movq	%rsi, 16(%rax)
	movq	%rdi, 24(%rax)
	leaq	-96(%rbx), %rax
	shrq	$3, %rax
	addq	$2147450880, %rax
	movl	$-117901064, (%rax)
.LBB27:
	.loc 12 41 22
	movl	$1, -212(%rbp)
.L211:
	.loc 12 41 29 discriminator 2
	movl	-212(%rbp), %eax
	movslq	%eax, %r14
	.loc 12 41 43 discriminator 2
	movl	-216(%rbp), %eax
	movslq	%eax, %rdx
	movq	-240(%rbp), %rax
	movq	%rdx, %rsi
	movq	%rax, %rdi
	call	_ZNKSt6vectorIS_IcSaIcEESaIS1_EEixEm
	.loc 12 41 31 discriminator 2
	movq	%rax, %rdi
	call	_ZNKSt6vectorIcSaIcEE4sizeEv
	cmpq	%rax, %r14
	setb	%al
	testb	%al, %al
	je	.L203
	.loc 12 42 56
	movl	-216(%rbp), %eax
	movslq	%eax, %rdx
	movq	-240(%rbp), %rax
	movq	%rdx, %rsi
	movq	%rax, %rdi
	call	_ZNKSt6vectorIS_IcSaIcEESaIS1_EEixEm
	movq	%rax, %rdx
	.loc 12 42 59
	movl	-212(%rbp), %eax
	cltq
	movq	%rax, %rsi
	movq	%rdx, %rdi
	call	_ZNKSt6vectorIcSaIcEEixEm
	movq	%rax, %rdx
	.loc 12 42 63
	movq	%rdx, %rax
	movq	%rax, %rcx
	shrq	$3, %rcx
	addq	$2147450880, %rcx
	movzbl	(%rcx), %ecx
	testb	%cl, %cl
	setne	%sil
	movq	%rax, %rdi
	andl	$7, %edi
	cmpb	%cl, %dil
	setge	%cl
	andl	%esi, %ecx
	testb	%cl, %cl
	je	.L204
	movq	%rax, %rdi
	call	__asan_report_load1@PLT
.L204:
	movzbl	(%rdx), %eax
	movsbl	%al, %edx
	.loc 12 42 65
	movsbl	-217(%rbp), %eax
	.loc 12 42 63
	subl	%eax, %edx
	movl	%edx, -248(%rbp)
	.loc 12 42 76
	movq	-232(%rbp), %rax
	leaq	24(%rax), %rdx
	movl	-216(%rbp), %eax
	cltq
	movq	%rax, %rsi
	movq	%rdx, %rdi
	call	_ZNSt6vectorI5VNodeIccESaIS1_EEixEm
	.loc 12 42 80
	leaq	32(%rax), %rdx
	movq	%rdx, %rcx
	shrq	$3, %rcx
	addq	$2147450880, %rcx
	movzbl	(%rcx), %ecx
	testb	%cl, %cl
	je	.L205
	movq	%rdx, %rdi
	call	__asan_report_load8@PLT
.L205:
	movq	32(%rax), %r15
	.loc 12 13 80
	leaq	-112(%rbx), %rax
	shrq	$3, %rax
	addq	$2147450880, %rax
	movb	$1, (%rax)
	leaq	-112(%rbx), %rax
	movq	%rax, %rdx
	movq	%rdx, %rax
	shrq	$3, %rax
	addq	$2147450880, %rax
	movzbl	(%rax), %eax
	testb	%al, %al
	setne	%cl
	testb	%al, %al
	setle	%al
	andl	%ecx, %eax
	testb	%al, %al
	je	.L206
	movq	%rdx, %rdi
	call	__asan_report_store1@PLT
.L206:
	movb	$1, -112(%rbx)
	leaq	-112(%rbx), %rax
	movq	%rax, -256(%rbp)
	.loc 12 42 32
	movl	$32, %edi
.LEHB22:
	call	_Znwm@PLT
.LEHE22:
	movq	%rax, %r14
	movq	-256(%rbp), %r8
	movl	$1, %ecx
	movq	%r15, %rdx
	movl	-248(%rbp), %esi
	movq	%r14, %rdi
.LEHB23:
	call	_ZN5ENodeIcEC1EiPS0_iRKc
.LEHE23:
	.loc 12 42 22 discriminator 3
	movq	-232(%rbp), %rax
	leaq	24(%rax), %rdx
	movl	-216(%rbp), %eax
	cltq
	movq	%rax, %rsi
	movq	%rdx, %rdi
	call	_ZNSt6vectorI5VNodeIccESaIS1_EEixEm
	.loc 12 42 17 discriminator 3
	leaq	32(%rax), %rdx
	movq	%rdx, %rcx
	shrq	$3, %rcx
	addq	$2147450880, %rcx
	movzbl	(%rcx), %ecx
	testb	%cl, %cl
	je	.L207
	.loc 12 42 17 is_stmt 0
	movq	%rdx, %rdi
	call	__asan_report_store8@PLT
.L207:
	.loc 12 42 17 discriminator 3
	movq	%r14, 32(%rax)
	.loc 12 13 80 is_stmt 1 discriminator 3
	leaq	-112(%rbx), %rax
	shrq	$3, %rax
	addq	$2147450880, %rax
	movb	$-8, (%rax)
	.loc 12 41 13 discriminator 3
	addl	$1, -212(%rbp)
	.loc 12 41 60 discriminator 3
	movq	-232(%rbp), %rax
	addq	$12, %rax
	movq	%rax, %rdx
	shrq	$3, %rdx
	addq	$2147450880, %rdx
	movzbl	(%rdx), %edx
	testb	%dl, %dl
	setne	%cl
	movq	%rax, %rsi
	andl	$7, %esi
	addl	$3, %esi
	cmpb	%dl, %sil
	setge	%dl
	andl	%ecx, %edx
	testb	%dl, %dl
	je	.L208
	.loc 12 41 60 is_stmt 0
	movq	%rax, %rdi
	call	__asan_report_load4@PLT
.L208:
	.loc 12 41 60 discriminator 3
	movq	-232(%rbp), %rax
	movl	12(%rax), %eax
	.loc 12 41 13 is_stmt 1 discriminator 3
	leal	1(%rax), %edx
	movq	-232(%rbp), %rax
	movl	%edx, 12(%rax)
	.loc 12 41 70 discriminator 3
	movq	-232(%rbp), %rax
	leaq	24(%rax), %rdx
	movl	-216(%rbp), %eax
	cltq
	movq	%rax, %rsi
	movq	%rdx, %rdi
	call	_ZNSt6vectorI5VNodeIccESaIS1_EEixEm
	.loc 12 41 81 discriminator 3
	leaq	8(%rax), %rdx
	movq	%rdx, %rcx
	movq	%rcx, %rdx
	shrq	$3, %rdx
	addq	$2147450880, %rdx
	movzbl	(%rdx), %edx
	testb	%dl, %dl
	setne	%sil
	cmpb	$3, %dl
	setle	%dl
	andl	%esi, %edx
	testb	%dl, %dl
	je	.L209
	.loc 12 41 81 is_stmt 0
	movq	%rcx, %rdi
	call	__asan_report_load4@PLT
.L209:
	.loc 12 41 81 discriminator 3
	movl	8(%rax), %edx
	.loc 12 41 13 is_stmt 1 discriminator 3
	addl	$1, %edx
	movl	%edx, 8(%rax)
	.loc 12 41 99 discriminator 3
	movq	-232(%rbp), %rax
	leaq	24(%rax), %rdx
	movl	-216(%rbp), %eax
	cltq
	movq	%rax, %rsi
	movq	%rdx, %rdi
	call	_ZNSt6vectorI5VNodeIccESaIS1_EEixEm
	.loc 12 41 110 discriminator 3
	leaq	4(%rax), %rdx
	movq	%rdx, %rcx
	shrq	$3, %rcx
	addq	$2147450880, %rcx
	movzbl	(%rcx), %ecx
	testb	%cl, %cl
	setne	%sil
	movq	%rdx, %rdi
	andl	$7, %edi
	addl	$3, %edi
	cmpb	%cl, %dil
	setge	%cl
	andl	%esi, %ecx
	testb	%cl, %cl
	je	.L210
	.loc 12 41 110 is_stmt 0
	movq	%rdx, %rdi
	call	__asan_report_load4@PLT
.L210:
	.loc 12 41 110 discriminator 3
	movl	4(%rax), %edx
	.loc 12 41 13 is_stmt 1 discriminator 3
	addl	$1, %edx
	movl	%edx, 4(%rax)
	jmp	.L211
.L203:
.LBE27:
.LBE26:
	.loc 12 38 9 discriminator 2
	addl	$1, -216(%rbp)
	jmp	.L212
.L217:
	endbr64
	movq	%rax, %r12
.LBE25:
.LBE24:
	.loc 12 35 141
	leaq	-128(%rbx), %rax
	movq	%rax, %rdi
	call	_ZNSaI5VNodeIccEED1Ev
	movq	%r12, %rbx
	call	__asan_handle_no_return@PLT
	movq	%rbx, %rdi
.LEHB24:
	call	_Unwind_Resume@PLT
.L219:
	endbr64
	movq	%rax, %r12
.LBB31:
.LBB30:
.LBB29:
.LBB28:
	.loc 12 42 32
	movl	$32, %esi
	movq	%r14, %rdi
	call	_ZdlPvm@PLT
	movq	%r12, %rax
	jmp	.L215
.L218:
	endbr64
.L215:
	.loc 12 13 80
	leaq	-112(%rbx), %rdx
	shrq	$3, %rdx
	addq	$2147450880, %rdx
	movb	$-8, (%rdx)
	movq	%rax, %rbx
.LBE28:
.LBE29:
.LBE30:
.LBE31:
	.loc 12 35 141
	movq	-232(%rbp), %rax
	addq	$24, %rax
	movq	%rax, %rdi
	call	_ZNSt6vectorI5VNodeIccESaIS1_EED1Ev
	call	__asan_handle_no_return@PLT
	movq	%rbx, %rdi
	call	_Unwind_Resume@PLT
.LEHE24:
.L220:
.LBE23:
	.loc 12 44 5
	nop
	.loc 12 35 5
	cmpq	%r12, -264(%rbp)
	je	.L194
	movq	$1172321806, (%r12)
	movabsq	$-723401728380766731, %rax
	movabsq	$-723401728380766731, %rdx
	movq	%rax, 2147450880(%r13)
	movq	%rdx, 2147450888(%r13)
	movq	120(%r12), %rax
	movb	$0, (%rax)
	jmp	.L195
.L194:
	movq	$0, 2147450880(%r13)
	movq	$0, 2147450888(%r13)
.L195:
	.loc 12 44 5
	movq	-56(%rbp), %rax
	xorq	%fs:40, %rax
	je	.L216
	call	__stack_chk_fail@PLT
.L216:
	addq	$232, %rsp
	popq	%rbx
	popq	%r12
	popq	%r13
	popq	%r14
	popq	%r15
	popq	%rbp
	.cfi_def_cfa 7, 8
	ret
	.cfi_endproc
.LFE4488:
	.section	.gcc_except_table
.LLSDA4488:
	.byte	0xff
	.byte	0xff
	.byte	0x1
	.uleb128 .LLSDACSE4488-.LLSDACSB4488
.LLSDACSB4488:
	.uleb128 .LEHB21-.LFB4488
	.uleb128 .LEHE21-.LEHB21
	.uleb128 .L217-.LFB4488
	.uleb128 0
	.uleb128 .LEHB22-.LFB4488
	.uleb128 .LEHE22-.LEHB22
	.uleb128 .L218-.LFB4488
	.uleb128 0
	.uleb128 .LEHB23-.LFB4488
	.uleb128 .LEHE23-.LEHB23
	.uleb128 .L219-.LFB4488
	.uleb128 0
	.uleb128 .LEHB24-.LFB4488
	.uleb128 .LEHE24-.LEHB24
	.uleb128 0
	.uleb128 0
.LLSDACSE4488:
	.section	.text._ZN7ALGraphIccEC2ERKSt6vectorIS1_IcSaIcEESaIS3_EE6Direct,"axG",@progbits,_ZN7ALGraphIccEC5ERKSt6vectorIS1_IcSaIcEESaIS3_EE6Direct,comdat
	.size	_ZN7ALGraphIccEC2ERKSt6vectorIS1_IcSaIcEESaIS3_EE6Direct, .-_ZN7ALGraphIccEC2ERKSt6vectorIS1_IcSaIcEESaIS3_EE6Direct
	.weak	_ZN7ALGraphIccEC1ERKSt6vectorIS1_IcSaIcEESaIS3_EE6Direct
	.set	_ZN7ALGraphIccEC1ERKSt6vectorIS1_IcSaIcEESaIS3_EE6Direct,_ZN7ALGraphIccEC2ERKSt6vectorIS1_IcSaIcEESaIS3_EE6Direct
	.section	.text._ZN7ALGraphIccED2Ev,"axG",@progbits,_ZN7ALGraphIccED5Ev,comdat
	.align 2
	.weak	_ZN7ALGraphIccED2Ev
	.type	_ZN7ALGraphIccED2Ev, @function
_ZN7ALGraphIccED2Ev:
.LASANPC4491:
.LFB4491:
	.loc 12 99 5
	.cfi_startproc
	endbr64
	pushq	%rbp
	.cfi_def_cfa_offset 16
	.cfi_offset 6, -16
	movq	%rsp, %rbp
	.cfi_def_cfa_register 6
	subq	$48, %rsp
	movq	%rdi, -40(%rbp)
.LBB32:
	.loc 12 112 5
	leaq	16+_ZTV7ALGraphIccE(%rip), %rcx
	movq	-40(%rbp), %rax
	movq	%rax, %rdx
	shrq	$3, %rdx
	addq	$2147450880, %rdx
	movzbl	(%rdx), %edx
	testb	%dl, %dl
	je	.L222
	movq	%rax, %rdi
	call	__asan_report_store8@PLT
.L222:
	movq	-40(%rbp), %rax
	movq	%rcx, (%rax)
.LBB33:
.LBB34:
	.loc 12 102 18
	movl	$0, -20(%rbp)
.L230:
	.loc 12 102 29 discriminator 1
	movq	-40(%rbp), %rax
	addq	$8, %rax
	movq	%rax, %rdx
	movq	%rdx, %rax
	shrq	$3, %rax
	addq	$2147450880, %rax
	movzbl	(%rax), %eax
	testb	%al, %al
	setne	%cl
	cmpb	$3, %al
	setle	%al
	andl	%ecx, %eax
	testb	%al, %al
	je	.L223
	.loc 12 102 29 is_stmt 0
	movq	%rdx, %rdi
	call	__asan_report_load4@PLT
.L223:
	.loc 12 102 29 discriminator 1
	movq	-40(%rbp), %rax
	movl	8(%rax), %eax
	.loc 12 102 27 is_stmt 1 discriminator 1
	cmpl	%eax, -20(%rbp)
	jge	.L224
	.loc 12 104 22
	movq	-40(%rbp), %rax
	leaq	24(%rax), %rdx
	movl	-20(%rbp), %eax
	cltq
	movq	%rax, %rsi
	movq	%rdx, %rdi
	call	_ZNSt6vectorI5VNodeIccESaIS1_EEixEm
	.loc 12 104 13
	leaq	32(%rax), %rdx
	movq	%rdx, %rcx
	shrq	$3, %rcx
	addq	$2147450880, %rcx
	movzbl	(%rcx), %ecx
	testb	%cl, %cl
	je	.L225
	movq	%rdx, %rdi
	call	__asan_report_load8@PLT
.L225:
	movq	32(%rax), %rax
	movq	%rax, -16(%rbp)
.L229:
	.loc 12 105 13
	cmpq	$0, -16(%rbp)
	je	.L226
	.loc 12 107 17
	movq	-16(%rbp), %rax
	addq	$16, %rax
	movq	%rax, %rdx
	shrq	$3, %rdx
	addq	$2147450880, %rdx
	movzbl	(%rdx), %edx
	testb	%dl, %dl
	je	.L227
	movq	%rax, %rdi
	call	__asan_report_load8@PLT
.L227:
	movq	-16(%rbp), %rax
	movq	16(%rax), %rax
	movq	%rax, -8(%rbp)
	.loc 12 108 24
	movq	-16(%rbp), %rax
	.loc 12 108 17
	testq	%rax, %rax
	je	.L228
	.loc 12 108 17 is_stmt 0 discriminator 1
	movl	$32, %esi
	movq	%rax, %rdi
	call	_ZdlPvm@PLT
.L228:
	.loc 12 109 17 is_stmt 1
	movq	-8(%rbp), %rax
	movq	%rax, -16(%rbp)
	.loc 12 105 13
	jmp	.L229
.L226:
	.loc 12 102 9 discriminator 2
	addl	$1, -20(%rbp)
	jmp	.L230
.L224:
.LBE34:
.LBE33:
	.loc 12 112 5
	movq	-40(%rbp), %rax
	addq	$24, %rax
	movq	%rax, %rdi
	call	_ZNSt6vectorI5VNodeIccESaIS1_EED1Ev
.LBE32:
	nop
	leave
	.cfi_def_cfa 7, 8
	ret
	.cfi_endproc
.LFE4491:
	.size	_ZN7ALGraphIccED2Ev, .-_ZN7ALGraphIccED2Ev
	.weak	_ZN7ALGraphIccED1Ev
	.set	_ZN7ALGraphIccED1Ev,_ZN7ALGraphIccED2Ev
	.section	.text._ZNSt12_Vector_baseISt6vectorIbSaIbEESaIS2_EE12_Vector_implD2Ev,"axG",@progbits,_ZNSt12_Vector_baseISt6vectorIbSaIbEESaIS2_EE12_Vector_implD5Ev,comdat
	.align 2
	.weak	_ZNSt12_Vector_baseISt6vectorIbSaIbEESaIS2_EE12_Vector_implD2Ev
	.type	_ZNSt12_Vector_baseISt6vectorIbSaIbEESaIS2_EE12_Vector_implD2Ev, @function
_ZNSt12_Vector_baseISt6vectorIbSaIbEESaIS2_EE12_Vector_implD2Ev:
.LASANPC4498:
.LFB4498:
	.loc 11 125 14
	.cfi_startproc
	endbr64
	pushq	%rbp
	.cfi_def_cfa_offset 16
	.cfi_offset 6, -16
	movq	%rsp, %rbp
	.cfi_def_cfa_register 6
	subq	$16, %rsp
	movq	%rdi, -8(%rbp)
.LBB35:
	.loc 11 125 14
	movq	-8(%rbp), %rax
	movq	%rax, %rdi
	call	_ZNSaISt6vectorIbSaIbEEED2Ev
.LBE35:
	nop
	leave
	.cfi_def_cfa 7, 8
	ret
	.cfi_endproc
.LFE4498:
	.size	_ZNSt12_Vector_baseISt6vectorIbSaIbEESaIS2_EE12_Vector_implD2Ev, .-_ZNSt12_Vector_baseISt6vectorIbSaIbEESaIS2_EE12_Vector_implD2Ev
	.weak	_ZNSt12_Vector_baseISt6vectorIbSaIbEESaIS2_EE12_Vector_implD1Ev
	.set	_ZNSt12_Vector_baseISt6vectorIbSaIbEESaIS2_EE12_Vector_implD1Ev,_ZNSt12_Vector_baseISt6vectorIbSaIbEESaIS2_EE12_Vector_implD2Ev
	.section	.text._ZN7ALGraphIccE14adjacentMatrixEv,"axG",@progbits,_ZN7ALGraphIccE14adjacentMatrixEv,comdat
	.align 2
	.weak	_ZN7ALGraphIccE14adjacentMatrixEv
	.type	_ZN7ALGraphIccE14adjacentMatrixEv, @function
_ZN7ALGraphIccE14adjacentMatrixEv:
.LASANPC4493:
.LFB4493:
	.loc 12 261 18
	.cfi_startproc
	endbr64
	pushq	%rbp
	.cfi_def_cfa_offset 16
	.cfi_offset 6, -16
	movq	%rsp, %rbp
	.cfi_def_cfa_register 6
	pushq	%r14
	pushq	%r13
	pushq	%r12
	pushq	%rbx
	addq	$-128, %rsp
	.cfi_offset 14, -24
	.cfi_offset 13, -32
	.cfi_offset 12, -40
	.cfi_offset 3, -48
	movq	%rdi, -152(%rbp)
	movq	%rsi, -160(%rbp)
	leaq	-128(%rbp), %rbx
	movq	%rbx, %r14
	cmpl	$0, __asan_option_detect_stack_use_after_return(%rip)
	je	.L232
	movl	$64, %edi
	call	__asan_stack_malloc_0@PLT
.LVL8:
	testq	%rax, %rax
	je	.L232
	movq	%rax, %rbx
.L232:
	leaq	96(%rbx), %rax
	movq	%rax, %r12
	movq	$1102416563, (%rbx)
	leaq	.LC0(%rip), %rax
	movq	%rax, 8(%rbx)
	leaq	.LASANPC4493(%rip), %rax
	movq	%rax, 16(%rbx)
	movq	%rbx, %r13
	shrq	$3, %r13
	movl	$-235802127, 2147450880(%r13)
	movl	$-202178560, 2147450884(%r13)
	.loc 12 261 18
	movq	%fs:40, %rax
	movq	%rax, -40(%rbp)
	xorl	%eax, %eax
	.loc 12 263 29
	movq	-160(%rbp), %rax
	addq	$8, %rax
	movq	%rax, %rdx
	movq	%rdx, %rax
	shrq	$3, %rax
	addq	$2147450880, %rax
	movzbl	(%rax), %eax
	testb	%al, %al
	setne	%cl
	cmpb	$3, %al
	setle	%al
	andl	%ecx, %eax
	testb	%al, %al
	je	.L236
	movq	%rdx, %rdi
	call	__asan_report_load4@PLT
.L236:
	movq	-160(%rbp), %rax
	movl	8(%rax), %eax
	.loc 12 263 22
	movslq	%eax, %rdx
	.loc 12 263 26
	movq	-160(%rbp), %rax
	movl	8(%rax), %eax
	.loc 12 263 22
	movslq	%eax, %rcx
	movq	-152(%rbp), %rax
	movq	%rcx, %rsi
	movq	%rax, %rdi
	call	_ZN6MatrixIbEC1Emm
.LBB36:
	.loc 12 265 18
	movl	$0, -140(%rbp)
.L245:
	.loc 12 265 29 discriminator 1
	movq	-160(%rbp), %rax
	addq	$8, %rax
	movq	%rax, %rdx
	movq	%rdx, %rax
	shrq	$3, %rax
	addq	$2147450880, %rax
	movzbl	(%rax), %eax
	testb	%al, %al
	setne	%cl
	cmpb	$3, %al
	setle	%al
	andl	%ecx, %eax
	testb	%al, %al
	je	.L237
	.loc 12 265 29 is_stmt 0
	movq	%rdx, %rdi
	call	__asan_report_load4@PLT
.L237:
	.loc 12 265 29 discriminator 1
	movq	-160(%rbp), %rax
	movl	8(%rax), %eax
	.loc 12 265 27 is_stmt 1 discriminator 1
	cmpl	%eax, -140(%rbp)
	jge	.L248
	.loc 12 267 22
	movq	-160(%rbp), %rax
	leaq	24(%rax), %rdx
	movl	-140(%rbp), %eax
	cltq
	movq	%rax, %rsi
	movq	%rdx, %rdi
	call	_ZNSt6vectorI5VNodeIccESaIS1_EEixEm
	.loc 12 267 13
	leaq	32(%rax), %rdx
	movq	%rdx, %rcx
	shrq	$3, %rcx
	addq	$2147450880, %rcx
	movzbl	(%rcx), %ecx
	testb	%cl, %cl
	je	.L239
	movq	%rdx, %rdi
	call	__asan_report_load8@PLT
.L239:
	movq	32(%rax), %rax
	movq	%rax, -136(%rbp)
.L244:
	.loc 12 268 13
	cmpq	$0, -136(%rbp)
	je	.L240
	.loc 12 270 17
	leaq	-64(%r12), %rax
	shrq	$3, %rax
	addq	$2147450880, %rax
	movw	$0, (%rax)
	.loc 12 270 23
	movl	-140(%rbp), %eax
	movslq	%eax, %rdx
	movq	-152(%rbp), %rax
	movq	%rdx, %rsi
	movq	%rax, %rdi
	call	_ZN6MatrixIbEixEm
	movq	%rax, %rdi
	.loc 12 270 27
	movq	-136(%rbp), %rax
	addq	$24, %rax
	movq	%rax, %rdx
	movq	%rdx, %rax
	shrq	$3, %rax
	addq	$2147450880, %rax
	movzbl	(%rax), %eax
	testb	%al, %al
	setne	%cl
	cmpb	$3, %al
	setle	%al
	andl	%ecx, %eax
	testb	%al, %al
	je	.L241
	movq	%rdx, %rdi
	call	__asan_report_load4@PLT
.L241:
	movq	-136(%rbp), %rax
	movl	24(%rax), %eax
	.loc 12 270 23
	cltq
	leaq	-64(%r12), %rdx
	movq	%rdx, %rcx
	shrq	$3, %rcx
	addq	$2147450880, %rcx
	movzwl	(%rcx), %ecx
	testw	%cx, %cx
	je	.L242
	movq	%rdx, %rdi
	call	__asan_report_store16@PLT
.L242:
	movq	%rax, %rsi
	call	_ZNSt6vectorIbSaIbEEixEm
	movq	%rax, -64(%r12)
	movq	%rdx, -56(%r12)
	.loc 12 270 33
	leaq	-64(%r12), %rax
	movl	$1, %esi
	movq	%rax, %rdi
	call	_ZNSt14_Bit_referenceaSEb
	.loc 12 270 23
	leaq	-64(%r12), %rax
	shrq	$3, %rax
	addq	$2147450880, %rax
	movw	$-1800, (%rax)
	.loc 12 271 17
	movq	-136(%rbp), %rax
	addq	$16, %rax
	movq	%rax, %rdx
	shrq	$3, %rdx
	addq	$2147450880, %rdx
	movzbl	(%rdx), %edx
	testb	%dl, %dl
	je	.L243
	movq	%rax, %rdi
	call	__asan_report_load8@PLT
.L243:
	movq	-136(%rbp), %rax
	movq	16(%rax), %rax
	movq	%rax, -136(%rbp)
	.loc 12 268 13
	jmp	.L244
.L240:
	.loc 12 265 9 discriminator 2
	addl	$1, -140(%rbp)
	jmp	.L245
.L248:
.LBE36:
	.loc 12 274 16
	nop
	.loc 12 261 18
	cmpq	%rbx, %r14
	je	.L233
	movq	$1172321806, (%rbx)
	movabsq	$-723401728380766731, %rax
	movq	%rax, 2147450880(%r13)
	movq	56(%rbx), %rax
	movb	$0, (%rax)
	jmp	.L234
.L233:
	movq	$0, 2147450880(%r13)
.L234:
	.loc 12 275 5
	movq	-40(%rbp), %rax
	xorq	%fs:40, %rax
	je	.L247
	call	__stack_chk_fail@PLT
.L247:
	movq	-152(%rbp), %rax
	subq	$-128, %rsp
	popq	%rbx
	popq	%r12
	popq	%r13
	popq	%r14
	popq	%rbp
	.cfi_def_cfa 7, 8
	ret
	.cfi_endproc
.LFE4493:
	.size	_ZN7ALGraphIccE14adjacentMatrixEv, .-_ZN7ALGraphIccE14adjacentMatrixEv
	.section	.text._ZNSt6vectorIS_IbSaIbEESaIS1_EED2Ev,"axG",@progbits,_ZNSt6vectorIS_IbSaIbEESaIS1_EED5Ev,comdat
	.align 2
	.weak	_ZNSt6vectorIS_IbSaIbEESaIS1_EED2Ev
	.type	_ZNSt6vectorIS_IbSaIbEESaIS1_EED2Ev, @function
_ZNSt6vectorIS_IbSaIbEESaIS1_EED2Ev:
.LASANPC4507:
.LFB4507:
	.loc 11 675 7
	.cfi_startproc
	.cfi_personality 0x9b,DW.ref.__gxx_personality_v0
	.cfi_lsda 0x1b,.LLSDA4507
	endbr64
	pushq	%rbp
	.cfi_def_cfa_offset 16
	.cfi_offset 6, -16
	movq	%rsp, %rbp
	.cfi_def_cfa_register 6
	subq	$16, %rsp
	movq	%rdi, -8(%rbp)
.LBB37:
	.loc 11 678 28
	movq	-8(%rbp), %rax
	movq	%rax, %rdi
	call	_ZNSt12_Vector_baseISt6vectorIbSaIbEESaIS2_EE19_M_get_Tp_allocatorEv
	movq	%rax, %rsi
	.loc 11 677 15
	movq	-8(%rbp), %rax
	addq	$8, %rax
	movq	%rax, %rdx
	shrq	$3, %rdx
	addq	$2147450880, %rdx
	movzbl	(%rdx), %edx
	testb	%dl, %dl
	je	.L250
	movq	%rax, %rdi
	call	__asan_report_load8@PLT
.L250:
	movq	-8(%rbp), %rax
	movq	8(%rax), %rcx
	movq	-8(%rbp), %rax
	movq	%rax, %rdx
	shrq	$3, %rdx
	addq	$2147450880, %rdx
	movzbl	(%rdx), %edx
	testb	%dl, %dl
	je	.L251
	movq	%rax, %rdi
	call	__asan_report_load8@PLT
.L251:
	movq	-8(%rbp), %rax
	movq	(%rax), %rax
	movq	%rsi, %rdx
	movq	%rcx, %rsi
	movq	%rax, %rdi
	call	_ZSt8_DestroyIPSt6vectorIbSaIbEES2_EvT_S4_RSaIT0_E
	.loc 11 680 7
	movq	-8(%rbp), %rax
	movq	%rax, %rdi
	call	_ZNSt12_Vector_baseISt6vectorIbSaIbEESaIS2_EED2Ev
.LBE37:
	nop
	leave
	.cfi_def_cfa 7, 8
	ret
	.cfi_endproc
.LFE4507:
	.section	.gcc_except_table
.LLSDA4507:
	.byte	0xff
	.byte	0xff
	.byte	0x1
	.uleb128 .LLSDACSE4507-.LLSDACSB4507
.LLSDACSB4507:
.LLSDACSE4507:
	.section	.text._ZNSt6vectorIS_IbSaIbEESaIS1_EED2Ev,"axG",@progbits,_ZNSt6vectorIS_IbSaIbEESaIS1_EED5Ev,comdat
	.size	_ZNSt6vectorIS_IbSaIbEESaIS1_EED2Ev, .-_ZNSt6vectorIS_IbSaIbEESaIS1_EED2Ev
	.weak	_ZNSt6vectorIS_IbSaIbEESaIS1_EED1Ev
	.set	_ZNSt6vectorIS_IbSaIbEESaIS1_EED1Ev,_ZNSt6vectorIS_IbSaIbEESaIS1_EED2Ev
	.section	.text._ZlsIbERSoS0_RK6MatrixIT_E,"axG",@progbits,_ZlsIbERSoS0_RK6MatrixIT_E,comdat
	.weak	_ZlsIbERSoS0_RK6MatrixIT_E
	.type	_ZlsIbERSoS0_RK6MatrixIT_E, @function
_ZlsIbERSoS0_RK6MatrixIT_E:
.LASANPC4509:
.LFB4509:
	.loc 8 213 15
	.cfi_startproc
	endbr64
	pushq	%rbp
	.cfi_def_cfa_offset 16
	.cfi_offset 6, -16
	movq	%rsp, %rbp
	.cfi_def_cfa_register 6
	pushq	%rbx
	subq	$40, %rsp
	.cfi_offset 3, -24
	movq	%rdi, -40(%rbp)
	movq	%rsi, -48(%rbp)
.LBB38:
	.loc 8 215 17
	movq	$0, -32(%rbp)
.L258:
	.loc 8 215 30 discriminator 1
	movq	-48(%rbp), %rax
	addq	$24, %rax
	movq	%rax, %rdx
	shrq	$3, %rdx
	addq	$2147450880, %rdx
	movzbl	(%rdx), %edx
	testb	%dl, %dl
	je	.L253
	.loc 8 215 30 is_stmt 0
	movq	%rax, %rdi
	call	__asan_report_load8@PLT
.L253:
	.loc 8 215 30 discriminator 1
	movq	-48(%rbp), %rax
	movq	24(%rax), %rax
	.loc 8 215 26 is_stmt 1 discriminator 1
	cmpq	%rax, -32(%rbp)
	jnb	.L254
.LBB39:
.LBB40:
	.loc 8 217 21
	movq	$0, -24(%rbp)
.L257:
	.loc 8 217 34 discriminator 3
	movq	-48(%rbp), %rax
	addq	$32, %rax
	movq	%rax, %rdx
	shrq	$3, %rdx
	addq	$2147450880, %rdx
	movzbl	(%rdx), %edx
	testb	%dl, %dl
	je	.L255
	.loc 8 217 34 is_stmt 0
	movq	%rax, %rdi
	call	__asan_report_load8@PLT
.L255:
	.loc 8 217 34 discriminator 3
	movq	-48(%rbp), %rax
	movq	32(%rax), %rax
	.loc 8 217 30 is_stmt 1 discriminator 3
	cmpq	%rax, -24(%rbp)
	jnb	.L256
	.loc 8 218 33 discriminator 2
	movl	$3, %edi
	call	_ZSt4setwi
	movl	%eax, %edx
	movq	-40(%rbp), %rax
	movl	%edx, %esi
	movq	%rax, %rdi
	call	_ZStlsIcSt11char_traitsIcEERSt13basic_ostreamIT_T0_ES6_St5_Setw@PLT
	movq	%rax, %rbx
	movl	$32, %edi
	call	_ZSt11setiosflagsSt13_Ios_Fmtflags
	movl	%eax, %esi
	movq	%rbx, %rdi
	call	_ZStlsIcSt11char_traitsIcEERSt13basic_ostreamIT_T0_ES6_St12_Setiosflags@PLT
	movq	%rax, %rbx
	.loc 8 218 80 discriminator 2
	movq	-48(%rbp), %rax
	movq	-32(%rbp), %rdx
	movq	%rdx, %rsi
	movq	%rax, %rdi
	call	_ZNKSt6vectorIS_IbSaIbEESaIS1_EEixEm
	movq	%rax, %rdx
	.loc 8 218 83 discriminator 2
	movq	-24(%rbp), %rax
	movq	%rax, %rsi
	movq	%rdx, %rdi
	call	_ZNKSt6vectorIbSaIbEEixEm
	.loc 8 218 69 discriminator 2
	movzbl	%al, %eax
	movl	%eax, %esi
	movq	%rbx, %rdi
	call	_ZNSolsEb@PLT
	.loc 8 218 87 discriminator 2
	movl	$32, %esi
	movq	%rax, %rdi
	call	_ZStlsISt11char_traitsIcEERSt13basic_ostreamIcT_ES5_c@PLT
	.loc 8 217 9 discriminator 2
	addq	$1, -24(%rbp)
	jmp	.L257
.L256:
.LBE40:
	.loc 8 219 13 discriminator 2
	movq	-40(%rbp), %rax
	movq	_ZSt4endlIcSt11char_traitsIcEERSt13basic_ostreamIT_T0_ES6_@GOTPCREL(%rip), %rdx
	movq	%rdx, %rsi
	movq	%rax, %rdi
	call	_ZNSolsEPFRSoS_E@PLT
.LBE39:
	.loc 8 215 5 discriminator 2
	addq	$1, -32(%rbp)
	jmp	.L258
.L254:
.LBE38:
	.loc 8 221 12
	movq	-40(%rbp), %rax
	.loc 8 222 1
	addq	$40, %rsp
	popq	%rbx
	popq	%rbp
	.cfi_def_cfa 7, 8
	ret
	.cfi_endproc
.LFE4509:
	.size	_ZlsIbERSoS0_RK6MatrixIT_E, .-_ZlsIbERSoS0_RK6MatrixIT_E
	.section	.text._ZNSt5stackIiSt5dequeIiSaIiEEED2Ev,"axG",@progbits,_ZNSt5stackIiSt5dequeIiSaIiEEED5Ev,comdat
	.align 2
	.weak	_ZNSt5stackIiSt5dequeIiSaIiEEED2Ev
	.type	_ZNSt5stackIiSt5dequeIiSaIiEEED2Ev, @function
_ZNSt5stackIiSt5dequeIiSaIiEEED2Ev:
.LASANPC4512:
.LFB4512:
	.file 13 "/usr/include/c++/9/bits/stl_stack.h"
	.loc 13 99 11
	.cfi_startproc
	endbr64
	pushq	%rbp
	.cfi_def_cfa_offset 16
	.cfi_offset 6, -16
	movq	%rsp, %rbp
	.cfi_def_cfa_register 6
	subq	$16, %rsp
	movq	%rdi, -8(%rbp)
.LBB41:
	.loc 13 99 11
	movq	-8(%rbp), %rax
	movq	%rax, %rdi
	call	_ZNSt5dequeIiSaIiEED1Ev
.LBE41:
	nop
	leave
	.cfi_def_cfa 7, 8
	ret
	.cfi_endproc
.LFE4512:
	.size	_ZNSt5stackIiSt5dequeIiSaIiEEED2Ev, .-_ZNSt5stackIiSt5dequeIiSaIiEEED2Ev
	.weak	_ZNSt5stackIiSt5dequeIiSaIiEEED1Ev
	.set	_ZNSt5stackIiSt5dequeIiSaIiEEED1Ev,_ZNSt5stackIiSt5dequeIiSaIiEEED2Ev
	.globl	__asan_stack_malloc_2
	.section	.rodata
	.align 8
.LC8:
	.string	"2 32 4 8 clock:16 48 80 4 S:17"
	.align 32
.LC9:
	.string	"please try scc or scc2"
	.zero	41
	.section	.text._ZN5GraphIccE3bccEv,"axG",@progbits,_ZN5GraphIccE3bccEv,comdat
	.align 2
	.weak	_ZN5GraphIccE3bccEv
	.type	_ZN5GraphIccE3bccEv, @function
_ZN5GraphIccE3bccEv:
.LASANPC4510:
.LFB4510:
	.file 14 "../src/GraphBcc.h"
	.loc 14 7 6
	.cfi_startproc
	.cfi_personality 0x9b,DW.ref.__gxx_personality_v0
	.cfi_lsda 0x1b,.LLSDA4510
	endbr64
	pushq	%rbp
	.cfi_def_cfa_offset 16
	.cfi_offset 6, -16
	movq	%rsp, %rbp
	.cfi_def_cfa_register 6
	pushq	%r14
	pushq	%r13
	pushq	%r12
	pushq	%rbx
	subq	$224, %rsp
	.cfi_offset 14, -24
	.cfi_offset 13, -32
	.cfi_offset 12, -40
	.cfi_offset 3, -48
	movq	%rdi, -248(%rbp)
	leaq	-224(%rbp), %rbx
	movq	%rbx, %r14
	cmpl	$0, __asan_option_detect_stack_use_after_return(%rip)
	je	.L261
	movl	$160, %edi
	call	__asan_stack_malloc_2@PLT
.LVL9:
	testq	%rax, %rax
	je	.L261
	movq	%rax, %rbx
.L261:
	leaq	192(%rbx), %rax
	movq	%rax, %r13
	movq	$1102416563, (%rbx)
	leaq	.LC8(%rip), %rax
	movq	%rax, 8(%rbx)
	leaq	.LASANPC4510(%rip), %rax
	movq	%rax, 16(%rbx)
	movq	%rbx, %r12
	shrq	$3, %r12
	movl	$-235802127, 2147450880(%r12)
	movl	$61956, 2147450884(%r12)
	movl	$-202116109, 2147450896(%r12)
	.loc 14 7 6
	movq	%fs:40, %rax
	movq	%rax, -40(%rbp)
	xorl	%eax, %eax
	.loc 14 9 9
	movq	-248(%rbp), %rax
	addq	$16, %rax
	movq	%rax, %rdx
	movq	%rdx, %rax
	shrq	$3, %rax
	addq	$2147450880, %rax
	movzbl	(%rax), %eax
	testb	%al, %al
	setne	%cl
	cmpb	$3, %al
	setle	%al
	andl	%ecx, %eax
	testb	%al, %al
	je	.L265
	movq	%rdx, %rdi
	call	__asan_report_load4@PLT
.L265:
	movq	-248(%rbp), %rax
	movl	16(%rax), %eax
	.loc 14 9 5
	cmpl	$1, %eax
	jne	.L266
	.loc 14 11 14
	leaq	.LC9(%rip), %rsi
	leaq	_ZSt4cout(%rip), %rdi
.LEHB25:
	call	_ZStlsISt11char_traitsIcEERSt13basic_ostreamIcT_ES5_PKc@PLT
	movq	%rax, %rdx
	.loc 14 11 42
	movq	_ZSt4endlIcSt11char_traitsIcEERSt13basic_ostreamIT_T0_ES6_@GOTPCREL(%rip), %rax
	movq	%rax, %rsi
	movq	%rdx, %rdi
	call	_ZNSolsEPFRSoS_E@PLT
	.loc 14 12 9
	jmp	.L264
.L266:
	.loc 14 14 5
	movq	-248(%rbp), %rax
	movq	%rax, %rdi
	call	_ZN5GraphIccE5resetEv
	.loc 14 15 9
	movl	$0, -228(%rbp)
	.loc 14 16 9
	leaq	-160(%r13), %rax
	movq	%rax, %rdx
	movq	%rdx, %rax
	shrq	$3, %rax
	addq	$2147450880, %rax
	movzbl	(%rax), %eax
	testb	%al, %al
	setne	%cl
	cmpb	$3, %al
	setle	%al
	andl	%ecx, %eax
	testb	%al, %al
	je	.L268
	movq	%rdx, %rdi
	call	__asan_report_store4@PLT
.L268:
	movl	$0, -160(%r13)
	.loc 14 17 16
	leaq	-144(%r13), %rax
	movq	%rax, %rdi
	call	_ZNSt5stackIiSt5dequeIiSaIiEEEC1IS2_vEEv
.LEHE25:
.L275:
	.loc 14 18 17
	movq	-248(%rbp), %rax
	addq	$8, %rax
	movq	%rax, %rdx
	movq	%rdx, %rax
	shrq	$3, %rax
	addq	$2147450880, %rax
	movzbl	(%rax), %eax
	testb	%al, %al
	setne	%cl
	cmpb	$3, %al
	setle	%al
	andl	%ecx, %eax
	testb	%al, %al
	je	.L269
	movq	%rdx, %rdi
	call	__asan_report_load4@PLT
.L269:
	movq	-248(%rbp), %rax
	movl	8(%rax), %eax
	.loc 14 18 19
	subl	$1, %eax
	.loc 14 18 14
	cmpl	%eax, -228(%rbp)
	je	.L270
	.loc 14 20 23
	movq	-248(%rbp), %rax
	movq	%rax, %rdx
	shrq	$3, %rdx
	addq	$2147450880, %rdx
	movzbl	(%rdx), %edx
	testb	%dl, %dl
	je	.L271
	movq	%rax, %rdi
	call	__asan_report_load8@PLT
.L271:
	movq	-248(%rbp), %rax
	movq	(%rax), %rax
	addq	$64, %rax
	movq	%rax, %rdx
	movq	%rdx, %rcx
	shrq	$3, %rcx
	addq	$2147450880, %rcx
	movzbl	(%rcx), %ecx
	testb	%cl, %cl
	je	.L272
	movq	%rdx, %rdi
	call	__asan_report_load8@PLT
.L272:
	movq	(%rax), %rcx
	movl	-228(%rbp), %edx
	movq	-248(%rbp), %rax
	movl	%edx, %esi
	movq	%rax, %rdi
.LEHB26:
	call	*%rcx
.LVL10:
	movq	%rax, %rdx
	movq	%rdx, %rax
	movq	%rax, %rcx
	shrq	$3, %rcx
	addq	$2147450880, %rcx
	movzbl	(%rcx), %ecx
	testb	%cl, %cl
	setne	%sil
	movq	%rax, %rdi
	andl	$7, %edi
	addl	$3, %edi
	cmpb	%cl, %dil
	setge	%cl
	andl	%esi, %ecx
	testb	%cl, %cl
	je	.L273
	movq	%rax, %rdi
	call	__asan_report_load4@PLT
.L273:
	.loc 14 20 23 is_stmt 0 discriminator 1
	movl	(%rdx), %eax
	testl	%eax, %eax
	sete	%al
	.loc 14 20 9 is_stmt 1 discriminator 1
	testb	%al, %al
	je	.L274
	.loc 14 22 13
	leaq	-144(%r13), %rcx
	leaq	-160(%r13), %rdx
	movl	-228(%rbp), %esi
	movq	-248(%rbp), %rax
	movq	%rax, %rdi
	call	_ZN5GraphIccE3BCCEiRiRSt5stackIiSt5dequeIiSaIiEEE
.LEHE26:
	.loc 14 23 18
	leaq	-144(%r13), %rax
	movq	%rax, %rdi
	call	_ZNSt5stackIiSt5dequeIiSaIiEEE3popEv
.L274:
	.loc 14 25 9
	addl	$1, -228(%rbp)
	.loc 14 18 5
	jmp	.L275
.L270:
	.loc 14 17 16
	leaq	-144(%r13), %rax
	movq	%rax, %rdi
	call	_ZNSt5stackIiSt5dequeIiSaIiEEED1Ev
	jmp	.L264
.L279:
	endbr64
	movq	%rax, %rbx
	leaq	-144(%r13), %rax
	movq	%rax, %rdi
	call	_ZNSt5stackIiSt5dequeIiSaIiEEED1Ev
	call	__asan_handle_no_return@PLT
	movq	%rbx, %rdi
.LEHB27:
	call	_Unwind_Resume@PLT
.LEHE27:
.L264:
	.loc 14 7 6
	cmpq	%rbx, %r14
	je	.L262
	movq	$1172321806, (%rbx)
	movabsq	$-723401728380766731, %rax
	movabsq	$-723401728380766731, %rdx
	movq	%rax, 2147450880(%r12)
	movq	%rdx, 2147450888(%r12)
	movl	$-168430091, 2147450896(%r12)
	movq	248(%rbx), %rax
	movb	$0, (%rax)
	jmp	.L263
.L262:
	movq	$0, 2147450880(%r12)
	movl	$0, 2147450896(%r12)
.L263:
	.loc 14 27 1
	movq	-40(%rbp), %rax
	xorq	%fs:40, %rax
	je	.L278
	call	__stack_chk_fail@PLT
.L278:
	addq	$224, %rsp
	popq	%rbx
	popq	%r12
	popq	%r13
	popq	%r14
	popq	%rbp
	.cfi_def_cfa 7, 8
	ret
	.cfi_endproc
.LFE4510:
	.section	.gcc_except_table
.LLSDA4510:
	.byte	0xff
	.byte	0xff
	.byte	0x1
	.uleb128 .LLSDACSE4510-.LLSDACSB4510
.LLSDACSB4510:
	.uleb128 .LEHB25-.LFB4510
	.uleb128 .LEHE25-.LEHB25
	.uleb128 0
	.uleb128 0
	.uleb128 .LEHB26-.LFB4510
	.uleb128 .LEHE26-.LEHB26
	.uleb128 .L279-.LFB4510
	.uleb128 0
	.uleb128 .LEHB27-.LFB4510
	.uleb128 .LEHE27-.LEHB27
	.uleb128 0
	.uleb128 0
.LLSDACSE4510:
	.section	.text._ZN5GraphIccE3bccEv,"axG",@progbits,_ZN5GraphIccE3bccEv,comdat
	.size	_ZN5GraphIccE3bccEv, .-_ZN5GraphIccE3bccEv
	.section	.text._ZN5GraphIccE9getReveseI7ALGraphIccEEEPT_v,"axG",@progbits,_ZN5GraphIccE9getReveseI7ALGraphIccEEEPT_v,comdat
	.align 2
	.weak	_ZN5GraphIccE9getReveseI7ALGraphIccEEEPT_v
	.type	_ZN5GraphIccE9getReveseI7ALGraphIccEEEPT_v, @function
_ZN5GraphIccE9getReveseI7ALGraphIccEEEPT_v:
.LASANPC4514:
.LFB4514:
	.file 15 "../src/Graph.h"
	.loc 15 83 8
	.cfi_startproc
	.cfi_personality 0x9b,DW.ref.__gxx_personality_v0
	.cfi_lsda 0x1b,.LLSDA4514
	endbr64
	pushq	%rbp
	.cfi_def_cfa_offset 16
	.cfi_offset 6, -16
	movq	%rsp, %rbp
	.cfi_def_cfa_register 6
	pushq	%r15
	pushq	%r14
	pushq	%r13
	pushq	%r12
	pushq	%rbx
	subq	$152, %rsp
	.cfi_offset 15, -24
	.cfi_offset 14, -32
	.cfi_offset 13, -40
	.cfi_offset 12, -48
	.cfi_offset 3, -56
	movq	%rdi, -184(%rbp)
	leaq	-144(%rbp), %rbx
	movq	%rbx, %r15
	cmpl	$0, __asan_option_detect_stack_use_after_return(%rip)
	je	.L280
	movl	$64, %edi
	call	__asan_stack_malloc_0@PLT
.LVL11:
	testq	%rax, %rax
	je	.L280
	movq	%rax, %rbx
.L280:
	leaq	96(%rbx), %rax
	movq	%rax, %r12
	movq	$1102416563, (%rbx)
	leaq	.LC5(%rip), %rax
	movq	%rax, 8(%rbx)
	leaq	.LASANPC4514(%rip), %rax
	movq	%rax, 16(%rbx)
	movq	%rbx, %r13
	shrq	$3, %r13
	movl	$-235802127, 2147450880(%r13)
	movl	$-202116351, 2147450884(%r13)
	.loc 15 83 8
	movq	%fs:40, %rax
	movq	%rax, -56(%rbp)
	xorl	%eax, %eax
	.loc 15 85 16
	movl	$48, %edi
.LEHB28:
	call	_Znwm@PLT
.LEHE28:
	movq	%rax, %r14
	movl	$1, %edx
	movl	$0, %esi
	movq	%r14, %rdi
.LEHB29:
	call	_ZN7ALGraphIccEC1Ei6Direct
.LEHE29:
	.loc 15 85 12 discriminator 2
	movq	%r14, -152(%rbp)
.LBB42:
	.loc 15 86 18 discriminator 2
	movl	$0, -164(%rbp)
.L290:
	.loc 15 86 35 discriminator 3
	movq	-184(%rbp), %rax
	addq	$8, %rax
	movq	%rax, %rdx
	movq	%rdx, %rax
	shrq	$3, %rax
	addq	$2147450880, %rax
	movzbl	(%rax), %eax
	testb	%al, %al
	setne	%cl
	cmpb	$3, %al
	setle	%al
	andl	%ecx, %eax
	testb	%al, %al
	je	.L284
	.loc 15 86 35 is_stmt 0
	movq	%rdx, %rdi
	call	__asan_report_load4@PLT
.L284:
	.loc 15 86 35 discriminator 3
	movq	-184(%rbp), %rax
	movl	8(%rax), %eax
	.loc 15 86 27 is_stmt 1 discriminator 3
	cmpl	%eax, -164(%rbp)
	jge	.L285
	.loc 15 87 13 discriminator 2
	movq	-152(%rbp), %rax
	movq	%rax, %rdx
	shrq	$3, %rdx
	addq	$2147450880, %rdx
	movzbl	(%rdx), %edx
	testb	%dl, %dl
	je	.L286
	.loc 15 87 13 is_stmt 0
	movq	%rax, %rdi
	call	__asan_report_load8@PLT
.L286:
	.loc 15 87 13 discriminator 2
	movq	-152(%rbp), %rax
	movq	(%rax), %rax
	movq	%rax, %rdx
	movq	%rdx, %rcx
	shrq	$3, %rcx
	addq	$2147450880, %rcx
	movzbl	(%rcx), %ecx
	testb	%cl, %cl
	je	.L287
	.loc 15 87 13
	movq	%rdx, %rdi
	call	__asan_report_load8@PLT
.L287:
	.loc 15 87 13 discriminator 2
	movq	(%rax), %r14
	movq	-184(%rbp), %rax
	movq	%rax, %rdx
	shrq	$3, %rdx
	addq	$2147450880, %rdx
	movzbl	(%rdx), %edx
	testb	%dl, %dl
	je	.L288
	.loc 15 87 13
	movq	%rax, %rdi
	call	__asan_report_load8@PLT
.L288:
	.loc 15 87 13 discriminator 2
	movq	-184(%rbp), %rax
	movq	(%rax), %rax
	addq	$24, %rax
	movq	%rax, %rdx
	movq	%rdx, %rcx
	shrq	$3, %rcx
	addq	$2147450880, %rcx
	movzbl	(%rcx), %ecx
	testb	%cl, %cl
	je	.L289
	.loc 15 87 13
	movq	%rdx, %rdi
	call	__asan_report_load8@PLT
.L289:
	.loc 15 87 13 discriminator 2
	movq	(%rax), %rcx
	movl	-164(%rbp), %edx
	movq	-184(%rbp), %rax
	movl	%edx, %esi
	movq	%rax, %rdi
.LEHB30:
	call	*%rcx
.LVL12:
	movq	%rax, %rdx
	movq	-152(%rbp), %rax
	movq	%rdx, %rsi
	movq	%rax, %rdi
	call	*%r14
.LVL13:
	.loc 15 86 9 is_stmt 1 discriminator 2
	addl	$1, -164(%rbp)
	jmp	.L290
.L285:
.LBE42:
.LBB43:
	.loc 15 88 18
	movl	$0, -160(%rbp)
.L302:
	.loc 15 88 35 discriminator 1
	movq	-184(%rbp), %rax
	addq	$8, %rax
	movq	%rax, %rdx
	movq	%rdx, %rax
	shrq	$3, %rax
	addq	$2147450880, %rax
	movzbl	(%rax), %eax
	testb	%al, %al
	setne	%cl
	cmpb	$3, %al
	setle	%al
	andl	%ecx, %eax
	testb	%al, %al
	je	.L291
	.loc 15 88 35 is_stmt 0
	movq	%rdx, %rdi
	call	__asan_report_load4@PLT
.L291:
	.loc 15 88 35 discriminator 1
	movq	-184(%rbp), %rax
	movl	8(%rax), %eax
	.loc 15 88 27 is_stmt 1 discriminator 1
	cmpl	%eax, -160(%rbp)
	jge	.L292
.LBB44:
.LBB45:
	.loc 15 89 22
	movq	-184(%rbp), %rax
	movq	%rax, %rdx
	shrq	$3, %rdx
	addq	$2147450880, %rdx
	movzbl	(%rdx), %edx
	testb	%dl, %dl
	je	.L293
	movq	%rax, %rdi
	call	__asan_report_load8@PLT
.L293:
	movq	-184(%rbp), %rax
	movq	(%rax), %rax
	addq	$48, %rax
	movq	%rax, %rdx
	movq	%rdx, %rcx
	shrq	$3, %rcx
	addq	$2147450880, %rcx
	movzbl	(%rcx), %ecx
	testb	%cl, %cl
	je	.L294
	movq	%rdx, %rdi
	call	__asan_report_load8@PLT
.L294:
	movq	(%rax), %rcx
	movl	-160(%rbp), %edx
	movq	-184(%rbp), %rax
	movl	%edx, %esi
	movq	%rax, %rdi
	call	*%rcx
.LVL14:
	movl	%eax, -156(%rbp)
.L301:
	.loc 15 89 41 discriminator 1
	cmpl	$0, -156(%rbp)
	js	.L295
	.loc 15 90 17
	movq	-152(%rbp), %rax
	movq	%rax, %rdx
	shrq	$3, %rdx
	addq	$2147450880, %rdx
	movzbl	(%rdx), %edx
	testb	%dl, %dl
	je	.L296
	movq	%rax, %rdi
	call	__asan_report_load8@PLT
.L296:
	movq	-152(%rbp), %rax
	movq	(%rax), %rax
	addq	$120, %rax
	movq	%rax, %rdx
	movq	%rdx, %rcx
	shrq	$3, %rcx
	addq	$2147450880, %rcx
	movzbl	(%rcx), %ecx
	testb	%cl, %cl
	je	.L297
	movq	%rdx, %rdi
	call	__asan_report_load8@PLT
.L297:
	movq	(%rax), %r9
	leaq	-64(%r12), %rax
	shrq	$3, %rax
	addq	$2147450880, %rax
	movb	$1, (%rax)
	.loc 12 234 75
	leaq	-64(%r12), %rax
	movq	%rax, %rdx
	movq	%rdx, %rax
	shrq	$3, %rax
	addq	$2147450880, %rax
	movzbl	(%rax), %eax
	testb	%al, %al
	setne	%cl
	testb	%al, %al
	setle	%al
	andl	%ecx, %eax
	testb	%al, %al
	je	.L298
	movq	%rdx, %rdi
	call	__asan_report_store1@PLT
.L298:
	movb	$1, -64(%r12)
	.loc 15 90 17
	leaq	-64(%r12), %rcx
	movl	-160(%rbp), %edx
	movl	-156(%rbp), %esi
	movq	-152(%rbp), %rax
	movq	%rcx, %r8
	movl	$1, %ecx
	movq	%rax, %rdi
	call	*%r9
.LVL15:
	.loc 12 234 75
	leaq	-64(%r12), %rax
	shrq	$3, %rax
	addq	$2147450880, %rax
	movb	$-8, (%rax)
	.loc 15 89 49
	movq	-184(%rbp), %rax
	movq	%rax, %rdx
	shrq	$3, %rdx
	addq	$2147450880, %rdx
	movzbl	(%rdx), %edx
	testb	%dl, %dl
	je	.L299
	movq	%rax, %rdi
	call	__asan_report_load8@PLT
.L299:
	.loc 15 89 49 is_stmt 0 discriminator 2
	movq	-184(%rbp), %rax
	movq	(%rax), %rax
	addq	$56, %rax
	movq	%rax, %rdx
	movq	%rdx, %rcx
	shrq	$3, %rcx
	addq	$2147450880, %rcx
	movzbl	(%rcx), %ecx
	testb	%cl, %cl
	je	.L300
	.loc 15 89 49
	movq	%rdx, %rdi
	call	__asan_report_load8@PLT
.L300:
	.loc 15 89 49 discriminator 2
	movq	(%rax), %r8
	movl	-156(%rbp), %edx
	movl	-160(%rbp), %ecx
	movq	-184(%rbp), %rax
	movl	%ecx, %esi
	movq	%rax, %rdi
	call	*%r8
.LVL16:
	movl	%eax, -156(%rbp)
	.loc 15 89 13 is_stmt 1 discriminator 2
	jmp	.L301
.L295:
.LBE45:
.LBE44:
	.loc 15 88 9 discriminator 2
	addl	$1, -160(%rbp)
	jmp	.L302
.L292:
.LBE43:
	.loc 15 91 16
	movq	-152(%rbp), %rax
	movq	%rax, %rdx
	.loc 15 83 8
	cmpq	%rbx, %r15
	je	.L281
	jmp	.L307
.L306:
	endbr64
	movq	%rax, %rbx
	.loc 15 85 16
	movl	$48, %esi
	movq	%r14, %rdi
	call	_ZdlPvm@PLT
	call	__asan_handle_no_return@PLT
	movq	%rbx, %rdi
	call	_Unwind_Resume@PLT
.LEHE30:
.L307:
	.loc 15 83 8
	movq	$1172321806, (%rbx)
	movabsq	$-723401728380766731, %rax
	movq	%rax, 2147450880(%r13)
	movq	56(%rbx), %rax
	movb	$0, (%rax)
	jmp	.L282
.L281:
	movq	$0, 2147450880(%r13)
.L282:
	.loc 15 92 5
	movq	-56(%rbp), %rax
	xorq	%fs:40, %rax
	je	.L305
	call	__stack_chk_fail@PLT
.L305:
	movq	%rdx, %rax
	addq	$152, %rsp
	popq	%rbx
	popq	%r12
	popq	%r13
	popq	%r14
	popq	%r15
	popq	%rbp
	.cfi_def_cfa 7, 8
	ret
	.cfi_endproc
.LFE4514:
	.section	.gcc_except_table
.LLSDA4514:
	.byte	0xff
	.byte	0xff
	.byte	0x1
	.uleb128 .LLSDACSE4514-.LLSDACSB4514
.LLSDACSB4514:
	.uleb128 .LEHB28-.LFB4514
	.uleb128 .LEHE28-.LEHB28
	.uleb128 0
	.uleb128 0
	.uleb128 .LEHB29-.LFB4514
	.uleb128 .LEHE29-.LEHB29
	.uleb128 .L306-.LFB4514
	.uleb128 0
	.uleb128 .LEHB30-.LFB4514
	.uleb128 .LEHE30-.LEHB30
	.uleb128 0
	.uleb128 0
.LLSDACSE4514:
	.section	.text._ZN5GraphIccE9getReveseI7ALGraphIccEEEPT_v,"axG",@progbits,_ZN5GraphIccE9getReveseI7ALGraphIccEEEPT_v,comdat
	.size	_ZN5GraphIccE9getReveseI7ALGraphIccEEEPT_v, .-_ZN5GraphIccE9getReveseI7ALGraphIccEEEPT_v
	.section	.rodata
	.align 32
.LC10:
	.string	"please try dcc"
	.zero	49
	.section	.text._ZN5GraphIccE3sccEv,"axG",@progbits,_ZN5GraphIccE3sccEv,comdat
	.align 2
	.weak	_ZN5GraphIccE3sccEv
	.type	_ZN5GraphIccE3sccEv, @function
_ZN5GraphIccE3sccEv:
.LASANPC4517:
.LFB4517:
	.file 16 "../src/GraphScc.h"
	.loc 16 7 6
	.cfi_startproc
	.cfi_personality 0x9b,DW.ref.__gxx_personality_v0
	.cfi_lsda 0x1b,.LLSDA4517
	endbr64
	pushq	%rbp
	.cfi_def_cfa_offset 16
	.cfi_offset 6, -16
	movq	%rsp, %rbp
	.cfi_def_cfa_register 6
	pushq	%r14
	pushq	%r13
	pushq	%r12
	pushq	%rbx
	subq	$224, %rsp
	.cfi_offset 14, -24
	.cfi_offset 13, -32
	.cfi_offset 12, -40
	.cfi_offset 3, -48
	movq	%rdi, -248(%rbp)
	leaq	-224(%rbp), %rbx
	movq	%rbx, %r14
	cmpl	$0, __asan_option_detect_stack_use_after_return(%rip)
	je	.L308
	movl	$160, %edi
	call	__asan_stack_malloc_2@PLT
.LVL17:
	testq	%rax, %rax
	je	.L308
	movq	%rax, %rbx
.L308:
	leaq	192(%rbx), %rax
	movq	%rax, %r13
	movq	$1102416563, (%rbx)
	leaq	.LC8(%rip), %rax
	movq	%rax, 8(%rbx)
	leaq	.LASANPC4517(%rip), %rax
	movq	%rax, 16(%rbx)
	movq	%rbx, %r12
	shrq	$3, %r12
	movl	$-235802127, 2147450880(%r12)
	movl	$61956, 2147450884(%r12)
	movl	$-202116109, 2147450896(%r12)
	.loc 16 7 6
	movq	%fs:40, %rax
	movq	%rax, -40(%rbp)
	xorl	%eax, %eax
	.loc 16 9 9
	movq	-248(%rbp), %rax
	addq	$16, %rax
	movq	%rax, %rdx
	movq	%rdx, %rax
	shrq	$3, %rax
	addq	$2147450880, %rax
	movzbl	(%rax), %eax
	testb	%al, %al
	setne	%cl
	cmpb	$3, %al
	setle	%al
	andl	%ecx, %eax
	testb	%al, %al
	je	.L312
	movq	%rdx, %rdi
	call	__asan_report_load4@PLT
.L312:
	movq	-248(%rbp), %rax
	movl	16(%rax), %eax
	.loc 16 9 5
	testl	%eax, %eax
	jne	.L313
	.loc 16 11 14
	leaq	.LC10(%rip), %rsi
	leaq	_ZSt4cout(%rip), %rdi
.LEHB31:
	call	_ZStlsISt11char_traitsIcEERSt13basic_ostreamIcT_ES5_PKc@PLT
	movq	%rax, %rdx
	.loc 16 11 34
	movq	_ZSt4endlIcSt11char_traitsIcEERSt13basic_ostreamIT_T0_ES6_@GOTPCREL(%rip), %rax
	movq	%rax, %rsi
	movq	%rdx, %rdi
	call	_ZNSolsEPFRSoS_E@PLT
	.loc 16 12 9
	jmp	.L311
.L313:
	.loc 16 14 5
	movq	-248(%rbp), %rax
	movq	%rax, %rdi
	call	_ZN5GraphIccE5resetEv
	.loc 16 15 9
	movl	$0, -228(%rbp)
	.loc 16 16 9
	leaq	-160(%r13), %rax
	movq	%rax, %rdx
	movq	%rdx, %rax
	shrq	$3, %rax
	addq	$2147450880, %rax
	movzbl	(%rax), %eax
	testb	%al, %al
	setne	%cl
	cmpb	$3, %al
	setle	%al
	andl	%ecx, %eax
	testb	%al, %al
	je	.L315
	movq	%rdx, %rdi
	call	__asan_report_store4@PLT
.L315:
	movl	$0, -160(%r13)
	.loc 16 17 16
	leaq	-144(%r13), %rax
	movq	%rax, %rdi
	call	_ZNSt5stackIiSt5dequeIiSaIiEEEC1IS2_vEEv
.LEHE31:
.L322:
	.loc 16 18 17
	movq	-248(%rbp), %rax
	addq	$8, %rax
	movq	%rax, %rdx
	movq	%rdx, %rax
	shrq	$3, %rax
	addq	$2147450880, %rax
	movzbl	(%rax), %eax
	testb	%al, %al
	setne	%cl
	cmpb	$3, %al
	setle	%al
	andl	%ecx, %eax
	testb	%al, %al
	je	.L316
	movq	%rdx, %rdi
	call	__asan_report_load4@PLT
.L316:
	movq	-248(%rbp), %rax
	movl	8(%rax), %eax
	.loc 16 18 19
	subl	$1, %eax
	.loc 16 18 14
	cmpl	%eax, -228(%rbp)
	je	.L317
	.loc 16 20 23
	movq	-248(%rbp), %rax
	movq	%rax, %rdx
	shrq	$3, %rdx
	addq	$2147450880, %rdx
	movzbl	(%rdx), %edx
	testb	%dl, %dl
	je	.L318
	movq	%rax, %rdi
	call	__asan_report_load8@PLT
.L318:
	movq	-248(%rbp), %rax
	movq	(%rax), %rax
	addq	$64, %rax
	movq	%rax, %rdx
	movq	%rdx, %rcx
	shrq	$3, %rcx
	addq	$2147450880, %rcx
	movzbl	(%rcx), %ecx
	testb	%cl, %cl
	je	.L319
	movq	%rdx, %rdi
	call	__asan_report_load8@PLT
.L319:
	movq	(%rax), %rcx
	movl	-228(%rbp), %edx
	movq	-248(%rbp), %rax
	movl	%edx, %esi
	movq	%rax, %rdi
.LEHB32:
	call	*%rcx
.LVL18:
	movq	%rax, %rdx
	movq	%rdx, %rax
	movq	%rax, %rcx
	shrq	$3, %rcx
	addq	$2147450880, %rcx
	movzbl	(%rcx), %ecx
	testb	%cl, %cl
	setne	%sil
	movq	%rax, %rdi
	andl	$7, %edi
	addl	$3, %edi
	cmpb	%cl, %dil
	setge	%cl
	andl	%esi, %ecx
	testb	%cl, %cl
	je	.L320
	movq	%rax, %rdi
	call	__asan_report_load4@PLT
.L320:
	.loc 16 20 23 is_stmt 0 discriminator 1
	movl	(%rdx), %eax
	testl	%eax, %eax
	sete	%al
	.loc 16 20 9 is_stmt 1 discriminator 1
	testb	%al, %al
	je	.L321
	.loc 16 21 13
	leaq	-144(%r13), %rcx
	leaq	-160(%r13), %rdx
	movl	-228(%rbp), %esi
	movq	-248(%rbp), %rax
	movq	%rax, %rdi
	call	_ZN5GraphIccE3SCCEiRiRSt5stackIiSt5dequeIiSaIiEEE
.LEHE32:
.L321:
	.loc 16 22 9
	addl	$1, -228(%rbp)
	.loc 16 18 5
	jmp	.L322
.L317:
	.loc 16 17 16
	leaq	-144(%r13), %rax
	movq	%rax, %rdi
	call	_ZNSt5stackIiSt5dequeIiSaIiEEED1Ev
	jmp	.L311
.L326:
	endbr64
	movq	%rax, %rbx
	leaq	-144(%r13), %rax
	movq	%rax, %rdi
	call	_ZNSt5stackIiSt5dequeIiSaIiEEED1Ev
	call	__asan_handle_no_return@PLT
	movq	%rbx, %rdi
.LEHB33:
	call	_Unwind_Resume@PLT
.LEHE33:
.L311:
	.loc 16 7 6
	cmpq	%rbx, %r14
	je	.L309
	movq	$1172321806, (%rbx)
	movabsq	$-723401728380766731, %rax
	movabsq	$-723401728380766731, %rdx
	movq	%rax, 2147450880(%r12)
	movq	%rdx, 2147450888(%r12)
	movl	$-168430091, 2147450896(%r12)
	movq	248(%rbx), %rax
	movb	$0, (%rax)
	jmp	.L310
.L309:
	movq	$0, 2147450880(%r12)
	movl	$0, 2147450896(%r12)
.L310:
	.loc 16 24 1
	movq	-40(%rbp), %rax
	xorq	%fs:40, %rax
	je	.L325
	call	__stack_chk_fail@PLT
.L325:
	addq	$224, %rsp
	popq	%rbx
	popq	%r12
	popq	%r13
	popq	%r14
	popq	%rbp
	.cfi_def_cfa 7, 8
	ret
	.cfi_endproc
.LFE4517:
	.section	.gcc_except_table
.LLSDA4517:
	.byte	0xff
	.byte	0xff
	.byte	0x1
	.uleb128 .LLSDACSE4517-.LLSDACSB4517
.LLSDACSB4517:
	.uleb128 .LEHB31-.LFB4517
	.uleb128 .LEHE31-.LEHB31
	.uleb128 0
	.uleb128 0
	.uleb128 .LEHB32-.LFB4517
	.uleb128 .LEHE32-.LEHB32
	.uleb128 .L326-.LFB4517
	.uleb128 0
	.uleb128 .LEHB33-.LFB4517
	.uleb128 .LEHE33-.LEHB33
	.uleb128 0
	.uleb128 0
.LLSDACSE4517:
	.section	.text._ZN5GraphIccE3sccEv,"axG",@progbits,_ZN5GraphIccE3sccEv,comdat
	.size	_ZN5GraphIccE3sccEv, .-_ZN5GraphIccE3sccEv
	.section	.text._ZZN5GraphIccE4scc2I7ALGraphIccEEEvvENKUliiE_clEii,"axG",@progbits,_ZZN5GraphIccE4scc2I7ALGraphIccEEEvvENKUliiE_clEii,comdat
	.align 2
	.weak	_ZZN5GraphIccE4scc2I7ALGraphIccEEEvvENKUliiE_clEii
	.type	_ZZN5GraphIccE4scc2I7ALGraphIccEEEvvENKUliiE_clEii, @function
_ZZN5GraphIccE4scc2I7ALGraphIccEEEvvENKUliiE_clEii:
.LASANPC4519:
.LFB4519:
	.loc 16 86 43
	.cfi_startproc
	endbr64
	pushq	%rbp
	.cfi_def_cfa_offset 16
	.cfi_offset 6, -16
	movq	%rsp, %rbp
	.cfi_def_cfa_register 6
	pushq	%rbx
	subq	$24, %rsp
	.cfi_offset 3, -24
	movq	%rdi, -24(%rbp)
	movl	%esi, -28(%rbp)
	movl	%edx, -32(%rbp)
.LBB46:
	.loc 16 86 43
	movq	-24(%rbp), %rax
	movq	%rax, %rdx
	shrq	$3, %rdx
	addq	$2147450880, %rdx
	movzbl	(%rdx), %edx
	testb	%dl, %dl
	je	.L328
	movq	%rax, %rdi
	call	__asan_report_load8@PLT
.L328:
	movq	-24(%rbp), %rax
	movq	(%rax), %rax
	.loc 16 87 33
	movq	%rax, %rdx
	movq	%rdx, %rcx
	shrq	$3, %rcx
	addq	$2147450880, %rcx
	movzbl	(%rcx), %ecx
	testb	%cl, %cl
	je	.L329
	movq	%rdx, %rdi
	call	__asan_report_load8@PLT
.L329:
	movq	(%rax), %rax
	addq	$80, %rax
	movq	%rax, %rdx
	movq	%rdx, %rcx
	shrq	$3, %rcx
	addq	$2147450880, %rcx
	movzbl	(%rcx), %ecx
	testb	%cl, %cl
	je	.L330
	movq	%rdx, %rdi
	call	__asan_report_load8@PLT
.L330:
	movq	(%rax), %rcx
	.loc 16 86 43
	movq	-24(%rbp), %rax
	movq	(%rax), %rax
	.loc 16 87 33
	movl	-28(%rbp), %edx
	movl	%edx, %esi
	movq	%rax, %rdi
	call	*%rcx
.LVL19:
	movq	%rax, %rdx
	movq	%rdx, %rax
	movq	%rax, %rcx
	shrq	$3, %rcx
	addq	$2147450880, %rcx
	movzbl	(%rcx), %ecx
	testb	%cl, %cl
	setne	%sil
	movq	%rax, %rdi
	andl	$7, %edi
	addl	$3, %edi
	cmpb	%cl, %dil
	setge	%cl
	andl	%esi, %ecx
	testb	%cl, %cl
	je	.L331
	movq	%rax, %rdi
	call	__asan_report_load4@PLT
.L331:
	movl	(%rdx), %ebx
	.loc 16 86 43
	movq	-24(%rbp), %rax
	movq	%rax, %rdx
	shrq	$3, %rdx
	addq	$2147450880, %rdx
	movzbl	(%rdx), %edx
	testb	%dl, %dl
	je	.L332
	movq	%rax, %rdi
	call	__asan_report_load8@PLT
.L332:
	movq	-24(%rbp), %rax
	movq	(%rax), %rax
	.loc 16 87 33
	movq	%rax, %rdx
	movq	%rdx, %rcx
	shrq	$3, %rcx
	addq	$2147450880, %rcx
	movzbl	(%rcx), %ecx
	testb	%cl, %cl
	je	.L333
	movq	%rdx, %rdi
	call	__asan_report_load8@PLT
.L333:
	movq	(%rax), %rax
	addq	$80, %rax
	movq	%rax, %rdx
	movq	%rdx, %rcx
	shrq	$3, %rcx
	addq	$2147450880, %rcx
	movzbl	(%rcx), %ecx
	testb	%cl, %cl
	je	.L334
	movq	%rdx, %rdi
	call	__asan_report_load8@PLT
.L334:
	movq	(%rax), %rcx
	.loc 16 86 43
	movq	-24(%rbp), %rax
	movq	(%rax), %rax
	.loc 16 87 33
	movl	-32(%rbp), %edx
	movl	%edx, %esi
	movq	%rax, %rdi
	call	*%rcx
.LVL20:
	movq	%rax, %rdx
	movq	%rdx, %rax
	movq	%rax, %rcx
	shrq	$3, %rcx
	addq	$2147450880, %rcx
	movzbl	(%rcx), %ecx
	testb	%cl, %cl
	setne	%sil
	movq	%rax, %rdi
	andl	$7, %edi
	addl	$3, %edi
	cmpb	%cl, %dil
	setge	%cl
	andl	%esi, %ecx
	testb	%cl, %cl
	je	.L335
	movq	%rax, %rdi
	call	__asan_report_load4@PLT
.L335:
	movl	(%rdx), %eax
	.loc 16 87 42
	cmpl	%eax, %ebx
	setg	%al
.LBE46:
	.loc 16 86 43
	addq	$24, %rsp
	popq	%rbx
	popq	%rbp
	.cfi_def_cfa 7, 8
	ret
	.cfi_endproc
.LFE4519:
	.size	_ZZN5GraphIccE4scc2I7ALGraphIccEEEvvENKUliiE_clEii, .-_ZZN5GraphIccE4scc2I7ALGraphIccEEEvvENKUliiE_clEii
	.section	.rodata
	.align 8
.LC11:
	.string	"6 32 1 9 <unknown> 48 4 8 clock:90 64 8 14 __for_begin:96 96 8 12 __for_end:96 128 24 7 path:80 192 24 8 order:83"
	.section	.text._ZN5GraphIccE4scc2I7ALGraphIccEEEvv,"axG",@progbits,_ZN5GraphIccE4scc2I7ALGraphIccEEEvv,comdat
	.align 2
	.weak	_ZN5GraphIccE4scc2I7ALGraphIccEEEvv
	.type	_ZN5GraphIccE4scc2I7ALGraphIccEEEvv, @function
_ZN5GraphIccE4scc2I7ALGraphIccEEEvv:
.LASANPC4518:
.LFB4518:
	.loc 16 73 6
	.cfi_startproc
	.cfi_personality 0x9b,DW.ref.__gxx_personality_v0
	.cfi_lsda 0x1b,.LLSDA4518
	endbr64
	pushq	%rbp
	.cfi_def_cfa_offset 16
	.cfi_offset 6, -16
	movq	%rsp, %rbp
	.cfi_def_cfa_register 6
	pushq	%r15
	pushq	%r14
	pushq	%r13
	pushq	%r12
	pushq	%rbx
	subq	$344, %rsp
	.cfi_offset 15, -24
	.cfi_offset 14, -32
	.cfi_offset 13, -40
	.cfi_offset 12, -48
	.cfi_offset 3, -56
	movq	%rdi, -376(%rbp)
	leaq	-336(%rbp), %r13
	movq	%r13, -384(%rbp)
	cmpl	$0, __asan_option_detect_stack_use_after_return(%rip)
	je	.L337
	movl	$256, %edi
	call	__asan_stack_malloc_2@PLT
.LVL21:
	testq	%rax, %rax
	je	.L337
	movq	%rax, %r13
.L337:
	leaq	288(%r13), %rax
	movq	%rax, %rbx
	movq	$1102416563, 0(%r13)
	leaq	.LC11(%rip), %rax
	movq	%rax, 8(%r13)
	leaq	.LASANPC4518(%rip), %rax
	movq	%rax, 16(%r13)
	movq	%r13, %r12
	shrq	$3, %r12
	movl	$-235802127, 2147450880(%r12)
	movl	$-234556927, 2147450884(%r12)
	movl	$-218959360, 2147450888(%r12)
	movl	$-218959360, 2147450892(%r12)
	movl	$-234881024, 2147450896(%r12)
	movl	$-218959118, 2147450900(%r12)
	movl	$-218103808, 2147450904(%r12)
	movl	$-202116109, 2147450908(%r12)
	.loc 16 73 6
	movq	%fs:40, %rax
	movq	%rax, -56(%rbp)
	xorl	%eax, %eax
	.loc 16 75 9
	movq	-376(%rbp), %rax
	addq	$16, %rax
	movq	%rax, %rdx
	movq	%rdx, %rax
	shrq	$3, %rax
	addq	$2147450880, %rax
	movzbl	(%rax), %eax
	testb	%al, %al
	setne	%cl
	cmpb	$3, %al
	setle	%al
	andl	%ecx, %eax
	testb	%al, %al
	je	.L341
	movq	%rdx, %rdi
	call	__asan_report_load4@PLT
.L341:
	movq	-376(%rbp), %rax
	movl	16(%rax), %eax
	.loc 16 75 5
	testl	%eax, %eax
	jne	.L342
	.loc 16 77 14
	leaq	.LC10(%rip), %rsi
	leaq	_ZSt4cout(%rip), %rdi
.LEHB34:
	call	_ZStlsISt11char_traitsIcEERSt13basic_ostreamIcT_ES5_PKc@PLT
	movq	%rax, %rdx
	.loc 16 77 34
	movq	_ZSt4endlIcSt11char_traitsIcEERSt13basic_ostreamIT_T0_ES6_@GOTPCREL(%rip), %rax
	movq	%rax, %rsi
	movq	%rdx, %rdi
	call	_ZNSolsEPFRSoS_E@PLT
.LEHE34:
	.loc 16 78 9
	jmp	.L340
.L342:
	.loc 16 80 16
	leaq	-160(%rbx), %rax
	movq	%rax, %rdi
	call	_ZNSt6vectorIcSaIcEEC1Ev
	.loc 16 81 18
	movq	-376(%rbp), %rax
	addq	$8, %rax
	movq	%rax, %rdx
	movq	%rdx, %rax
	shrq	$3, %rax
	addq	$2147450880, %rax
	movzbl	(%rax), %eax
	testb	%al, %al
	setne	%cl
	cmpb	$3, %al
	setle	%al
	andl	%ecx, %eax
	testb	%al, %al
	je	.L344
	movq	%rdx, %rdi
	call	__asan_report_load4@PLT
.L344:
	movq	-376(%rbp), %rax
	movl	8(%rax), %eax
	.loc 16 81 5
	movslq	%eax, %rdx
	leaq	-160(%rbx), %rax
	movq	%rdx, %rsi
	movq	%rax, %rdi
.LEHB35:
	call	_ZNSt6vectorIcSaIcEE7reserveEm
	.loc 16 82 5
	leaq	-160(%rbx), %rdx
	movq	-376(%rbp), %rax
	movl	$0, %esi
	movq	%rax, %rdi
	call	_ZN5GraphIccE3dfsEiRSt6vectorIcSaIcEE
.LEHE35:
	.loc 16 83 17
	leaq	-256(%rbx), %rax
	movq	%rax, %rdi
	call	_ZNSaIiEC1Ev
	.loc 16 83 23
	movq	-376(%rbp), %rax
	addq	$8, %rax
	movq	%rax, %rdx
	movq	%rdx, %rax
	shrq	$3, %rax
	addq	$2147450880, %rax
	movzbl	(%rax), %eax
	testb	%al, %al
	setne	%cl
	cmpb	$3, %al
	setle	%al
	andl	%ecx, %eax
	testb	%al, %al
	je	.L345
	movq	%rdx, %rdi
	call	__asan_report_load4@PLT
.L345:
	movq	-376(%rbp), %rax
	movl	8(%rax), %eax
	.loc 16 83 17
	movslq	%eax, %rcx
	leaq	-256(%rbx), %rdx
	leaq	-96(%rbx), %rax
	movq	%rcx, %rsi
	movq	%rax, %rdi
.LEHB36:
	call	_ZNSt6vectorIiSaIiEEC1EmRKS0_
.LEHE36:
	leaq	-256(%rbx), %rax
	movq	%rax, %rdi
	call	_ZNSaIiED1Ev
	leaq	-256(%rbx), %rax
	shrq	$3, %rax
	addq	$2147450880, %rax
	movb	$-8, (%rax)
.LBB47:
	.loc 16 84 14
	movl	$0, -360(%rbp)
.L349:
	.loc 16 84 25 discriminator 3
	movq	-376(%rbp), %rax
	addq	$8, %rax
	movq	%rax, %rdx
	movq	%rdx, %rax
	shrq	$3, %rax
	addq	$2147450880, %rax
	movzbl	(%rax), %eax
	testb	%al, %al
	setne	%cl
	cmpb	$3, %al
	setle	%al
	andl	%ecx, %eax
	testb	%al, %al
	je	.L346
	.loc 16 84 25 is_stmt 0
	movq	%rdx, %rdi
	call	__asan_report_load4@PLT
.L346:
	.loc 16 84 25 discriminator 3
	movq	-376(%rbp), %rax
	movl	8(%rax), %eax
	.loc 16 84 23 is_stmt 1 discriminator 3
	cmpl	%eax, -360(%rbp)
	jge	.L347
	.loc 16 85 9 discriminator 2
	movl	-360(%rbp), %r14d
	.loc 16 85 18 discriminator 2
	movl	-360(%rbp), %eax
	movslq	%eax, %rdx
	leaq	-96(%rbx), %rax
	movq	%rdx, %rsi
	movq	%rax, %rdi
	call	_ZNSt6vectorIiSaIiEEixEm
	movq	%rax, %rdx
	.loc 16 85 9 discriminator 2
	movq	%rdx, %rax
	movq	%rax, %rcx
	shrq	$3, %rcx
	addq	$2147450880, %rcx
	movzbl	(%rcx), %ecx
	testb	%cl, %cl
	setne	%sil
	movq	%rax, %rdi
	andl	$7, %edi
	addl	$3, %edi
	cmpb	%cl, %dil
	setge	%cl
	andl	%esi, %ecx
	testb	%cl, %cl
	je	.L348
	.loc 16 85 9 is_stmt 0
	movq	%rax, %rdi
	call	__asan_report_store4@PLT
.L348:
	.loc 16 85 9 discriminator 2
	movl	%r14d, (%rdx)
	.loc 16 84 5 is_stmt 1 discriminator 2
	addl	$1, -360(%rbp)
	jmp	.L349
.L347:
.LBE47:
	.loc 16 86 14
	movq	-376(%rbp), %r14
	leaq	-96(%rbx), %rax
	movq	%rax, %rdi
	call	_ZNSt6vectorIiSaIiEE3endEv
	movq	%rax, %r15
	leaq	-96(%rbx), %rax
	movq	%rax, %rdi
	call	_ZNSt6vectorIiSaIiEE5beginEv
	movq	%r14, %rdx
	movq	%r15, %rsi
	movq	%rax, %rdi
.LEHB37:
	call	_ZSt4sortIN9__gnu_cxx17__normal_iteratorIPiSt6vectorIiSaIiEEEEZN5GraphIccE4scc2I7ALGraphIccEEEvvEUliiE_EvT_SD_T0_
	.loc 16 89 8
	movq	-376(%rbp), %rax
	movq	%rax, %rdi
	call	_ZN5GraphIccE9getReveseI7ALGraphIccEEEPT_v
.LEHE37:
	movq	%rax, -352(%rbp)
.LBB48:
	.loc 16 90 14
	movl	$0, -356(%rbp)
	.loc 16 90 21
	leaq	-240(%rbx), %rax
	shrq	$3, %rax
	addq	$2147450880, %rax
	movb	$4, (%rax)
	leaq	-240(%rbx), %rax
	movq	%rax, %rdx
	movq	%rdx, %rax
	shrq	$3, %rax
	addq	$2147450880, %rax
	movzbl	(%rax), %eax
	testb	%al, %al
	setne	%cl
	cmpb	$3, %al
	setle	%al
	andl	%ecx, %eax
	testb	%al, %al
	je	.L350
	movq	%rdx, %rdi
	call	__asan_report_store4@PLT
.L350:
	.loc 16 90 21 is_stmt 0 discriminator 1
	movl	$0, -240(%rbx)
.L363:
	.loc 16 90 42 is_stmt 1 discriminator 1
	movq	-376(%rbp), %rax
	addq	$8, %rax
	movq	%rax, %rdx
	movq	%rdx, %rax
	shrq	$3, %rax
	addq	$2147450880, %rax
	movzbl	(%rax), %eax
	testb	%al, %al
	setne	%cl
	cmpb	$3, %al
	setle	%al
	andl	%ecx, %eax
	testb	%al, %al
	je	.L351
	.loc 16 90 42 is_stmt 0
	movq	%rdx, %rdi
	call	__asan_report_load4@PLT
.L351:
	.loc 16 90 42 discriminator 1
	movq	-376(%rbp), %rax
	movl	8(%rax), %eax
	.loc 16 90 34 is_stmt 1 discriminator 1
	cmpl	%eax, -356(%rbp)
	jge	.L352
.LBB49:
.LBB50:
	.loc 16 92 26
	movq	-352(%rbp), %rax
	movq	%rax, %rdx
	shrq	$3, %rdx
	addq	$2147450880, %rdx
	movzbl	(%rdx), %edx
	testb	%dl, %dl
	je	.L353
	movq	%rax, %rdi
	call	__asan_report_load8@PLT
.L353:
	movq	-352(%rbp), %rax
	movq	(%rax), %rax
	addq	$64, %rax
	movq	%rax, %rdx
	movq	%rdx, %rcx
	shrq	$3, %rcx
	addq	$2147450880, %rcx
	movzbl	(%rcx), %ecx
	testb	%cl, %cl
	je	.L354
	movq	%rdx, %rdi
	call	__asan_report_load8@PLT
.L354:
	movq	(%rax), %rcx
	movl	-356(%rbp), %edx
	movq	-352(%rbp), %rax
	movl	%edx, %esi
	movq	%rax, %rdi
.LEHB38:
	call	*%rcx
.LVL22:
	movq	%rax, %rdx
	movq	%rdx, %rax
	movq	%rax, %rcx
	shrq	$3, %rcx
	addq	$2147450880, %rcx
	movzbl	(%rcx), %ecx
	testb	%cl, %cl
	setne	%sil
	movq	%rax, %rdi
	andl	$7, %edi
	addl	$3, %edi
	cmpb	%cl, %dil
	setge	%cl
	andl	%esi, %ecx
	testb	%cl, %cl
	je	.L355
	movq	%rax, %rdi
	call	__asan_report_load4@PLT
.L355:
	.loc 16 92 26 is_stmt 0 discriminator 1
	movl	(%rdx), %eax
	testl	%eax, %eax
	sete	%al
	.loc 16 92 9 is_stmt 1 discriminator 1
	testb	%al, %al
	je	.L356
.LBB51:
	.loc 16 94 13
	leaq	-160(%rbx), %rax
	movq	%rax, %rdi
	call	_ZNSt6vectorIcSaIcEE5clearEv
	.loc 16 95 13
	movq	-352(%rbp), %r14
	movl	-356(%rbp), %eax
	movslq	%eax, %rdx
	leaq	-96(%rbx), %rax
	movq	%rdx, %rsi
	movq	%rax, %rdi
	call	_ZNSt6vectorIiSaIiEEixEm
	movq	%rax, %rdx
	movq	%rdx, %rax
	movq	%rax, %rcx
	shrq	$3, %rcx
	addq	$2147450880, %rcx
	movzbl	(%rcx), %ecx
	testb	%cl, %cl
	setne	%sil
	movq	%rax, %rdi
	andl	$7, %edi
	addl	$3, %edi
	cmpb	%cl, %dil
	setge	%cl
	andl	%esi, %ecx
	testb	%cl, %cl
	je	.L357
	movq	%rax, %rdi
	call	__asan_report_load4@PLT
.L357:
	movl	(%rdx), %eax
	leaq	-160(%rbx), %rcx
	leaq	-240(%rbx), %rdx
	movl	%eax, %esi
	movq	%r14, %rdi
	call	_ZN5GraphIccE3DFSEiRiRSt6vectorIcSaIcEE
.LEHE38:
.LBB52:
	.loc 16 96 13
	leaq	-160(%rbx), %rax
	movq	%rax, -344(%rbp)
	leaq	-224(%rbx), %rax
	shrq	$3, %rax
	addq	$2147450880, %rax
	movb	$0, (%rax)
	leaq	-224(%rbx), %rax
	movq	%rax, %rdx
	shrq	$3, %rdx
	addq	$2147450880, %rdx
	movzbl	(%rdx), %edx
	testb	%dl, %dl
	je	.L358
	movq	%rax, %rdi
	call	__asan_report_store8@PLT
.L358:
	movq	-344(%rbp), %rax
	movq	%rax, %rdi
	call	_ZNSt6vectorIcSaIcEE5beginEv
	movq	%rax, -224(%rbx)
	leaq	-192(%rbx), %rax
	shrq	$3, %rax
	addq	$2147450880, %rax
	movb	$0, (%rax)
	leaq	-192(%rbx), %rax
	movq	%rax, %rdx
	shrq	$3, %rdx
	addq	$2147450880, %rdx
	movzbl	(%rdx), %edx
	testb	%dl, %dl
	je	.L359
	movq	%rax, %rdi
	call	__asan_report_store8@PLT
.L359:
	movq	-344(%rbp), %rax
	movq	%rax, %rdi
	call	_ZNSt6vectorIcSaIcEE3endEv
	movq	%rax, -192(%rbx)
.L362:
	.loc 16 96 13 is_stmt 0 discriminator 1
	leaq	-192(%rbx), %rdx
	leaq	-224(%rbx), %rax
	movq	%rdx, %rsi
	movq	%rax, %rdi
	call	_ZN9__gnu_cxxneIPcSt6vectorIcSaIcEEEEbRKNS_17__normal_iteratorIT_T0_EESA_
	testb	%al, %al
	je	.L360
	.loc 16 96 13 discriminator 2
	leaq	-224(%rbx), %rax
	movq	%rax, %rdi
	call	_ZNK9__gnu_cxx17__normal_iteratorIPcSt6vectorIcSaIcEEEdeEv
	movq	%rax, %rdx
	movq	%rdx, %rax
	movq	%rax, %rcx
	shrq	$3, %rcx
	addq	$2147450880, %rcx
	movzbl	(%rcx), %ecx
	testb	%cl, %cl
	setne	%sil
	movq	%rax, %rdi
	andl	$7, %edi
	cmpb	%cl, %dil
	setge	%cl
	andl	%esi, %ecx
	testb	%cl, %cl
	je	.L361
	.loc 16 96 13
	movq	%rax, %rdi
	call	__asan_report_load1@PLT
.L361:
	.loc 16 96 13 discriminator 2
	movzbl	(%rdx), %eax
	movb	%al, -361(%rbp)
	.loc 16 97 22 is_stmt 1 discriminator 2
	movsbl	-361(%rbp), %eax
	movl	%eax, %esi
	leaq	_ZSt4cout(%rip), %rdi
.LEHB39:
	call	_ZStlsISt11char_traitsIcEERSt13basic_ostreamIcT_ES5_c@PLT
.LEHE39:
	.loc 16 96 13 discriminator 3
	leaq	-224(%rbx), %rax
	movq	%rax, %rdi
	call	_ZN9__gnu_cxx17__normal_iteratorIPcSt6vectorIcSaIcEEEppEv
	jmp	.L362
.L360:
	leaq	-224(%rbx), %rax
	shrq	$3, %rax
	addq	$2147450880, %rax
	movb	$-8, (%rax)
	leaq	-192(%rbx), %rax
	shrq	$3, %rax
	addq	$2147450880, %rax
	movb	$-8, (%rax)
.LBE52:
	.loc 16 98 18
	movq	_ZSt4endlIcSt11char_traitsIcEERSt13basic_ostreamIT_T0_ES6_@GOTPCREL(%rip), %rax
	movq	%rax, %rsi
	leaq	_ZSt4cout(%rip), %rdi
.LEHB40:
	call	_ZNSolsEPFRSoS_E@PLT
.LEHE40:
.L356:
.LBE51:
.LBE50:
.LBE49:
	.loc 16 90 5 discriminator 2
	addl	$1, -356(%rbp)
	jmp	.L363
.L352:
	leaq	-240(%rbx), %rax
	shrq	$3, %rax
	addq	$2147450880, %rax
	movb	$-8, (%rax)
.LBE48:
	.loc 16 101 12
	movq	-352(%rbp), %r14
	.loc 16 101 5
	testq	%r14, %r14
	je	.L364
	.loc 16 101 5 is_stmt 0 discriminator 1
	movq	%r14, %rdi
	call	_ZN7ALGraphIccED1Ev
	movl	$48, %esi
	movq	%r14, %rdi
	call	_ZdlPvm@PLT
.L364:
	.loc 16 83 17 is_stmt 1
	leaq	-96(%rbx), %rax
	movq	%rax, %rdi
	call	_ZNSt6vectorIiSaIiEED1Ev
	.loc 16 80 16
	leaq	-160(%rbx), %rax
	movq	%rax, %rdi
	call	_ZNSt6vectorIcSaIcEED1Ev
	jmp	.L340
.L373:
	endbr64
	movq	%rax, %r12
	leaq	-256(%rbx), %rax
	movq	%rax, %rdi
	call	_ZNSaIiED1Ev
	movq	%r12, %rdx
	.loc 16 83 17
	leaq	-256(%rbx), %rax
	shrq	$3, %rax
	addq	$2147450880, %rax
	movb	$-8, (%rax)
	movq	%rdx, %r12
	jmp	.L367
.L376:
	endbr64
.LBB57:
.LBB56:
.LBB55:
.LBB54:
.LBB53:
	leaq	-224(%rbx), %rdx
	shrq	$3, %rdx
	addq	$2147450880, %rdx
	movb	$-8, (%rdx)
	leaq	-192(%rbx), %rdx
	shrq	$3, %rdx
	addq	$2147450880, %rdx
	movb	$-8, (%rdx)
	jmp	.L369
.L375:
	endbr64
.L369:
.LBE53:
.LBE54:
.LBE55:
.LBE56:
	leaq	-240(%rbx), %rdx
	shrq	$3, %rdx
	addq	$2147450880, %rdx
	movb	$-8, (%rdx)
	movq	%rax, %r12
	jmp	.L370
.L374:
	endbr64
	movq	%rax, %r12
.L370:
.LBE57:
	leaq	-96(%rbx), %rax
	movq	%rax, %rdi
	call	_ZNSt6vectorIiSaIiEED1Ev
	jmp	.L367
.L372:
	endbr64
	movq	%rax, %r12
.L367:
	.loc 16 80 16
	leaq	-160(%rbx), %rax
	movq	%rax, %rdi
	call	_ZNSt6vectorIcSaIcEED1Ev
	movq	%r12, %rbx
	call	__asan_handle_no_return@PLT
	movq	%rbx, %rdi
.LEHB41:
	call	_Unwind_Resume@PLT
.LEHE41:
.L340:
	.loc 16 73 6
	cmpq	%r13, -384(%rbp)
	je	.L338
	movq	$1172321806, 0(%r13)
	movabsq	$-723401728380766731, %rax
	movabsq	$-723401728380766731, %rdx
	movq	%rax, 2147450880(%r12)
	movq	%rdx, 2147450888(%r12)
	movq	%rax, 2147450896(%r12)
	movq	%rdx, 2147450904(%r12)
	movq	248(%r13), %rax
	movb	$0, (%rax)
	jmp	.L339
.L338:
	movq	$0, 2147450880(%r12)
	movq	$0, 2147450888(%r12)
	movq	$0, 2147450896(%r12)
	movq	$0, 2147450904(%r12)
.L339:
	.loc 16 102 1
	movq	-56(%rbp), %rax
	xorq	%fs:40, %rax
	je	.L371
	call	__stack_chk_fail@PLT
.L371:
	addq	$344, %rsp
	popq	%rbx
	popq	%r12
	popq	%r13
	popq	%r14
	popq	%r15
	popq	%rbp
	.cfi_def_cfa 7, 8
	ret
	.cfi_endproc
.LFE4518:
	.section	.gcc_except_table
.LLSDA4518:
	.byte	0xff
	.byte	0xff
	.byte	0x1
	.uleb128 .LLSDACSE4518-.LLSDACSB4518
.LLSDACSB4518:
	.uleb128 .LEHB34-.LFB4518
	.uleb128 .LEHE34-.LEHB34
	.uleb128 0
	.uleb128 0
	.uleb128 .LEHB35-.LFB4518
	.uleb128 .LEHE35-.LEHB35
	.uleb128 .L372-.LFB4518
	.uleb128 0
	.uleb128 .LEHB36-.LFB4518
	.uleb128 .LEHE36-.LEHB36
	.uleb128 .L373-.LFB4518
	.uleb128 0
	.uleb128 .LEHB37-.LFB4518
	.uleb128 .LEHE37-.LEHB37
	.uleb128 .L374-.LFB4518
	.uleb128 0
	.uleb128 .LEHB38-.LFB4518
	.uleb128 .LEHE38-.LEHB38
	.uleb128 .L375-.LFB4518
	.uleb128 0
	.uleb128 .LEHB39-.LFB4518
	.uleb128 .LEHE39-.LEHB39
	.uleb128 .L376-.LFB4518
	.uleb128 0
	.uleb128 .LEHB40-.LFB4518
	.uleb128 .LEHE40-.LEHB40
	.uleb128 .L375-.LFB4518
	.uleb128 0
	.uleb128 .LEHB41-.LFB4518
	.uleb128 .LEHE41-.LEHB41
	.uleb128 0
	.uleb128 0
.LLSDACSE4518:
	.section	.text._ZN5GraphIccE4scc2I7ALGraphIccEEEvv,"axG",@progbits,_ZN5GraphIccE4scc2I7ALGraphIccEEEvv,comdat
	.size	_ZN5GraphIccE4scc2I7ALGraphIccEEEvv, .-_ZN5GraphIccE4scc2I7ALGraphIccEEEvv
	.section	.text._ZNSt7__cxx1112basic_stringIcSt11char_traitsIcESaIcEE12_M_constructIPKcEEvT_S8_,"axG",@progbits,_ZNSt7__cxx1112basic_stringIcSt11char_traitsIcESaIcEE12_M_constructIPKcEEvT_S8_,comdat
	.align 2
	.weak	_ZNSt7__cxx1112basic_stringIcSt11char_traitsIcESaIcEE12_M_constructIPKcEEvT_S8_
	.type	_ZNSt7__cxx1112basic_stringIcSt11char_traitsIcESaIcEE12_M_constructIPKcEEvT_S8_, @function
_ZNSt7__cxx1112basic_stringIcSt11char_traitsIcESaIcEE12_M_constructIPKcEEvT_S8_:
.LASANPC4542:
.LFB4542:
	.loc 10 263 9
	.cfi_startproc
	endbr64
	pushq	%rbp
	.cfi_def_cfa_offset 16
	.cfi_offset 6, -16
	movq	%rsp, %rbp
	.cfi_def_cfa_register 6
	subq	$32, %rsp
	movq	%rdi, -8(%rbp)
	movq	%rsi, -16(%rbp)
	movq	%rdx, -24(%rbp)
	.loc 10 266 4
	movq	-24(%rbp), %rdx
	movq	-16(%rbp), %rcx
	movq	-8(%rbp), %rax
	movq	%rcx, %rsi
	movq	%rax, %rdi
	call	_ZNSt7__cxx1112basic_stringIcSt11char_traitsIcESaIcEE16_M_construct_auxIPKcEEvT_S8_St12__false_type
	.loc 10 267 9
	nop
	leave
	.cfi_def_cfa 7, 8
	ret
	.cfi_endproc
.LFE4542:
	.size	_ZNSt7__cxx1112basic_stringIcSt11char_traitsIcESaIcEE12_M_constructIPKcEEvT_S8_, .-_ZNSt7__cxx1112basic_stringIcSt11char_traitsIcESaIcEE12_M_constructIPKcEEvT_S8_
	.section	.text._ZNSt12_Vector_baseISt6vectorIcSaIcEESaIS2_EE12_Vector_implC2Ev,"axG",@progbits,_ZNSt12_Vector_baseISt6vectorIcSaIcEESaIS2_EE12_Vector_implC5Ev,comdat
	.align 2
	.weak	_ZNSt12_Vector_baseISt6vectorIcSaIcEESaIS2_EE12_Vector_implC2Ev
	.type	_ZNSt12_Vector_baseISt6vectorIcSaIcEESaIS2_EE12_Vector_implC2Ev, @function
_ZNSt12_Vector_baseISt6vectorIcSaIcEESaIS2_EE12_Vector_implC2Ev:
.LASANPC4617:
.LFB4617:
	.loc 11 128 2
	.cfi_startproc
	endbr64
	pushq	%rbp
	.cfi_def_cfa_offset 16
	.cfi_offset 6, -16
	movq	%rsp, %rbp
	.cfi_def_cfa_register 6
	subq	$16, %rsp
	movq	%rdi, -8(%rbp)
.LBB58:
	.loc 11 130 19
	movq	-8(%rbp), %rax
	movq	%rax, %rdi
	call	_ZNSaISt6vectorIcSaIcEEEC2Ev
	movq	-8(%rbp), %rax
	movq	%rax, %rdi
	call	_ZNSt12_Vector_baseISt6vectorIcSaIcEESaIS2_EE17_Vector_impl_dataC2Ev
.LBE58:
	.loc 11 131 4
	nop
	leave
	.cfi_def_cfa 7, 8
	ret
	.cfi_endproc
.LFE4617:
	.size	_ZNSt12_Vector_baseISt6vectorIcSaIcEESaIS2_EE12_Vector_implC2Ev, .-_ZNSt12_Vector_baseISt6vectorIcSaIcEESaIS2_EE12_Vector_implC2Ev
	.weak	_ZNSt12_Vector_baseISt6vectorIcSaIcEESaIS2_EE12_Vector_implC1Ev
	.set	_ZNSt12_Vector_baseISt6vectorIcSaIcEESaIS2_EE12_Vector_implC1Ev,_ZNSt12_Vector_baseISt6vectorIcSaIcEESaIS2_EE12_Vector_implC2Ev
	.section	.text._ZNSaISt6vectorIcSaIcEEED2Ev,"axG",@progbits,_ZNSaISt6vectorIcSaIcEEED5Ev,comdat
	.align 2
	.weak	_ZNSaISt6vectorIcSaIcEEED2Ev
	.type	_ZNSaISt6vectorIcSaIcEEED2Ev, @function
_ZNSaISt6vectorIcSaIcEEED2Ev:
.LASANPC4620:
.LFB4620:
	.file 17 "/usr/include/c++/9/bits/allocator.h"
	.loc 17 153 7
	.cfi_startproc
	endbr64
	pushq	%rbp
	.cfi_def_cfa_offset 16
	.cfi_offset 6, -16
	movq	%rsp, %rbp
	.cfi_def_cfa_register 6
	subq	$16, %rsp
	movq	%rdi, -8(%rbp)
.LBB59:
	.loc 17 153 31
	movq	-8(%rbp), %rax
	movq	%rax, %rdi
	call	_ZN9__gnu_cxx13new_allocatorISt6vectorIcSaIcEEED2Ev
.LBE59:
	nop
	leave
	.cfi_def_cfa 7, 8
	ret
	.cfi_endproc
.LFE4620:
	.size	_ZNSaISt6vectorIcSaIcEEED2Ev, .-_ZNSaISt6vectorIcSaIcEEED2Ev
	.weak	_ZNSaISt6vectorIcSaIcEEED1Ev
	.set	_ZNSaISt6vectorIcSaIcEEED1Ev,_ZNSaISt6vectorIcSaIcEEED2Ev
	.section	.text._ZNSt12_Vector_baseISt6vectorIcSaIcEESaIS2_EED2Ev,"axG",@progbits,_ZNSt12_Vector_baseISt6vectorIcSaIcEESaIS2_EED5Ev,comdat
	.align 2
	.weak	_ZNSt12_Vector_baseISt6vectorIcSaIcEESaIS2_EED2Ev
	.type	_ZNSt12_Vector_baseISt6vectorIcSaIcEESaIS2_EED2Ev, @function
_ZNSt12_Vector_baseISt6vectorIcSaIcEESaIS2_EED2Ev:
.LASANPC4623:
.LFB4623:
	.loc 11 330 7
	.cfi_startproc
	.cfi_personality 0x9b,DW.ref.__gxx_personality_v0
	.cfi_lsda 0x1b,.LLSDA4623
	endbr64
	pushq	%rbp
	.cfi_def_cfa_offset 16
	.cfi_offset 6, -16
	movq	%rsp, %rbp
	.cfi_def_cfa_register 6
	subq	$16, %rsp
	movq	%rdi, -8(%rbp)
.LBB60:
	.loc 11 333 17
	movq	-8(%rbp), %rax
	addq	$16, %rax
	movq	%rax, %rdx
	shrq	$3, %rdx
	addq	$2147450880, %rdx
	movzbl	(%rdx), %edx
	testb	%dl, %dl
	je	.L381
	movq	%rax, %rdi
	call	__asan_report_load8@PLT
.L381:
	movq	-8(%rbp), %rax
	movq	16(%rax), %rcx
	.loc 11 333 45
	movq	-8(%rbp), %rax
	movq	%rax, %rdx
	shrq	$3, %rdx
	addq	$2147450880, %rdx
	movzbl	(%rdx), %edx
	testb	%dl, %dl
	je	.L382
	movq	%rax, %rdi
	call	__asan_report_load8@PLT
.L382:
	movq	-8(%rbp), %rax
	movq	(%rax), %rax
	.loc 11 333 35
	subq	%rax, %rcx
	movq	%rcx, %rax
	sarq	$3, %rax
	movq	%rax, %rdx
	movabsq	$-6148914691236517205, %rax
	imulq	%rdx, %rax
	.loc 11 332 2
	movq	%rax, %rdx
	movq	-8(%rbp), %rax
	movq	(%rax), %rcx
	movq	-8(%rbp), %rax
	movq	%rcx, %rsi
	movq	%rax, %rdi
	call	_ZNSt12_Vector_baseISt6vectorIcSaIcEESaIS2_EE13_M_deallocateEPS2_m
	.loc 11 334 7
	movq	-8(%rbp), %rax
	movq	%rax, %rdi
	call	_ZNSt12_Vector_baseISt6vectorIcSaIcEESaIS2_EE12_Vector_implD1Ev
.LBE60:
	nop
	leave
	.cfi_def_cfa 7, 8
	ret
	.cfi_endproc
.LFE4623:
	.section	.gcc_except_table
.LLSDA4623:
	.byte	0xff
	.byte	0xff
	.byte	0x1
	.uleb128 .LLSDACSE4623-.LLSDACSB4623
.LLSDACSB4623:
.LLSDACSE4623:
	.section	.text._ZNSt12_Vector_baseISt6vectorIcSaIcEESaIS2_EED2Ev,"axG",@progbits,_ZNSt12_Vector_baseISt6vectorIcSaIcEESaIS2_EED5Ev,comdat
	.size	_ZNSt12_Vector_baseISt6vectorIcSaIcEESaIS2_EED2Ev, .-_ZNSt12_Vector_baseISt6vectorIcSaIcEESaIS2_EED2Ev
	.weak	_ZNSt12_Vector_baseISt6vectorIcSaIcEESaIS2_EED1Ev
	.set	_ZNSt12_Vector_baseISt6vectorIcSaIcEESaIS2_EED1Ev,_ZNSt12_Vector_baseISt6vectorIcSaIcEESaIS2_EED2Ev
	.section	.text._ZNSt12_Vector_baseIcSaIcEE12_Vector_implC2Ev,"axG",@progbits,_ZNSt12_Vector_baseIcSaIcEE12_Vector_implC5Ev,comdat
	.align 2
	.weak	_ZNSt12_Vector_baseIcSaIcEE12_Vector_implC2Ev
	.type	_ZNSt12_Vector_baseIcSaIcEE12_Vector_implC2Ev, @function
_ZNSt12_Vector_baseIcSaIcEE12_Vector_implC2Ev:
.LASANPC4626:
.LFB4626:
	.loc 11 128 2
	.cfi_startproc
	endbr64
	pushq	%rbp
	.cfi_def_cfa_offset 16
	.cfi_offset 6, -16
	movq	%rsp, %rbp
	.cfi_def_cfa_register 6
	subq	$16, %rsp
	movq	%rdi, -8(%rbp)
.LBB61:
	.loc 11 130 19
	movq	-8(%rbp), %rax
	movq	%rax, %rdi
	call	_ZNSaIcEC2Ev@PLT
	movq	-8(%rbp), %rax
	movq	%rax, %rdi
	call	_ZNSt12_Vector_baseIcSaIcEE17_Vector_impl_dataC2Ev
.LBE61:
	.loc 11 131 4
	nop
	leave
	.cfi_def_cfa 7, 8
	ret
	.cfi_endproc
.LFE4626:
	.size	_ZNSt12_Vector_baseIcSaIcEE12_Vector_implC2Ev, .-_ZNSt12_Vector_baseIcSaIcEE12_Vector_implC2Ev
	.weak	_ZNSt12_Vector_baseIcSaIcEE12_Vector_implC1Ev
	.set	_ZNSt12_Vector_baseIcSaIcEE12_Vector_implC1Ev,_ZNSt12_Vector_baseIcSaIcEE12_Vector_implC2Ev
	.section	.text._ZNSt12_Vector_baseIcSaIcEED2Ev,"axG",@progbits,_ZNSt12_Vector_baseIcSaIcEED5Ev,comdat
	.align 2
	.weak	_ZNSt12_Vector_baseIcSaIcEED2Ev
	.type	_ZNSt12_Vector_baseIcSaIcEED2Ev, @function
_ZNSt12_Vector_baseIcSaIcEED2Ev:
.LASANPC4629:
.LFB4629:
	.loc 11 330 7
	.cfi_startproc
	.cfi_personality 0x9b,DW.ref.__gxx_personality_v0
	.cfi_lsda 0x1b,.LLSDA4629
	endbr64
	pushq	%rbp
	.cfi_def_cfa_offset 16
	.cfi_offset 6, -16
	movq	%rsp, %rbp
	.cfi_def_cfa_register 6
	subq	$16, %rsp
	movq	%rdi, -8(%rbp)
.LBB62:
	.loc 11 333 17
	movq	-8(%rbp), %rax
	addq	$16, %rax
	movq	%rax, %rdx
	shrq	$3, %rdx
	addq	$2147450880, %rdx
	movzbl	(%rdx), %edx
	testb	%dl, %dl
	je	.L385
	movq	%rax, %rdi
	call	__asan_report_load8@PLT
.L385:
	movq	-8(%rbp), %rax
	movq	16(%rax), %rcx
	.loc 11 333 45
	movq	-8(%rbp), %rax
	movq	%rax, %rdx
	shrq	$3, %rdx
	addq	$2147450880, %rdx
	movzbl	(%rdx), %edx
	testb	%dl, %dl
	je	.L386
	movq	%rax, %rdi
	call	__asan_report_load8@PLT
.L386:
	movq	-8(%rbp), %rax
	movq	(%rax), %rax
	.loc 11 333 35
	subq	%rax, %rcx
	movq	%rcx, %rax
	.loc 11 332 2
	movq	%rax, %rdx
	movq	-8(%rbp), %rax
	movq	(%rax), %rcx
	movq	-8(%rbp), %rax
	movq	%rcx, %rsi
	movq	%rax, %rdi
	call	_ZNSt12_Vector_baseIcSaIcEE13_M_deallocateEPcm
	.loc 11 334 7
	movq	-8(%rbp), %rax
	movq	%rax, %rdi
	call	_ZNSt12_Vector_baseIcSaIcEE12_Vector_implD1Ev
.LBE62:
	nop
	leave
	.cfi_def_cfa 7, 8
	ret
	.cfi_endproc
.LFE4629:
	.section	.gcc_except_table
.LLSDA4629:
	.byte	0xff
	.byte	0xff
	.byte	0x1
	.uleb128 .LLSDACSE4629-.LLSDACSB4629
.LLSDACSB4629:
.LLSDACSE4629:
	.section	.text._ZNSt12_Vector_baseIcSaIcEED2Ev,"axG",@progbits,_ZNSt12_Vector_baseIcSaIcEED5Ev,comdat
	.size	_ZNSt12_Vector_baseIcSaIcEED2Ev, .-_ZNSt12_Vector_baseIcSaIcEED2Ev
	.weak	_ZNSt12_Vector_baseIcSaIcEED1Ev
	.set	_ZNSt12_Vector_baseIcSaIcEED1Ev,_ZNSt12_Vector_baseIcSaIcEED2Ev
	.section	.text._ZNSt6vectorIcSaIcEED2Ev,"axG",@progbits,_ZNSt6vectorIcSaIcEED5Ev,comdat
	.align 2
	.weak	_ZNSt6vectorIcSaIcEED2Ev
	.type	_ZNSt6vectorIcSaIcEED2Ev, @function
_ZNSt6vectorIcSaIcEED2Ev:
.LASANPC4632:
.LFB4632:
	.loc 11 675 7
	.cfi_startproc
	.cfi_personality 0x9b,DW.ref.__gxx_personality_v0
	.cfi_lsda 0x1b,.LLSDA4632
	endbr64
	pushq	%rbp
	.cfi_def_cfa_offset 16
	.cfi_offset 6, -16
	movq	%rsp, %rbp
	.cfi_def_cfa_register 6
	subq	$16, %rsp
	movq	%rdi, -8(%rbp)
.LBB63:
	.loc 11 678 28
	movq	-8(%rbp), %rax
	movq	%rax, %rdi
	call	_ZNSt12_Vector_baseIcSaIcEE19_M_get_Tp_allocatorEv
	movq	%rax, %rsi
	.loc 11 677 15
	movq	-8(%rbp), %rax
	addq	$8, %rax
	movq	%rax, %rdx
	shrq	$3, %rdx
	addq	$2147450880, %rdx
	movzbl	(%rdx), %edx
	testb	%dl, %dl
	je	.L388
	movq	%rax, %rdi
	call	__asan_report_load8@PLT
.L388:
	movq	-8(%rbp), %rax
	movq	8(%rax), %rcx
	movq	-8(%rbp), %rax
	movq	%rax, %rdx
	shrq	$3, %rdx
	addq	$2147450880, %rdx
	movzbl	(%rdx), %edx
	testb	%dl, %dl
	je	.L389
	movq	%rax, %rdi
	call	__asan_report_load8@PLT
.L389:
	movq	-8(%rbp), %rax
	movq	(%rax), %rax
	movq	%rsi, %rdx
	movq	%rcx, %rsi
	movq	%rax, %rdi
	call	_ZSt8_DestroyIPccEvT_S1_RSaIT0_E
	.loc 11 680 7
	movq	-8(%rbp), %rax
	movq	%rax, %rdi
	call	_ZNSt12_Vector_baseIcSaIcEED2Ev
.LBE63:
	nop
	leave
	.cfi_def_cfa 7, 8
	ret
	.cfi_endproc
.LFE4632:
	.section	.gcc_except_table
.LLSDA4632:
	.byte	0xff
	.byte	0xff
	.byte	0x1
	.uleb128 .LLSDACSE4632-.LLSDACSB4632
.LLSDACSB4632:
.LLSDACSE4632:
	.section	.text._ZNSt6vectorIcSaIcEED2Ev,"axG",@progbits,_ZNSt6vectorIcSaIcEED5Ev,comdat
	.size	_ZNSt6vectorIcSaIcEED2Ev, .-_ZNSt6vectorIcSaIcEED2Ev
	.weak	_ZNSt6vectorIcSaIcEED1Ev
	.set	_ZNSt6vectorIcSaIcEED1Ev,_ZNSt6vectorIcSaIcEED2Ev
	.section	.text._ZNSt6vectorIcSaIcEE9push_backERKc,"axG",@progbits,_ZNSt6vectorIcSaIcEE9push_backERKc,comdat
	.align 2
	.weak	_ZNSt6vectorIcSaIcEE9push_backERKc
	.type	_ZNSt6vectorIcSaIcEE9push_backERKc, @function
_ZNSt6vectorIcSaIcEE9push_backERKc:
.LASANPC4636:
.LFB4636:
	.loc 11 1184 7
	.cfi_startproc
	endbr64
	pushq	%rbp
	.cfi_def_cfa_offset 16
	.cfi_offset 6, -16
	movq	%rsp, %rbp
	.cfi_def_cfa_register 6
	subq	$16, %rsp
	movq	%rdi, -8(%rbp)
	movq	%rsi, -16(%rbp)
	.loc 11 1186 20
	movq	-8(%rbp), %rax
	addq	$8, %rax
	movq	%rax, %rdx
	shrq	$3, %rdx
	addq	$2147450880, %rdx
	movzbl	(%rdx), %edx
	testb	%dl, %dl
	je	.L391
	movq	%rax, %rdi
	call	__asan_report_load8@PLT
.L391:
	movq	-8(%rbp), %rax
	movq	8(%rax), %rcx
	.loc 11 1186 47
	movq	-8(%rbp), %rax
	addq	$16, %rax
	movq	%rax, %rdx
	shrq	$3, %rdx
	addq	$2147450880, %rdx
	movzbl	(%rdx), %edx
	testb	%dl, %dl
	je	.L392
	movq	%rax, %rdi
	call	__asan_report_load8@PLT
.L392:
	movq	-8(%rbp), %rax
	movq	16(%rax), %rax
	.loc 11 1186 2
	cmpq	%rax, %rcx
	je	.L393
	.loc 11 1189 30
	movq	-8(%rbp), %rax
	movq	8(%rax), %rcx
	.loc 11 1189 37
	movq	-8(%rbp), %rax
	.loc 11 1189 30
	movq	-16(%rbp), %rdx
	movq	%rcx, %rsi
	movq	%rax, %rdi
	call	_ZNSt16allocator_traitsISaIcEE9constructIcJRKcEEEvRS0_PT_DpOT0_
	.loc 11 1191 22
	movq	-8(%rbp), %rax
	addq	$8, %rax
	movq	%rax, %rdx
	shrq	$3, %rdx
	addq	$2147450880, %rdx
	movzbl	(%rdx), %edx
	testb	%dl, %dl
	je	.L394
	movq	%rax, %rdi
	call	__asan_report_load8@PLT
.L394:
	movq	-8(%rbp), %rax
	movq	8(%rax), %rax
	.loc 11 1191 6
	leaq	1(%rax), %rdx
	movq	-8(%rbp), %rax
	movq	%rdx, 8(%rax)
	.loc 11 1196 7
	jmp	.L396
.L393:
	.loc 11 1195 4
	movq	-8(%rbp), %rax
	movq	%rax, %rdi
	call	_ZNSt6vectorIcSaIcEE3endEv
	movq	%rax, %rcx
	movq	-16(%rbp), %rdx
	movq	-8(%rbp), %rax
	movq	%rcx, %rsi
	movq	%rax, %rdi
	call	_ZNSt6vectorIcSaIcEE17_M_realloc_insertIJRKcEEEvN9__gnu_cxx17__normal_iteratorIPcS1_EEDpOT_
.L396:
	.loc 11 1196 7
	nop
	leave
	.cfi_def_cfa 7, 8
	ret
	.cfi_endproc
.LFE4636:
	.size	_ZNSt6vectorIcSaIcEE9push_backERKc, .-_ZNSt6vectorIcSaIcEE9push_backERKc
	.section	.text._ZNSt6vectorIS_IcSaIcEESaIS1_EE9push_backERKS1_,"axG",@progbits,_ZNSt6vectorIS_IcSaIcEESaIS1_EE9push_backERKS1_,comdat
	.align 2
	.weak	_ZNSt6vectorIS_IcSaIcEESaIS1_EE9push_backERKS1_
	.type	_ZNSt6vectorIS_IcSaIcEESaIS1_EE9push_backERKS1_, @function
_ZNSt6vectorIS_IcSaIcEESaIS1_EE9push_backERKS1_:
.LASANPC4637:
.LFB4637:
	.loc 11 1184 7
	.cfi_startproc
	endbr64
	pushq	%rbp
	.cfi_def_cfa_offset 16
	.cfi_offset 6, -16
	movq	%rsp, %rbp
	.cfi_def_cfa_register 6
	subq	$16, %rsp
	movq	%rdi, -8(%rbp)
	movq	%rsi, -16(%rbp)
	.loc 11 1186 20
	movq	-8(%rbp), %rax
	addq	$8, %rax
	movq	%rax, %rdx
	shrq	$3, %rdx
	addq	$2147450880, %rdx
	movzbl	(%rdx), %edx
	testb	%dl, %dl
	je	.L398
	movq	%rax, %rdi
	call	__asan_report_load8@PLT
.L398:
	movq	-8(%rbp), %rax
	movq	8(%rax), %rcx
	.loc 11 1186 47
	movq	-8(%rbp), %rax
	addq	$16, %rax
	movq	%rax, %rdx
	shrq	$3, %rdx
	addq	$2147450880, %rdx
	movzbl	(%rdx), %edx
	testb	%dl, %dl
	je	.L399
	movq	%rax, %rdi
	call	__asan_report_load8@PLT
.L399:
	movq	-8(%rbp), %rax
	movq	16(%rax), %rax
	.loc 11 1186 2
	cmpq	%rax, %rcx
	je	.L400
	.loc 11 1189 30
	movq	-8(%rbp), %rax
	movq	8(%rax), %rcx
	.loc 11 1189 37
	movq	-8(%rbp), %rax
	.loc 11 1189 30
	movq	-16(%rbp), %rdx
	movq	%rcx, %rsi
	movq	%rax, %rdi
	call	_ZNSt16allocator_traitsISaISt6vectorIcSaIcEEEE9constructIS2_JRKS2_EEEvRS3_PT_DpOT0_
	.loc 11 1191 22
	movq	-8(%rbp), %rax
	addq	$8, %rax
	movq	%rax, %rdx
	shrq	$3, %rdx
	addq	$2147450880, %rdx
	movzbl	(%rdx), %edx
	testb	%dl, %dl
	je	.L401
	movq	%rax, %rdi
	call	__asan_report_load8@PLT
.L401:
	movq	-8(%rbp), %rax
	movq	8(%rax), %rax
	.loc 11 1191 6
	leaq	24(%rax), %rdx
	movq	-8(%rbp), %rax
	movq	%rdx, 8(%rax)
	.loc 11 1196 7
	jmp	.L403
.L400:
	.loc 11 1195 4
	movq	-8(%rbp), %rax
	movq	%rax, %rdi
	call	_ZNSt6vectorIS_IcSaIcEESaIS1_EE3endEv
	movq	%rax, %rcx
	movq	-16(%rbp), %rdx
	movq	-8(%rbp), %rax
	movq	%rcx, %rsi
	movq	%rax, %rdi
	call	_ZNSt6vectorIS_IcSaIcEESaIS1_EE17_M_realloc_insertIJRKS1_EEEvN9__gnu_cxx17__normal_iteratorIPS1_S3_EEDpOT_
.L403:
	.loc 11 1196 7
	nop
	leave
	.cfi_def_cfa 7, 8
	ret
	.cfi_endproc
.LFE4637:
	.size	_ZNSt6vectorIS_IcSaIcEESaIS1_EE9push_backERKS1_, .-_ZNSt6vectorIS_IcSaIcEESaIS1_EE9push_backERKS1_
	.section	.text._ZNSt6vectorIcSaIcEE5clearEv,"axG",@progbits,_ZNSt6vectorIcSaIcEE5clearEv,comdat
	.align 2
	.weak	_ZNSt6vectorIcSaIcEE5clearEv
	.type	_ZNSt6vectorIcSaIcEE5clearEv, @function
_ZNSt6vectorIcSaIcEE5clearEv:
.LASANPC4638:
.LFB4638:
	.loc 11 1495 7
	.cfi_startproc
	endbr64
	pushq	%rbp
	.cfi_def_cfa_offset 16
	.cfi_offset 6, -16
	movq	%rsp, %rbp
	.cfi_def_cfa_register 6
	subq	$16, %rsp
	movq	%rdi, -8(%rbp)
	.loc 11 1496 9
	movq	-8(%rbp), %rax
	movq	%rax, %rdx
	shrq	$3, %rdx
	addq	$2147450880, %rdx
	movzbl	(%rdx), %edx
	testb	%dl, %dl
	je	.L405
	movq	%rax, %rdi
	call	__asan_report_load8@PLT
.L405:
	movq	-8(%rbp), %rax
	movq	(%rax), %rdx
	movq	-8(%rbp), %rax
	movq	%rdx, %rsi
	movq	%rax, %rdi
	call	_ZNSt6vectorIcSaIcEE15_M_erase_at_endEPc
	.loc 11 1496 50
	nop
	leave
	.cfi_def_cfa 7, 8
	ret
	.cfi_endproc
.LFE4638:
	.size	_ZNSt6vectorIcSaIcEE5clearEv, .-_ZNSt6vectorIcSaIcEE5clearEv
	.section	.text._ZNSt12_Vector_baseISt6vectorIcSaIcEESaIS2_EE19_M_get_Tp_allocatorEv,"axG",@progbits,_ZNSt12_Vector_baseISt6vectorIcSaIcEESaIS2_EE19_M_get_Tp_allocatorEv,comdat
	.align 2
	.weak	_ZNSt12_Vector_baseISt6vectorIcSaIcEESaIS2_EE19_M_get_Tp_allocatorEv
	.type	_ZNSt12_Vector_baseISt6vectorIcSaIcEESaIS2_EE19_M_get_Tp_allocatorEv, @function
_ZNSt12_Vector_baseISt6vectorIcSaIcEESaIS2_EE19_M_get_Tp_allocatorEv:
.LASANPC4642:
.LFB4642:
	.loc 11 273 7
	.cfi_startproc
	endbr64
	pushq	%rbp
	.cfi_def_cfa_offset 16
	.cfi_offset 6, -16
	movq	%rsp, %rbp
	.cfi_def_cfa_register 6
	movq	%rdi, -8(%rbp)
	.loc 11 274 22
	movq	-8(%rbp), %rax
	.loc 11 274 31
	popq	%rbp
	.cfi_def_cfa 7, 8
	ret
	.cfi_endproc
.LFE4642:
	.size	_ZNSt12_Vector_baseISt6vectorIcSaIcEESaIS2_EE19_M_get_Tp_allocatorEv, .-_ZNSt12_Vector_baseISt6vectorIcSaIcEESaIS2_EE19_M_get_Tp_allocatorEv
	.section	.text._ZSt8_DestroyIPSt6vectorIcSaIcEES2_EvT_S4_RSaIT0_E,"axG",@progbits,_ZSt8_DestroyIPSt6vectorIcSaIcEES2_EvT_S4_RSaIT0_E,comdat
	.weak	_ZSt8_DestroyIPSt6vectorIcSaIcEES2_EvT_S4_RSaIT0_E
	.type	_ZSt8_DestroyIPSt6vectorIcSaIcEES2_EvT_S4_RSaIT0_E, @function
_ZSt8_DestroyIPSt6vectorIcSaIcEES2_EvT_S4_RSaIT0_E:
.LASANPC4643:
.LFB4643:
	.file 18 "/usr/include/c++/9/bits/stl_construct.h"
	.loc 18 203 5
	.cfi_startproc
	endbr64
	pushq	%rbp
	.cfi_def_cfa_offset 16
	.cfi_offset 6, -16
	movq	%rsp, %rbp
	.cfi_def_cfa_register 6
	subq	$32, %rsp
	movq	%rdi, -8(%rbp)
	movq	%rsi, -16(%rbp)
	movq	%rdx, -24(%rbp)
	.loc 18 206 15
	movq	-16(%rbp), %rdx
	movq	-8(%rbp), %rax
	movq	%rdx, %rsi
	movq	%rax, %rdi
	call	_ZSt8_DestroyIPSt6vectorIcSaIcEEEvT_S4_
	.loc 18 207 5
	nop
	leave
	.cfi_def_cfa 7, 8
	ret
	.cfi_endproc
.LFE4643:
	.size	_ZSt8_DestroyIPSt6vectorIcSaIcEES2_EvT_S4_RSaIT0_E, .-_ZSt8_DestroyIPSt6vectorIcSaIcEES2_EvT_S4_RSaIT0_E
	.section	.text._ZNKSt6vectorIS_IcSaIcEESaIS1_EE4sizeEv,"axG",@progbits,_ZNKSt6vectorIS_IcSaIcEESaIS1_EE4sizeEv,comdat
	.align 2
	.weak	_ZNKSt6vectorIS_IcSaIcEESaIS1_EE4sizeEv
	.type	_ZNKSt6vectorIS_IcSaIcEESaIS1_EE4sizeEv, @function
_ZNKSt6vectorIS_IcSaIcEESaIS1_EE4sizeEv:
.LASANPC4644:
.LFB4644:
	.loc 11 915 7
	.cfi_startproc
	endbr64
	pushq	%rbp
	.cfi_def_cfa_offset 16
	.cfi_offset 6, -16
	movq	%rsp, %rbp
	.cfi_def_cfa_register 6
	subq	$16, %rsp
	movq	%rdi, -8(%rbp)
	.loc 11 916 40
	movq	-8(%rbp), %rax
	addq	$8, %rax
	movq	%rax, %rdx
	shrq	$3, %rdx
	addq	$2147450880, %rdx
	movzbl	(%rdx), %edx
	testb	%dl, %dl
	je	.L410
	movq	%rax, %rdi
	call	__asan_report_load8@PLT
.L410:
	movq	-8(%rbp), %rax
	movq	8(%rax), %rcx
	.loc 11 916 66
	movq	-8(%rbp), %rax
	movq	%rax, %rdx
	shrq	$3, %rdx
	addq	$2147450880, %rdx
	movzbl	(%rdx), %edx
	testb	%dl, %dl
	je	.L411
	movq	%rax, %rdi
	call	__asan_report_load8@PLT
.L411:
	movq	-8(%rbp), %rax
	movq	(%rax), %rax
	.loc 11 916 50
	subq	%rax, %rcx
	movq	%rcx, %rax
	sarq	$3, %rax
	movq	%rax, %rdx
	movabsq	$-6148914691236517205, %rax
	imulq	%rdx, %rax
	.loc 11 916 77
	leave
	.cfi_def_cfa 7, 8
	ret
	.cfi_endproc
.LFE4644:
	.size	_ZNKSt6vectorIS_IcSaIcEESaIS1_EE4sizeEv, .-_ZNKSt6vectorIS_IcSaIcEESaIS1_EE4sizeEv
	.section	.text._ZN5GraphIccEC2Eii6Direct,"axG",@progbits,_ZN5GraphIccEC5Eii6Direct,comdat
	.align 2
	.weak	_ZN5GraphIccEC2Eii6Direct
	.type	_ZN5GraphIccEC2Eii6Direct, @function
_ZN5GraphIccEC2Eii6Direct:
.LASANPC4646:
.LFB4646:
	.loc 15 94 5
	.cfi_startproc
	endbr64
	pushq	%rbp
	.cfi_def_cfa_offset 16
	.cfi_offset 6, -16
	movq	%rsp, %rbp
	.cfi_def_cfa_register 6
	subq	$32, %rsp
	movq	%rdi, -8(%rbp)
	movl	%esi, -12(%rbp)
	movl	%edx, -16(%rbp)
	movl	%ecx, -20(%rbp)
.LBB64:
	.loc 15 94 84
	leaq	16+_ZTV5GraphIccE(%rip), %rcx
	movq	-8(%rbp), %rax
	movq	%rax, %rdx
	shrq	$3, %rdx
	addq	$2147450880, %rdx
	movzbl	(%rdx), %edx
	testb	%dl, %dl
	je	.L414
	movq	%rax, %rdi
	call	__asan_report_store8@PLT
.L414:
	movq	-8(%rbp), %rax
	movq	%rcx, (%rax)
	movq	-8(%rbp), %rax
	addq	$8, %rax
	movq	%rax, %rdx
	movq	%rdx, %rax
	shrq	$3, %rax
	addq	$2147450880, %rax
	movzbl	(%rax), %eax
	testb	%al, %al
	setne	%cl
	cmpb	$3, %al
	setle	%al
	andl	%ecx, %eax
	testb	%al, %al
	je	.L415
	movq	%rdx, %rdi
	call	__asan_report_store4@PLT
.L415:
	movq	-8(%rbp), %rax
	movl	-12(%rbp), %edx
	movl	%edx, 8(%rax)
	movq	-8(%rbp), %rax
	addq	$12, %rax
	movq	%rax, %rdx
	shrq	$3, %rdx
	addq	$2147450880, %rdx
	movzbl	(%rdx), %edx
	testb	%dl, %dl
	setne	%cl
	movq	%rax, %rsi
	andl	$7, %esi
	addl	$3, %esi
	cmpb	%dl, %sil
	setge	%dl
	andl	%ecx, %edx
	testb	%dl, %dl
	je	.L416
	movq	%rax, %rdi
	call	__asan_report_store4@PLT
.L416:
	movq	-8(%rbp), %rax
	movl	-16(%rbp), %edx
	movl	%edx, 12(%rax)
	movq	-8(%rbp), %rax
	addq	$16, %rax
	movq	%rax, %rdx
	movq	%rdx, %rax
	shrq	$3, %rax
	addq	$2147450880, %rax
	movzbl	(%rax), %eax
	testb	%al, %al
	setne	%cl
	cmpb	$3, %al
	setle	%al
	andl	%ecx, %eax
	testb	%al, %al
	je	.L417
	movq	%rdx, %rdi
	call	__asan_report_store4@PLT
.L417:
	movq	-8(%rbp), %rax
	movl	-20(%rbp), %edx
	movl	%edx, 16(%rax)
.LBE64:
	.loc 15 94 87
	nop
	leave
	.cfi_def_cfa 7, 8
	ret
	.cfi_endproc
.LFE4646:
	.size	_ZN5GraphIccEC2Eii6Direct, .-_ZN5GraphIccEC2Eii6Direct
	.weak	_ZN5GraphIccEC1Eii6Direct
	.set	_ZN5GraphIccEC1Eii6Direct,_ZN5GraphIccEC2Eii6Direct
	.section	.text._ZNSaI5VNodeIccEEC2Ev,"axG",@progbits,_ZNSaI5VNodeIccEEC5Ev,comdat
	.align 2
	.weak	_ZNSaI5VNodeIccEEC2Ev
	.type	_ZNSaI5VNodeIccEEC2Ev, @function
_ZNSaI5VNodeIccEEC2Ev:
.LASANPC4649:
.LFB4649:
	.loc 17 138 7
	.cfi_startproc
	endbr64
	pushq	%rbp
	.cfi_def_cfa_offset 16
	.cfi_offset 6, -16
	movq	%rsp, %rbp
	.cfi_def_cfa_register 6
	subq	$16, %rsp
	movq	%rdi, -8(%rbp)
.LBB65:
	.loc 17 138 28
	movq	-8(%rbp), %rax
	movq	%rax, %rdi
	call	_ZN9__gnu_cxx13new_allocatorI5VNodeIccEEC2Ev
.LBE65:
	.loc 17 138 30
	nop
	leave
	.cfi_def_cfa 7, 8
	ret
	.cfi_endproc
.LFE4649:
	.size	_ZNSaI5VNodeIccEEC2Ev, .-_ZNSaI5VNodeIccEEC2Ev
	.weak	_ZNSaI5VNodeIccEEC1Ev
	.set	_ZNSaI5VNodeIccEEC1Ev,_ZNSaI5VNodeIccEEC2Ev
	.section	.text._ZNSaI5VNodeIccEED2Ev,"axG",@progbits,_ZNSaI5VNodeIccEED5Ev,comdat
	.align 2
	.weak	_ZNSaI5VNodeIccEED2Ev
	.type	_ZNSaI5VNodeIccEED2Ev, @function
_ZNSaI5VNodeIccEED2Ev:
.LASANPC4652:
.LFB4652:
	.loc 17 153 7
	.cfi_startproc
	endbr64
	pushq	%rbp
	.cfi_def_cfa_offset 16
	.cfi_offset 6, -16
	movq	%rsp, %rbp
	.cfi_def_cfa_register 6
	subq	$16, %rsp
	movq	%rdi, -8(%rbp)
.LBB66:
	.loc 17 153 31
	movq	-8(%rbp), %rax
	movq	%rax, %rdi
	call	_ZN9__gnu_cxx13new_allocatorI5VNodeIccEED2Ev
.LBE66:
	nop
	leave
	.cfi_def_cfa 7, 8
	ret
	.cfi_endproc
.LFE4652:
	.size	_ZNSaI5VNodeIccEED2Ev, .-_ZNSaI5VNodeIccEED2Ev
	.weak	_ZNSaI5VNodeIccEED1Ev
	.set	_ZNSaI5VNodeIccEED1Ev,_ZNSaI5VNodeIccEED2Ev
	.section	.text._ZNSt6vectorI5VNodeIccESaIS1_EEC2EmRKS2_,"axG",@progbits,_ZNSt6vectorI5VNodeIccESaIS1_EEC5EmRKS2_,comdat
	.align 2
	.weak	_ZNSt6vectorI5VNodeIccESaIS1_EEC2EmRKS2_
	.type	_ZNSt6vectorI5VNodeIccESaIS1_EEC2EmRKS2_, @function
_ZNSt6vectorI5VNodeIccESaIS1_EEC2EmRKS2_:
.LASANPC4655:
.LFB4655:
	.loc 11 507 7
	.cfi_startproc
	.cfi_personality 0x9b,DW.ref.__gxx_personality_v0
	.cfi_lsda 0x1b,.LLSDA4655
	endbr64
	pushq	%rbp
	.cfi_def_cfa_offset 16
	.cfi_offset 6, -16
	movq	%rsp, %rbp
	.cfi_def_cfa_register 6
	pushq	%rbx
	subq	$40, %rsp
	.cfi_offset 3, -24
	movq	%rdi, -24(%rbp)
	movq	%rsi, -32(%rbp)
	movq	%rdx, -40(%rbp)
.LBB67:
	.loc 11 508 47
	movq	-24(%rbp), %rbx
	movq	-40(%rbp), %rdx
	movq	-32(%rbp), %rax
	movq	%rdx, %rsi
	movq	%rax, %rdi
.LEHB42:
	call	_ZNSt6vectorI5VNodeIccESaIS1_EE17_S_check_init_lenEmRKS2_
	movq	%rax, %rcx
	movq	-40(%rbp), %rax
	movq	%rax, %rdx
	movq	%rcx, %rsi
	movq	%rbx, %rdi
	call	_ZNSt12_Vector_baseI5VNodeIccESaIS1_EEC2EmRKS2_
.LEHE42:
	.loc 11 509 9
	movq	-32(%rbp), %rdx
	movq	-24(%rbp), %rax
	movq	%rdx, %rsi
	movq	%rax, %rdi
.LEHB43:
	call	_ZNSt6vectorI5VNodeIccESaIS1_EE21_M_default_initializeEm
.LEHE43:
.LBE67:
	.loc 11 509 37
	jmp	.L423
.L422:
	endbr64
	movq	%rax, %rbx
.LBB68:
	.loc 11 508 47
	movq	-24(%rbp), %rax
	movq	%rax, %rdi
	call	_ZNSt12_Vector_baseI5VNodeIccESaIS1_EED2Ev
	call	__asan_handle_no_return@PLT
	movq	%rbx, %rdi
.LEHB44:
	call	_Unwind_Resume@PLT
.LEHE44:
.L423:
.LBE68:
	.loc 11 509 37
	addq	$40, %rsp
	popq	%rbx
	popq	%rbp
	.cfi_def_cfa 7, 8
	ret
	.cfi_endproc
.LFE4655:
	.section	.gcc_except_table
.LLSDA4655:
	.byte	0xff
	.byte	0xff
	.byte	0x1
	.uleb128 .LLSDACSE4655-.LLSDACSB4655
.LLSDACSB4655:
	.uleb128 .LEHB42-.LFB4655
	.uleb128 .LEHE42-.LEHB42
	.uleb128 0
	.uleb128 0
	.uleb128 .LEHB43-.LFB4655
	.uleb128 .LEHE43-.LEHB43
	.uleb128 .L422-.LFB4655
	.uleb128 0
	.uleb128 .LEHB44-.LFB4655
	.uleb128 .LEHE44-.LEHB44
	.uleb128 0
	.uleb128 0
.LLSDACSE4655:
	.section	.text._ZNSt6vectorI5VNodeIccESaIS1_EEC2EmRKS2_,"axG",@progbits,_ZNSt6vectorI5VNodeIccESaIS1_EEC5EmRKS2_,comdat
	.size	_ZNSt6vectorI5VNodeIccESaIS1_EEC2EmRKS2_, .-_ZNSt6vectorI5VNodeIccESaIS1_EEC2EmRKS2_
	.weak	_ZNSt6vectorI5VNodeIccESaIS1_EEC1EmRKS2_
	.set	_ZNSt6vectorI5VNodeIccESaIS1_EEC1EmRKS2_,_ZNSt6vectorI5VNodeIccESaIS1_EEC2EmRKS2_
	.section	.text._ZNSt6vectorI5VNodeIccESaIS1_EED2Ev,"axG",@progbits,_ZNSt6vectorI5VNodeIccESaIS1_EED5Ev,comdat
	.align 2
	.weak	_ZNSt6vectorI5VNodeIccESaIS1_EED2Ev
	.type	_ZNSt6vectorI5VNodeIccESaIS1_EED2Ev, @function
_ZNSt6vectorI5VNodeIccESaIS1_EED2Ev:
.LASANPC4658:
.LFB4658:
	.loc 11 675 7
	.cfi_startproc
	.cfi_personality 0x9b,DW.ref.__gxx_personality_v0
	.cfi_lsda 0x1b,.LLSDA4658
	endbr64
	pushq	%rbp
	.cfi_def_cfa_offset 16
	.cfi_offset 6, -16
	movq	%rsp, %rbp
	.cfi_def_cfa_register 6
	subq	$16, %rsp
	movq	%rdi, -8(%rbp)
.LBB69:
	.loc 11 678 28
	movq	-8(%rbp), %rax
	movq	%rax, %rdi
	call	_ZNSt12_Vector_baseI5VNodeIccESaIS1_EE19_M_get_Tp_allocatorEv
	movq	%rax, %rsi
	.loc 11 677 15
	movq	-8(%rbp), %rax
	addq	$8, %rax
	movq	%rax, %rdx
	shrq	$3, %rdx
	addq	$2147450880, %rdx
	movzbl	(%rdx), %edx
	testb	%dl, %dl
	je	.L425
	movq	%rax, %rdi
	call	__asan_report_load8@PLT
.L425:
	movq	-8(%rbp), %rax
	movq	8(%rax), %rcx
	movq	-8(%rbp), %rax
	movq	%rax, %rdx
	shrq	$3, %rdx
	addq	$2147450880, %rdx
	movzbl	(%rdx), %edx
	testb	%dl, %dl
	je	.L426
	movq	%rax, %rdi
	call	__asan_report_load8@PLT
.L426:
	movq	-8(%rbp), %rax
	movq	(%rax), %rax
	movq	%rsi, %rdx
	movq	%rcx, %rsi
	movq	%rax, %rdi
	call	_ZSt8_DestroyIP5VNodeIccES1_EvT_S3_RSaIT0_E
	.loc 11 680 7
	movq	-8(%rbp), %rax
	movq	%rax, %rdi
	call	_ZNSt12_Vector_baseI5VNodeIccESaIS1_EED2Ev
.LBE69:
	nop
	leave
	.cfi_def_cfa 7, 8
	ret
	.cfi_endproc
.LFE4658:
	.section	.gcc_except_table
.LLSDA4658:
	.byte	0xff
	.byte	0xff
	.byte	0x1
	.uleb128 .LLSDACSE4658-.LLSDACSB4658
.LLSDACSB4658:
.LLSDACSE4658:
	.section	.text._ZNSt6vectorI5VNodeIccESaIS1_EED2Ev,"axG",@progbits,_ZNSt6vectorI5VNodeIccESaIS1_EED5Ev,comdat
	.size	_ZNSt6vectorI5VNodeIccESaIS1_EED2Ev, .-_ZNSt6vectorI5VNodeIccESaIS1_EED2Ev
	.weak	_ZNSt6vectorI5VNodeIccESaIS1_EED1Ev
	.set	_ZNSt6vectorI5VNodeIccESaIS1_EED1Ev,_ZNSt6vectorI5VNodeIccESaIS1_EED2Ev
	.section	.text._ZNKSt6vectorIS_IcSaIcEESaIS1_EEixEm,"axG",@progbits,_ZNKSt6vectorIS_IcSaIcEESaIS1_EEixEm,comdat
	.align 2
	.weak	_ZNKSt6vectorIS_IcSaIcEESaIS1_EEixEm
	.type	_ZNKSt6vectorIS_IcSaIcEESaIS1_EEixEm, @function
_ZNKSt6vectorIS_IcSaIcEESaIS1_EEixEm:
.LASANPC4660:
.LFB4660:
	.loc 11 1058 7
	.cfi_startproc
	endbr64
	pushq	%rbp
	.cfi_def_cfa_offset 16
	.cfi_offset 6, -16
	movq	%rsp, %rbp
	.cfi_def_cfa_register 6
	subq	$16, %rsp
	movq	%rdi, -8(%rbp)
	movq	%rsi, -16(%rbp)
	.loc 11 1061 25
	movq	-8(%rbp), %rax
	movq	%rax, %rdx
	shrq	$3, %rdx
	addq	$2147450880, %rdx
	movzbl	(%rdx), %edx
	testb	%dl, %dl
	je	.L428
	movq	%rax, %rdi
	call	__asan_report_load8@PLT
.L428:
	movq	-8(%rbp), %rax
	movq	(%rax), %rcx
	.loc 11 1061 34
	movq	-16(%rbp), %rdx
	movq	%rdx, %rax
	addq	%rax, %rax
	addq	%rdx, %rax
	salq	$3, %rax
	.loc 11 1061 39
	addq	%rcx, %rax
	.loc 11 1062 7
	leave
	.cfi_def_cfa 7, 8
	ret
	.cfi_endproc
.LFE4660:
	.size	_ZNKSt6vectorIS_IcSaIcEESaIS1_EEixEm, .-_ZNKSt6vectorIS_IcSaIcEESaIS1_EEixEm
	.section	.text._ZNKSt6vectorIcSaIcEEixEm,"axG",@progbits,_ZNKSt6vectorIcSaIcEEixEm,comdat
	.align 2
	.weak	_ZNKSt6vectorIcSaIcEEixEm
	.type	_ZNKSt6vectorIcSaIcEEixEm, @function
_ZNKSt6vectorIcSaIcEEixEm:
.LASANPC4661:
.LFB4661:
	.loc 11 1058 7
	.cfi_startproc
	endbr64
	pushq	%rbp
	.cfi_def_cfa_offset 16
	.cfi_offset 6, -16
	movq	%rsp, %rbp
	.cfi_def_cfa_register 6
	subq	$16, %rsp
	movq	%rdi, -8(%rbp)
	movq	%rsi, -16(%rbp)
	.loc 11 1061 25
	movq	-8(%rbp), %rax
	movq	%rax, %rdx
	shrq	$3, %rdx
	addq	$2147450880, %rdx
	movzbl	(%rdx), %edx
	testb	%dl, %dl
	je	.L431
	movq	%rax, %rdi
	call	__asan_report_load8@PLT
.L431:
	movq	-8(%rbp), %rax
	movq	(%rax), %rdx
	.loc 11 1061 39
	movq	-16(%rbp), %rax
	addq	%rdx, %rax
	.loc 11 1062 7
	leave
	.cfi_def_cfa 7, 8
	ret
	.cfi_endproc
.LFE4661:
	.size	_ZNKSt6vectorIcSaIcEEixEm, .-_ZNKSt6vectorIcSaIcEEixEm
	.section	.text._ZNSt6vectorI5VNodeIccESaIS1_EEixEm,"axG",@progbits,_ZNSt6vectorI5VNodeIccESaIS1_EEixEm,comdat
	.align 2
	.weak	_ZNSt6vectorI5VNodeIccESaIS1_EEixEm
	.type	_ZNSt6vectorI5VNodeIccESaIS1_EEixEm, @function
_ZNSt6vectorI5VNodeIccESaIS1_EEixEm:
.LASANPC4662:
.LFB4662:
	.loc 11 1040 7
	.cfi_startproc
	endbr64
	pushq	%rbp
	.cfi_def_cfa_offset 16
	.cfi_offset 6, -16
	movq	%rsp, %rbp
	.cfi_def_cfa_register 6
	subq	$16, %rsp
	movq	%rdi, -8(%rbp)
	movq	%rsi, -16(%rbp)
	.loc 11 1043 25
	movq	-8(%rbp), %rax
	movq	%rax, %rdx
	shrq	$3, %rdx
	addq	$2147450880, %rdx
	movzbl	(%rdx), %edx
	testb	%dl, %dl
	je	.L434
	movq	%rax, %rdi
	call	__asan_report_load8@PLT
.L434:
	movq	-8(%rbp), %rax
	movq	(%rax), %rcx
	.loc 11 1043 34
	movq	-16(%rbp), %rdx
	movq	%rdx, %rax
	salq	$2, %rax
	addq	%rdx, %rax
	salq	$3, %rax
	.loc 11 1043 39
	addq	%rcx, %rax
	.loc 11 1044 7
	leave
	.cfi_def_cfa 7, 8
	ret
	.cfi_endproc
.LFE4662:
	.size	_ZNSt6vectorI5VNodeIccESaIS1_EEixEm, .-_ZNSt6vectorI5VNodeIccESaIS1_EEixEm
	.section	.text._ZN6VertexIcEC2ERKc,"axG",@progbits,_ZN6VertexIcEC5ERKc,comdat
	.align 2
	.weak	_ZN6VertexIcEC2ERKc
	.type	_ZN6VertexIcEC2ERKc, @function
_ZN6VertexIcEC2ERKc:
.LASANPC4664:
.LFB4664:
	.loc 15 54 5
	.cfi_startproc
	endbr64
	pushq	%rbp
	.cfi_def_cfa_offset 16
	.cfi_offset 6, -16
	movq	%rsp, %rbp
	.cfi_def_cfa_register 6
	subq	$16, %rsp
	movq	%rdi, -8(%rbp)
	movq	%rsi, -16(%rbp)
.LBB70:
	.loc 15 55 88
	movq	-16(%rbp), %rax
	movq	%rax, %rdx
	shrq	$3, %rdx
	addq	$2147450880, %rdx
	movzbl	(%rdx), %edx
	testb	%dl, %dl
	setne	%cl
	movq	%rax, %rsi
	andl	$7, %esi
	cmpb	%dl, %sil
	setge	%dl
	andl	%ecx, %edx
	testb	%dl, %dl
	je	.L437
	movq	%rax, %rdi
	call	__asan_report_load1@PLT
.L437:
	movq	-16(%rbp), %rax
	movzbl	(%rax), %ecx
	movq	-8(%rbp), %rax
	movq	%rax, %rdx
	shrq	$3, %rdx
	addq	$2147450880, %rdx
	movzbl	(%rdx), %edx
	testb	%dl, %dl
	setne	%sil
	movq	%rax, %rdi
	andl	$7, %edi
	cmpb	%dl, %dil
	setge	%dl
	andl	%esi, %edx
	testb	%dl, %dl
	je	.L438
	movq	%rax, %rdi
	call	__asan_report_store1@PLT
.L438:
	movq	-8(%rbp), %rax
	movb	%cl, (%rax)
	movq	-8(%rbp), %rax
	addq	$4, %rax
	movq	%rax, %rdx
	shrq	$3, %rdx
	addq	$2147450880, %rdx
	movzbl	(%rdx), %edx
	testb	%dl, %dl
	setne	%cl
	movq	%rax, %rsi
	andl	$7, %esi
	addl	$3, %esi
	cmpb	%dl, %sil
	setge	%dl
	andl	%ecx, %edx
	testb	%dl, %dl
	je	.L439
	movq	%rax, %rdi
	call	__asan_report_store4@PLT
.L439:
	movq	-8(%rbp), %rax
	movl	$0, 4(%rax)
	movq	-8(%rbp), %rax
	addq	$8, %rax
	movq	%rax, %rdx
	shrq	$3, %rdx
	addq	$2147450880, %rdx
	movzbl	(%rdx), %edx
	testb	%dl, %dl
	setne	%cl
	movq	%rax, %rsi
	andl	$7, %esi
	addl	$3, %esi
	cmpb	%dl, %sil
	setge	%dl
	andl	%ecx, %edx
	testb	%dl, %dl
	je	.L440
	movq	%rax, %rdi
	call	__asan_report_store4@PLT
.L440:
	movq	-8(%rbp), %rax
	movl	$0, 8(%rax)
	movq	-8(%rbp), %rax
	addq	$12, %rax
	movq	%rax, %rdx
	shrq	$3, %rdx
	addq	$2147450880, %rdx
	movzbl	(%rdx), %edx
	testb	%dl, %dl
	setne	%cl
	movq	%rax, %rsi
	andl	$7, %esi
	addl	$3, %esi
	cmpb	%dl, %sil
	setge	%dl
	andl	%ecx, %edx
	testb	%dl, %dl
	je	.L441
	movq	%rax, %rdi
	call	__asan_report_store4@PLT
.L441:
	movq	-8(%rbp), %rax
	movl	$0, 12(%rax)
	movq	-8(%rbp), %rax
	addq	$16, %rax
	movq	%rax, %rdx
	shrq	$3, %rdx
	addq	$2147450880, %rdx
	movzbl	(%rdx), %edx
	testb	%dl, %dl
	setne	%cl
	movq	%rax, %rsi
	andl	$7, %esi
	addl	$3, %esi
	cmpb	%dl, %sil
	setge	%dl
	andl	%ecx, %edx
	testb	%dl, %dl
	je	.L442
	movq	%rax, %rdi
	call	__asan_report_store4@PLT
.L442:
	movq	-8(%rbp), %rax
	movl	$-1, 16(%rax)
	movq	-8(%rbp), %rax
	addq	$20, %rax
	movq	%rax, %rdx
	shrq	$3, %rdx
	addq	$2147450880, %rdx
	movzbl	(%rdx), %edx
	testb	%dl, %dl
	setne	%cl
	movq	%rax, %rsi
	andl	$7, %esi
	addl	$3, %esi
	cmpb	%dl, %sil
	setge	%dl
	andl	%ecx, %edx
	testb	%dl, %dl
	je	.L443
	movq	%rax, %rdi
	call	__asan_report_store4@PLT
.L443:
	movq	-8(%rbp), %rax
	movl	$-1, 20(%rax)
	movq	-8(%rbp), %rax
	addq	$24, %rax
	movq	%rax, %rdx
	shrq	$3, %rdx
	addq	$2147450880, %rdx
	movzbl	(%rdx), %edx
	testb	%dl, %dl
	setne	%cl
	movq	%rax, %rsi
	andl	$7, %esi
	addl	$3, %esi
	cmpb	%dl, %sil
	setge	%dl
	andl	%ecx, %edx
	testb	%dl, %dl
	je	.L444
	movq	%rax, %rdi
	call	__asan_report_store4@PLT
.L444:
	movq	-8(%rbp), %rax
	movl	$-1, 24(%rax)
	movq	-8(%rbp), %rax
	addq	$28, %rax
	movq	%rax, %rdx
	shrq	$3, %rdx
	addq	$2147450880, %rdx
	movzbl	(%rdx), %edx
	testb	%dl, %dl
	setne	%cl
	movq	%rax, %rsi
	andl	$7, %esi
	addl	$3, %esi
	cmpb	%dl, %sil
	setge	%dl
	andl	%ecx, %edx
	testb	%dl, %dl
	je	.L445
	movq	%rax, %rdi
	call	__asan_report_store4@PLT
.L445:
	movq	-8(%rbp), %rax
	movl	$2147483647, 28(%rax)
.LBE70:
	.loc 15 55 91
	nop
	leave
	.cfi_def_cfa 7, 8
	ret
	.cfi_endproc
.LFE4664:
	.size	_ZN6VertexIcEC2ERKc, .-_ZN6VertexIcEC2ERKc
	.weak	_ZN6VertexIcEC1ERKc
	.set	_ZN6VertexIcEC1ERKc,_ZN6VertexIcEC2ERKc
	.section	.text._ZNKSt6vectorIcSaIcEE4sizeEv,"axG",@progbits,_ZNKSt6vectorIcSaIcEE4sizeEv,comdat
	.align 2
	.weak	_ZNKSt6vectorIcSaIcEE4sizeEv
	.type	_ZNKSt6vectorIcSaIcEE4sizeEv, @function
_ZNKSt6vectorIcSaIcEE4sizeEv:
.LASANPC4666:
.LFB4666:
	.loc 11 915 7
	.cfi_startproc
	endbr64
	pushq	%rbp
	.cfi_def_cfa_offset 16
	.cfi_offset 6, -16
	movq	%rsp, %rbp
	.cfi_def_cfa_register 6
	subq	$16, %rsp
	movq	%rdi, -8(%rbp)
	.loc 11 916 40
	movq	-8(%rbp), %rax
	addq	$8, %rax
	movq	%rax, %rdx
	shrq	$3, %rdx
	addq	$2147450880, %rdx
	movzbl	(%rdx), %edx
	testb	%dl, %dl
	je	.L447
	movq	%rax, %rdi
	call	__asan_report_load8@PLT
.L447:
	movq	-8(%rbp), %rax
	movq	8(%rax), %rcx
	.loc 11 916 66
	movq	-8(%rbp), %rax
	movq	%rax, %rdx
	shrq	$3, %rdx
	addq	$2147450880, %rdx
	movzbl	(%rdx), %edx
	testb	%dl, %dl
	je	.L448
	movq	%rax, %rdi
	call	__asan_report_load8@PLT
.L448:
	movq	-8(%rbp), %rax
	movq	(%rax), %rax
	.loc 11 916 50
	subq	%rax, %rcx
	movq	%rcx, %rax
	.loc 11 916 77
	leave
	.cfi_def_cfa 7, 8
	ret
	.cfi_endproc
.LFE4666:
	.size	_ZNKSt6vectorIcSaIcEE4sizeEv, .-_ZNKSt6vectorIcSaIcEE4sizeEv
	.section	.text._ZN5ENodeIcEC2EiPS0_iRKc,"axG",@progbits,_ZN5ENodeIcEC5EiPS0_iRKc,comdat
	.align 2
	.weak	_ZN5ENodeIcEC2EiPS0_iRKc
	.type	_ZN5ENodeIcEC2EiPS0_iRKc, @function
_ZN5ENodeIcEC2EiPS0_iRKc:
.LASANPC4668:
.LFB4668:
	.loc 12 13 5
	.cfi_startproc
	endbr64
	pushq	%rbp
	.cfi_def_cfa_offset 16
	.cfi_offset 6, -16
	movq	%rsp, %rbp
	.cfi_def_cfa_register 6
	subq	$32, %rsp
	movq	%rdi, -8(%rbp)
	movl	%esi, -12(%rbp)
	movq	%rdx, -24(%rbp)
	movl	%ecx, -16(%rbp)
	movq	%r8, -32(%rbp)
.LBB71:
	.loc 12 13 120
	movq	-8(%rbp), %rax
	movq	-32(%rbp), %rdx
	movl	-16(%rbp), %ecx
	movl	%ecx, %esi
	movq	%rax, %rdi
	call	_ZN4EdgeIcEC1EiRKc
	movq	-8(%rbp), %rax
	addq	$16, %rax
	movq	%rax, %rdx
	shrq	$3, %rdx
	addq	$2147450880, %rdx
	movzbl	(%rdx), %edx
	testb	%dl, %dl
	je	.L451
	movq	%rax, %rdi
	call	__asan_report_store8@PLT
.L451:
	movq	-8(%rbp), %rax
	movq	-24(%rbp), %rdx
	movq	%rdx, 16(%rax)
	movq	-8(%rbp), %rax
	addq	$24, %rax
	movq	%rax, %rdx
	movq	%rdx, %rax
	shrq	$3, %rax
	addq	$2147450880, %rax
	movzbl	(%rax), %eax
	testb	%al, %al
	setne	%cl
	cmpb	$3, %al
	setle	%al
	andl	%ecx, %eax
	testb	%al, %al
	je	.L452
	movq	%rdx, %rdi
	call	__asan_report_store4@PLT
.L452:
	movq	-8(%rbp), %rax
	movl	-12(%rbp), %edx
	movl	%edx, 24(%rax)
.LBE71:
	.loc 12 13 123
	nop
	leave
	.cfi_def_cfa 7, 8
	ret
	.cfi_endproc
.LFE4668:
	.size	_ZN5ENodeIcEC2EiPS0_iRKc, .-_ZN5ENodeIcEC2EiPS0_iRKc
	.weak	_ZN5ENodeIcEC1EiPS0_iRKc
	.set	_ZN5ENodeIcEC1EiPS0_iRKc,_ZN5ENodeIcEC2EiPS0_iRKc
	.section	.rodata
	.align 8
.LC12:
	.string	"4 32 1 9 <unknown> 48 1 9 <unknown> 64 1 9 <unknown> 80 40 9 <unknown>"
	.section	.text._ZN6MatrixIbEC2Emm,"axG",@progbits,_ZN6MatrixIbEC5Emm,comdat
	.align 2
	.weak	_ZN6MatrixIbEC2Emm
	.type	_ZN6MatrixIbEC2Emm, @function
_ZN6MatrixIbEC2Emm:
.LASANPC4671:
.LFB4671:
	.loc 8 33 5
	.cfi_startproc
	.cfi_personality 0x9b,DW.ref.__gxx_personality_v0
	.cfi_lsda 0x1b,.LLSDA4671
	endbr64
	pushq	%rbp
	.cfi_def_cfa_offset 16
	.cfi_offset 6, -16
	movq	%rsp, %rbp
	.cfi_def_cfa_register 6
	pushq	%r15
	pushq	%r14
	pushq	%r13
	pushq	%r12
	pushq	%rbx
	subq	$232, %rsp
	.cfi_offset 15, -24
	.cfi_offset 14, -32
	.cfi_offset 13, -40
	.cfi_offset 12, -48
	.cfi_offset 3, -56
	movq	%rdi, -248(%rbp)
	movq	%rsi, -256(%rbp)
	movq	%rdx, -264(%rbp)
	leaq	-240(%rbp), %r12
	movq	%r12, %r15
	cmpl	$0, __asan_option_detect_stack_use_after_return(%rip)
	je	.L453
	movl	$160, %edi
	call	__asan_stack_malloc_2@PLT
.LVL23:
	testq	%rax, %rax
	je	.L453
	movq	%rax, %r12
.L453:
	leaq	192(%r12), %rax
	movq	%rax, %rbx
	movq	$1102416563, (%r12)
	leaq	.LC12(%rip), %rax
	movq	%rax, 8(%r12)
	leaq	.LASANPC4671(%rip), %rax
	movq	%rax, 16(%r12)
	movq	%r12, %r13
	shrq	$3, %r13
	movl	$-235802127, 2147450880(%r13)
	movl	$-234753535, 2147450884(%r13)
	movl	$61953, 2147450888(%r13)
	movl	$-218103808, 2147450892(%r13)
	movl	$-202116109, 2147450896(%r13)
	.loc 8 33 5
	movq	%fs:40, %rax
	movq	%rax, -56(%rbp)
	xorl	%eax, %eax
.LBB72:
	.loc 8 33 93
	movq	-248(%rbp), %r14
	leaq	-128(%rbx), %rax
	movq	%rax, %rdi
	call	_ZNSaISt6vectorIbSaIbEEEC1Ev
	leaq	-144(%rbx), %rax
	movq	%rax, %rdi
	call	_ZNSaIbEC1Ev
	leaq	-160(%rbx), %rax
	movq	%rax, %rdx
	movq	%rdx, %rax
	shrq	$3, %rax
	addq	$2147450880, %rax
	movzbl	(%rax), %eax
	testb	%al, %al
	setne	%cl
	testb	%al, %al
	setle	%al
	andl	%ecx, %eax
	testb	%al, %al
	je	.L457
	movq	%rdx, %rdi
	call	__asan_report_store1@PLT
.L457:
	movb	$0, -160(%rbx)
	leaq	-144(%rbx), %rcx
	leaq	-160(%rbx), %rdx
	movq	-264(%rbp), %rsi
	leaq	-112(%rbx), %rax
	movq	%rax, %rdi
.LEHB45:
	call	_ZNSt6vectorIbSaIbEEC1EmRKbRKS0_
.LEHE45:
	.loc 8 33 93 is_stmt 0 discriminator 2
	leaq	-128(%rbx), %rcx
	leaq	-112(%rbx), %rdx
	movq	-256(%rbp), %rax
	movq	%rax, %rsi
	movq	%r14, %rdi
.LEHB46:
	call	_ZNSt6vectorIS_IbSaIbEESaIS1_EEC1EmRKS1_RKS2_
.LEHE46:
	.loc 8 33 93 discriminator 4
	leaq	-112(%rbx), %rax
	movq	%rax, %rdi
	call	_ZNSt6vectorIbSaIbEED1Ev
	leaq	-112(%rbx), %rax
	shrq	$3, %rax
	addq	$2147450880, %rax
	movl	$-117901064, (%rax)
	movb	$-8, 4(%rax)
	leaq	-160(%rbx), %rax
	shrq	$3, %rax
	addq	$2147450880, %rax
	movb	$-8, (%rax)
	leaq	-144(%rbx), %rax
	movq	%rax, %rdi
	call	_ZNSaIbED1Ev
	leaq	-144(%rbx), %rax
	shrq	$3, %rax
	addq	$2147450880, %rax
	movb	$-8, (%rax)
	leaq	-128(%rbx), %rax
	movq	%rax, %rdi
	call	_ZNSaISt6vectorIbSaIbEEED1Ev
	leaq	-128(%rbx), %rax
	shrq	$3, %rax
	addq	$2147450880, %rax
	movb	$-8, (%rax)
	movq	-248(%rbp), %rax
	addq	$24, %rax
	movq	%rax, %rdx
	shrq	$3, %rdx
	addq	$2147450880, %rdx
	movzbl	(%rdx), %edx
	testb	%dl, %dl
	je	.L458
	.loc 8 33 93
	movq	%rax, %rdi
	call	__asan_report_store8@PLT
.L458:
	.loc 8 33 93 discriminator 4
	movq	-248(%rbp), %rax
	movq	-256(%rbp), %rdx
	movq	%rdx, 24(%rax)
	movq	-248(%rbp), %rax
	addq	$32, %rax
	movq	%rax, %rdx
	shrq	$3, %rdx
	addq	$2147450880, %rdx
	movzbl	(%rdx), %edx
	testb	%dl, %dl
	je	.L459
	.loc 8 33 93
	movq	%rax, %rdi
	call	__asan_report_store8@PLT
.L459:
	.loc 8 33 93 discriminator 4
	movq	-248(%rbp), %rax
	movq	-264(%rbp), %rdx
	movq	%rdx, 32(%rax)
.LBE72:
	.loc 8 33 96 is_stmt 1 discriminator 4
	nop
	.loc 8 33 5 discriminator 4
	cmpq	%r12, %r15
	je	.L454
	jmp	.L465
.L464:
	endbr64
	movq	%rax, %r12
.LBB73:
	.loc 8 33 93
	leaq	-112(%rbx), %rax
	movq	%rax, %rdi
	call	_ZNSt6vectorIbSaIbEED1Ev
	movq	%r12, %rdx
	leaq	-112(%rbx), %rax
	shrq	$3, %rax
	addq	$2147450880, %rax
	movl	$-117901064, (%rax)
	movb	$-8, 4(%rax)
	movq	%rdx, %rax
	jmp	.L461
.L463:
	endbr64
.L461:
	.loc 8 33 93 is_stmt 0 discriminator 1
	leaq	-160(%rbx), %rdx
	shrq	$3, %rdx
	addq	$2147450880, %rdx
	movb	$-8, (%rdx)
	movq	%rax, %r12
	leaq	-144(%rbx), %rax
	movq	%rax, %rdi
	call	_ZNSaIbED1Ev
	movq	%r12, %rdx
	leaq	-144(%rbx), %rax
	shrq	$3, %rax
	addq	$2147450880, %rax
	movb	$-8, (%rax)
	movq	%rdx, %r12
	leaq	-128(%rbx), %rax
	movq	%rax, %rdi
	call	_ZNSaISt6vectorIbSaIbEEED1Ev
	movq	%r12, %rbx
	call	__asan_handle_no_return@PLT
	movq	%rbx, %rdi
.LEHB47:
	call	_Unwind_Resume@PLT
.LEHE47:
.L465:
.LBE73:
	.loc 8 33 5 is_stmt 1
	movq	$1172321806, (%r12)
	movabsq	$-723401728380766731, %rax
	movabsq	$-723401728380766731, %rdx
	movq	%rax, 2147450880(%r13)
	movq	%rdx, 2147450888(%r13)
	movl	$-168430091, 2147450896(%r13)
	movq	248(%r12), %rax
	movb	$0, (%rax)
	jmp	.L455
.L454:
	movq	$0, 2147450880(%r13)
	movq	$0, 2147450888(%r13)
	movl	$0, 2147450896(%r13)
.L455:
	.loc 8 33 96
	movq	-56(%rbp), %rax
	xorq	%fs:40, %rax
	je	.L462
	call	__stack_chk_fail@PLT
.L462:
	addq	$232, %rsp
	popq	%rbx
	popq	%r12
	popq	%r13
	popq	%r14
	popq	%r15
	popq	%rbp
	.cfi_def_cfa 7, 8
	ret
	.cfi_endproc
.LFE4671:
	.section	.gcc_except_table
.LLSDA4671:
	.byte	0xff
	.byte	0xff
	.byte	0x1
	.uleb128 .LLSDACSE4671-.LLSDACSB4671
.LLSDACSB4671:
	.uleb128 .LEHB45-.LFB4671
	.uleb128 .LEHE45-.LEHB45
	.uleb128 .L463-.LFB4671
	.uleb128 0
	.uleb128 .LEHB46-.LFB4671
	.uleb128 .LEHE46-.LEHB46
	.uleb128 .L464-.LFB4671
	.uleb128 0
	.uleb128 .LEHB47-.LFB4671
	.uleb128 .LEHE47-.LEHB47
	.uleb128 0
	.uleb128 0
.LLSDACSE4671:
	.section	.text._ZN6MatrixIbEC2Emm,"axG",@progbits,_ZN6MatrixIbEC5Emm,comdat
	.size	_ZN6MatrixIbEC2Emm, .-_ZN6MatrixIbEC2Emm
	.weak	_ZN6MatrixIbEC1Emm
	.set	_ZN6MatrixIbEC1Emm,_ZN6MatrixIbEC2Emm
	.section	.text._ZN6MatrixIbEixEm,"axG",@progbits,_ZN6MatrixIbEixEm,comdat
	.align 2
	.weak	_ZN6MatrixIbEixEm
	.type	_ZN6MatrixIbEixEm, @function
_ZN6MatrixIbEixEm:
.LASANPC4673:
.LFB4673:
	.loc 8 83 12
	.cfi_startproc
	endbr64
	pushq	%rbp
	.cfi_def_cfa_offset 16
	.cfi_offset 6, -16
	movq	%rsp, %rbp
	.cfi_def_cfa_register 6
	subq	$16, %rsp
	movq	%rdi, -8(%rbp)
	movq	%rsi, -16(%rbp)
	.loc 8 85 18
	movq	-8(%rbp), %rax
	movq	-16(%rbp), %rdx
	movq	%rdx, %rsi
	movq	%rax, %rdi
	call	_ZNSt6vectorIS_IbSaIbEESaIS1_EEixEm
	.loc 8 86 1
	leave
	.cfi_def_cfa 7, 8
	ret
	.cfi_endproc
.LFE4673:
	.size	_ZN6MatrixIbEixEm, .-_ZN6MatrixIbEixEm
	.section	.text._ZNSt6vectorIbSaIbEEixEm,"axG",@progbits,_ZNSt6vectorIbSaIbEEixEm,comdat
	.align 2
	.weak	_ZNSt6vectorIbSaIbEEixEm
	.type	_ZNSt6vectorIbSaIbEEixEm, @function
_ZNSt6vectorIbSaIbEEixEm:
.LASANPC4674:
.LFB4674:
	.loc 5 886 7
	.cfi_startproc
	endbr64
	pushq	%rbp
	.cfi_def_cfa_offset 16
	.cfi_offset 6, -16
	movq	%rsp, %rbp
	.cfi_def_cfa_register 6
	pushq	%r14
	pushq	%r13
	pushq	%r12
	pushq	%rbx
	subq	$112, %rsp
	.cfi_offset 14, -24
	.cfi_offset 13, -32
	.cfi_offset 12, -40
	.cfi_offset 3, -48
	movq	%rdi, -136(%rbp)
	movq	%rsi, -144(%rbp)
	leaq	-128(%rbp), %rbx
	movq	%rbx, %r14
	cmpl	$0, __asan_option_detect_stack_use_after_return(%rip)
	je	.L468
	movl	$64, %edi
	call	__asan_stack_malloc_0@PLT
.LVL24:
	testq	%rax, %rax
	je	.L468
	movq	%rax, %rbx
.L468:
	leaq	96(%rbx), %rax
	movq	%rax, %r13
	movq	$1102416563, (%rbx)
	leaq	.LC0(%rip), %rax
	movq	%rax, 8(%rbx)
	leaq	.LASANPC4674(%rip), %rax
	movq	%rax, 16(%rbx)
	movq	%rbx, %r12
	shrq	$3, %r12
	movl	$-235802127, 2147450880(%r12)
	movl	$-202178560, 2147450884(%r12)
	.loc 5 886 7
	movq	%fs:40, %rax
	movq	%rax, -40(%rbp)
	xorl	%eax, %eax
	.loc 5 888 9
	movq	-144(%rbp), %rax
	andl	$63, %eax
	movl	%eax, %edx
	.loc 5 888 42
	movq	-136(%rbp), %rax
	movq	%rax, %rcx
	shrq	$3, %rcx
	addq	$2147450880, %rcx
	movzbl	(%rcx), %ecx
	testb	%cl, %cl
	je	.L472
	movq	%rax, %rdi
	call	__asan_report_load8@PLT
.L472:
	movq	-136(%rbp), %rax
	movq	(%rax), %rax
	.loc 5 889 11
	movq	-144(%rbp), %rcx
	shrq	$6, %rcx
	.loc 5 889 5
	salq	$3, %rcx
	.loc 5 888 9
	addq	%rax, %rcx
	leaq	-64(%r13), %rax
	movq	%rcx, %rsi
	movq	%rax, %rdi
	call	_ZNSt13_Bit_iteratorC1EPmj
	leaq	-64(%r13), %rax
	movq	%rax, %rdi
	call	_ZNKSt13_Bit_iteratordeEv
	.loc 5 886 7
	cmpq	%rbx, %r14
	je	.L469
	movq	$1172321806, (%rbx)
	movabsq	$-723401728380766731, %rsi
	movq	%rsi, 2147450880(%r12)
	movq	56(%rbx), %rcx
	movb	$0, (%rcx)
	jmp	.L470
.L469:
	movq	$0, 2147450880(%r12)
.L470:
	.loc 5 890 7
	movq	-40(%rbp), %rsi
	xorq	%fs:40, %rsi
	je	.L474
	call	__stack_chk_fail@PLT
.L474:
	addq	$112, %rsp
	popq	%rbx
	popq	%r12
	popq	%r13
	popq	%r14
	popq	%rbp
	.cfi_def_cfa 7, 8
	ret
	.cfi_endproc
.LFE4674:
	.size	_ZNSt6vectorIbSaIbEEixEm, .-_ZNSt6vectorIbSaIbEEixEm
	.section	.text._ZNSaISt6vectorIbSaIbEEED2Ev,"axG",@progbits,_ZNSaISt6vectorIbSaIbEEED5Ev,comdat
	.align 2
	.weak	_ZNSaISt6vectorIbSaIbEEED2Ev
	.type	_ZNSaISt6vectorIbSaIbEEED2Ev, @function
_ZNSaISt6vectorIbSaIbEEED2Ev:
.LASANPC4679:
.LFB4679:
	.loc 17 153 7
	.cfi_startproc
	endbr64
	pushq	%rbp
	.cfi_def_cfa_offset 16
	.cfi_offset 6, -16
	movq	%rsp, %rbp
	.cfi_def_cfa_register 6
	subq	$16, %rsp
	movq	%rdi, -8(%rbp)
.LBB74:
	.loc 17 153 31
	movq	-8(%rbp), %rax
	movq	%rax, %rdi
	call	_ZN9__gnu_cxx13new_allocatorISt6vectorIbSaIbEEED2Ev
.LBE74:
	nop
	leave
	.cfi_def_cfa 7, 8
	ret
	.cfi_endproc
.LFE4679:
	.size	_ZNSaISt6vectorIbSaIbEEED2Ev, .-_ZNSaISt6vectorIbSaIbEEED2Ev
	.weak	_ZNSaISt6vectorIbSaIbEEED1Ev
	.set	_ZNSaISt6vectorIbSaIbEEED1Ev,_ZNSaISt6vectorIbSaIbEEED2Ev
	.section	.text._ZNSt12_Vector_baseISt6vectorIbSaIbEESaIS2_EED2Ev,"axG",@progbits,_ZNSt12_Vector_baseISt6vectorIbSaIbEESaIS2_EED5Ev,comdat
	.align 2
	.weak	_ZNSt12_Vector_baseISt6vectorIbSaIbEESaIS2_EED2Ev
	.type	_ZNSt12_Vector_baseISt6vectorIbSaIbEESaIS2_EED2Ev, @function
_ZNSt12_Vector_baseISt6vectorIbSaIbEESaIS2_EED2Ev:
.LASANPC4682:
.LFB4682:
	.loc 11 330 7
	.cfi_startproc
	.cfi_personality 0x9b,DW.ref.__gxx_personality_v0
	.cfi_lsda 0x1b,.LLSDA4682
	endbr64
	pushq	%rbp
	.cfi_def_cfa_offset 16
	.cfi_offset 6, -16
	movq	%rsp, %rbp
	.cfi_def_cfa_register 6
	subq	$16, %rsp
	movq	%rdi, -8(%rbp)
.LBB75:
	.loc 11 333 17
	movq	-8(%rbp), %rax
	addq	$16, %rax
	movq	%rax, %rdx
	shrq	$3, %rdx
	addq	$2147450880, %rdx
	movzbl	(%rdx), %edx
	testb	%dl, %dl
	je	.L477
	movq	%rax, %rdi
	call	__asan_report_load8@PLT
.L477:
	movq	-8(%rbp), %rax
	movq	16(%rax), %rcx
	.loc 11 333 45
	movq	-8(%rbp), %rax
	movq	%rax, %rdx
	shrq	$3, %rdx
	addq	$2147450880, %rdx
	movzbl	(%rdx), %edx
	testb	%dl, %dl
	je	.L478
	movq	%rax, %rdi
	call	__asan_report_load8@PLT
.L478:
	movq	-8(%rbp), %rax
	movq	(%rax), %rax
	.loc 11 333 35
	subq	%rax, %rcx
	movq	%rcx, %rax
	sarq	$3, %rax
	movq	%rax, %rdx
	movabsq	$-3689348814741910323, %rax
	imulq	%rdx, %rax
	.loc 11 332 2
	movq	%rax, %rdx
	movq	-8(%rbp), %rax
	movq	(%rax), %rcx
	movq	-8(%rbp), %rax
	movq	%rcx, %rsi
	movq	%rax, %rdi
	call	_ZNSt12_Vector_baseISt6vectorIbSaIbEESaIS2_EE13_M_deallocateEPS2_m
	.loc 11 334 7
	movq	-8(%rbp), %rax
	movq	%rax, %rdi
	call	_ZNSt12_Vector_baseISt6vectorIbSaIbEESaIS2_EE12_Vector_implD1Ev
.LBE75:
	nop
	leave
	.cfi_def_cfa 7, 8
	ret
	.cfi_endproc
.LFE4682:
	.section	.gcc_except_table
.LLSDA4682:
	.byte	0xff
	.byte	0xff
	.byte	0x1
	.uleb128 .LLSDACSE4682-.LLSDACSB4682
.LLSDACSB4682:
.LLSDACSE4682:
	.section	.text._ZNSt12_Vector_baseISt6vectorIbSaIbEESaIS2_EED2Ev,"axG",@progbits,_ZNSt12_Vector_baseISt6vectorIbSaIbEESaIS2_EED5Ev,comdat
	.size	_ZNSt12_Vector_baseISt6vectorIbSaIbEESaIS2_EED2Ev, .-_ZNSt12_Vector_baseISt6vectorIbSaIbEESaIS2_EED2Ev
	.weak	_ZNSt12_Vector_baseISt6vectorIbSaIbEESaIS2_EED1Ev
	.set	_ZNSt12_Vector_baseISt6vectorIbSaIbEESaIS2_EED1Ev,_ZNSt12_Vector_baseISt6vectorIbSaIbEESaIS2_EED2Ev
	.section	.text._ZNSt12_Vector_baseISt6vectorIbSaIbEESaIS2_EE19_M_get_Tp_allocatorEv,"axG",@progbits,_ZNSt12_Vector_baseISt6vectorIbSaIbEESaIS2_EE19_M_get_Tp_allocatorEv,comdat
	.align 2
	.weak	_ZNSt12_Vector_baseISt6vectorIbSaIbEESaIS2_EE19_M_get_Tp_allocatorEv
	.type	_ZNSt12_Vector_baseISt6vectorIbSaIbEESaIS2_EE19_M_get_Tp_allocatorEv, @function
_ZNSt12_Vector_baseISt6vectorIbSaIbEESaIS2_EE19_M_get_Tp_allocatorEv:
.LASANPC4684:
.LFB4684:
	.loc 11 273 7
	.cfi_startproc
	endbr64
	pushq	%rbp
	.cfi_def_cfa_offset 16
	.cfi_offset 6, -16
	movq	%rsp, %rbp
	.cfi_def_cfa_register 6
	movq	%rdi, -8(%rbp)
	.loc 11 274 22
	movq	-8(%rbp), %rax
	.loc 11 274 31
	popq	%rbp
	.cfi_def_cfa 7, 8
	ret
	.cfi_endproc
.LFE4684:
	.size	_ZNSt12_Vector_baseISt6vectorIbSaIbEESaIS2_EE19_M_get_Tp_allocatorEv, .-_ZNSt12_Vector_baseISt6vectorIbSaIbEESaIS2_EE19_M_get_Tp_allocatorEv
	.section	.text._ZSt8_DestroyIPSt6vectorIbSaIbEES2_EvT_S4_RSaIT0_E,"axG",@progbits,_ZSt8_DestroyIPSt6vectorIbSaIbEES2_EvT_S4_RSaIT0_E,comdat
	.weak	_ZSt8_DestroyIPSt6vectorIbSaIbEES2_EvT_S4_RSaIT0_E
	.type	_ZSt8_DestroyIPSt6vectorIbSaIbEES2_EvT_S4_RSaIT0_E, @function
_ZSt8_DestroyIPSt6vectorIbSaIbEES2_EvT_S4_RSaIT0_E:
.LASANPC4685:
.LFB4685:
	.loc 18 203 5
	.cfi_startproc
	endbr64
	pushq	%rbp
	.cfi_def_cfa_offset 16
	.cfi_offset 6, -16
	movq	%rsp, %rbp
	.cfi_def_cfa_register 6
	subq	$32, %rsp
	movq	%rdi, -8(%rbp)
	movq	%rsi, -16(%rbp)
	movq	%rdx, -24(%rbp)
	.loc 18 206 15
	movq	-16(%rbp), %rdx
	movq	-8(%rbp), %rax
	movq	%rdx, %rsi
	movq	%rax, %rdi
	call	_ZSt8_DestroyIPSt6vectorIbSaIbEEEvT_S4_
	.loc 18 207 5
	nop
	leave
	.cfi_def_cfa 7, 8
	ret
	.cfi_endproc
.LFE4685:
	.size	_ZSt8_DestroyIPSt6vectorIbSaIbEES2_EvT_S4_RSaIT0_E, .-_ZSt8_DestroyIPSt6vectorIbSaIbEES2_EvT_S4_RSaIT0_E
	.section	.text._ZNKSt6vectorIS_IbSaIbEESaIS1_EEixEm,"axG",@progbits,_ZNKSt6vectorIS_IbSaIbEESaIS1_EEixEm,comdat
	.align 2
	.weak	_ZNKSt6vectorIS_IbSaIbEESaIS1_EEixEm
	.type	_ZNKSt6vectorIS_IbSaIbEESaIS1_EEixEm, @function
_ZNKSt6vectorIS_IbSaIbEESaIS1_EEixEm:
.LASANPC4688:
.LFB4688:
	.loc 11 1058 7
	.cfi_startproc
	endbr64
	pushq	%rbp
	.cfi_def_cfa_offset 16
	.cfi_offset 6, -16
	movq	%rsp, %rbp
	.cfi_def_cfa_register 6
	subq	$16, %rsp
	movq	%rdi, -8(%rbp)
	movq	%rsi, -16(%rbp)
	.loc 11 1061 25
	movq	-8(%rbp), %rax
	movq	%rax, %rdx
	shrq	$3, %rdx
	addq	$2147450880, %rdx
	movzbl	(%rdx), %edx
	testb	%dl, %dl
	je	.L483
	movq	%rax, %rdi
	call	__asan_report_load8@PLT
.L483:
	movq	-8(%rbp), %rax
	movq	(%rax), %rcx
	.loc 11 1061 34
	movq	-16(%rbp), %rdx
	movq	%rdx, %rax
	salq	$2, %rax
	addq	%rdx, %rax
	salq	$3, %rax
	.loc 11 1061 39
	addq	%rcx, %rax
	.loc 11 1062 7
	leave
	.cfi_def_cfa 7, 8
	ret
	.cfi_endproc
.LFE4688:
	.size	_ZNKSt6vectorIS_IbSaIbEESaIS1_EEixEm, .-_ZNKSt6vectorIS_IbSaIbEESaIS1_EEixEm
	.section	.text._ZNKSt6vectorIbSaIbEEixEm,"axG",@progbits,_ZNKSt6vectorIbSaIbEEixEm,comdat
	.align 2
	.weak	_ZNKSt6vectorIbSaIbEEixEm
	.type	_ZNKSt6vectorIbSaIbEEixEm, @function
_ZNKSt6vectorIbSaIbEEixEm:
.LASANPC4689:
.LFB4689:
	.loc 5 893 7
	.cfi_startproc
	endbr64
	pushq	%rbp
	.cfi_def_cfa_offset 16
	.cfi_offset 6, -16
	movq	%rsp, %rbp
	.cfi_def_cfa_register 6
	pushq	%r14
	pushq	%r13
	pushq	%r12
	pushq	%rbx
	subq	$112, %rsp
	.cfi_offset 14, -24
	.cfi_offset 13, -32
	.cfi_offset 12, -40
	.cfi_offset 3, -48
	movq	%rdi, -136(%rbp)
	movq	%rsi, -144(%rbp)
	leaq	-128(%rbp), %rbx
	movq	%rbx, %r14
	cmpl	$0, __asan_option_detect_stack_use_after_return(%rip)
	je	.L485
	movl	$64, %edi
	call	__asan_stack_malloc_0@PLT
.LVL25:
	testq	%rax, %rax
	je	.L485
	movq	%rax, %rbx
.L485:
	leaq	96(%rbx), %rax
	movq	%rax, %r13
	movq	$1102416563, (%rbx)
	leaq	.LC0(%rip), %rax
	movq	%rax, 8(%rbx)
	leaq	.LASANPC4689(%rip), %rax
	movq	%rax, 16(%rbx)
	movq	%rbx, %r12
	shrq	$3, %r12
	movl	$-235802127, 2147450880(%r12)
	movl	$-202178560, 2147450884(%r12)
	.loc 5 893 7
	movq	%fs:40, %rax
	movq	%rax, -40(%rbp)
	xorl	%eax, %eax
	.loc 5 895 9
	movq	-144(%rbp), %rax
	andl	$63, %eax
	movl	%eax, %edx
	.loc 5 895 48
	movq	-136(%rbp), %rax
	movq	%rax, %rcx
	shrq	$3, %rcx
	addq	$2147450880, %rcx
	movzbl	(%rcx), %ecx
	testb	%cl, %cl
	je	.L489
	movq	%rax, %rdi
	call	__asan_report_load8@PLT
.L489:
	movq	-136(%rbp), %rax
	movq	(%rax), %rax
	.loc 5 896 15
	movq	-144(%rbp), %rcx
	shrq	$6, %rcx
	.loc 5 896 9
	salq	$3, %rcx
	.loc 5 895 9
	addq	%rax, %rcx
	leaq	-64(%r13), %rax
	movq	%rcx, %rsi
	movq	%rax, %rdi
	call	_ZNSt19_Bit_const_iteratorC1EPmj
	leaq	-64(%r13), %rax
	movq	%rax, %rdi
	call	_ZNKSt19_Bit_const_iteratordeEv
	.loc 5 896 57
	movl	%eax, %edx
	.loc 5 893 7
	cmpq	%rbx, %r14
	je	.L486
	movq	$1172321806, (%rbx)
	movabsq	$-723401728380766731, %rax
	movq	%rax, 2147450880(%r12)
	movq	56(%rbx), %rax
	movb	$0, (%rax)
	jmp	.L487
.L486:
	movq	$0, 2147450880(%r12)
.L487:
	.loc 5 897 7
	movq	-40(%rbp), %rax
	xorq	%fs:40, %rax
	je	.L491
	call	__stack_chk_fail@PLT
.L491:
	movl	%edx, %eax
	addq	$112, %rsp
	popq	%rbx
	popq	%r12
	popq	%r13
	popq	%r14
	popq	%rbp
	.cfi_def_cfa 7, 8
	ret
	.cfi_endproc
.LFE4689:
	.size	_ZNKSt6vectorIbSaIbEEixEm, .-_ZNKSt6vectorIbSaIbEEixEm
	.section	.text._ZN5GraphIccE5resetEv,"axG",@progbits,_ZN5GraphIccE5resetEv,comdat
	.align 2
	.weak	_ZN5GraphIccE5resetEv
	.type	_ZN5GraphIccE5resetEv, @function
_ZN5GraphIccE5resetEv:
.LASANPC4693:
.LFB4693:
	.loc 15 69 10
	.cfi_startproc
	endbr64
	pushq	%rbp
	.cfi_def_cfa_offset 16
	.cfi_offset 6, -16
	movq	%rsp, %rbp
	.cfi_def_cfa_register 6
	pushq	%rbx
	subq	$40, %rsp
	.cfi_offset 3, -24
	movq	%rdi, -40(%rbp)
.LBB76:
	.loc 15 71 18
	movl	$0, -24(%rbp)
.L519:
	.loc 15 71 29 discriminator 1
	movq	-40(%rbp), %rax
	addq	$8, %rax
	movq	%rax, %rdx
	movq	%rdx, %rax
	shrq	$3, %rax
	addq	$2147450880, %rax
	movzbl	(%rax), %eax
	testb	%al, %al
	setne	%cl
	cmpb	$3, %al
	setle	%al
	andl	%ecx, %eax
	testb	%al, %al
	je	.L493
	.loc 15 71 29 is_stmt 0
	movq	%rdx, %rdi
	call	__asan_report_load4@PLT
.L493:
	.loc 15 71 29 discriminator 1
	movq	-40(%rbp), %rax
	movl	8(%rax), %eax
	.loc 15 71 27 is_stmt 1 discriminator 1
	cmpl	%eax, -24(%rbp)
	jge	.L520
.LBB77:
	.loc 15 73 23
	movq	-40(%rbp), %rax
	movq	%rax, %rdx
	shrq	$3, %rdx
	addq	$2147450880, %rdx
	movzbl	(%rdx), %edx
	testb	%dl, %dl
	je	.L495
	movq	%rax, %rdi
	call	__asan_report_load8@PLT
.L495:
	movq	-40(%rbp), %rax
	movq	(%rax), %rax
	addq	$64, %rax
	movq	%rax, %rdx
	movq	%rdx, %rcx
	shrq	$3, %rcx
	addq	$2147450880, %rcx
	movzbl	(%rcx), %ecx
	testb	%cl, %cl
	je	.L496
	movq	%rdx, %rdi
	call	__asan_report_load8@PLT
.L496:
	movq	(%rax), %rcx
	movl	-24(%rbp), %edx
	movq	-40(%rbp), %rax
	movl	%edx, %esi
	movq	%rax, %rdi
	call	*%rcx
.LVL26:
	movq	%rax, %rdx
	.loc 15 73 13
	movq	%rdx, %rax
	movq	%rax, %rcx
	shrq	$3, %rcx
	addq	$2147450880, %rcx
	movzbl	(%rcx), %ecx
	testb	%cl, %cl
	setne	%sil
	movq	%rax, %rdi
	andl	$7, %edi
	addl	$3, %edi
	cmpb	%cl, %dil
	setge	%cl
	andl	%esi, %ecx
	testb	%cl, %cl
	je	.L497
	movq	%rax, %rdi
	call	__asan_report_store4@PLT
.L497:
	movl	$0, (%rdx)
	.loc 15 74 33
	movq	-40(%rbp), %rax
	movq	%rax, %rdx
	shrq	$3, %rdx
	addq	$2147450880, %rdx
	movzbl	(%rdx), %edx
	testb	%dl, %dl
	je	.L498
	movq	%rax, %rdi
	call	__asan_report_load8@PLT
.L498:
	movq	-40(%rbp), %rax
	movq	(%rax), %rax
	addq	$80, %rax
	movq	%rax, %rdx
	movq	%rdx, %rcx
	shrq	$3, %rcx
	addq	$2147450880, %rcx
	movzbl	(%rcx), %ecx
	testb	%cl, %cl
	je	.L499
	movq	%rdx, %rdi
	call	__asan_report_load8@PLT
.L499:
	movq	(%rax), %rcx
	movl	-24(%rbp), %edx
	movq	-40(%rbp), %rax
	movl	%edx, %esi
	movq	%rax, %rdi
	call	*%rcx
.LVL27:
	.loc 15 74 13
	movq	%rax, %rdx
	movq	%rdx, %rcx
	shrq	$3, %rcx
	addq	$2147450880, %rcx
	movzbl	(%rcx), %ecx
	testb	%cl, %cl
	setne	%sil
	movq	%rdx, %rdi
	andl	$7, %edi
	addl	$3, %edi
	cmpb	%cl, %dil
	setge	%cl
	andl	%esi, %ecx
	testb	%cl, %cl
	je	.L500
	movq	%rdx, %rdi
	call	__asan_report_store4@PLT
.L500:
	movl	$-1, (%rax)
	movl	(%rax), %ebx
	.loc 15 74 22
	movq	-40(%rbp), %rax
	movq	%rax, %rdx
	shrq	$3, %rdx
	addq	$2147450880, %rdx
	movzbl	(%rdx), %edx
	testb	%dl, %dl
	je	.L501
	movq	%rax, %rdi
	call	__asan_report_load8@PLT
.L501:
	movq	-40(%rbp), %rax
	movq	(%rax), %rax
	addq	$72, %rax
	movq	%rax, %rdx
	movq	%rdx, %rcx
	shrq	$3, %rcx
	addq	$2147450880, %rcx
	movzbl	(%rcx), %ecx
	testb	%cl, %cl
	je	.L502
	movq	%rdx, %rdi
	call	__asan_report_load8@PLT
.L502:
	movq	(%rax), %rcx
	movl	-24(%rbp), %edx
	movq	-40(%rbp), %rax
	movl	%edx, %esi
	movq	%rax, %rdi
	call	*%rcx
.LVL28:
	movq	%rax, %rdx
	.loc 15 74 13
	movq	%rdx, %rax
	movq	%rax, %rcx
	shrq	$3, %rcx
	addq	$2147450880, %rcx
	movzbl	(%rcx), %ecx
	testb	%cl, %cl
	setne	%sil
	movq	%rax, %rdi
	andl	$7, %edi
	addl	$3, %edi
	cmpb	%cl, %dil
	setge	%cl
	andl	%esi, %ecx
	testb	%cl, %cl
	je	.L503
	movq	%rax, %rdi
	call	__asan_report_store4@PLT
.L503:
	movl	%ebx, (%rdx)
	.loc 15 75 23
	movq	-40(%rbp), %rax
	movq	%rax, %rdx
	shrq	$3, %rdx
	addq	$2147450880, %rdx
	movzbl	(%rdx), %edx
	testb	%dl, %dl
	je	.L504
	movq	%rax, %rdi
	call	__asan_report_load8@PLT
.L504:
	movq	-40(%rbp), %rax
	movq	(%rax), %rax
	addq	$88, %rax
	movq	%rax, %rdx
	movq	%rdx, %rcx
	shrq	$3, %rcx
	addq	$2147450880, %rcx
	movzbl	(%rcx), %ecx
	testb	%cl, %cl
	je	.L505
	movq	%rdx, %rdi
	call	__asan_report_load8@PLT
.L505:
	movq	(%rax), %rcx
	movl	-24(%rbp), %edx
	movq	-40(%rbp), %rax
	movl	%edx, %esi
	movq	%rax, %rdi
	call	*%rcx
.LVL29:
	movq	%rax, %rdx
	.loc 15 75 13
	movq	%rdx, %rax
	movq	%rax, %rcx
	shrq	$3, %rcx
	addq	$2147450880, %rcx
	movzbl	(%rcx), %ecx
	testb	%cl, %cl
	setne	%sil
	movq	%rax, %rdi
	andl	$7, %edi
	addl	$3, %edi
	cmpb	%cl, %dil
	setge	%cl
	andl	%esi, %ecx
	testb	%cl, %cl
	je	.L506
	movq	%rax, %rdi
	call	__asan_report_store4@PLT
.L506:
	movl	$-1, (%rdx)
	.loc 15 76 25
	movq	-40(%rbp), %rax
	movq	%rax, %rdx
	shrq	$3, %rdx
	addq	$2147450880, %rdx
	movzbl	(%rdx), %edx
	testb	%dl, %dl
	je	.L507
	movq	%rax, %rdi
	call	__asan_report_load8@PLT
.L507:
	movq	-40(%rbp), %rax
	movq	(%rax), %rax
	addq	$96, %rax
	movq	%rax, %rdx
	movq	%rdx, %rcx
	shrq	$3, %rcx
	addq	$2147450880, %rcx
	movzbl	(%rcx), %ecx
	testb	%cl, %cl
	je	.L508
	movq	%rdx, %rdi
	call	__asan_report_load8@PLT
.L508:
	movq	(%rax), %rcx
	movl	-24(%rbp), %edx
	movq	-40(%rbp), %rax
	movl	%edx, %esi
	movq	%rax, %rdi
	call	*%rcx
.LVL30:
	movq	%rax, %rdx
	.loc 15 76 13
	movq	%rdx, %rax
	movq	%rax, %rcx
	shrq	$3, %rcx
	addq	$2147450880, %rcx
	movzbl	(%rcx), %ecx
	testb	%cl, %cl
	setne	%sil
	movq	%rax, %rdi
	andl	$7, %edi
	addl	$3, %edi
	cmpb	%cl, %dil
	setge	%cl
	andl	%esi, %ecx
	testb	%cl, %cl
	je	.L509
	movq	%rax, %rdi
	call	__asan_report_store4@PLT
.L509:
	movl	$2147483647, (%rdx)
.LBB78:
	.loc 15 77 22
	movl	$0, -20(%rbp)
.L518:
	.loc 15 77 33 discriminator 1
	movq	-40(%rbp), %rax
	addq	$8, %rax
	movq	%rax, %rdx
	movq	%rdx, %rax
	shrq	$3, %rax
	addq	$2147450880, %rax
	movzbl	(%rax), %eax
	testb	%al, %al
	setne	%cl
	cmpb	$3, %al
	setle	%al
	andl	%ecx, %eax
	testb	%al, %al
	je	.L510
	.loc 15 77 33 is_stmt 0
	movq	%rdx, %rdi
	call	__asan_report_load4@PLT
.L510:
	.loc 15 77 33 discriminator 1
	movq	-40(%rbp), %rax
	movl	8(%rax), %eax
	.loc 15 77 31 is_stmt 1 discriminator 1
	cmpl	%eax, -20(%rbp)
	jge	.L511
	.loc 15 78 17
	movq	-40(%rbp), %rax
	movq	%rax, %rdx
	shrq	$3, %rdx
	addq	$2147450880, %rdx
	movzbl	(%rdx), %edx
	testb	%dl, %dl
	je	.L512
	movq	%rax, %rdi
	call	__asan_report_load8@PLT
.L512:
	movq	-40(%rbp), %rax
	movq	(%rax), %rax
	addq	$112, %rax
	movq	%rax, %rdx
	movq	%rdx, %rcx
	shrq	$3, %rcx
	addq	$2147450880, %rcx
	movzbl	(%rcx), %ecx
	testb	%cl, %cl
	je	.L513
	movq	%rdx, %rdi
	call	__asan_report_load8@PLT
.L513:
	movq	(%rax), %r8
	movl	-20(%rbp), %edx
	movl	-24(%rbp), %ecx
	movq	-40(%rbp), %rax
	movl	%ecx, %esi
	movq	%rax, %rdi
	call	*%r8
.LVL31:
	testb	%al, %al
	je	.L514
	.loc 15 79 32
	movq	-40(%rbp), %rax
	movq	%rax, %rdx
	shrq	$3, %rdx
	addq	$2147450880, %rdx
	movzbl	(%rdx), %edx
	testb	%dl, %dl
	je	.L515
	movq	%rax, %rdi
	call	__asan_report_load8@PLT
.L515:
	movq	-40(%rbp), %rax
	movq	(%rax), %rax
	addq	$136, %rax
	movq	%rax, %rdx
	movq	%rdx, %rcx
	shrq	$3, %rcx
	addq	$2147450880, %rcx
	movzbl	(%rcx), %ecx
	testb	%cl, %cl
	je	.L516
	movq	%rdx, %rdi
	call	__asan_report_load8@PLT
.L516:
	movq	(%rax), %r8
	movl	-20(%rbp), %edx
	movl	-24(%rbp), %ecx
	movq	-40(%rbp), %rax
	movl	%ecx, %esi
	movq	%rax, %rdi
	call	*%r8
.LVL32:
	movq	%rax, %rdx
	.loc 15 79 21
	movq	%rdx, %rax
	movq	%rax, %rcx
	shrq	$3, %rcx
	addq	$2147450880, %rcx
	movzbl	(%rcx), %ecx
	testb	%cl, %cl
	setne	%sil
	movq	%rax, %rdi
	andl	$7, %edi
	addl	$3, %edi
	cmpb	%cl, %dil
	setge	%cl
	andl	%esi, %ecx
	testb	%cl, %cl
	je	.L517
	movq	%rax, %rdi
	call	__asan_report_store4@PLT
.L517:
	movl	$0, (%rdx)
.L514:
	.loc 15 77 13 discriminator 2
	addl	$1, -20(%rbp)
	jmp	.L518
.L511:
.LBE78:
.LBE77:
	.loc 15 71 9 discriminator 2
	addl	$1, -24(%rbp)
	jmp	.L519
.L520:
.LBE76:
	.loc 15 81 5
	nop
	addq	$40, %rsp
	popq	%rbx
	popq	%rbp
	.cfi_def_cfa 7, 8
	ret
	.cfi_endproc
.LFE4693:
	.size	_ZN5GraphIccE5resetEv, .-_ZN5GraphIccE5resetEv
	.section	.text._ZNSt5stackIiSt5dequeIiSaIiEEEC2IS2_vEEv,"axG",@progbits,_ZNSt5stackIiSt5dequeIiSaIiEEEC5IS2_vEEv,comdat
	.align 2
	.weak	_ZNSt5stackIiSt5dequeIiSaIiEEEC2IS2_vEEv
	.type	_ZNSt5stackIiSt5dequeIiSaIiEEEC2IS2_vEEv, @function
_ZNSt5stackIiSt5dequeIiSaIiEEEC2IS2_vEEv:
.LASANPC4695:
.LFB4695:
	.loc 13 156 2
	.cfi_startproc
	endbr64
	pushq	%rbp
	.cfi_def_cfa_offset 16
	.cfi_offset 6, -16
	movq	%rsp, %rbp
	.cfi_def_cfa_register 6
	subq	$16, %rsp
	movq	%rdi, -8(%rbp)
.LBB79:
	.loc 13 157 6
	movq	-8(%rbp), %rax
	movq	%rax, %rdi
	call	_ZNSt5dequeIiSaIiEEC1Ev
.LBE79:
	.loc 13 157 10
	nop
	leave
	.cfi_def_cfa 7, 8
	ret
	.cfi_endproc
.LFE4695:
	.size	_ZNSt5stackIiSt5dequeIiSaIiEEEC2IS2_vEEv, .-_ZNSt5stackIiSt5dequeIiSaIiEEEC2IS2_vEEv
	.weak	_ZNSt5stackIiSt5dequeIiSaIiEEEC1IS2_vEEv
	.set	_ZNSt5stackIiSt5dequeIiSaIiEEEC1IS2_vEEv,_ZNSt5stackIiSt5dequeIiSaIiEEEC2IS2_vEEv
	.section	.rodata
	.align 8
.LC13:
	.string	"2 32 32 9 <unknown> 96 32 9 <unknown>"
	.section	.text._ZNSt5dequeIiSaIiEED2Ev,"axG",@progbits,_ZNSt5dequeIiSaIiEED5Ev,comdat
	.align 2
	.weak	_ZNSt5dequeIiSaIiEED2Ev
	.type	_ZNSt5dequeIiSaIiEED2Ev, @function
_ZNSt5dequeIiSaIiEED2Ev:
.LASANPC4698:
.LFB4698:
	.loc 6 1071 7
	.cfi_startproc
	.cfi_personality 0x9b,DW.ref.__gxx_personality_v0
	.cfi_lsda 0x1b,.LLSDA4698
	endbr64
	pushq	%rbp
	.cfi_def_cfa_offset 16
	.cfi_offset 6, -16
	movq	%rsp, %rbp
	.cfi_def_cfa_register 6
	pushq	%r15
	pushq	%r14
	pushq	%r13
	pushq	%r12
	pushq	%rbx
	subq	$216, %rsp
	.cfi_offset 15, -24
	.cfi_offset 14, -32
	.cfi_offset 13, -40
	.cfi_offset 12, -48
	.cfi_offset 3, -56
	movq	%rdi, -248(%rbp)
	leaq	-240(%rbp), %rbx
	movq	%rbx, %r15
	cmpl	$0, __asan_option_detect_stack_use_after_return(%rip)
	je	.L522
	movl	$160, %edi
	call	__asan_stack_malloc_2@PLT
.LVL33:
	testq	%rax, %rax
	je	.L522
	movq	%rax, %rbx
.L522:
	leaq	192(%rbx), %rax
	movq	%rax, %r12
	movq	$1102416563, (%rbx)
	leaq	.LC13(%rip), %rax
	movq	%rax, 8(%rbx)
	leaq	.LASANPC4698(%rip), %rax
	movq	%rax, 16(%rbx)
	movq	%rbx, %r13
	shrq	$3, %r13
	movl	$-235802127, 2147450880(%r13)
	movl	$-218959118, 2147450888(%r13)
	movl	$-202116109, 2147450896(%r13)
	.loc 6 1071 7
	movq	%fs:40, %rax
	movq	%rax, -56(%rbp)
	xorl	%eax, %eax
.LBB80:
	.loc 6 1072 60
	movq	-248(%rbp), %rax
	movq	%rax, %rdi
	call	_ZNSt11_Deque_baseIiSaIiEE19_M_get_Tp_allocatorEv
	movq	%rax, %r14
	.loc 6 1072 9
	leaq	-96(%r12), %rax
	movq	%rax, %rdx
	shrq	$3, %rdx
	addq	$2147450880, %rdx
	movzbl	(%rdx), %edx
	testb	%dl, %dl
	setne	%cl
	testb	%dl, %dl
	setle	%dl
	movl	%ecx, %edi
	andl	%edx, %edi
	movl	$32, %edx
	subq	$1, %rdx
	leaq	(%rax,%rdx), %rcx
	movq	%rcx, %rdx
	shrq	$3, %rdx
	addq	$2147450880, %rdx
	movzbl	(%rdx), %edx
	testb	%dl, %dl
	setne	%sil
	andl	$7, %ecx
	cmpb	%dl, %cl
	setge	%dl
	andl	%esi, %edx
	orl	%edi, %edx
	testb	%dl, %dl
	je	.L526
	movl	$32, %esi
	movq	%rax, %rdi
	call	__asan_report_store_n@PLT
.L526:
	leaq	-96(%r12), %rax
	movq	-248(%rbp), %rdx
	movq	%rdx, %rsi
	movq	%rax, %rdi
	call	_ZNSt5dequeIiSaIiEE3endEv
	leaq	-160(%r12), %rax
	movq	%rax, %rdx
	shrq	$3, %rdx
	addq	$2147450880, %rdx
	movzbl	(%rdx), %edx
	testb	%dl, %dl
	setne	%cl
	testb	%dl, %dl
	setle	%dl
	movl	%ecx, %edi
	andl	%edx, %edi
	movl	$32, %edx
	subq	$1, %rdx
	leaq	(%rax,%rdx), %rcx
	movq	%rcx, %rdx
	shrq	$3, %rdx
	addq	$2147450880, %rdx
	movzbl	(%rdx), %edx
	testb	%dl, %dl
	setne	%sil
	andl	$7, %ecx
	cmpb	%dl, %cl
	setge	%dl
	andl	%esi, %edx
	orl	%edi, %edx
	testb	%dl, %dl
	je	.L527
	movl	$32, %esi
	movq	%rax, %rdi
	call	__asan_report_store_n@PLT
.L527:
	leaq	-160(%r12), %rax
	movq	-248(%rbp), %rdx
	movq	%rdx, %rsi
	movq	%rax, %rdi
	call	_ZNSt5dequeIiSaIiEE5beginEv
	leaq	-96(%r12), %rdx
	leaq	-160(%r12), %rsi
	movq	-248(%rbp), %rax
	movq	%r14, %rcx
	movq	%rax, %rdi
	call	_ZNSt5dequeIiSaIiEE15_M_destroy_dataESt15_Deque_iteratorIiRiPiES5_RKS0_
	leaq	-160(%r12), %rax
	shrq	$3, %rax
	addq	$2147450880, %rax
	movl	$-117901064, (%rax)
	leaq	-96(%r12), %rax
	shrq	$3, %rax
	addq	$2147450880, %rax
	movl	$-117901064, (%rax)
	.loc 6 1072 65
	movq	-248(%rbp), %rax
	movq	%rax, %rdi
	call	_ZNSt11_Deque_baseIiSaIiEED2Ev
.LBE80:
	nop
	.loc 6 1071 7
	cmpq	%rbx, %r15
	je	.L523
	movq	$1172321806, (%rbx)
	movabsq	$-723401728380766731, %rax
	movabsq	$-723401728380766731, %rdx
	movq	%rax, 2147450880(%r13)
	movq	%rdx, 2147450888(%r13)
	movl	$-168430091, 2147450896(%r13)
	movq	248(%rbx), %rax
	movb	$0, (%rax)
	jmp	.L524
.L523:
	movq	$0, 2147450880(%r13)
	movq	$0, 2147450888(%r13)
	movl	$0, 2147450896(%r13)
.L524:
	.loc 6 1072 65
	movq	-56(%rbp), %rax
	xorq	%fs:40, %rax
	je	.L528
	call	__stack_chk_fail@PLT
.L528:
	addq	$216, %rsp
	popq	%rbx
	popq	%r12
	popq	%r13
	popq	%r14
	popq	%r15
	popq	%rbp
	.cfi_def_cfa 7, 8
	ret
	.cfi_endproc
.LFE4698:
	.section	.gcc_except_table
.LLSDA4698:
	.byte	0xff
	.byte	0xff
	.byte	0x1
	.uleb128 .LLSDACSE4698-.LLSDACSB4698
.LLSDACSB4698:
.LLSDACSE4698:
	.section	.text._ZNSt5dequeIiSaIiEED2Ev,"axG",@progbits,_ZNSt5dequeIiSaIiEED5Ev,comdat
	.size	_ZNSt5dequeIiSaIiEED2Ev, .-_ZNSt5dequeIiSaIiEED2Ev
	.weak	_ZNSt5dequeIiSaIiEED1Ev
	.set	_ZNSt5dequeIiSaIiEED1Ev,_ZNSt5dequeIiSaIiEED2Ev
	.section	.rodata
.LC14:
	.string	"1 32 4 4 v:31"
	.section	.text._ZN5GraphIccE3BCCEiRiRSt5stackIiSt5dequeIiSaIiEEE,"axG",@progbits,_ZN5GraphIccE3BCCEiRiRSt5stackIiSt5dequeIiSaIiEEE,comdat
	.align 2
	.weak	_ZN5GraphIccE3BCCEiRiRSt5stackIiSt5dequeIiSaIiEEE
	.type	_ZN5GraphIccE3BCCEiRiRSt5stackIiSt5dequeIiSaIiEEE, @function
_ZN5GraphIccE3BCCEiRiRSt5stackIiSt5dequeIiSaIiEEE:
.LASANPC4700:
.LFB4700:
	.loc 14 31 6
	.cfi_startproc
	endbr64
	pushq	%rbp
	.cfi_def_cfa_offset 16
	.cfi_offset 6, -16
	movq	%rsp, %rbp
	.cfi_def_cfa_register 6
	pushq	%r15
	pushq	%r14
	pushq	%r13
	pushq	%r12
	pushq	%rbx
	subq	$152, %rsp
	.cfi_offset 15, -24
	.cfi_offset 14, -32
	.cfi_offset 13, -40
	.cfi_offset 12, -48
	.cfi_offset 3, -56
	movq	%rdi, -168(%rbp)
	movl	%esi, -172(%rbp)
	movq	%rdx, -184(%rbp)
	movq	%rcx, -192(%rbp)
	leaq	-144(%rbp), %r12
	movq	%r12, %r15
	cmpl	$0, __asan_option_detect_stack_use_after_return(%rip)
	je	.L529
	movl	$64, %edi
	call	__asan_stack_malloc_0@PLT
.LVL34:
	testq	%rax, %rax
	je	.L529
	movq	%rax, %r12
.L529:
	leaq	96(%r12), %rax
	movq	%rax, %rbx
	movq	$1102416563, (%r12)
	leaq	.LC14(%rip), %rax
	movq	%rax, 8(%r12)
	leaq	.LASANPC4700(%rip), %rax
	movq	%rax, 16(%r12)
	movq	%r12, %r13
	shrq	$3, %r13
	movl	$-235802127, 2147450880(%r13)
	movl	$-202116348, 2147450884(%r13)
	.loc 14 31 6
	movq	%fs:40, %rax
	movq	%rax, -56(%rbp)
	xorl	%eax, %eax
	.loc 14 31 29
	movl	-172(%rbp), %eax
	movl	%eax, -64(%rbx)
	.loc 14 33 5
	movq	-184(%rbp), %rax
	movq	%rax, %rdx
	shrq	$3, %rdx
	addq	$2147450880, %rdx
	movzbl	(%rdx), %edx
	testb	%dl, %dl
	setne	%cl
	movq	%rax, %rsi
	andl	$7, %esi
	addl	$3, %esi
	cmpb	%dl, %sil
	setge	%dl
	andl	%ecx, %edx
	testb	%dl, %dl
	je	.L533
	movq	%rax, %rdi
	call	__asan_report_load4@PLT
.L533:
	movq	-184(%rbp), %rax
	movl	(%rax), %eax
	leal	1(%rax), %edx
	movq	-184(%rbp), %rax
	movl	%edx, (%rax)
	movq	-184(%rbp), %rax
	movl	(%rax), %r14d
	.loc 14 33 27
	movq	-168(%rbp), %rax
	movq	%rax, %rdx
	shrq	$3, %rdx
	addq	$2147450880, %rdx
	movzbl	(%rdx), %edx
	testb	%dl, %dl
	je	.L534
	movq	%rax, %rdi
	call	__asan_report_load8@PLT
.L534:
	movq	-168(%rbp), %rax
	movq	(%rax), %rax
	addq	$72, %rax
	movq	%rax, %rdx
	movq	%rdx, %rcx
	shrq	$3, %rcx
	addq	$2147450880, %rcx
	movzbl	(%rcx), %ecx
	testb	%cl, %cl
	je	.L535
	movq	%rdx, %rdi
	call	__asan_report_load8@PLT
.L535:
	movq	(%rax), %rcx
	movl	-64(%rbx), %edx
	movq	-168(%rbp), %rax
	movl	%edx, %esi
	movq	%rax, %rdi
	call	*%rcx
.LVL35:
	.loc 14 33 5
	movq	%rax, %rdx
	movq	%rdx, %rcx
	shrq	$3, %rcx
	addq	$2147450880, %rcx
	movzbl	(%rcx), %ecx
	testb	%cl, %cl
	setne	%sil
	movq	%rdx, %rdi
	andl	$7, %edi
	addl	$3, %edi
	cmpb	%cl, %dil
	setge	%cl
	andl	%esi, %ecx
	testb	%cl, %cl
	je	.L536
	movq	%rdx, %rdi
	call	__asan_report_store4@PLT
.L536:
	movl	%r14d, (%rax)
	movl	(%rax), %r14d
	.loc 14 33 16
	movq	-168(%rbp), %rax
	movq	%rax, %rdx
	shrq	$3, %rdx
	addq	$2147450880, %rdx
	movzbl	(%rdx), %edx
	testb	%dl, %dl
	je	.L537
	movq	%rax, %rdi
	call	__asan_report_load8@PLT
.L537:
	movq	-168(%rbp), %rax
	movq	(%rax), %rax
	addq	$80, %rax
	movq	%rax, %rdx
	movq	%rdx, %rcx
	shrq	$3, %rcx
	addq	$2147450880, %rcx
	movzbl	(%rcx), %ecx
	testb	%cl, %cl
	je	.L538
	movq	%rdx, %rdi
	call	__asan_report_load8@PLT
.L538:
	movq	(%rax), %rcx
	movl	-64(%rbx), %edx
	movq	-168(%rbp), %rax
	movl	%edx, %esi
	movq	%rax, %rdi
	call	*%rcx
.LVL36:
	movq	%rax, %rdx
	.loc 14 33 5
	movq	%rdx, %rax
	movq	%rax, %rcx
	shrq	$3, %rcx
	addq	$2147450880, %rcx
	movzbl	(%rcx), %ecx
	testb	%cl, %cl
	setne	%sil
	movq	%rax, %rdi
	andl	$7, %edi
	addl	$3, %edi
	cmpb	%cl, %dil
	setge	%cl
	andl	%esi, %ecx
	testb	%cl, %cl
	je	.L539
	movq	%rax, %rdi
	call	__asan_report_store4@PLT
.L539:
	movl	%r14d, (%rdx)
	.loc 14 34 15
	movq	-168(%rbp), %rax
	movq	%rax, %rdx
	shrq	$3, %rdx
	addq	$2147450880, %rdx
	movzbl	(%rdx), %edx
	testb	%dl, %dl
	je	.L540
	movq	%rax, %rdi
	call	__asan_report_load8@PLT
.L540:
	movq	-168(%rbp), %rax
	movq	(%rax), %rax
	addq	$64, %rax
	movq	%rax, %rdx
	movq	%rdx, %rcx
	shrq	$3, %rcx
	addq	$2147450880, %rcx
	movzbl	(%rcx), %ecx
	testb	%cl, %cl
	je	.L541
	movq	%rdx, %rdi
	call	__asan_report_load8@PLT
.L541:
	movq	(%rax), %rcx
	movl	-64(%rbx), %edx
	movq	-168(%rbp), %rax
	movl	%edx, %esi
	movq	%rax, %rdi
	call	*%rcx
.LVL37:
	movq	%rax, %rdx
	.loc 14 34 5
	movq	%rdx, %rax
	movq	%rax, %rcx
	shrq	$3, %rcx
	addq	$2147450880, %rcx
	movzbl	(%rcx), %ecx
	testb	%cl, %cl
	setne	%sil
	movq	%rax, %rdi
	andl	$7, %edi
	addl	$3, %edi
	cmpb	%cl, %dil
	setge	%cl
	andl	%esi, %ecx
	testb	%cl, %cl
	je	.L542
	movq	%rax, %rdi
	call	__asan_report_store4@PLT
.L542:
	movl	$1, (%rdx)
	.loc 14 35 11
	leaq	-64(%rbx), %rdx
	movq	-192(%rbp), %rax
	movq	%rdx, %rsi
	movq	%rax, %rdi
	call	_ZNSt5stackIiSt5dequeIiSaIiEEE4pushERKi
.LBB81:
	.loc 14 36 14
	movq	-168(%rbp), %rax
	movq	%rax, %rdx
	shrq	$3, %rdx
	addq	$2147450880, %rdx
	movzbl	(%rdx), %edx
	testb	%dl, %dl
	je	.L543
	movq	%rax, %rdi
	call	__asan_report_load8@PLT
.L543:
	movq	-168(%rbp), %rax
	movq	(%rax), %rax
	addq	$48, %rax
	movq	%rax, %rdx
	movq	%rdx, %rcx
	shrq	$3, %rcx
	addq	$2147450880, %rcx
	movzbl	(%rcx), %ecx
	testb	%cl, %cl
	je	.L544
	movq	%rdx, %rdi
	call	__asan_report_load8@PLT
.L544:
	movq	(%rax), %rcx
	movl	-64(%rbx), %edx
	movq	-168(%rbp), %rax
	movl	%edx, %esi
	movq	%rax, %rdi
	call	*%rcx
.LVL38:
	movl	%eax, -148(%rbp)
.L613:
	.loc 14 36 35 discriminator 1
	cmpl	$0, -148(%rbp)
	js	.L545
	.loc 14 37 9
	movq	-168(%rbp), %rax
	movq	%rax, %rdx
	shrq	$3, %rdx
	addq	$2147450880, %rdx
	movzbl	(%rdx), %edx
	testb	%dl, %dl
	je	.L546
	movq	%rax, %rdi
	call	__asan_report_load8@PLT
.L546:
	movq	-168(%rbp), %rax
	movq	(%rax), %rax
	addq	$64, %rax
	movq	%rax, %rdx
	movq	%rdx, %rcx
	shrq	$3, %rcx
	addq	$2147450880, %rcx
	movzbl	(%rcx), %ecx
	testb	%cl, %cl
	je	.L547
	movq	%rdx, %rdi
	call	__asan_report_load8@PLT
.L547:
	movq	(%rax), %rcx
	movl	-148(%rbp), %edx
	movq	-168(%rbp), %rax
	movl	%edx, %esi
	movq	%rax, %rdi
	call	*%rcx
.LVL39:
	movq	%rax, %rdx
	movq	%rdx, %rax
	movq	%rax, %rcx
	shrq	$3, %rcx
	addq	$2147450880, %rcx
	movzbl	(%rcx), %ecx
	testb	%cl, %cl
	setne	%sil
	movq	%rax, %rdi
	andl	$7, %edi
	addl	$3, %edi
	cmpb	%cl, %dil
	setge	%cl
	andl	%esi, %ecx
	testb	%cl, %cl
	je	.L548
	movq	%rax, %rdi
	call	__asan_report_load4@PLT
.L548:
	movl	(%rdx), %eax
	testl	%eax, %eax
	je	.L549
	cmpl	$1, %eax
	je	.L550
	jmp	.L618
.L549:
	.loc 14 40 13
	movl	-64(%rbx), %r14d
	.loc 14 40 23
	movq	-168(%rbp), %rax
	movq	%rax, %rdx
	shrq	$3, %rdx
	addq	$2147450880, %rdx
	movzbl	(%rdx), %edx
	testb	%dl, %dl
	je	.L552
	movq	%rax, %rdi
	call	__asan_report_load8@PLT
.L552:
	movq	-168(%rbp), %rax
	movq	(%rax), %rax
	addq	$88, %rax
	movq	%rax, %rdx
	movq	%rdx, %rcx
	shrq	$3, %rcx
	addq	$2147450880, %rcx
	movzbl	(%rcx), %ecx
	testb	%cl, %cl
	je	.L553
	movq	%rdx, %rdi
	call	__asan_report_load8@PLT
.L553:
	movq	(%rax), %rcx
	movl	-148(%rbp), %edx
	movq	-168(%rbp), %rax
	movl	%edx, %esi
	movq	%rax, %rdi
	call	*%rcx
.LVL40:
	movq	%rax, %rdx
	.loc 14 40 13
	movq	%rdx, %rax
	movq	%rax, %rcx
	shrq	$3, %rcx
	addq	$2147450880, %rcx
	movzbl	(%rcx), %ecx
	testb	%cl, %cl
	setne	%sil
	movq	%rax, %rdi
	andl	$7, %edi
	addl	$3, %edi
	cmpb	%cl, %dil
	setge	%cl
	andl	%esi, %ecx
	testb	%cl, %cl
	je	.L554
	movq	%rax, %rdi
	call	__asan_report_store4@PLT
.L554:
	movl	%r14d, (%rdx)
	.loc 14 41 24
	movq	-168(%rbp), %rax
	movq	%rax, %rdx
	shrq	$3, %rdx
	addq	$2147450880, %rdx
	movzbl	(%rdx), %edx
	testb	%dl, %dl
	je	.L555
	movq	%rax, %rdi
	call	__asan_report_load8@PLT
.L555:
	movq	-168(%rbp), %rax
	movq	(%rax), %rax
	addq	$136, %rax
	movq	%rax, %rdx
	movq	%rdx, %rcx
	shrq	$3, %rcx
	addq	$2147450880, %rcx
	movzbl	(%rcx), %ecx
	testb	%cl, %cl
	je	.L556
	movq	%rdx, %rdi
	call	__asan_report_load8@PLT
.L556:
	movq	(%rax), %r8
	movl	-64(%rbx), %ecx
	movl	-148(%rbp), %edx
	movq	-168(%rbp), %rax
	movl	%ecx, %esi
	movq	%rax, %rdi
	call	*%r8
.LVL41:
	movq	%rax, %rdx
	.loc 14 41 13
	movq	%rdx, %rax
	movq	%rax, %rcx
	shrq	$3, %rcx
	addq	$2147450880, %rcx
	movzbl	(%rcx), %ecx
	testb	%cl, %cl
	setne	%sil
	movq	%rax, %rdi
	andl	$7, %edi
	addl	$3, %edi
	cmpb	%cl, %dil
	setge	%cl
	andl	%esi, %ecx
	testb	%cl, %cl
	je	.L557
	movq	%rax, %rdi
	call	__asan_report_store4@PLT
.L557:
	movl	$1, (%rdx)
	.loc 14 42 13
	movq	-192(%rbp), %rcx
	movq	-184(%rbp), %rdx
	movl	-148(%rbp), %esi
	movq	-168(%rbp), %rax
	movq	%rax, %rdi
	call	_ZN5GraphIccE3BCCEiRiRSt5stackIiSt5dequeIiSaIiEEE
	.loc 14 43 28
	movq	-168(%rbp), %rax
	movq	%rax, %rdx
	shrq	$3, %rdx
	addq	$2147450880, %rdx
	movzbl	(%rdx), %edx
	testb	%dl, %dl
	je	.L558
	movq	%rax, %rdi
	call	__asan_report_load8@PLT
.L558:
	movq	-168(%rbp), %rax
	movq	(%rax), %rax
	addq	$80, %rax
	movq	%rax, %rdx
	movq	%rdx, %rcx
	shrq	$3, %rcx
	addq	$2147450880, %rcx
	movzbl	(%rcx), %ecx
	testb	%cl, %cl
	je	.L559
	movq	%rdx, %rdi
	call	__asan_report_load8@PLT
.L559:
	movq	(%rax), %rcx
	movl	-64(%rbx), %edx
	movq	-168(%rbp), %rax
	movl	%edx, %esi
	movq	%rax, %rdi
	call	*%rcx
.LVL42:
	movq	%rax, %rdx
	movq	%rdx, %rax
	movq	%rax, %rcx
	shrq	$3, %rcx
	addq	$2147450880, %rcx
	movzbl	(%rcx), %ecx
	testb	%cl, %cl
	setne	%sil
	movq	%rax, %rdi
	andl	$7, %edi
	addl	$3, %edi
	cmpb	%cl, %dil
	setge	%cl
	andl	%esi, %ecx
	testb	%cl, %cl
	je	.L560
	movq	%rax, %rdi
	call	__asan_report_load4@PLT
.L560:
	movl	(%rdx), %r14d
	movq	-168(%rbp), %rax
	movq	%rax, %rdx
	shrq	$3, %rdx
	addq	$2147450880, %rdx
	movzbl	(%rdx), %edx
	testb	%dl, %dl
	je	.L561
	movq	%rax, %rdi
	call	__asan_report_load8@PLT
.L561:
	movq	-168(%rbp), %rax
	movq	(%rax), %rax
	addq	$80, %rax
	movq	%rax, %rdx
	movq	%rdx, %rcx
	shrq	$3, %rcx
	addq	$2147450880, %rcx
	movzbl	(%rcx), %ecx
	testb	%cl, %cl
	je	.L562
	movq	%rdx, %rdi
	call	__asan_report_load8@PLT
.L562:
	movq	(%rax), %rcx
	movl	-148(%rbp), %edx
	movq	-168(%rbp), %rax
	movl	%edx, %esi
	movq	%rax, %rdi
	call	*%rcx
.LVL43:
	movq	%rax, %rdx
	movq	%rdx, %rax
	movq	%rax, %rcx
	shrq	$3, %rcx
	addq	$2147450880, %rcx
	movzbl	(%rcx), %ecx
	testb	%cl, %cl
	setne	%sil
	movq	%rax, %rdi
	andl	$7, %edi
	addl	$3, %edi
	cmpb	%cl, %dil
	setge	%cl
	andl	%esi, %ecx
	testb	%cl, %cl
	je	.L563
	movq	%rax, %rdi
	call	__asan_report_load4@PLT
.L563:
	movl	(%rdx), %eax
	cmpl	%eax, %r14d
	setg	%al
	.loc 14 43 13
	testb	%al, %al
	je	.L564
	.loc 14 44 38
	movq	-168(%rbp), %rax
	movq	%rax, %rdx
	shrq	$3, %rdx
	addq	$2147450880, %rdx
	movzbl	(%rdx), %edx
	testb	%dl, %dl
	je	.L565
	movq	%rax, %rdi
	call	__asan_report_load8@PLT
.L565:
	movq	-168(%rbp), %rax
	movq	(%rax), %rax
	addq	$80, %rax
	movq	%rax, %rdx
	movq	%rdx, %rcx
	shrq	$3, %rcx
	addq	$2147450880, %rcx
	movzbl	(%rcx), %ecx
	testb	%cl, %cl
	je	.L566
	movq	%rdx, %rdi
	call	__asan_report_load8@PLT
.L566:
	movq	(%rax), %rcx
	movl	-148(%rbp), %edx
	movq	-168(%rbp), %rax
	movl	%edx, %esi
	movq	%rax, %rdi
	call	*%rcx
.LVL44:
	movq	%rax, %r14
	movq	-168(%rbp), %rax
	movq	%rax, %rdx
	shrq	$3, %rdx
	addq	$2147450880, %rdx
	movzbl	(%rdx), %edx
	testb	%dl, %dl
	je	.L567
	movq	%rax, %rdi
	call	__asan_report_load8@PLT
.L567:
	movq	-168(%rbp), %rax
	movq	(%rax), %rax
	addq	$80, %rax
	movq	%rax, %rdx
	movq	%rdx, %rcx
	shrq	$3, %rcx
	addq	$2147450880, %rcx
	movzbl	(%rcx), %ecx
	testb	%cl, %cl
	je	.L568
	movq	%rdx, %rdi
	call	__asan_report_load8@PLT
.L568:
	movq	(%rax), %rcx
	movl	-64(%rbx), %edx
	movq	-168(%rbp), %rax
	movl	%edx, %esi
	movq	%rax, %rdi
	call	*%rcx
.LVL45:
	movq	%r14, %rsi
	movq	%rax, %rdi
	call	_ZSt3minIiERKT_S2_S2_
	movq	%rax, %rdx
	.loc 14 44 17
	movq	%rdx, %rax
	movq	%rax, %rcx
	shrq	$3, %rcx
	addq	$2147450880, %rcx
	movzbl	(%rcx), %ecx
	testb	%cl, %cl
	setne	%sil
	movq	%rax, %rdi
	andl	$7, %edi
	addl	$3, %edi
	cmpb	%cl, %dil
	setge	%cl
	andl	%esi, %ecx
	testb	%cl, %cl
	je	.L569
	movq	%rax, %rdi
	call	__asan_report_load4@PLT
.L569:
	movl	(%rdx), %r14d
	.loc 14 44 28
	movq	-168(%rbp), %rax
	movq	%rax, %rdx
	shrq	$3, %rdx
	addq	$2147450880, %rdx
	movzbl	(%rdx), %edx
	testb	%dl, %dl
	je	.L570
	movq	%rax, %rdi
	call	__asan_report_load8@PLT
.L570:
	movq	-168(%rbp), %rax
	movq	(%rax), %rax
	addq	$80, %rax
	movq	%rax, %rdx
	movq	%rdx, %rcx
	shrq	$3, %rcx
	addq	$2147450880, %rcx
	movzbl	(%rcx), %ecx
	testb	%cl, %cl
	je	.L571
	movq	%rdx, %rdi
	call	__asan_report_load8@PLT
.L571:
	movq	(%rax), %rcx
	movl	-64(%rbx), %edx
	movq	-168(%rbp), %rax
	movl	%edx, %esi
	movq	%rax, %rdi
	call	*%rcx
.LVL46:
	movq	%rax, %rdx
	.loc 14 44 17
	movq	%rdx, %rax
	movq	%rax, %rcx
	shrq	$3, %rcx
	addq	$2147450880, %rcx
	movzbl	(%rcx), %ecx
	testb	%cl, %cl
	setne	%sil
	movq	%rax, %rdi
	andl	$7, %edi
	addl	$3, %edi
	cmpb	%cl, %dil
	setge	%cl
	andl	%esi, %ecx
	testb	%cl, %cl
	je	.L572
	movq	%rax, %rdi
	call	__asan_report_store4@PLT
.L572:
	movl	%r14d, (%rdx)
	.loc 14 56 13
	jmp	.L588
.L564:
	.loc 14 47 22
	movq	-168(%rbp), %rax
	movq	%rax, %rdx
	shrq	$3, %rdx
	addq	$2147450880, %rdx
	movzbl	(%rdx), %edx
	testb	%dl, %dl
	je	.L574
	movq	%rax, %rdi
	call	__asan_report_load8@PLT
.L574:
	movq	-168(%rbp), %rax
	movq	(%rax), %rax
	addq	$24, %rax
	movq	%rax, %rdx
	movq	%rdx, %rcx
	shrq	$3, %rcx
	addq	$2147450880, %rcx
	movzbl	(%rcx), %ecx
	testb	%cl, %cl
	je	.L575
	movq	%rdx, %rdi
	call	__asan_report_load8@PLT
.L575:
	movq	(%rax), %rcx
	movl	-64(%rbx), %edx
	movq	-168(%rbp), %rax
	movl	%edx, %esi
	movq	%rax, %rdi
	call	*%rcx
.LVL47:
	movq	%rax, %rdx
	.loc 14 47 34
	movq	%rdx, %rax
	movq	%rax, %rcx
	shrq	$3, %rcx
	addq	$2147450880, %rcx
	movzbl	(%rcx), %ecx
	testb	%cl, %cl
	setne	%sil
	movq	%rax, %rdi
	andl	$7, %edi
	cmpb	%cl, %dil
	setge	%cl
	andl	%esi, %ecx
	testb	%cl, %cl
	je	.L576
	movq	%rax, %rdi
	call	__asan_report_load1@PLT
.L576:
	movzbl	(%rdx), %eax
	movsbl	%al, %eax
	movl	%eax, %esi
	leaq	_ZSt4cout(%rip), %rdi
	call	_ZStlsISt11char_traitsIcEERSt13basic_ostreamIcT_ES5_c@PLT
	movl	$32, %esi
	movq	%rax, %rdi
	call	_ZStlsISt11char_traitsIcEERSt13basic_ostreamIcT_ES5_c@PLT
.L583:
	.loc 14 48 29
	movq	-192(%rbp), %rax
	movq	%rax, %rdi
	call	_ZNSt5stackIiSt5dequeIiSaIiEEE3topEv
	movq	%rax, %rdx
	.loc 14 48 32
	movq	%rdx, %rax
	movq	%rax, %rcx
	shrq	$3, %rcx
	addq	$2147450880, %rcx
	movzbl	(%rcx), %ecx
	testb	%cl, %cl
	setne	%sil
	movq	%rax, %rdi
	andl	$7, %edi
	addl	$3, %edi
	cmpb	%cl, %dil
	setge	%cl
	andl	%esi, %ecx
	testb	%cl, %cl
	je	.L577
	movq	%rax, %rdi
	call	__asan_report_load4@PLT
.L577:
	movl	(%rdx), %eax
	cmpl	%eax, -148(%rbp)
	setne	%al
	testb	%al, %al
	je	.L578
	.loc 14 50 26
	movq	-168(%rbp), %rax
	movq	%rax, %rdx
	shrq	$3, %rdx
	addq	$2147450880, %rdx
	movzbl	(%rdx), %edx
	testb	%dl, %dl
	je	.L579
	movq	%rax, %rdi
	call	__asan_report_load8@PLT
.L579:
	movq	-168(%rbp), %rax
	movq	(%rax), %rax
	addq	$24, %rax
	movq	%rax, %rdx
	movq	%rdx, %rcx
	shrq	$3, %rcx
	addq	$2147450880, %rcx
	movzbl	(%rcx), %ecx
	testb	%cl, %cl
	je	.L580
	movq	%rdx, %rdi
	call	__asan_report_load8@PLT
.L580:
	movq	(%rax), %r14
	.loc 14 50 41
	movq	-192(%rbp), %rax
	movq	%rax, %rdi
	call	_ZNSt5stackIiSt5dequeIiSaIiEEE3topEv
	movq	%rax, %rdx
	.loc 14 50 26
	movq	%rdx, %rax
	movq	%rax, %rcx
	shrq	$3, %rcx
	addq	$2147450880, %rcx
	movzbl	(%rcx), %ecx
	testb	%cl, %cl
	setne	%sil
	movq	%rax, %rdi
	andl	$7, %edi
	addl	$3, %edi
	cmpb	%cl, %dil
	setge	%cl
	andl	%esi, %ecx
	testb	%cl, %cl
	je	.L581
	movq	%rax, %rdi
	call	__asan_report_load4@PLT
.L581:
	movl	(%rdx), %edx
	movq	-168(%rbp), %rax
	movl	%edx, %esi
	movq	%rax, %rdi
	call	*%r14
.LVL48:
	movq	%rax, %rdx
	.loc 14 50 44
	movq	%rdx, %rax
	movq	%rax, %rcx
	shrq	$3, %rcx
	addq	$2147450880, %rcx
	movzbl	(%rcx), %ecx
	testb	%cl, %cl
	setne	%sil
	movq	%rax, %rdi
	andl	$7, %edi
	cmpb	%cl, %dil
	setge	%cl
	andl	%esi, %ecx
	testb	%cl, %cl
	je	.L582
	movq	%rax, %rdi
	call	__asan_report_load1@PLT
.L582:
	movzbl	(%rdx), %eax
	movsbl	%al, %eax
	movl	%eax, %esi
	leaq	_ZSt4cout(%rip), %rdi
	call	_ZStlsISt11char_traitsIcEERSt13basic_ostreamIcT_ES5_c@PLT
	movl	$32, %esi
	movq	%rax, %rdi
	call	_ZStlsISt11char_traitsIcEERSt13basic_ostreamIcT_ES5_c@PLT
	.loc 14 51 26
	movq	-192(%rbp), %rax
	movq	%rax, %rdi
	call	_ZNSt5stackIiSt5dequeIiSaIiEEE3popEv
	.loc 14 48 17
	jmp	.L583
.L578:
	.loc 14 53 22
	movq	-168(%rbp), %rax
	movq	%rax, %rdx
	shrq	$3, %rdx
	addq	$2147450880, %rdx
	movzbl	(%rdx), %edx
	testb	%dl, %dl
	je	.L584
	movq	%rax, %rdi
	call	__asan_report_load8@PLT
.L584:
	movq	-168(%rbp), %rax
	movq	(%rax), %rax
	addq	$24, %rax
	movq	%rax, %rdx
	movq	%rdx, %rcx
	shrq	$3, %rcx
	addq	$2147450880, %rcx
	movzbl	(%rcx), %ecx
	testb	%cl, %cl
	je	.L585
	movq	%rdx, %rdi
	call	__asan_report_load8@PLT
.L585:
	movq	(%rax), %r14
	.loc 14 53 37
	movq	-192(%rbp), %rax
	movq	%rax, %rdi
	call	_ZNSt5stackIiSt5dequeIiSaIiEEE3topEv
	movq	%rax, %rdx
	.loc 14 53 22
	movq	%rdx, %rax
	movq	%rax, %rcx
	shrq	$3, %rcx
	addq	$2147450880, %rcx
	movzbl	(%rcx), %ecx
	testb	%cl, %cl
	setne	%sil
	movq	%rax, %rdi
	andl	$7, %edi
	addl	$3, %edi
	cmpb	%cl, %dil
	setge	%cl
	andl	%esi, %ecx
	testb	%cl, %cl
	je	.L586
	movq	%rax, %rdi
	call	__asan_report_load4@PLT
.L586:
	movl	(%rdx), %edx
	movq	-168(%rbp), %rax
	movl	%edx, %esi
	movq	%rax, %rdi
	call	*%r14
.LVL49:
	movq	%rax, %rdx
	movq	%rdx, %rax
	movq	%rax, %rcx
	shrq	$3, %rcx
	addq	$2147450880, %rcx
	movzbl	(%rcx), %ecx
	testb	%cl, %cl
	setne	%sil
	movq	%rax, %rdi
	andl	$7, %edi
	cmpb	%cl, %dil
	setge	%cl
	andl	%esi, %ecx
	testb	%cl, %cl
	je	.L587
	movq	%rax, %rdi
	call	__asan_report_load1@PLT
.L587:
	movzbl	(%rdx), %eax
	movsbl	%al, %eax
	movl	%eax, %esi
	leaq	_ZSt4cout(%rip), %rdi
	call	_ZStlsISt11char_traitsIcEERSt13basic_ostreamIcT_ES5_c@PLT
	movq	%rax, %rdx
	.loc 14 53 41
	movq	_ZSt4endlIcSt11char_traitsIcEERSt13basic_ostreamIT_T0_ES6_@GOTPCREL(%rip), %rax
	movq	%rax, %rsi
	movq	%rdx, %rdi
	call	_ZNSolsEPFRSoS_E@PLT
	.loc 14 54 22
	movq	-192(%rbp), %rax
	movq	%rax, %rdi
	call	_ZNSt5stackIiSt5dequeIiSaIiEEE3popEv
	.loc 14 56 13
	jmp	.L588
.L550:
	.loc 14 58 24
	movq	-168(%rbp), %rax
	movq	%rax, %rdx
	shrq	$3, %rdx
	addq	$2147450880, %rdx
	movzbl	(%rdx), %edx
	testb	%dl, %dl
	je	.L589
	movq	%rax, %rdi
	call	__asan_report_load8@PLT
.L589:
	movq	-168(%rbp), %rax
	movq	(%rax), %rax
	addq	$136, %rax
	movq	%rax, %rdx
	movq	%rdx, %rcx
	shrq	$3, %rcx
	addq	$2147450880, %rcx
	movzbl	(%rcx), %ecx
	testb	%cl, %cl
	je	.L590
	movq	%rdx, %rdi
	call	__asan_report_load8@PLT
.L590:
	movq	(%rax), %r8
	movl	-64(%rbx), %ecx
	movl	-148(%rbp), %edx
	movq	-168(%rbp), %rax
	movl	%ecx, %esi
	movq	%rax, %rdi
	call	*%r8
.LVL50:
	movq	%rax, %rdx
	.loc 14 58 13
	movq	%rdx, %rax
	movq	%rax, %rcx
	shrq	$3, %rcx
	addq	$2147450880, %rcx
	movzbl	(%rcx), %ecx
	testb	%cl, %cl
	setne	%sil
	movq	%rax, %rdi
	andl	$7, %edi
	addl	$3, %edi
	cmpb	%cl, %dil
	setge	%cl
	andl	%esi, %ecx
	testb	%cl, %cl
	je	.L591
	movq	%rax, %rdi
	call	__asan_report_store4@PLT
.L591:
	movl	$4, (%rdx)
	.loc 14 59 34
	movq	-168(%rbp), %rax
	movq	%rax, %rdx
	shrq	$3, %rdx
	addq	$2147450880, %rdx
	movzbl	(%rdx), %edx
	testb	%dl, %dl
	je	.L592
	movq	%rax, %rdi
	call	__asan_report_load8@PLT
.L592:
	movq	-168(%rbp), %rax
	movq	(%rax), %rax
	addq	$72, %rax
	movq	%rax, %rdx
	movq	%rdx, %rcx
	shrq	$3, %rcx
	addq	$2147450880, %rcx
	movzbl	(%rcx), %ecx
	testb	%cl, %cl
	je	.L593
	movq	%rdx, %rdi
	call	__asan_report_load8@PLT
.L593:
	movq	(%rax), %rcx
	movl	-148(%rbp), %edx
	movq	-168(%rbp), %rax
	movl	%edx, %esi
	movq	%rax, %rdi
	call	*%rcx
.LVL51:
	movq	%rax, %r14
	movq	-168(%rbp), %rax
	movq	%rax, %rdx
	shrq	$3, %rdx
	addq	$2147450880, %rdx
	movzbl	(%rdx), %edx
	testb	%dl, %dl
	je	.L594
	movq	%rax, %rdi
	call	__asan_report_load8@PLT
.L594:
	movq	-168(%rbp), %rax
	movq	(%rax), %rax
	addq	$80, %rax
	movq	%rax, %rdx
	movq	%rdx, %rcx
	shrq	$3, %rcx
	addq	$2147450880, %rcx
	movzbl	(%rcx), %ecx
	testb	%cl, %cl
	je	.L595
	movq	%rdx, %rdi
	call	__asan_report_load8@PLT
.L595:
	movq	(%rax), %rcx
	movl	-64(%rbx), %edx
	movq	-168(%rbp), %rax
	movl	%edx, %esi
	movq	%rax, %rdi
	call	*%rcx
.LVL52:
	movq	%r14, %rsi
	movq	%rax, %rdi
	call	_ZSt3minIiERKT_S2_S2_
	movq	%rax, %rdx
	.loc 14 59 13
	movq	%rdx, %rax
	movq	%rax, %rcx
	shrq	$3, %rcx
	addq	$2147450880, %rcx
	movzbl	(%rcx), %ecx
	testb	%cl, %cl
	setne	%sil
	movq	%rax, %rdi
	andl	$7, %edi
	addl	$3, %edi
	cmpb	%cl, %dil
	setge	%cl
	andl	%esi, %ecx
	testb	%cl, %cl
	je	.L596
	movq	%rax, %rdi
	call	__asan_report_load4@PLT
.L596:
	movl	(%rdx), %r14d
	.loc 14 59 24
	movq	-168(%rbp), %rax
	movq	%rax, %rdx
	shrq	$3, %rdx
	addq	$2147450880, %rdx
	movzbl	(%rdx), %edx
	testb	%dl, %dl
	je	.L597
	movq	%rax, %rdi
	call	__asan_report_load8@PLT
.L597:
	movq	-168(%rbp), %rax
	movq	(%rax), %rax
	addq	$80, %rax
	movq	%rax, %rdx
	movq	%rdx, %rcx
	shrq	$3, %rcx
	addq	$2147450880, %rcx
	movzbl	(%rcx), %ecx
	testb	%cl, %cl
	je	.L598
	movq	%rdx, %rdi
	call	__asan_report_load8@PLT
.L598:
	movq	(%rax), %rcx
	movl	-64(%rbx), %edx
	movq	-168(%rbp), %rax
	movl	%edx, %esi
	movq	%rax, %rdi
	call	*%rcx
.LVL53:
	movq	%rax, %rdx
	.loc 14 59 13
	movq	%rdx, %rax
	movq	%rax, %rcx
	shrq	$3, %rcx
	addq	$2147450880, %rcx
	movzbl	(%rcx), %ecx
	testb	%cl, %cl
	setne	%sil
	movq	%rax, %rdi
	andl	$7, %edi
	addl	$3, %edi
	cmpb	%cl, %dil
	setge	%cl
	andl	%esi, %ecx
	testb	%cl, %cl
	je	.L599
	movq	%rax, %rdi
	call	__asan_report_store4@PLT
.L599:
	movl	%r14d, (%rdx)
	.loc 14 60 13
	jmp	.L588
.L618:
	.loc 14 62 36
	movq	-168(%rbp), %rax
	movq	%rax, %rdx
	shrq	$3, %rdx
	addq	$2147450880, %rdx
	movzbl	(%rdx), %edx
	testb	%dl, %dl
	je	.L600
	movq	%rax, %rdi
	call	__asan_report_load8@PLT
.L600:
	movq	-168(%rbp), %rax
	movq	(%rax), %rax
	addq	$72, %rax
	movq	%rax, %rdx
	movq	%rdx, %rcx
	shrq	$3, %rcx
	addq	$2147450880, %rcx
	movzbl	(%rcx), %ecx
	testb	%cl, %cl
	je	.L601
	movq	%rdx, %rdi
	call	__asan_report_load8@PLT
.L601:
	movq	(%rax), %rcx
	movl	-64(%rbx), %edx
	movq	-168(%rbp), %rax
	movl	%edx, %esi
	movq	%rax, %rdi
	call	*%rcx
.LVL54:
	movq	%rax, %rdx
	movq	%rdx, %rax
	movq	%rax, %rcx
	shrq	$3, %rcx
	addq	$2147450880, %rcx
	movzbl	(%rcx), %ecx
	testb	%cl, %cl
	setne	%sil
	movq	%rax, %rdi
	andl	$7, %edi
	addl	$3, %edi
	cmpb	%cl, %dil
	setge	%cl
	andl	%esi, %ecx
	testb	%cl, %cl
	je	.L602
	movq	%rax, %rdi
	call	__asan_report_load4@PLT
.L602:
	movl	(%rdx), %r14d
	movq	-168(%rbp), %rax
	movq	%rax, %rdx
	shrq	$3, %rdx
	addq	$2147450880, %rdx
	movzbl	(%rdx), %edx
	testb	%dl, %dl
	je	.L603
	movq	%rax, %rdi
	call	__asan_report_load8@PLT
.L603:
	movq	-168(%rbp), %rax
	movq	(%rax), %rax
	addq	$72, %rax
	movq	%rax, %rdx
	movq	%rdx, %rcx
	shrq	$3, %rcx
	addq	$2147450880, %rcx
	movzbl	(%rcx), %ecx
	testb	%cl, %cl
	je	.L604
	movq	%rdx, %rdi
	call	__asan_report_load8@PLT
.L604:
	movq	(%rax), %rcx
	movl	-148(%rbp), %edx
	movq	-168(%rbp), %rax
	movl	%edx, %esi
	movq	%rax, %rdi
	call	*%rcx
.LVL55:
	movq	%rax, %rdx
	movq	%rdx, %rax
	movq	%rax, %rcx
	shrq	$3, %rcx
	addq	$2147450880, %rcx
	movzbl	(%rcx), %ecx
	testb	%cl, %cl
	setne	%sil
	movq	%rax, %rdi
	andl	$7, %edi
	addl	$3, %edi
	cmpb	%cl, %dil
	setge	%cl
	andl	%esi, %ecx
	testb	%cl, %cl
	je	.L605
	movq	%rax, %rdi
	call	__asan_report_load4@PLT
.L605:
	movl	(%rdx), %eax
	.loc 14 62 48
	cmpl	%eax, %r14d
	jge	.L606
	.loc 14 62 48 is_stmt 0 discriminator 1
	movl	$3, %r14d
	jmp	.L607
.L606:
	.loc 14 62 48 discriminator 2
	movl	$2, %r14d
.L607:
	.loc 14 62 24 is_stmt 1 discriminator 4
	movq	-168(%rbp), %rax
	movq	%rax, %rdx
	shrq	$3, %rdx
	addq	$2147450880, %rdx
	movzbl	(%rdx), %edx
	testb	%dl, %dl
	je	.L608
	.loc 14 62 24 is_stmt 0
	movq	%rax, %rdi
	call	__asan_report_load8@PLT
.L608:
	.loc 14 62 24 discriminator 4
	movq	-168(%rbp), %rax
	movq	(%rax), %rax
	addq	$136, %rax
	movq	%rax, %rdx
	movq	%rdx, %rcx
	shrq	$3, %rcx
	addq	$2147450880, %rcx
	movzbl	(%rcx), %ecx
	testb	%cl, %cl
	je	.L609
	.loc 14 62 24
	movq	%rdx, %rdi
	call	__asan_report_load8@PLT
.L609:
	.loc 14 62 24 discriminator 4
	movq	(%rax), %r8
	movl	-64(%rbx), %ecx
	movl	-148(%rbp), %edx
	movq	-168(%rbp), %rax
	movl	%ecx, %esi
	movq	%rax, %rdi
	call	*%r8
.LVL56:
	movq	%rax, %rdx
	.loc 14 62 13 is_stmt 1 discriminator 4
	movq	%rdx, %rax
	movq	%rax, %rcx
	shrq	$3, %rcx
	addq	$2147450880, %rcx
	movzbl	(%rcx), %ecx
	testb	%cl, %cl
	setne	%sil
	movq	%rax, %rdi
	andl	$7, %edi
	addl	$3, %edi
	cmpb	%cl, %dil
	setge	%cl
	andl	%esi, %ecx
	testb	%cl, %cl
	je	.L610
	.loc 14 62 13 is_stmt 0
	movq	%rax, %rdi
	call	__asan_report_store4@PLT
.L610:
	.loc 14 62 13 discriminator 4
	movl	%r14d, (%rdx)
	.loc 14 63 13 is_stmt 1 discriminator 4
	nop
.L588:
	.loc 14 36 42 discriminator 2
	movq	-168(%rbp), %rax
	movq	%rax, %rdx
	shrq	$3, %rdx
	addq	$2147450880, %rdx
	movzbl	(%rdx), %edx
	testb	%dl, %dl
	je	.L611
	.loc 14 36 42 is_stmt 0
	movq	%rax, %rdi
	call	__asan_report_load8@PLT
.L611:
	.loc 14 36 42 discriminator 2
	movq	-168(%rbp), %rax
	movq	(%rax), %rax
	addq	$56, %rax
	movq	%rax, %rdx
	movq	%rdx, %rcx
	shrq	$3, %rcx
	addq	$2147450880, %rcx
	movzbl	(%rcx), %ecx
	testb	%cl, %cl
	je	.L612
	.loc 14 36 42
	movq	%rdx, %rdi
	call	__asan_report_load8@PLT
.L612:
	.loc 14 36 42 discriminator 2
	movq	(%rax), %r8
	movl	-64(%rbx), %ecx
	movl	-148(%rbp), %edx
	movq	-168(%rbp), %rax
	movl	%ecx, %esi
	movq	%rax, %rdi
	call	*%r8
.LVL57:
	movl	%eax, -148(%rbp)
	.loc 14 36 5 is_stmt 1 discriminator 2
	jmp	.L613
.L545:
.LBE81:
	.loc 14 65 15
	movq	-168(%rbp), %rax
	movq	%rax, %rdx
	shrq	$3, %rdx
	addq	$2147450880, %rdx
	movzbl	(%rdx), %edx
	testb	%dl, %dl
	je	.L614
	movq	%rax, %rdi
	call	__asan_report_load8@PLT
.L614:
	movq	-168(%rbp), %rax
	movq	(%rax), %rax
	addq	$64, %rax
	movq	%rax, %rdx
	movq	%rdx, %rcx
	shrq	$3, %rcx
	addq	$2147450880, %rcx
	movzbl	(%rcx), %ecx
	testb	%cl, %cl
	je	.L615
	movq	%rdx, %rdi
	call	__asan_report_load8@PLT
.L615:
	movq	(%rax), %rcx
	movl	-64(%rbx), %edx
	movq	-168(%rbp), %rax
	movl	%edx, %esi
	movq	%rax, %rdi
	call	*%rcx
.LVL58:
	movq	%rax, %rdx
	.loc 14 65 5
	movq	%rdx, %rax
	movq	%rax, %rcx
	shrq	$3, %rcx
	addq	$2147450880, %rcx
	movzbl	(%rcx), %ecx
	testb	%cl, %cl
	setne	%sil
	movq	%rax, %rdi
	andl	$7, %edi
	addl	$3, %edi
	cmpb	%cl, %dil
	setge	%cl
	andl	%esi, %ecx
	testb	%cl, %cl
	je	.L616
	movq	%rax, %rdi
	call	__asan_report_store4@PLT
.L616:
	movl	$2, (%rdx)
	.loc 14 66 1
	nop
	.loc 14 31 6
	cmpq	%r12, %r15
	je	.L530
	movq	$1172321806, (%r12)
	movabsq	$-723401728380766731, %rax
	movq	%rax, 2147450880(%r13)
	movq	56(%r12), %rax
	movb	$0, (%rax)
	jmp	.L531
.L530:
	movq	$0, 2147450880(%r13)
.L531:
	.loc 14 66 1
	movq	-56(%rbp), %rax
	xorq	%fs:40, %rax
	je	.L617
	call	__stack_chk_fail@PLT
.L617:
	addq	$152, %rsp
	popq	%rbx
	popq	%r12
	popq	%r13
	popq	%r14
	popq	%r15
	popq	%rbp
	.cfi_def_cfa 7, 8
	ret
	.cfi_endproc
.LFE4700:
	.size	_ZN5GraphIccE3BCCEiRiRSt5stackIiSt5dequeIiSaIiEEE, .-_ZN5GraphIccE3BCCEiRiRSt5stackIiSt5dequeIiSaIiEEE
	.section	.text._ZNSt5stackIiSt5dequeIiSaIiEEE3popEv,"axG",@progbits,_ZNSt5stackIiSt5dequeIiSaIiEEE3popEv,comdat
	.align 2
	.weak	_ZNSt5stackIiSt5dequeIiSaIiEEE3popEv
	.type	_ZNSt5stackIiSt5dequeIiSaIiEEE3popEv, @function
_ZNSt5stackIiSt5dequeIiSaIiEEE3popEv:
.LASANPC4701:
.LFB4701:
	.loc 13 266 7
	.cfi_startproc
	endbr64
	pushq	%rbp
	.cfi_def_cfa_offset 16
	.cfi_offset 6, -16
	movq	%rsp, %rbp
	.cfi_def_cfa_register 6
	subq	$16, %rsp
	movq	%rdi, -8(%rbp)
	.loc 13 269 2
	movq	-8(%rbp), %rax
	movq	%rax, %rdi
	call	_ZNSt5dequeIiSaIiEE8pop_backEv
	.loc 13 270 7
	nop
	leave
	.cfi_def_cfa 7, 8
	ret
	.cfi_endproc
.LFE4701:
	.size	_ZNSt5stackIiSt5dequeIiSaIiEEE3popEv, .-_ZNSt5stackIiSt5dequeIiSaIiEEE3popEv
	.section	.text._ZNSt12_Vector_baseI5VNodeIccESaIS1_EE12_Vector_implD2Ev,"axG",@progbits,_ZNSt12_Vector_baseI5VNodeIccESaIS1_EE12_Vector_implD5Ev,comdat
	.align 2
	.weak	_ZNSt12_Vector_baseI5VNodeIccESaIS1_EE12_Vector_implD2Ev
	.type	_ZNSt12_Vector_baseI5VNodeIccESaIS1_EE12_Vector_implD2Ev, @function
_ZNSt12_Vector_baseI5VNodeIccESaIS1_EE12_Vector_implD2Ev:
.LASANPC4706:
.LFB4706:
	.loc 11 125 14
	.cfi_startproc
	endbr64
	pushq	%rbp
	.cfi_def_cfa_offset 16
	.cfi_offset 6, -16
	movq	%rsp, %rbp
	.cfi_def_cfa_register 6
	subq	$16, %rsp
	movq	%rdi, -8(%rbp)
.LBB82:
	.loc 11 125 14
	movq	-8(%rbp), %rax
	movq	%rax, %rdi
	call	_ZNSaI5VNodeIccEED2Ev
.LBE82:
	nop
	leave
	.cfi_def_cfa 7, 8
	ret
	.cfi_endproc
.LFE4706:
	.size	_ZNSt12_Vector_baseI5VNodeIccESaIS1_EE12_Vector_implD2Ev, .-_ZNSt12_Vector_baseI5VNodeIccESaIS1_EE12_Vector_implD2Ev
	.weak	_ZNSt12_Vector_baseI5VNodeIccESaIS1_EE12_Vector_implD1Ev
	.set	_ZNSt12_Vector_baseI5VNodeIccESaIS1_EE12_Vector_implD1Ev,_ZNSt12_Vector_baseI5VNodeIccESaIS1_EE12_Vector_implD2Ev
	.section	.text._ZNSt12_Vector_baseI5VNodeIccESaIS1_EEC2Ev,"axG",@progbits,_ZNSt12_Vector_baseI5VNodeIccESaIS1_EEC5Ev,comdat
	.align 2
	.weak	_ZNSt12_Vector_baseI5VNodeIccESaIS1_EEC2Ev
	.type	_ZNSt12_Vector_baseI5VNodeIccESaIS1_EEC2Ev, @function
_ZNSt12_Vector_baseI5VNodeIccESaIS1_EEC2Ev:
.LASANPC4708:
.LFB4708:
	.loc 11 285 7
	.cfi_startproc
	endbr64
	pushq	%rbp
	.cfi_def_cfa_offset 16
	.cfi_offset 6, -16
	movq	%rsp, %rbp
	.cfi_def_cfa_register 6
	subq	$16, %rsp
	movq	%rdi, -8(%rbp)
.LBB83:
	.loc 11 285 7
	movq	-8(%rbp), %rax
	movq	%rax, %rdi
	call	_ZNSt12_Vector_baseI5VNodeIccESaIS1_EE12_Vector_implC1Ev
.LBE83:
	nop
	leave
	.cfi_def_cfa 7, 8
	ret
	.cfi_endproc
.LFE4708:
	.size	_ZNSt12_Vector_baseI5VNodeIccESaIS1_EEC2Ev, .-_ZNSt12_Vector_baseI5VNodeIccESaIS1_EEC2Ev
	.weak	_ZNSt12_Vector_baseI5VNodeIccESaIS1_EEC1Ev
	.set	_ZNSt12_Vector_baseI5VNodeIccESaIS1_EEC1Ev,_ZNSt12_Vector_baseI5VNodeIccESaIS1_EEC2Ev
	.section	.text._ZNSt6vectorI5VNodeIccESaIS1_EEC2Ev,"axG",@progbits,_ZNSt6vectorI5VNodeIccESaIS1_EEC5Ev,comdat
	.align 2
	.weak	_ZNSt6vectorI5VNodeIccESaIS1_EEC2Ev
	.type	_ZNSt6vectorI5VNodeIccESaIS1_EEC2Ev, @function
_ZNSt6vectorI5VNodeIccESaIS1_EEC2Ev:
.LASANPC4710:
.LFB4710:
	.loc 11 484 7
	.cfi_startproc
	endbr64
	pushq	%rbp
	.cfi_def_cfa_offset 16
	.cfi_offset 6, -16
	movq	%rsp, %rbp
	.cfi_def_cfa_register 6
	subq	$16, %rsp
	movq	%rdi, -8(%rbp)
.LBB84:
	.loc 11 484 7
	movq	-8(%rbp), %rax
	movq	%rax, %rdi
	call	_ZNSt12_Vector_baseI5VNodeIccESaIS1_EEC2Ev
.LBE84:
	nop
	leave
	.cfi_def_cfa 7, 8
	ret
	.cfi_endproc
.LFE4710:
	.size	_ZNSt6vectorI5VNodeIccESaIS1_EEC2Ev, .-_ZNSt6vectorI5VNodeIccESaIS1_EEC2Ev
	.weak	_ZNSt6vectorI5VNodeIccESaIS1_EEC1Ev
	.set	_ZNSt6vectorI5VNodeIccESaIS1_EEC1Ev,_ZNSt6vectorI5VNodeIccESaIS1_EEC2Ev
	.section	.text._ZN7ALGraphIccEC2Ei6Direct,"axG",@progbits,_ZN7ALGraphIccEC5Ei6Direct,comdat
	.align 2
	.weak	_ZN7ALGraphIccEC2Ei6Direct
	.type	_ZN7ALGraphIccEC2Ei6Direct, @function
_ZN7ALGraphIccEC2Ei6Direct:
.LASANPC4712:
.LFB4712:
	.loc 12 33 5
	.cfi_startproc
	.cfi_personality 0x9b,DW.ref.__gxx_personality_v0
	.cfi_lsda 0x1b,.LLSDA4712
	endbr64
	pushq	%rbp
	.cfi_def_cfa_offset 16
	.cfi_offset 6, -16
	movq	%rsp, %rbp
	.cfi_def_cfa_register 6
	pushq	%rbx
	subq	$24, %rsp
	.cfi_offset 3, -24
	movq	%rdi, -24(%rbp)
	movl	%esi, -28(%rbp)
	movl	%edx, -32(%rbp)
.LBB85:
	.loc 12 33 72
	movq	-24(%rbp), %rax
	movl	-32(%rbp), %edx
	movl	%edx, %ecx
	movl	$0, %edx
	movl	$0, %esi
	movq	%rax, %rdi
	call	_ZN5GraphIccEC2Eii6Direct
	leaq	16+_ZTV7ALGraphIccE(%rip), %rcx
	movq	-24(%rbp), %rax
	movq	%rax, %rdx
	shrq	$3, %rdx
	addq	$2147450880, %rdx
	movzbl	(%rdx), %edx
	testb	%dl, %dl
	je	.L624
	movq	%rax, %rdi
	call	__asan_report_store8@PLT
.L624:
	movq	-24(%rbp), %rax
	movq	%rcx, (%rax)
	movq	-24(%rbp), %rax
	addq	$24, %rax
	movq	%rax, %rdi
	call	_ZNSt6vectorI5VNodeIccESaIS1_EEC1Ev
	.loc 12 33 76
	movq	-24(%rbp), %rax
	leaq	24(%rax), %rdx
	movl	-28(%rbp), %eax
	cltq
	movq	%rax, %rsi
	movq	%rdx, %rdi
.LEHB48:
	call	_ZNSt6vectorI5VNodeIccESaIS1_EE7reserveEm
.LEHE48:
.LBE85:
	.loc 12 33 94
	jmp	.L627
.L626:
	endbr64
	movq	%rax, %rbx
.LBB86:
	.loc 12 33 72
	movq	-24(%rbp), %rax
	addq	$24, %rax
	movq	%rax, %rdi
	call	_ZNSt6vectorI5VNodeIccESaIS1_EED1Ev
	call	__asan_handle_no_return@PLT
	movq	%rbx, %rdi
.LEHB49:
	call	_Unwind_Resume@PLT
.LEHE49:
.L627:
.LBE86:
	.loc 12 33 94
	addq	$24, %rsp
	popq	%rbx
	popq	%rbp
	.cfi_def_cfa 7, 8
	ret
	.cfi_endproc
.LFE4712:
	.section	.gcc_except_table
.LLSDA4712:
	.byte	0xff
	.byte	0xff
	.byte	0x1
	.uleb128 .LLSDACSE4712-.LLSDACSB4712
.LLSDACSB4712:
	.uleb128 .LEHB48-.LFB4712
	.uleb128 .LEHE48-.LEHB48
	.uleb128 .L626-.LFB4712
	.uleb128 0
	.uleb128 .LEHB49-.LFB4712
	.uleb128 .LEHE49-.LEHB49
	.uleb128 0
	.uleb128 0
.LLSDACSE4712:
	.section	.text._ZN7ALGraphIccEC2Ei6Direct,"axG",@progbits,_ZN7ALGraphIccEC5Ei6Direct,comdat
	.size	_ZN7ALGraphIccEC2Ei6Direct, .-_ZN7ALGraphIccEC2Ei6Direct
	.weak	_ZN7ALGraphIccEC1Ei6Direct
	.set	_ZN7ALGraphIccEC1Ei6Direct,_ZN7ALGraphIccEC2Ei6Direct
	.section	.rodata
.LC15:
	.string	"1 48 40 9 <unknown>"
	.section	.text._ZN7ALGraphIccE6insertERKc,"axG",@progbits,_ZN7ALGraphIccE6insertERKc,comdat
	.align 2
	.weak	_ZN7ALGraphIccE6insertERKc
	.type	_ZN7ALGraphIccE6insertERKc, @function
_ZN7ALGraphIccE6insertERKc:
.LASANPC4714:
.LFB4714:
	.loc 12 192 17
	.cfi_startproc
	endbr64
	pushq	%rbp
	.cfi_def_cfa_offset 16
	.cfi_offset 6, -16
	movq	%rsp, %rbp
	.cfi_def_cfa_register 6
	pushq	%r15
	pushq	%r14
	pushq	%r13
	pushq	%r12
	pushq	%rbx
	subq	$184, %rsp
	.cfi_offset 15, -24
	.cfi_offset 14, -32
	.cfi_offset 13, -40
	.cfi_offset 12, -48
	.cfi_offset 3, -56
	movq	%rdi, -216(%rbp)
	movq	%rsi, -224(%rbp)
	leaq	-208(%rbp), %rbx
	movq	%rbx, %r15
	cmpl	$0, __asan_option_detect_stack_use_after_return(%rip)
	je	.L628
	movl	$128, %edi
	call	__asan_stack_malloc_1@PLT
.LVL59:
	testq	%rax, %rax
	je	.L628
	movq	%rax, %rbx
.L628:
	leaq	160(%rbx), %rax
	movq	%rax, %r13
	movq	$1102416563, (%rbx)
	leaq	.LC15(%rip), %rax
	movq	%rax, 8(%rbx)
	leaq	.LASANPC4714(%rip), %rax
	movq	%rax, 16(%rbx)
	movq	%rbx, %r12
	shrq	$3, %r12
	movl	$-235802127, 2147450880(%r12)
	movl	$61937, 2147450884(%r12)
	movl	$-218103808, 2147450888(%r12)
	movl	$-202116109, 2147450892(%r12)
	.loc 12 192 17
	movq	%fs:40, %rax
	movq	%rax, -56(%rbp)
	xorl	%eax, %eax
	.loc 12 194 9
	movq	-216(%rbp), %rax
	movq	%rax, %rdx
	shrq	$3, %rdx
	addq	$2147450880, %rdx
	movzbl	(%rdx), %edx
	testb	%dl, %dl
	je	.L632
	movq	%rax, %rdi
	call	__asan_report_load8@PLT
.L632:
	movq	-216(%rbp), %rax
	movq	(%rax), %rax
	addq	$104, %rax
	movq	%rax, %rdx
	movq	%rdx, %rcx
	shrq	$3, %rcx
	addq	$2147450880, %rcx
	movzbl	(%rcx), %ecx
	testb	%cl, %cl
	je	.L633
	movq	%rdx, %rdi
	call	__asan_report_load8@PLT
.L633:
	movq	(%rax), %r14
	movq	-216(%rbp), %rax
	movq	(%rax), %rax
	addq	$8, %rax
	movq	%rax, %rdx
	movq	%rdx, %rcx
	shrq	$3, %rcx
	addq	$2147450880, %rcx
	movzbl	(%rcx), %ecx
	testb	%cl, %cl
	je	.L634
	movq	%rdx, %rdi
	call	__asan_report_load8@PLT
.L634:
	movq	(%rax), %rcx
	movq	-224(%rbp), %rdx
	movq	-216(%rbp), %rax
	movq	%rdx, %rsi
	movq	%rax, %rdi
	call	*%rcx
.LVL60:
	movl	%eax, %edx
	movq	-216(%rbp), %rax
	movl	%edx, %esi
	movq	%rax, %rdi
	call	*%r14
.LVL61:
	testb	%al, %al
	je	.L635
	.loc 12 195 21
	movl	$-1, %eax
	jmp	.L636
.L635:
	.loc 12 196 9
	movq	-216(%rbp), %rax
	leaq	24(%rax), %r14
	movq	-224(%rbp), %rcx
	leaq	-112(%r13), %rax
	movl	$0, %edx
	movq	%rcx, %rsi
	movq	%rax, %rdi
	call	_ZN5VNodeIccEC1ERKcP5ENodeIcE
	leaq	-112(%r13), %rax
	movq	%rax, %rsi
	movq	%r14, %rdi
	call	_ZNSt6vectorI5VNodeIccESaIS1_EE9push_backEOS1_
	leaq	-112(%r13), %rax
	shrq	$3, %rax
	addq	$2147450880, %rax
	movl	$-117901064, (%rax)
	movb	$-8, 4(%rax)
	.loc 12 197 9
	movq	-216(%rbp), %rax
	addq	$8, %rax
	movq	%rax, %rdx
	movq	%rdx, %rax
	shrq	$3, %rax
	addq	$2147450880, %rax
	movzbl	(%rax), %eax
	testb	%al, %al
	setne	%cl
	cmpb	$3, %al
	setle	%al
	andl	%ecx, %eax
	testb	%al, %al
	je	.L637
	movq	%rdx, %rdi
	call	__asan_report_load4@PLT
.L637:
	.loc 12 197 9 is_stmt 0 discriminator 2
	movq	-216(%rbp), %rax
	movl	8(%rax), %eax
	leal	1(%rax), %edx
	movq	-216(%rbp), %rax
	movl	%edx, 8(%rax)
	.loc 12 198 16 is_stmt 1 discriminator 2
	movq	-216(%rbp), %rax
	movl	8(%rax), %eax
	.loc 12 198 20 discriminator 2
	subl	$1, %eax
.L636:
	movl	%eax, %edx
	.loc 12 192 17
	cmpq	%rbx, %r15
	je	.L629
	movq	$1172321806, (%rbx)
	movabsq	$-723401728380766731, %rsi
	movabsq	$-723401728380766731, %rdi
	movq	%rsi, 2147450880(%r12)
	movq	%rdi, 2147450888(%r12)
	movq	120(%rbx), %rax
	movb	$0, (%rax)
	jmp	.L630
.L629:
	movq	$0, 2147450880(%r12)
	movq	$0, 2147450888(%r12)
.L630:
	.loc 12 199 5
	movq	-56(%rbp), %rax
	xorq	%fs:40, %rax
	je	.L638
	call	__stack_chk_fail@PLT
.L638:
	movl	%edx, %eax
	addq	$184, %rsp
	popq	%rbx
	popq	%r12
	popq	%r13
	popq	%r14
	popq	%r15
	popq	%rbp
	.cfi_def_cfa 7, 8
	ret
	.cfi_endproc
.LFE4714:
	.size	_ZN7ALGraphIccE6insertERKc, .-_ZN7ALGraphIccE6insertERKc
	.section	.rodata
	.align 8
.LC16:
	.string	"2 48 1 9 <unknown> 64 1 9 <unknown>"
	.align 32
.LC17:
	.string	"insert"
	.zero	57
	.align 32
.LC18:
	.string	"../src/GraphAdjacencyList.h"
	.zero	36
	.align 32
.LC19:
	.string	"\033[1;35m  LOG(%s:%s:%d):\t\033[32merror loc to insert edge from index %d to %d\n"
	.zero	53
	.section	.text._ZN7ALGraphIccE6insertEiiiRKc,"axG",@progbits,_ZN7ALGraphIccE6insertEiiiRKc,comdat
	.align 2
	.weak	_ZN7ALGraphIccE6insertEiiiRKc
	.type	_ZN7ALGraphIccE6insertEiiiRKc, @function
_ZN7ALGraphIccE6insertEiiiRKc:
.LASANPC4715:
.LFB4715:
	.loc 12 234 18
	.cfi_startproc
	endbr64
	pushq	%rbp
	.cfi_def_cfa_offset 16
	.cfi_offset 6, -16
	movq	%rsp, %rbp
	.cfi_def_cfa_register 6
	pushq	%r15
	pushq	%r14
	pushq	%r13
	pushq	%r12
	pushq	%rbx
	subq	$184, %rsp
	.cfi_offset 15, -24
	.cfi_offset 14, -32
	.cfi_offset 13, -40
	.cfi_offset 12, -48
	.cfi_offset 3, -56
	movq	%rdi, -184(%rbp)
	movl	%esi, -188(%rbp)
	movl	%edx, -192(%rbp)
	movl	%ecx, -196(%rbp)
	movq	%r8, -208(%rbp)
	leaq	-176(%rbp), %rbx
	movq	%rbx, -224(%rbp)
	cmpl	$0, __asan_option_detect_stack_use_after_return(%rip)
	je	.L639
	movl	$96, %edi
	call	__asan_stack_malloc_1@PLT
.LVL62:
	testq	%rax, %rax
	je	.L639
	movq	%rax, %rbx
.L639:
	leaq	128(%rbx), %rax
	movq	%rax, %r12
	movq	$1102416563, (%rbx)
	leaq	.LC16(%rip), %rax
	movq	%rax, 8(%rbx)
	leaq	.LASANPC4715(%rip), %rax
	movq	%rax, 16(%rbx)
	movq	%rbx, %r13
	shrq	$3, %r13
	movl	$-235802127, 2147450880(%r13)
	movl	$-234753551, 2147450884(%r13)
	movl	$-202116351, 2147450888(%r13)
	.loc 12 234 18
	movq	%fs:40, %rax
	movq	%rax, -56(%rbp)
	xorl	%eax, %eax
	.loc 12 236 26
	movq	-184(%rbp), %rax
	movq	%rax, %rdx
	shrq	$3, %rdx
	addq	$2147450880, %rdx
	movzbl	(%rdx), %edx
	testb	%dl, %dl
	je	.L643
	movq	%rax, %rdi
	call	__asan_report_load8@PLT
.L643:
	movq	-184(%rbp), %rax
	movq	(%rax), %rax
	addq	$112, %rax
	movq	%rax, %rdx
	movq	%rdx, %rcx
	shrq	$3, %rcx
	addq	$2147450880, %rcx
	movzbl	(%rcx), %ecx
	testb	%cl, %cl
	je	.L644
	movq	%rdx, %rdi
	call	__asan_report_load8@PLT
.L644:
	movq	(%rax), %r8
	movl	-192(%rbp), %edx
	movl	-188(%rbp), %ecx
	movq	-184(%rbp), %rax
	movl	%ecx, %esi
	movq	%rax, %rdi
	call	*%r8
.LVL63:
	.loc 12 236 54
	testb	%al, %al
	jne	.L645
	.loc 12 236 29 discriminator 2
	movq	-184(%rbp), %rax
	movq	%rax, %rdx
	shrq	$3, %rdx
	addq	$2147450880, %rdx
	movzbl	(%rdx), %edx
	testb	%dl, %dl
	je	.L646
	.loc 12 236 29 is_stmt 0
	movq	%rax, %rdi
	call	__asan_report_load8@PLT
.L646:
	.loc 12 236 29 discriminator 2
	movq	-184(%rbp), %rax
	movq	(%rax), %rax
	addq	$104, %rax
	movq	%rax, %rdx
	movq	%rdx, %rcx
	shrq	$3, %rcx
	addq	$2147450880, %rcx
	movzbl	(%rcx), %ecx
	testb	%cl, %cl
	je	.L647
	.loc 12 236 29
	movq	%rdx, %rdi
	call	__asan_report_load8@PLT
.L647:
	.loc 12 236 29 discriminator 2
	movq	(%rax), %rcx
	movl	-188(%rbp), %edx
	movq	-184(%rbp), %rax
	movl	%edx, %esi
	movq	%rax, %rdi
	call	*%rcx
.LVL64:
	xorl	$1, %eax
	.loc 12 236 26 is_stmt 1 discriminator 2
	testb	%al, %al
	jne	.L645
	.loc 12 236 43 discriminator 4
	movq	-184(%rbp), %rax
	movq	%rax, %rdx
	shrq	$3, %rdx
	addq	$2147450880, %rdx
	movzbl	(%rdx), %edx
	testb	%dl, %dl
	je	.L648
	.loc 12 236 43 is_stmt 0
	movq	%rax, %rdi
	call	__asan_report_load8@PLT
.L648:
	.loc 12 236 43 discriminator 4
	movq	-184(%rbp), %rax
	movq	(%rax), %rax
	addq	$104, %rax
	movq	%rax, %rdx
	movq	%rdx, %rcx
	shrq	$3, %rcx
	addq	$2147450880, %rcx
	movzbl	(%rcx), %ecx
	testb	%cl, %cl
	je	.L649
	.loc 12 236 43
	movq	%rdx, %rdi
	call	__asan_report_load8@PLT
.L649:
	.loc 12 236 43 discriminator 4
	movq	(%rax), %rcx
	movl	-192(%rbp), %edx
	movq	-184(%rbp), %rax
	movl	%edx, %esi
	movq	%rax, %rdi
	call	*%rcx
.LVL65:
	xorl	$1, %eax
	.loc 12 236 40 is_stmt 1 discriminator 4
	testb	%al, %al
	jne	.L645
	.loc 12 236 54 discriminator 6
	movl	-188(%rbp), %eax
	cmpl	-192(%rbp), %eax
	jne	.L650
.L645:
	.loc 12 236 54 is_stmt 0 discriminator 7
	movl	$1, %eax
	jmp	.L651
.L650:
	.loc 12 236 54 discriminator 8
	movl	$0, %eax
.L651:
	.loc 12 236 9 is_stmt 1 discriminator 10
	testb	%al, %al
	je	.L652
	.loc 12 238 20
	leaq	stderr(%rip), %rax
	movq	%rax, %rdx
	shrq	$3, %rdx
	addq	$2147450880, %rdx
	movzbl	(%rdx), %edx
	testb	%dl, %dl
	je	.L653
	movq	%rax, %rdi
	call	__asan_report_load8@PLT
.L653:
	movq	stderr(%rip), %rax
	movl	-188(%rbp), %ecx
	subq	$8, %rsp
	movl	-192(%rbp), %edx
	pushq	%rdx
	movl	%ecx, %r9d
	movl	$238, %r8d
	leaq	.LC17(%rip), %rcx
	leaq	.LC18(%rip), %rdx
	leaq	.LC19(%rip), %rsi
	movq	%rax, %rdi
	movl	$0, %eax
	call	fprintf@PLT
	addq	$16, %rsp
	.loc 12 239 13
	jmp	.L642
.L652:
	.loc 12 241 46
	movq	-184(%rbp), %rax
	leaq	24(%rax), %rdx
	movl	-188(%rbp), %eax
	cltq
	movq	%rax, %rsi
	movq	%rdx, %rdi
	call	_ZNSt6vectorI5VNodeIccESaIS1_EEixEm
	.loc 12 241 50
	leaq	32(%rax), %rdx
	movq	%rdx, %rcx
	shrq	$3, %rcx
	addq	$2147450880, %rcx
	movzbl	(%rcx), %ecx
	testb	%cl, %cl
	je	.L655
	movq	%rdx, %rdi
	call	__asan_report_load8@PLT
.L655:
	movq	32(%rax), %r14
	.loc 12 13 80
	leaq	-80(%r12), %rax
	movq	%rax, %rdx
	movq	%rdx, %rax
	shrq	$3, %rax
	addq	$2147450880, %rax
	movzbl	(%rax), %eax
	testb	%al, %al
	setne	%cl
	testb	%al, %al
	setle	%al
	andl	%ecx, %eax
	testb	%al, %al
	je	.L656
	movq	%rdx, %rdi
	call	__asan_report_store1@PLT
.L656:
	movb	$1, -80(%r12)
	leaq	-80(%r12), %rax
	movq	%rax, -216(%rbp)
	.loc 12 241 24
	movl	$32, %edi
	call	_Znwm@PLT
	movq	%rax, %r15
	movl	-196(%rbp), %edx
	movl	-192(%rbp), %eax
	movq	-216(%rbp), %r8
	movl	%edx, %ecx
	movq	%r14, %rdx
	movl	%eax, %esi
	movq	%r15, %rdi
	call	_ZN5ENodeIcEC1EiPS0_iRKc
	.loc 12 241 14
	movq	-184(%rbp), %rax
	leaq	24(%rax), %rdx
	movl	-188(%rbp), %eax
	cltq
	movq	%rax, %rsi
	movq	%rdx, %rdi
	call	_ZNSt6vectorI5VNodeIccESaIS1_EEixEm
	.loc 12 241 9
	leaq	32(%rax), %rdx
	movq	%rdx, %rcx
	shrq	$3, %rcx
	addq	$2147450880, %rcx
	movzbl	(%rcx), %ecx
	testb	%cl, %cl
	je	.L657
	movq	%rdx, %rdi
	call	__asan_report_store8@PLT
.L657:
	.loc 12 241 9 is_stmt 0 discriminator 1
	movq	%r15, 32(%rax)
	.loc 12 13 80 is_stmt 1 discriminator 1
	leaq	-80(%r12), %rax
	shrq	$3, %rax
	addq	$2147450880, %rax
	movb	$-8, (%rax)
	.loc 12 242 14 discriminator 1
	movq	-184(%rbp), %rax
	leaq	24(%rax), %rdx
	movl	-188(%rbp), %eax
	cltq
	movq	%rax, %rsi
	movq	%rdx, %rdi
	call	_ZNSt6vectorI5VNodeIccESaIS1_EEixEm
	.loc 12 242 25 discriminator 1
	leaq	8(%rax), %rdx
	movq	%rdx, %rcx
	movq	%rcx, %rdx
	shrq	$3, %rdx
	addq	$2147450880, %rdx
	movzbl	(%rdx), %edx
	testb	%dl, %dl
	setne	%sil
	cmpb	$3, %dl
	setle	%dl
	andl	%esi, %edx
	testb	%dl, %dl
	je	.L658
	.loc 12 242 25 is_stmt 0
	movq	%rcx, %rdi
	call	__asan_report_load4@PLT
.L658:
	.loc 12 242 25 discriminator 1
	movl	8(%rax), %edx
	.loc 12 242 9 is_stmt 1 discriminator 1
	addl	$1, %edx
	movl	%edx, 8(%rax)
	.loc 12 243 14 discriminator 1
	movq	-184(%rbp), %rax
	leaq	24(%rax), %rdx
	movl	-192(%rbp), %eax
	cltq
	movq	%rax, %rsi
	movq	%rdx, %rdi
	call	_ZNSt6vectorI5VNodeIccESaIS1_EEixEm
	.loc 12 243 25 discriminator 1
	leaq	4(%rax), %rdx
	movq	%rdx, %rcx
	shrq	$3, %rcx
	addq	$2147450880, %rcx
	movzbl	(%rcx), %ecx
	testb	%cl, %cl
	setne	%sil
	movq	%rdx, %rdi
	andl	$7, %edi
	addl	$3, %edi
	cmpb	%cl, %dil
	setge	%cl
	andl	%esi, %ecx
	testb	%cl, %cl
	je	.L659
	.loc 12 243 25 is_stmt 0
	movq	%rdx, %rdi
	call	__asan_report_load4@PLT
.L659:
	.loc 12 243 25 discriminator 1
	movl	4(%rax), %edx
	.loc 12 243 9 is_stmt 1 discriminator 1
	addl	$1, %edx
	movl	%edx, 4(%rax)
	.loc 12 244 9 discriminator 1
	movq	-184(%rbp), %rax
	addq	$12, %rax
	movq	%rax, %rdx
	shrq	$3, %rdx
	addq	$2147450880, %rdx
	movzbl	(%rdx), %edx
	testb	%dl, %dl
	setne	%cl
	movq	%rax, %rsi
	andl	$7, %esi
	addl	$3, %esi
	cmpb	%dl, %sil
	setge	%dl
	andl	%ecx, %edx
	testb	%dl, %dl
	je	.L660
	.loc 12 244 9 is_stmt 0
	movq	%rax, %rdi
	call	__asan_report_load4@PLT
.L660:
	.loc 12 244 9 discriminator 1
	movq	-184(%rbp), %rax
	movl	12(%rax), %eax
	leal	1(%rax), %edx
	movq	-184(%rbp), %rax
	movl	%edx, 12(%rax)
	.loc 12 245 13 is_stmt 1 discriminator 1
	movq	-184(%rbp), %rax
	addq	$16, %rax
	movq	%rax, %rdx
	movq	%rdx, %rax
	shrq	$3, %rax
	addq	$2147450880, %rax
	movzbl	(%rax), %eax
	testb	%al, %al
	setne	%cl
	cmpb	$3, %al
	setle	%al
	andl	%ecx, %eax
	testb	%al, %al
	je	.L661
	.loc 12 245 13 is_stmt 0
	movq	%rdx, %rdi
	call	__asan_report_load4@PLT
.L661:
	.loc 12 245 13 discriminator 1
	movq	-184(%rbp), %rax
	movl	16(%rax), %eax
	.loc 12 245 9 is_stmt 1 discriminator 1
	testl	%eax, %eax
	jne	.L642
	.loc 12 246 50
	movq	-184(%rbp), %rax
	leaq	24(%rax), %rdx
	movl	-192(%rbp), %eax
	cltq
	movq	%rax, %rsi
	movq	%rdx, %rdi
	call	_ZNSt6vectorI5VNodeIccESaIS1_EEixEm
	.loc 12 246 54
	leaq	32(%rax), %rdx
	movq	%rdx, %rcx
	shrq	$3, %rcx
	addq	$2147450880, %rcx
	movzbl	(%rcx), %ecx
	testb	%cl, %cl
	je	.L662
	movq	%rdx, %rdi
	call	__asan_report_load8@PLT
.L662:
	movq	32(%rax), %r14
	.loc 12 13 80
	leaq	-64(%r12), %rax
	shrq	$3, %rax
	addq	$2147450880, %rax
	movb	$1, (%rax)
	leaq	-64(%r12), %rax
	movq	%rax, %rdx
	movq	%rdx, %rax
	shrq	$3, %rax
	addq	$2147450880, %rax
	movzbl	(%rax), %eax
	testb	%al, %al
	setne	%cl
	testb	%al, %al
	setle	%al
	andl	%ecx, %eax
	testb	%al, %al
	je	.L663
	movq	%rdx, %rdi
	call	__asan_report_store1@PLT
.L663:
	movb	$1, -64(%r12)
	leaq	-64(%r12), %r15
	.loc 12 246 28
	movl	$32, %edi
	call	_Znwm@PLT
	movq	%rax, %r12
	movl	-196(%rbp), %edx
	movl	-188(%rbp), %eax
	movq	%r15, %r8
	movl	%edx, %ecx
	movq	%r14, %rdx
	movl	%eax, %esi
	movq	%r12, %rdi
	call	_ZN5ENodeIcEC1EiPS0_iRKc
	.loc 12 246 18
	movq	-184(%rbp), %rax
	leaq	24(%rax), %rdx
	movl	-192(%rbp), %eax
	cltq
	movq	%rax, %rsi
	movq	%rdx, %rdi
	call	_ZNSt6vectorI5VNodeIccESaIS1_EEixEm
	.loc 12 246 13
	leaq	32(%rax), %rdx
	movq	%rdx, %rcx
	shrq	$3, %rcx
	addq	$2147450880, %rcx
	movzbl	(%rcx), %ecx
	testb	%cl, %cl
	je	.L664
	movq	%rdx, %rdi
	call	__asan_report_store8@PLT
.L664:
	.loc 12 246 13 is_stmt 0 discriminator 1
	movq	%r12, 32(%rax)
.L642:
	.loc 12 234 18 is_stmt 1
	cmpq	%rbx, -224(%rbp)
	je	.L640
	movq	$1172321806, (%rbx)
	movabsq	$-723401728380766731, %rax
	movq	%rax, 2147450880(%r13)
	movl	$-168430091, 2147450888(%r13)
	movq	120(%rbx), %rax
	movb	$0, (%rax)
	jmp	.L641
.L640:
	movq	$0, 2147450880(%r13)
	movl	$0, 2147450888(%r13)
.L641:
	.loc 12 247 5
	movq	-56(%rbp), %rax
	xorq	%fs:40, %rax
	je	.L665
	call	__stack_chk_fail@PLT
.L665:
	leaq	-40(%rbp), %rsp
	popq	%rbx
	popq	%r12
	popq	%r13
	popq	%r14
	popq	%r15
	popq	%rbp
	.cfi_def_cfa 7, 8
	ret
	.cfi_endproc
.LFE4715:
	.size	_ZN7ALGraphIccE6insertEiiiRKc, .-_ZN7ALGraphIccE6insertEiiiRKc
	.section	.rodata
.LC20:
	.string	"1 32 4 4 v:28"
	.section	.text._ZN5GraphIccE3SCCEiRiRSt5stackIiSt5dequeIiSaIiEEE,"axG",@progbits,_ZN5GraphIccE3SCCEiRiRSt5stackIiSt5dequeIiSaIiEEE,comdat
	.align 2
	.weak	_ZN5GraphIccE3SCCEiRiRSt5stackIiSt5dequeIiSaIiEEE
	.type	_ZN5GraphIccE3SCCEiRiRSt5stackIiSt5dequeIiSaIiEEE, @function
_ZN5GraphIccE3SCCEiRiRSt5stackIiSt5dequeIiSaIiEEE:
.LASANPC4718:
.LFB4718:
	.loc 16 28 6
	.cfi_startproc
	endbr64
	pushq	%rbp
	.cfi_def_cfa_offset 16
	.cfi_offset 6, -16
	movq	%rsp, %rbp
	.cfi_def_cfa_register 6
	pushq	%r15
	pushq	%r14
	pushq	%r13
	pushq	%r12
	pushq	%rbx
	subq	$152, %rsp
	.cfi_offset 15, -24
	.cfi_offset 14, -32
	.cfi_offset 13, -40
	.cfi_offset 12, -48
	.cfi_offset 3, -56
	movq	%rdi, -168(%rbp)
	movl	%esi, -172(%rbp)
	movq	%rdx, -184(%rbp)
	movq	%rcx, -192(%rbp)
	leaq	-144(%rbp), %r12
	movq	%r12, %r15
	cmpl	$0, __asan_option_detect_stack_use_after_return(%rip)
	je	.L666
	movl	$64, %edi
	call	__asan_stack_malloc_0@PLT
.LVL66:
	testq	%rax, %rax
	je	.L666
	movq	%rax, %r12
.L666:
	leaq	96(%r12), %rax
	movq	%rax, %rbx
	movq	$1102416563, (%r12)
	leaq	.LC20(%rip), %rax
	movq	%rax, 8(%r12)
	leaq	.LASANPC4718(%rip), %rax
	movq	%rax, 16(%r12)
	movq	%r12, %r13
	shrq	$3, %r13
	movl	$-235802127, 2147450880(%r13)
	movl	$-202116348, 2147450884(%r13)
	.loc 16 28 6
	movq	%fs:40, %rax
	movq	%rax, -56(%rbp)
	xorl	%eax, %eax
	.loc 16 28 29
	movl	-172(%rbp), %eax
	movl	%eax, -64(%rbx)
	.loc 16 30 5
	movq	-184(%rbp), %rax
	movq	%rax, %rdx
	shrq	$3, %rdx
	addq	$2147450880, %rdx
	movzbl	(%rdx), %edx
	testb	%dl, %dl
	setne	%cl
	movq	%rax, %rsi
	andl	$7, %esi
	addl	$3, %esi
	cmpb	%dl, %sil
	setge	%dl
	andl	%ecx, %edx
	testb	%dl, %dl
	je	.L670
