	.file	"main2.cpp"
	.text
	.section	.text._ZNKSt5ctypeIcE8do_widenEc,"axG",@progbits,_ZNKSt5ctypeIcE8do_widenEc,comdat
	.align 2
	.p2align 4
	.weak	_ZNKSt5ctypeIcE8do_widenEc
	.type	_ZNKSt5ctypeIcE8do_widenEc, @function
_ZNKSt5ctypeIcE8do_widenEc:
.LFB1662:
	.cfi_startproc
	endbr64
	movl	%esi, %eax
	ret
	.cfi_endproc
.LFE1662:
	.size	_ZNKSt5ctypeIcE8do_widenEc, .-_ZNKSt5ctypeIcE8do_widenEc
	.section	.text._ZNSt23_Sp_counted_ptr_inplaceISt6vectorIiSaIiEESaIS2_ELN9__gnu_cxx12_Lock_policyE2EED2Ev,"axG",@progbits,_ZNSt23_Sp_counted_ptr_inplaceISt6vectorIiSaIiEESaIS2_ELN9__gnu_cxx12_Lock_policyE2EED5Ev,comdat
	.align 2
	.p2align 4
	.weak	_ZNSt23_Sp_counted_ptr_inplaceISt6vectorIiSaIiEESaIS2_ELN9__gnu_cxx12_Lock_policyE2EED2Ev
	.type	_ZNSt23_Sp_counted_ptr_inplaceISt6vectorIiSaIiEESaIS2_ELN9__gnu_cxx12_Lock_policyE2EED2Ev, @function
_ZNSt23_Sp_counted_ptr_inplaceISt6vectorIiSaIiEESaIS2_ELN9__gnu_cxx12_Lock_policyE2EED2Ev:
.LFB4200:
	.cfi_startproc
	endbr64
	ret
	.cfi_endproc
.LFE4200:
	.size	_ZNSt23_Sp_counted_ptr_inplaceISt6vectorIiSaIiEESaIS2_ELN9__gnu_cxx12_Lock_policyE2EED2Ev, .-_ZNSt23_Sp_counted_ptr_inplaceISt6vectorIiSaIiEESaIS2_ELN9__gnu_cxx12_Lock_policyE2EED2Ev
	.weak	_ZNSt23_Sp_counted_ptr_inplaceISt6vectorIiSaIiEESaIS2_ELN9__gnu_cxx12_Lock_policyE2EED1Ev
	.set	_ZNSt23_Sp_counted_ptr_inplaceISt6vectorIiSaIiEESaIS2_ELN9__gnu_cxx12_Lock_policyE2EED1Ev,_ZNSt23_Sp_counted_ptr_inplaceISt6vectorIiSaIiEESaIS2_ELN9__gnu_cxx12_Lock_policyE2EED2Ev
	.section	.text._ZNSt23_Sp_counted_ptr_inplaceISt6vectorINSt7__cxx1112basic_stringIcSt11char_traitsIcESaIcEEESaIS6_EESaIS8_ELN9__gnu_cxx12_Lock_policyE2EED2Ev,"axG",@progbits,_ZNSt23_Sp_counted_ptr_inplaceISt6vectorINSt7__cxx1112basic_stringIcSt11char_traitsIcESaIcEEESaIS6_EESaIS8_ELN9__gnu_cxx12_Lock_policyE2EED5Ev,comdat
	.align 2
	.p2align 4
	.weak	_ZNSt23_Sp_counted_ptr_inplaceISt6vectorINSt7__cxx1112basic_stringIcSt11char_traitsIcESaIcEEESaIS6_EESaIS8_ELN9__gnu_cxx12_Lock_policyE2EED2Ev
	.type	_ZNSt23_Sp_counted_ptr_inplaceISt6vectorINSt7__cxx1112basic_stringIcSt11char_traitsIcESaIcEEESaIS6_EESaIS8_ELN9__gnu_cxx12_Lock_policyE2EED2Ev, @function
_ZNSt23_Sp_counted_ptr_inplaceISt6vectorINSt7__cxx1112basic_stringIcSt11char_traitsIcESaIcEEESaIS6_EESaIS8_ELN9__gnu_cxx12_Lock_policyE2EED2Ev:
.LFB4207:
	.cfi_startproc
	endbr64
	ret
	.cfi_endproc
.LFE4207:
	.size	_ZNSt23_Sp_counted_ptr_inplaceISt6vectorINSt7__cxx1112basic_stringIcSt11char_traitsIcESaIcEEESaIS6_EESaIS8_ELN9__gnu_cxx12_Lock_policyE2EED2Ev, .-_ZNSt23_Sp_counted_ptr_inplaceISt6vectorINSt7__cxx1112basic_stringIcSt11char_traitsIcESaIcEEESaIS6_EESaIS8_ELN9__gnu_cxx12_Lock_policyE2EED2Ev
	.weak	_ZNSt23_Sp_counted_ptr_inplaceISt6vectorINSt7__cxx1112basic_stringIcSt11char_traitsIcESaIcEEESaIS6_EESaIS8_ELN9__gnu_cxx12_Lock_policyE2EED1Ev
	.set	_ZNSt23_Sp_counted_ptr_inplaceISt6vectorINSt7__cxx1112basic_stringIcSt11char_traitsIcESaIcEEESaIS6_EESaIS8_ELN9__gnu_cxx12_Lock_policyE2EED1Ev,_ZNSt23_Sp_counted_ptr_inplaceISt6vectorINSt7__cxx1112basic_stringIcSt11char_traitsIcESaIcEEESaIS6_EESaIS8_ELN9__gnu_cxx12_Lock_policyE2EED2Ev
	.section	.text._ZNSt23_Sp_counted_ptr_inplaceISt6vectorINSt7__cxx1112basic_stringIcSt11char_traitsIcESaIcEEESaIS6_EESaIS8_ELN9__gnu_cxx12_Lock_policyE2EED0Ev,"axG",@progbits,_ZNSt23_Sp_counted_ptr_inplaceISt6vectorINSt7__cxx1112basic_stringIcSt11char_traitsIcESaIcEEESaIS6_EESaIS8_ELN9__gnu_cxx12_Lock_policyE2EED5Ev,comdat
	.align 2
	.p2align 4
	.weak	_ZNSt23_Sp_counted_ptr_inplaceISt6vectorINSt7__cxx1112basic_stringIcSt11char_traitsIcESaIcEEESaIS6_EESaIS8_ELN9__gnu_cxx12_Lock_policyE2EED0Ev
	.type	_ZNSt23_Sp_counted_ptr_inplaceISt6vectorINSt7__cxx1112basic_stringIcSt11char_traitsIcESaIcEEESaIS6_EESaIS8_ELN9__gnu_cxx12_Lock_policyE2EED0Ev, @function
_ZNSt23_Sp_counted_ptr_inplaceISt6vectorINSt7__cxx1112basic_stringIcSt11char_traitsIcESaIcEEESaIS6_EESaIS8_ELN9__gnu_cxx12_Lock_policyE2EED0Ev:
.LFB4209:
	.cfi_startproc
	endbr64
	movl	$40, %esi
	jmp	_ZdlPvm@PLT
	.cfi_endproc
.LFE4209:
	.size	_ZNSt23_Sp_counted_ptr_inplaceISt6vectorINSt7__cxx1112basic_stringIcSt11char_traitsIcESaIcEEESaIS6_EESaIS8_ELN9__gnu_cxx12_Lock_policyE2EED0Ev, .-_ZNSt23_Sp_counted_ptr_inplaceISt6vectorINSt7__cxx1112basic_stringIcSt11char_traitsIcESaIcEEESaIS6_EESaIS8_ELN9__gnu_cxx12_Lock_policyE2EED0Ev
	.section	.text._ZNSt23_Sp_counted_ptr_inplaceISt6vectorIiSaIiEESaIS2_ELN9__gnu_cxx12_Lock_policyE2EED0Ev,"axG",@progbits,_ZNSt23_Sp_counted_ptr_inplaceISt6vectorIiSaIiEESaIS2_ELN9__gnu_cxx12_Lock_policyE2EED5Ev,comdat
	.align 2
	.p2align 4
	.weak	_ZNSt23_Sp_counted_ptr_inplaceISt6vectorIiSaIiEESaIS2_ELN9__gnu_cxx12_Lock_policyE2EED0Ev
	.type	_ZNSt23_Sp_counted_ptr_inplaceISt6vectorIiSaIiEESaIS2_ELN9__gnu_cxx12_Lock_policyE2EED0Ev, @function
_ZNSt23_Sp_counted_ptr_inplaceISt6vectorIiSaIiEESaIS2_ELN9__gnu_cxx12_Lock_policyE2EED0Ev:
.LFB4202:
	.cfi_startproc
	endbr64
	movl	$40, %esi
	jmp	_ZdlPvm@PLT
	.cfi_endproc
.LFE4202:
	.size	_ZNSt23_Sp_counted_ptr_inplaceISt6vectorIiSaIiEESaIS2_ELN9__gnu_cxx12_Lock_policyE2EED0Ev, .-_ZNSt23_Sp_counted_ptr_inplaceISt6vectorIiSaIiEESaIS2_ELN9__gnu_cxx12_Lock_policyE2EED0Ev
	.section	.text._ZNSt23_Sp_counted_ptr_inplaceISt6vectorIiSaIiEESaIS2_ELN9__gnu_cxx12_Lock_policyE2EE10_M_destroyEv,"axG",@progbits,_ZNSt23_Sp_counted_ptr_inplaceISt6vectorIiSaIiEESaIS2_ELN9__gnu_cxx12_Lock_policyE2EE10_M_destroyEv,comdat
	.align 2
	.p2align 4
	.weak	_ZNSt23_Sp_counted_ptr_inplaceISt6vectorIiSaIiEESaIS2_ELN9__gnu_cxx12_Lock_policyE2EE10_M_destroyEv
	.type	_ZNSt23_Sp_counted_ptr_inplaceISt6vectorIiSaIiEESaIS2_ELN9__gnu_cxx12_Lock_policyE2EE10_M_destroyEv, @function
_ZNSt23_Sp_counted_ptr_inplaceISt6vectorIiSaIiEESaIS2_ELN9__gnu_cxx12_Lock_policyE2EE10_M_destroyEv:
.LFB4204:
	.cfi_startproc
	endbr64
	jmp	_ZdlPv@PLT
	.cfi_endproc
.LFE4204:
	.size	_ZNSt23_Sp_counted_ptr_inplaceISt6vectorIiSaIiEESaIS2_ELN9__gnu_cxx12_Lock_policyE2EE10_M_destroyEv, .-_ZNSt23_Sp_counted_ptr_inplaceISt6vectorIiSaIiEESaIS2_ELN9__gnu_cxx12_Lock_policyE2EE10_M_destroyEv
	.section	.text._ZNSt23_Sp_counted_ptr_inplaceISt6vectorIiSaIiEESaIS2_ELN9__gnu_cxx12_Lock_policyE2EE10_M_disposeEv,"axG",@progbits,_ZNSt23_Sp_counted_ptr_inplaceISt6vectorIiSaIiEESaIS2_ELN9__gnu_cxx12_Lock_policyE2EE10_M_disposeEv,comdat
	.align 2
	.p2align 4
	.weak	_ZNSt23_Sp_counted_ptr_inplaceISt6vectorIiSaIiEESaIS2_ELN9__gnu_cxx12_Lock_policyE2EE10_M_disposeEv
	.type	_ZNSt23_Sp_counted_ptr_inplaceISt6vectorIiSaIiEESaIS2_ELN9__gnu_cxx12_Lock_policyE2EE10_M_disposeEv, @function
_ZNSt23_Sp_counted_ptr_inplaceISt6vectorIiSaIiEESaIS2_ELN9__gnu_cxx12_Lock_policyE2EE10_M_disposeEv:
.LFB4203:
	.cfi_startproc
	endbr64
	movq	16(%rdi), %rdi
	testq	%rdi, %rdi
	je	.L8
	jmp	_ZdlPv@PLT
	.p2align 4,,10
	.p2align 3
.L8:
	ret
	.cfi_endproc
.LFE4203:
	.size	_ZNSt23_Sp_counted_ptr_inplaceISt6vectorIiSaIiEESaIS2_ELN9__gnu_cxx12_Lock_policyE2EE10_M_disposeEv, .-_ZNSt23_Sp_counted_ptr_inplaceISt6vectorIiSaIiEESaIS2_ELN9__gnu_cxx12_Lock_policyE2EE10_M_disposeEv
	.section	.text._ZNSt23_Sp_counted_ptr_inplaceISt6vectorINSt7__cxx1112basic_stringIcSt11char_traitsIcESaIcEEESaIS6_EESaIS8_ELN9__gnu_cxx12_Lock_policyE2EE10_M_destroyEv,"axG",@progbits,_ZNSt23_Sp_counted_ptr_inplaceISt6vectorINSt7__cxx1112basic_stringIcSt11char_traitsIcESaIcEEESaIS6_EESaIS8_ELN9__gnu_cxx12_Lock_policyE2EE10_M_destroyEv,comdat
	.align 2
	.p2align 4
	.weak	_ZNSt23_Sp_counted_ptr_inplaceISt6vectorINSt7__cxx1112basic_stringIcSt11char_traitsIcESaIcEEESaIS6_EESaIS8_ELN9__gnu_cxx12_Lock_policyE2EE10_M_destroyEv
	.type	_ZNSt23_Sp_counted_ptr_inplaceISt6vectorINSt7__cxx1112basic_stringIcSt11char_traitsIcESaIcEEESaIS6_EESaIS8_ELN9__gnu_cxx12_Lock_policyE2EE10_M_destroyEv, @function
_ZNSt23_Sp_counted_ptr_inplaceISt6vectorINSt7__cxx1112basic_stringIcSt11char_traitsIcESaIcEEESaIS6_EESaIS8_ELN9__gnu_cxx12_Lock_policyE2EE10_M_destroyEv:
.LFB4211:
	.cfi_startproc
	endbr64
	jmp	_ZdlPv@PLT
	.cfi_endproc
.LFE4211:
	.size	_ZNSt23_Sp_counted_ptr_inplaceISt6vectorINSt7__cxx1112basic_stringIcSt11char_traitsIcESaIcEEESaIS6_EESaIS8_ELN9__gnu_cxx12_Lock_policyE2EE10_M_destroyEv, .-_ZNSt23_Sp_counted_ptr_inplaceISt6vectorINSt7__cxx1112basic_stringIcSt11char_traitsIcESaIcEEESaIS6_EESaIS8_ELN9__gnu_cxx12_Lock_policyE2EE10_M_destroyEv
	.section	.text._ZNSt23_Sp_counted_ptr_inplaceISt6vectorINSt7__cxx1112basic_stringIcSt11char_traitsIcESaIcEEESaIS6_EESaIS8_ELN9__gnu_cxx12_Lock_policyE2EE10_M_disposeEv,"axG",@progbits,_ZNSt23_Sp_counted_ptr_inplaceISt6vectorINSt7__cxx1112basic_stringIcSt11char_traitsIcESaIcEEESaIS6_EESaIS8_ELN9__gnu_cxx12_Lock_policyE2EE10_M_disposeEv,comdat
	.align 2
	.p2align 4
	.weak	_ZNSt23_Sp_counted_ptr_inplaceISt6vectorINSt7__cxx1112basic_stringIcSt11char_traitsIcESaIcEEESaIS6_EESaIS8_ELN9__gnu_cxx12_Lock_policyE2EE10_M_disposeEv
	.type	_ZNSt23_Sp_counted_ptr_inplaceISt6vectorINSt7__cxx1112basic_stringIcSt11char_traitsIcESaIcEEESaIS6_EESaIS8_ELN9__gnu_cxx12_Lock_policyE2EE10_M_disposeEv, @function
_ZNSt23_Sp_counted_ptr_inplaceISt6vectorINSt7__cxx1112basic_stringIcSt11char_traitsIcESaIcEEESaIS6_EESaIS8_ELN9__gnu_cxx12_Lock_policyE2EE10_M_disposeEv:
.LFB4210:
	.cfi_startproc
	endbr64
	pushq	%r12
	.cfi_def_cfa_offset 16
	.cfi_offset 12, -16
	pushq	%rbp
	.cfi_def_cfa_offset 24
	.cfi_offset 6, -24
	pushq	%rbx
	.cfi_def_cfa_offset 32
	.cfi_offset 3, -32
	movq	24(%rdi), %r12
	movq	%rdi, %rbx
	movq	16(%rdi), %rbp
	cmpq	%rbp, %r12
	je	.L12
	.p2align 4,,10
	.p2align 3
.L16:
	movq	0(%rbp), %rdi
	leaq	16(%rbp), %rax
	cmpq	%rax, %rdi
	je	.L13
	call	_ZdlPv@PLT
	addq	$32, %rbp
	cmpq	%rbp, %r12
	jne	.L16
.L14:
	movq	16(%rbx), %rbp
.L12:
	testq	%rbp, %rbp
	je	.L11
	popq	%rbx
	.cfi_remember_state
	.cfi_def_cfa_offset 24
	movq	%rbp, %rdi
	popq	%rbp
	.cfi_def_cfa_offset 16
	popq	%r12
	.cfi_def_cfa_offset 8
	jmp	_ZdlPv@PLT
	.p2align 4,,10
	.p2align 3
.L13:
	.cfi_restore_state
	addq	$32, %rbp
	cmpq	%rbp, %r12
	jne	.L16
	jmp	.L14
	.p2align 4,,10
	.p2align 3
.L11:
	popq	%rbx
	.cfi_def_cfa_offset 24
	popq	%rbp
	.cfi_def_cfa_offset 16
	popq	%r12
	.cfi_def_cfa_offset 8
	ret
	.cfi_endproc
.LFE4210:
	.size	_ZNSt23_Sp_counted_ptr_inplaceISt6vectorINSt7__cxx1112basic_stringIcSt11char_traitsIcESaIcEEESaIS6_EESaIS8_ELN9__gnu_cxx12_Lock_policyE2EE10_M_disposeEv, .-_ZNSt23_Sp_counted_ptr_inplaceISt6vectorINSt7__cxx1112basic_stringIcSt11char_traitsIcESaIcEEESaIS6_EESaIS8_ELN9__gnu_cxx12_Lock_policyE2EE10_M_disposeEv
	.section	.text._ZNSt23_Sp_counted_ptr_inplaceISt6vectorINSt7__cxx1112basic_stringIcSt11char_traitsIcESaIcEEESaIS6_EESaIS8_ELN9__gnu_cxx12_Lock_policyE2EE14_M_get_deleterERKSt9type_info,"axG",@progbits,_ZNSt23_Sp_counted_ptr_inplaceISt6vectorINSt7__cxx1112basic_stringIcSt11char_traitsIcESaIcEEESaIS6_EESaIS8_ELN9__gnu_cxx12_Lock_policyE2EE14_M_get_deleterERKSt9type_info,comdat
	.align 2
	.p2align 4
	.weak	_ZNSt23_Sp_counted_ptr_inplaceISt6vectorINSt7__cxx1112basic_stringIcSt11char_traitsIcESaIcEEESaIS6_EESaIS8_ELN9__gnu_cxx12_Lock_policyE2EE14_M_get_deleterERKSt9type_info
	.type	_ZNSt23_Sp_counted_ptr_inplaceISt6vectorINSt7__cxx1112basic_stringIcSt11char_traitsIcESaIcEEESaIS6_EESaIS8_ELN9__gnu_cxx12_Lock_policyE2EE14_M_get_deleterERKSt9type_info, @function
_ZNSt23_Sp_counted_ptr_inplaceISt6vectorINSt7__cxx1112basic_stringIcSt11char_traitsIcESaIcEEESaIS6_EESaIS8_ELN9__gnu_cxx12_Lock_policyE2EE14_M_get_deleterERKSt9type_info:
.LFB4212:
	.cfi_startproc
	endbr64
	pushq	%r12
	.cfi_def_cfa_offset 16
	.cfi_offset 12, -16
	leaq	_ZZNSt19_Sp_make_shared_tag5_S_tiEvE5__tag(%rip), %rax
	pushq	%rbx
	.cfi_def_cfa_offset 24
	.cfi_offset 3, -24
	movq	%rdi, %rbx
	subq	$8, %rsp
	.cfi_def_cfa_offset 32
	cmpq	%rax, %rsi
	je	.L20
	movq	8(%rsi), %rdi
	leaq	_ZTSSt19_Sp_make_shared_tag(%rip), %rsi
	cmpq	%rsi, %rdi
	je	.L20
	xorl	%r12d, %r12d
	cmpb	$42, (%rdi)
	je	.L19
	call	strcmp@PLT
	testl	%eax, %eax
	jne	.L19
.L20:
	leaq	16(%rbx), %r12
.L19:
	addq	$8, %rsp
	.cfi_def_cfa_offset 24
	movq	%r12, %rax
	popq	%rbx
	.cfi_def_cfa_offset 16
	popq	%r12
	.cfi_def_cfa_offset 8
	ret
	.cfi_endproc
.LFE4212:
	.size	_ZNSt23_Sp_counted_ptr_inplaceISt6vectorINSt7__cxx1112basic_stringIcSt11char_traitsIcESaIcEEESaIS6_EESaIS8_ELN9__gnu_cxx12_Lock_policyE2EE14_M_get_deleterERKSt9type_info, .-_ZNSt23_Sp_counted_ptr_inplaceISt6vectorINSt7__cxx1112basic_stringIcSt11char_traitsIcESaIcEEESaIS6_EESaIS8_ELN9__gnu_cxx12_Lock_policyE2EE14_M_get_deleterERKSt9type_info
	.section	.text._ZNSt23_Sp_counted_ptr_inplaceISt6vectorIiSaIiEESaIS2_ELN9__gnu_cxx12_Lock_policyE2EE14_M_get_deleterERKSt9type_info,"axG",@progbits,_ZNSt23_Sp_counted_ptr_inplaceISt6vectorIiSaIiEESaIS2_ELN9__gnu_cxx12_Lock_policyE2EE14_M_get_deleterERKSt9type_info,comdat
	.align 2
	.p2align 4
	.weak	_ZNSt23_Sp_counted_ptr_inplaceISt6vectorIiSaIiEESaIS2_ELN9__gnu_cxx12_Lock_policyE2EE14_M_get_deleterERKSt9type_info
	.type	_ZNSt23_Sp_counted_ptr_inplaceISt6vectorIiSaIiEESaIS2_ELN9__gnu_cxx12_Lock_policyE2EE14_M_get_deleterERKSt9type_info, @function
_ZNSt23_Sp_counted_ptr_inplaceISt6vectorIiSaIiEESaIS2_ELN9__gnu_cxx12_Lock_policyE2EE14_M_get_deleterERKSt9type_info:
.LFB4205:
	.cfi_startproc
	endbr64
	pushq	%r12
	.cfi_def_cfa_offset 16
	.cfi_offset 12, -16
	leaq	_ZZNSt19_Sp_make_shared_tag5_S_tiEvE5__tag(%rip), %rax
	pushq	%rbx
	.cfi_def_cfa_offset 24
	.cfi_offset 3, -24
	movq	%rdi, %rbx
	subq	$8, %rsp
	.cfi_def_cfa_offset 32
	cmpq	%rax, %rsi
	je	.L26
	movq	8(%rsi), %rdi
	leaq	_ZTSSt19_Sp_make_shared_tag(%rip), %rsi
	cmpq	%rsi, %rdi
	je	.L26
	xorl	%r12d, %r12d
	cmpb	$42, (%rdi)
	je	.L25
	call	strcmp@PLT
	testl	%eax, %eax
	jne	.L25
.L26:
	leaq	16(%rbx), %r12
.L25:
	addq	$8, %rsp
	.cfi_def_cfa_offset 24
	movq	%r12, %rax
	popq	%rbx
	.cfi_def_cfa_offset 16
	popq	%r12
	.cfi_def_cfa_offset 8
	ret
	.cfi_endproc
.LFE4205:
	.size	_ZNSt23_Sp_counted_ptr_inplaceISt6vectorIiSaIiEESaIS2_ELN9__gnu_cxx12_Lock_policyE2EE14_M_get_deleterERKSt9type_info, .-_ZNSt23_Sp_counted_ptr_inplaceISt6vectorIiSaIiEESaIS2_ELN9__gnu_cxx12_Lock_policyE2EE14_M_get_deleterERKSt9type_info
	.section	.text.unlikely,"ax",@progbits
	.align 2
	.type	_ZN4BlobINSt7__cxx1112basic_stringIcSt11char_traitsIcESaIcEEEE20handle_out_of_memoryERKSt9exception.isra.0, @function
_ZN4BlobINSt7__cxx1112basic_stringIcSt11char_traitsIcESaIcEEEE20handle_out_of_memoryERKSt9exception.isra.0:
.LFB4248:
	.cfi_startproc
	pushq	%rax
	.cfi_def_cfa_offset 16
	movq	(%rdi), %rax
	call	*16(%rax)
	leaq	_ZSt4cerr(%rip), %rdi
	movq	%rax, %rsi
	call	_ZStlsISt11char_traitsIcEERSt13basic_ostreamIcT_ES5_PKc@PLT
	popq	%rdx
	.cfi_def_cfa_offset 8
	movq	%rax, %rdi
	jmp	_ZSt4endlIcSt11char_traitsIcEERSt13basic_ostreamIT_T0_ES6_@PLT
	.cfi_endproc
.LFE4248:
	.size	_ZN4BlobINSt7__cxx1112basic_stringIcSt11char_traitsIcESaIcEEEE20handle_out_of_memoryERKSt9exception.isra.0, .-_ZN4BlobINSt7__cxx1112basic_stringIcSt11char_traitsIcESaIcEEEE20handle_out_of_memoryERKSt9exception.isra.0
	.set	_ZN4BlobIiE20handle_out_of_memoryERKSt9exception.isra.0,_ZN4BlobINSt7__cxx1112basic_stringIcSt11char_traitsIcESaIcEEEE20handle_out_of_memoryERKSt9exception.isra.0
	.section	.rodata.str1.8,"aMS",@progbits,1
	.align 8
.LC0:
	.string	"basic_string::_M_construct null not valid"
	.text
	.align 2
	.p2align 4
	.type	_ZNSt7__cxx1112basic_stringIcSt11char_traitsIcESaIcEEC2IS3_EEPKcRKS3_.constprop.0, @function
_ZNSt7__cxx1112basic_stringIcSt11char_traitsIcESaIcEEC2IS3_EEPKcRKS3_.constprop.0:
.LFB4349:
	.cfi_startproc
	pushq	%r13
	.cfi_def_cfa_offset 16
	.cfi_offset 13, -16
	leaq	16(%rdi), %r13
	pushq	%r12
	.cfi_def_cfa_offset 24
	.cfi_offset 12, -24
	pushq	%rbp
	.cfi_def_cfa_offset 32
	.cfi_offset 6, -32
	pushq	%rbx
	.cfi_def_cfa_offset 40
	.cfi_offset 3, -40
	subq	$24, %rsp
	.cfi_def_cfa_offset 64
	movq	%fs:40, %rax
	movq	%rax, 8(%rsp)
	xorl	%eax, %eax
	movq	%r13, (%rdi)
	testq	%rsi, %rsi
	je	.L44
	movq	%rdi, %rbx
	movq	%rsi, %rdi
	movq	%rsi, %rbp
	call	strlen@PLT
	movq	%rax, (%rsp)
	movq	%rax, %r12
	cmpq	$15, %rax
	ja	.L45
	cmpq	$1, %rax
	jne	.L37
	movzbl	0(%rbp), %eax
	movb	%al, 16(%rbx)
.L38:
	movq	(%rsp), %rax
	movq	(%rbx), %rdx
	movq	%rax, 8(%rbx)
	movb	$0, (%rdx,%rax)
	movq	8(%rsp), %rax
	xorq	%fs:40, %rax
	jne	.L46
	addq	$24, %rsp
	.cfi_remember_state
	.cfi_def_cfa_offset 40
	popq	%rbx
	.cfi_def_cfa_offset 32
	popq	%rbp
	.cfi_def_cfa_offset 24
	popq	%r12
	.cfi_def_cfa_offset 16
	popq	%r13
	.cfi_def_cfa_offset 8
	ret
.L37:
	.cfi_restore_state
	testq	%rax, %rax
	je	.L38
	jmp	.L36
.L45:
	movq	%rsp, %rsi
	xorl	%edx, %edx
	movq	%rbx, %rdi
	call	_ZNSt7__cxx1112basic_stringIcSt11char_traitsIcESaIcEE9_M_createERmm@PLT
	movq	%rax, (%rbx)
	movq	%rax, %r13
	movq	(%rsp), %rax
	movq	%rax, 16(%rbx)
.L36:
	movq	%r12, %rdx
	movq	%rbp, %rsi
	movq	%r13, %rdi
	call	memcpy@PLT
	jmp	.L38
.L44:
	leaq	.LC0(%rip), %rdi
	call	_ZSt19__throw_logic_errorPKc@PLT
.L46:
	call	__stack_chk_fail@PLT
	.cfi_endproc
.LFE4349:
	.size	_ZNSt7__cxx1112basic_stringIcSt11char_traitsIcESaIcEEC2IS3_EEPKcRKS3_.constprop.0, .-_ZNSt7__cxx1112basic_stringIcSt11char_traitsIcESaIcEEC2IS3_EEPKcRKS3_.constprop.0
	.section	.text._ZN4BlobIiED2Ev,"axG",@progbits,_ZN4BlobIiED5Ev,comdat
	.align 2
	.p2align 4
	.weak	_ZN4BlobIiED2Ev
	.type	_ZN4BlobIiED2Ev, @function
_ZN4BlobIiED2Ev:
.LFB3185:
	.cfi_startproc
	endbr64
	pushq	%rbp
	.cfi_def_cfa_offset 16
	.cfi_offset 6, -16
	leaq	16+_ZTV4BlobIiE(%rip), %rax
	pushq	%rbx
	.cfi_def_cfa_offset 24
	.cfi_offset 3, -24
	subq	$8, %rsp
	.cfi_def_cfa_offset 32
	movq	16(%rdi), %rbp
	movq	%rax, (%rdi)
	testq	%rbp, %rbp
	je	.L47
	movq	_ZL28__gthrw___pthread_key_createPjPFvPvE@GOTPCREL(%rip), %rbx
	testq	%rbx, %rbx
	je	.L50
	movl	$-1, %eax
	lock xaddl	%eax, 8(%rbp)
	cmpl	$1, %eax
	je	.L56
.L47:
	addq	$8, %rsp
	.cfi_remember_state
	.cfi_def_cfa_offset 24
	popq	%rbx
	.cfi_def_cfa_offset 16
	popq	%rbp
	.cfi_def_cfa_offset 8
	ret
	.p2align 4,,10
	.p2align 3
.L50:
	.cfi_restore_state
	movl	8(%rbp), %eax
	leal	-1(%rax), %edx
	movl	%edx, 8(%rbp)
	cmpl	$1, %eax
	jne	.L47
.L56:
	movq	0(%rbp), %rax
	movq	%rbp, %rdi
	call	*16(%rax)
	testq	%rbx, %rbx
	je	.L53
	movl	$-1, %eax
	lock xaddl	%eax, 12(%rbp)
.L54:
	cmpl	$1, %eax
	jne	.L47
	movq	0(%rbp), %rax
	movq	%rbp, %rdi
	movq	24(%rax), %rax
	addq	$8, %rsp
	.cfi_remember_state
	.cfi_def_cfa_offset 24
	popq	%rbx
	.cfi_def_cfa_offset 16
	popq	%rbp
	.cfi_def_cfa_offset 8
	jmp	*%rax
	.p2align 4,,10
	.p2align 3
.L53:
	.cfi_restore_state
	movl	12(%rbp), %eax
	leal	-1(%rax), %edx
	movl	%edx, 12(%rbp)
	jmp	.L54
	.cfi_endproc
.LFE3185:
	.size	_ZN4BlobIiED2Ev, .-_ZN4BlobIiED2Ev
	.weak	_ZN4BlobIiED1Ev
	.set	_ZN4BlobIiED1Ev,_ZN4BlobIiED2Ev
	.section	.text._ZN10DeriveBlobIiED2Ev,"axG",@progbits,_ZN10DeriveBlobIiED5Ev,comdat
	.align 2
	.p2align 4
	.weak	_ZN10DeriveBlobIiED2Ev
	.type	_ZN10DeriveBlobIiED2Ev, @function
_ZN10DeriveBlobIiED2Ev:
.LFB4175:
	.cfi_startproc
	endbr64
	pushq	%rbp
	.cfi_def_cfa_offset 16
	.cfi_offset 6, -16
	leaq	16+_ZTV4BlobIiE(%rip), %rax
	pushq	%rbx
	.cfi_def_cfa_offset 24
	.cfi_offset 3, -24
	subq	$8, %rsp
	.cfi_def_cfa_offset 32
	movq	16(%rdi), %rbp
	movq	%rax, (%rdi)
	testq	%rbp, %rbp
	je	.L57
	movq	_ZL28__gthrw___pthread_key_createPjPFvPvE@GOTPCREL(%rip), %rbx
	testq	%rbx, %rbx
	je	.L60
	movl	$-1, %eax
	lock xaddl	%eax, 8(%rbp)
	cmpl	$1, %eax
	je	.L66
.L57:
	addq	$8, %rsp
	.cfi_remember_state
	.cfi_def_cfa_offset 24
	popq	%rbx
	.cfi_def_cfa_offset 16
	popq	%rbp
	.cfi_def_cfa_offset 8
	ret
	.p2align 4,,10
	.p2align 3
.L60:
	.cfi_restore_state
	movl	8(%rbp), %eax
	leal	-1(%rax), %edx
	movl	%edx, 8(%rbp)
	cmpl	$1, %eax
	jne	.L57
.L66:
	movq	0(%rbp), %rax
	movq	%rbp, %rdi
	call	*16(%rax)
	testq	%rbx, %rbx
	je	.L63
	movl	$-1, %eax
	lock xaddl	%eax, 12(%rbp)
.L64:
	cmpl	$1, %eax
	jne	.L57
	movq	0(%rbp), %rax
	movq	%rbp, %rdi
	movq	24(%rax), %rax
	addq	$8, %rsp
	.cfi_remember_state
	.cfi_def_cfa_offset 24
	popq	%rbx
	.cfi_def_cfa_offset 16
	popq	%rbp
	.cfi_def_cfa_offset 8
	jmp	*%rax
	.p2align 4,,10
	.p2align 3
.L63:
	.cfi_restore_state
	movl	12(%rbp), %eax
	leal	-1(%rax), %edx
	movl	%edx, 12(%rbp)
	jmp	.L64
	.cfi_endproc
.LFE4175:
	.size	_ZN10DeriveBlobIiED2Ev, .-_ZN10DeriveBlobIiED2Ev
	.weak	_ZN10DeriveBlobIiED1Ev
	.set	_ZN10DeriveBlobIiED1Ev,_ZN10DeriveBlobIiED2Ev
	.section	.text._ZN4BlobINSt7__cxx1112basic_stringIcSt11char_traitsIcESaIcEEEED2Ev,"axG",@progbits,_ZN4BlobINSt7__cxx1112basic_stringIcSt11char_traitsIcESaIcEEEED5Ev,comdat
	.align 2
	.p2align 4
	.weak	_ZN4BlobINSt7__cxx1112basic_stringIcSt11char_traitsIcESaIcEEEED2Ev
	.type	_ZN4BlobINSt7__cxx1112basic_stringIcSt11char_traitsIcESaIcEEEED2Ev, @function
_ZN4BlobINSt7__cxx1112basic_stringIcSt11char_traitsIcESaIcEEEED2Ev:
.LFB4179:
	.cfi_startproc
	endbr64
	pushq	%rbp
	.cfi_def_cfa_offset 16
	.cfi_offset 6, -16
	leaq	16+_ZTV4BlobINSt7__cxx1112basic_stringIcSt11char_traitsIcESaIcEEEE(%rip), %rax
	pushq	%rbx
	.cfi_def_cfa_offset 24
	.cfi_offset 3, -24
	subq	$8, %rsp
	.cfi_def_cfa_offset 32
	movq	16(%rdi), %rbp
	movq	%rax, (%rdi)
	testq	%rbp, %rbp
	je	.L67
	movq	_ZL28__gthrw___pthread_key_createPjPFvPvE@GOTPCREL(%rip), %rbx
	testq	%rbx, %rbx
	je	.L70
	movl	$-1, %eax
	lock xaddl	%eax, 8(%rbp)
	cmpl	$1, %eax
	je	.L76
.L67:
	addq	$8, %rsp
	.cfi_remember_state
	.cfi_def_cfa_offset 24
	popq	%rbx
	.cfi_def_cfa_offset 16
	popq	%rbp
	.cfi_def_cfa_offset 8
	ret
	.p2align 4,,10
	.p2align 3
.L70:
	.cfi_restore_state
	movl	8(%rbp), %eax
	leal	-1(%rax), %edx
	movl	%edx, 8(%rbp)
	cmpl	$1, %eax
	jne	.L67
.L76:
	movq	0(%rbp), %rax
	movq	%rbp, %rdi
	call	*16(%rax)
	testq	%rbx, %rbx
	je	.L73
	movl	$-1, %eax
	lock xaddl	%eax, 12(%rbp)
.L74:
	cmpl	$1, %eax
	jne	.L67
	movq	0(%rbp), %rax
	movq	%rbp, %rdi
	movq	24(%rax), %rax
	addq	$8, %rsp
	.cfi_remember_state
	.cfi_def_cfa_offset 24
	popq	%rbx
	.cfi_def_cfa_offset 16
	popq	%rbp
	.cfi_def_cfa_offset 8
	jmp	*%rax
	.p2align 4,,10
	.p2align 3
.L73:
	.cfi_restore_state
	movl	12(%rbp), %eax
	leal	-1(%rax), %edx
	movl	%edx, 12(%rbp)
	jmp	.L74
	.cfi_endproc
.LFE4179:
	.size	_ZN4BlobINSt7__cxx1112basic_stringIcSt11char_traitsIcESaIcEEEED2Ev, .-_ZN4BlobINSt7__cxx1112basic_stringIcSt11char_traitsIcESaIcEEEED2Ev
	.weak	_ZN4BlobINSt7__cxx1112basic_stringIcSt11char_traitsIcESaIcEEEED1Ev
	.set	_ZN4BlobINSt7__cxx1112basic_stringIcSt11char_traitsIcESaIcEEEED1Ev,_ZN4BlobINSt7__cxx1112basic_stringIcSt11char_traitsIcESaIcEEEED2Ev
	.section	.text._ZN4BlobINSt7__cxx1112basic_stringIcSt11char_traitsIcESaIcEEEED0Ev,"axG",@progbits,_ZN4BlobINSt7__cxx1112basic_stringIcSt11char_traitsIcESaIcEEEED5Ev,comdat
	.align 2
	.p2align 4
	.weak	_ZN4BlobINSt7__cxx1112basic_stringIcSt11char_traitsIcESaIcEEEED0Ev
	.type	_ZN4BlobINSt7__cxx1112basic_stringIcSt11char_traitsIcESaIcEEEED0Ev, @function
_ZN4BlobINSt7__cxx1112basic_stringIcSt11char_traitsIcESaIcEEEED0Ev:
.LFB4181:
	.cfi_startproc
	endbr64
	pushq	%r12
	.cfi_def_cfa_offset 16
	.cfi_offset 12, -16
	leaq	16+_ZTV4BlobINSt7__cxx1112basic_stringIcSt11char_traitsIcESaIcEEEE(%rip), %rax
	pushq	%rbp
	.cfi_def_cfa_offset 24
	.cfi_offset 6, -24
	movq	%rdi, %rbp
	pushq	%rbx
	.cfi_def_cfa_offset 32
	.cfi_offset 3, -32
	movq	16(%rdi), %r12
	movq	%rax, (%rdi)
	testq	%r12, %r12
	je	.L79
	movq	_ZL28__gthrw___pthread_key_createPjPFvPvE@GOTPCREL(%rip), %rbx
	testq	%rbx, %rbx
	je	.L80
	movl	$-1, %eax
	lock xaddl	%eax, 8(%r12)
	cmpl	$1, %eax
	je	.L86
.L79:
	popq	%rbx
	.cfi_remember_state
	.cfi_def_cfa_offset 24
	movq	%rbp, %rdi
	movl	$24, %esi
	popq	%rbp
	.cfi_def_cfa_offset 16
	popq	%r12
	.cfi_def_cfa_offset 8
	jmp	_ZdlPvm@PLT
	.p2align 4,,10
	.p2align 3
.L80:
	.cfi_restore_state
	movl	8(%r12), %eax
	leal	-1(%rax), %edx
	movl	%edx, 8(%r12)
	cmpl	$1, %eax
	jne	.L79
.L86:
	movq	(%r12), %rax
	movq	%r12, %rdi
	call	*16(%rax)
	testq	%rbx, %rbx
	je	.L83
	movl	$-1, %eax
	lock xaddl	%eax, 12(%r12)
.L84:
	cmpl	$1, %eax
	jne	.L79
	movq	(%r12), %rax
	movq	%r12, %rdi
	call	*24(%rax)
	jmp	.L79
	.p2align 4,,10
	.p2align 3
.L83:
	movl	12(%r12), %eax
	leal	-1(%rax), %edx
	movl	%edx, 12(%r12)
	jmp	.L84
	.cfi_endproc
.LFE4181:
	.size	_ZN4BlobINSt7__cxx1112basic_stringIcSt11char_traitsIcESaIcEEEED0Ev, .-_ZN4BlobINSt7__cxx1112basic_stringIcSt11char_traitsIcESaIcEEEED0Ev
	.section	.text._ZN10DeriveBlobIiED0Ev,"axG",@progbits,_ZN10DeriveBlobIiED5Ev,comdat
	.align 2
	.p2align 4
	.weak	_ZN10DeriveBlobIiED0Ev
	.type	_ZN10DeriveBlobIiED0Ev, @function
_ZN10DeriveBlobIiED0Ev:
.LFB4177:
	.cfi_startproc
	endbr64
	pushq	%r12
	.cfi_def_cfa_offset 16
	.cfi_offset 12, -16
	leaq	16+_ZTV4BlobIiE(%rip), %rax
	pushq	%rbp
	.cfi_def_cfa_offset 24
	.cfi_offset 6, -24
	movq	%rdi, %rbp
	pushq	%rbx
	.cfi_def_cfa_offset 32
	.cfi_offset 3, -32
	movq	16(%rdi), %r12
	movq	%rax, (%rdi)
	testq	%r12, %r12
	je	.L89
	movq	_ZL28__gthrw___pthread_key_createPjPFvPvE@GOTPCREL(%rip), %rbx
	testq	%rbx, %rbx
	je	.L90
	movl	$-1, %eax
	lock xaddl	%eax, 8(%r12)
	cmpl	$1, %eax
	je	.L96
.L89:
	popq	%rbx
	.cfi_remember_state
	.cfi_def_cfa_offset 24
	movq	%rbp, %rdi
	movl	$24, %esi
	popq	%rbp
	.cfi_def_cfa_offset 16
	popq	%r12
	.cfi_def_cfa_offset 8
	jmp	_ZdlPvm@PLT
	.p2align 4,,10
	.p2align 3
.L90:
	.cfi_restore_state
	movl	8(%r12), %eax
	leal	-1(%rax), %edx
	movl	%edx, 8(%r12)
	cmpl	$1, %eax
	jne	.L89
.L96:
	movq	(%r12), %rax
	movq	%r12, %rdi
	call	*16(%rax)
	testq	%rbx, %rbx
	je	.L93
	movl	$-1, %eax
	lock xaddl	%eax, 12(%r12)
.L94:
	cmpl	$1, %eax
	jne	.L89
	movq	(%r12), %rax
	movq	%r12, %rdi
	call	*24(%rax)
	jmp	.L89
	.p2align 4,,10
	.p2align 3
.L93:
	movl	12(%r12), %eax
	leal	-1(%rax), %edx
	movl	%edx, 12(%r12)
	jmp	.L94
	.cfi_endproc
.LFE4177:
	.size	_ZN10DeriveBlobIiED0Ev, .-_ZN10DeriveBlobIiED0Ev
	.section	.text._ZN4BlobIiED0Ev,"axG",@progbits,_ZN4BlobIiED5Ev,comdat
	.align 2
	.p2align 4
	.weak	_ZN4BlobIiED0Ev
	.type	_ZN4BlobIiED0Ev, @function
_ZN4BlobIiED0Ev:
.LFB3187:
	.cfi_startproc
	endbr64
	pushq	%r12
	.cfi_def_cfa_offset 16
	.cfi_offset 12, -16
	leaq	16+_ZTV4BlobIiE(%rip), %rax
	pushq	%rbp
	.cfi_def_cfa_offset 24
	.cfi_offset 6, -24
	movq	%rdi, %rbp
	pushq	%rbx
	.cfi_def_cfa_offset 32
	.cfi_offset 3, -32
	movq	16(%rdi), %r12
	movq	%rax, (%rdi)
	testq	%r12, %r12
	je	.L99
	movq	_ZL28__gthrw___pthread_key_createPjPFvPvE@GOTPCREL(%rip), %rbx
	testq	%rbx, %rbx
	je	.L100
	movl	$-1, %eax
	lock xaddl	%eax, 8(%r12)
	cmpl	$1, %eax
	je	.L106
.L99:
	popq	%rbx
	.cfi_remember_state
	.cfi_def_cfa_offset 24
	movq	%rbp, %rdi
	movl	$24, %esi
	popq	%rbp
	.cfi_def_cfa_offset 16
	popq	%r12
	.cfi_def_cfa_offset 8
	jmp	_ZdlPvm@PLT
	.p2align 4,,10
	.p2align 3
.L100:
	.cfi_restore_state
	movl	8(%r12), %eax
	leal	-1(%rax), %edx
	movl	%edx, 8(%r12)
	cmpl	$1, %eax
	jne	.L99
.L106:
	movq	(%r12), %rax
	movq	%r12, %rdi
	call	*16(%rax)
	testq	%rbx, %rbx
	je	.L103
	movl	$-1, %eax
	lock xaddl	%eax, 12(%r12)
.L104:
	cmpl	$1, %eax
	jne	.L99
	movq	(%r12), %rax
	movq	%r12, %rdi
	call	*24(%rax)
	jmp	.L99
	.p2align 4,,10
	.p2align 3
.L103:
	movl	12(%r12), %eax
	leal	-1(%rax), %edx
	movl	%edx, 12(%r12)
	jmp	.L104
	.cfi_endproc
.LFE3187:
	.size	_ZN4BlobIiED0Ev, .-_ZN4BlobIiED0Ev
	.section	.rodata._ZN4BlobINSt7__cxx1112basic_stringIcSt11char_traitsIcESaIcEEEEC2ESt16initializer_listIS5_E.str1.8,"aMS",@progbits,1
	.align 8
.LC1:
	.string	"cannot create std::vector larger than max_size()"
	.section	.text._ZN4BlobINSt7__cxx1112basic_stringIcSt11char_traitsIcESaIcEEEEC2ESt16initializer_listIS5_E,"axG",@progbits,_ZN4BlobINSt7__cxx1112basic_stringIcSt11char_traitsIcESaIcEEEEC5ESt16initializer_listIS5_E,comdat
	.align 2
	.p2align 4
	.weak	_ZN4BlobINSt7__cxx1112basic_stringIcSt11char_traitsIcESaIcEEEEC2ESt16initializer_listIS5_E
	.type	_ZN4BlobINSt7__cxx1112basic_stringIcSt11char_traitsIcESaIcEEEEC2ESt16initializer_listIS5_E, @function
_ZN4BlobINSt7__cxx1112basic_stringIcSt11char_traitsIcESaIcEEEEC2ESt16initializer_listIS5_E:
.LFB3438:
	.cfi_startproc
	.cfi_personality 0x9b,DW.ref.__gxx_personality_v0
	.cfi_lsda 0x1b,.LLSDA3438
	endbr64
	pushq	%r15
	.cfi_def_cfa_offset 16
	.cfi_offset 15, -16
	pushq	%r14
	.cfi_def_cfa_offset 24
	.cfi_offset 14, -24
	movq	%rdi, %r14
	pushq	%r13
	.cfi_def_cfa_offset 32
	.cfi_offset 13, -32
	pushq	%r12
	.cfi_def_cfa_offset 40
	.cfi_offset 12, -40
	movq	%rsi, %r12
	pushq	%rbp
	.cfi_def_cfa_offset 48
	.cfi_offset 6, -48
	pushq	%rbx
	.cfi_def_cfa_offset 56
	.cfi_offset 3, -56
	movq	%rdx, %rbx
	subq	$56, %rsp
	.cfi_def_cfa_offset 112
	movq	%fs:40, %rax
	movq	%rax, 40(%rsp)
	xorl	%eax, %eax
	leaq	16+_ZTV4BlobINSt7__cxx1112basic_stringIcSt11char_traitsIcESaIcEEEE(%rip), %rax
	movq	$0, 8(%rdi)
	movq	%rax, (%rdi)
	movl	$40, %edi
.LEHB0:
	call	_Znwm@PLT
.LEHE0:
	movq	%rax, %rbp
	salq	$5, %rbx
	pxor	%xmm0, %xmm0
	movq	%r12, %r13
	leaq	16+_ZTVSt23_Sp_counted_ptr_inplaceISt6vectorINSt7__cxx1112basic_stringIcSt11char_traitsIcESaIcEEESaIS6_EESaIS8_ELN9__gnu_cxx12_Lock_policyE2EE(%rip), %rax
	movq	$0, 32(%rbp)
	movabsq	$288230376151711743, %rdx
	movq	%rax, 0(%rbp)
	leaq	16(%rbp), %rax
	movq	%rax, 16(%rsp)
	movabsq	$4294967297, %rax
	movq	%rax, 8(%rbp)
	leaq	(%r12,%rbx), %rax
	movq	%rax, (%rsp)
	movq	%rbx, %rax
	sarq	$5, %rax
	movups	%xmm0, 16(%rbp)
	cmpq	%rdx, %rax
	ja	.L151
	testq	%rax, %rax
	je	.L128
	movq	%rbx, %rdi
.LEHB1:
	call	_Znwm@PLT
.LEHE1:
	movq	%rax, 8(%rsp)
.L109:
	movq	8(%rsp), %rax
	addq	%rax, %rbx
	movq	%rax, 16(%rbp)
	movq	%rbx, 32(%rbp)
	movq	%rax, %rbx
	cmpq	(%rsp), %r12
	je	.L110
	leaq	32(%rsp), %rax
	movq	%rax, 24(%rsp)
	jmp	.L116
	.p2align 4,,10
	.p2align 3
.L112:
	cmpq	$1, %r12
	jne	.L114
	movzbl	(%r15), %eax
	movb	%al, 16(%rbx)
.L115:
	movq	%r12, 8(%rbx)
	addq	$32, %r13
	addq	$32, %rbx
	movb	$0, (%rdi,%r12)
	cmpq	%r13, (%rsp)
	je	.L110
.L116:
	movq	0(%r13), %r15
	movq	8(%r13), %r12
	leaq	16(%rbx), %rdi
	movq	%rdi, (%rbx)
	movq	%r15, %rax
	addq	%r12, %rax
	je	.L111
	testq	%r15, %r15
	je	.L152
.L111:
	movq	%r12, 32(%rsp)
	cmpq	$15, %r12
	jbe	.L112
	movq	24(%rsp), %rsi
	xorl	%edx, %edx
	movq	%rbx, %rdi
.LEHB2:
	call	_ZNSt7__cxx1112basic_stringIcSt11char_traitsIcESaIcEE9_M_createERmm@PLT
	movq	%rax, (%rbx)
	movq	%rax, %rdi
	movq	32(%rsp), %rax
	movq	%rax, 16(%rbx)
.L113:
	movq	%r12, %rdx
	movq	%r15, %rsi
	call	memcpy@PLT
	movq	32(%rsp), %r12
	movq	(%rbx), %rdi
	jmp	.L115
	.p2align 4,,10
	.p2align 3
.L114:
	testq	%r12, %r12
	je	.L115
	jmp	.L113
	.p2align 4,,10
	.p2align 3
.L110:
	movq	16(%rsp), %xmm0
	movq	%rbx, 24(%rbp)
	movq	%rbp, %xmm1
	punpcklqdq	%xmm1, %xmm0
	movups	%xmm0, 8(%r14)
	movq	40(%rsp), %rax
	xorq	%fs:40, %rax
	jne	.L153
	addq	$56, %rsp
	.cfi_remember_state
	.cfi_def_cfa_offset 56
	popq	%rbx
	.cfi_def_cfa_offset 48
	popq	%rbp
	.cfi_def_cfa_offset 40
	popq	%r12
	.cfi_def_cfa_offset 32
	popq	%r13
	.cfi_def_cfa_offset 24
	popq	%r14
	.cfi_def_cfa_offset 16
	popq	%r15
	.cfi_def_cfa_offset 8
	ret
	.p2align 4,,10
	.p2align 3
.L128:
	.cfi_restore_state
	movq	$0, 8(%rsp)
	jmp	.L109
.L152:
	leaq	.LC0(%rip), %rdi
	call	_ZSt19__throw_logic_errorPKc@PLT
.LEHE2:
.L151:
	leaq	.LC1(%rip), %rdi
.LEHB3:
	call	_ZSt20__throw_length_errorPKc@PLT
.LEHE3:
.L153:
	call	__stack_chk_fail@PLT
.L134:
	endbr64
	movq	%rax, %rdi
	jmp	.L117
.L132:
	endbr64
	movq	%rax, %rbx
	movq	%rdx, %r12
	jmp	.L122
.L131:
	endbr64
	movq	%rax, %rdi
	movq	%rdx, %r12
	jmp	.L124
.L117:
	call	__cxa_begin_catch@PLT
.L120:
	cmpq	%rbx, 8(%rsp)
	jne	.L154
.LEHB4:
	call	__cxa_rethrow@PLT
.LEHE4:
.L121:
	call	__cxa_end_catch@PLT
.L122:
	movq	16(%rbp), %rdi
	testq	%rdi, %rdi
	je	.L123
	call	_ZdlPv@PLT
.L123:
	movq	%rbp, %rdi
	call	_ZdlPv@PLT
	movq	%rbx, %rdi
.L124:
	subq	$1, %r12
	jne	.L150
	call	__cxa_begin_catch@PLT
	movq	%rax, %rdi
.LEHB5:
	call	_ZN4BlobINSt7__cxx1112basic_stringIcSt11char_traitsIcESaIcEEEE20handle_out_of_memoryERKSt9exception.isra.0
	call	__cxa_rethrow@PLT
.LEHE5:
.L154:
	movq	8(%rsp), %rax
	movq	(%rax), %rdi
	addq	$16, %rax
	cmpq	%rax, %rdi
	je	.L119
	call	_ZdlPv@PLT
.L119:
	addq	$32, 8(%rsp)
	jmp	.L120
.L126:
	call	__cxa_end_catch@PLT
	movq	%rbp, %rdi
.L150:
.LEHB6:
	call	_Unwind_Resume@PLT
.LEHE6:
.L133:
	endbr64
	movq	%rax, %rbx
	movq	%rdx, %r12
	jmp	.L121
.L130:
	endbr64
	movq	%rax, %rbp
	jmp	.L126
	.cfi_endproc
.LFE3438:
	.globl	__gxx_personality_v0
	.section	.gcc_except_table._ZN4BlobINSt7__cxx1112basic_stringIcSt11char_traitsIcESaIcEEEEC2ESt16initializer_listIS5_E,"aG",@progbits,_ZN4BlobINSt7__cxx1112basic_stringIcSt11char_traitsIcESaIcEEEEC5ESt16initializer_listIS5_E,comdat
	.align 4
.LLSDA3438:
	.byte	0xff
	.byte	0x9b
	.uleb128 .LLSDATT3438-.LLSDATTD3438
.LLSDATTD3438:
	.byte	0x1
	.uleb128 .LLSDACSE3438-.LLSDACSB3438
.LLSDACSB3438:
	.uleb128 .LEHB0-.LFB3438
	.uleb128 .LEHE0-.LEHB0
	.uleb128 .L131-.LFB3438
	.uleb128 0x1
	.uleb128 .LEHB1-.LFB3438
	.uleb128 .LEHE1-.LEHB1
	.uleb128 .L132-.LFB3438
	.uleb128 0x3
	.uleb128 .LEHB2-.LFB3438
	.uleb128 .LEHE2-.LEHB2
	.uleb128 .L134-.LFB3438
	.uleb128 0x5
	.uleb128 .LEHB3-.LFB3438
	.uleb128 .LEHE3-.LEHB3
	.uleb128 .L132-.LFB3438
	.uleb128 0x3
	.uleb128 .LEHB4-.LFB3438
	.uleb128 .LEHE4-.LEHB4
	.uleb128 .L133-.LFB3438
	.uleb128 0x3
	.uleb128 .LEHB5-.LFB3438
	.uleb128 .LEHE5-.LEHB5
	.uleb128 .L130-.LFB3438
	.uleb128 0
	.uleb128 .LEHB6-.LFB3438
	.uleb128 .LEHE6-.LEHB6
	.uleb128 0
	.uleb128 0
.LLSDACSE3438:
	.byte	0x1
	.byte	0
	.byte	0
	.byte	0x7d
	.byte	0x2
	.byte	0
	.align 4
	.long	0

	.long	DW.ref._ZTISt9bad_alloc-.
.LLSDATT3438:
	.section	.text._ZN4BlobINSt7__cxx1112basic_stringIcSt11char_traitsIcESaIcEEEEC2ESt16initializer_listIS5_E,"axG",@progbits,_ZN4BlobINSt7__cxx1112basic_stringIcSt11char_traitsIcESaIcEEEEC5ESt16initializer_listIS5_E,comdat
	.size	_ZN4BlobINSt7__cxx1112basic_stringIcSt11char_traitsIcESaIcEEEEC2ESt16initializer_listIS5_E, .-_ZN4BlobINSt7__cxx1112basic_stringIcSt11char_traitsIcESaIcEEEEC2ESt16initializer_listIS5_E
	.weak	_ZN4BlobINSt7__cxx1112basic_stringIcSt11char_traitsIcESaIcEEEEC1ESt16initializer_listIS5_E
	.set	_ZN4BlobINSt7__cxx1112basic_stringIcSt11char_traitsIcESaIcEEEEC1ESt16initializer_listIS5_E,_ZN4BlobINSt7__cxx1112basic_stringIcSt11char_traitsIcESaIcEEEEC2ESt16initializer_listIS5_E
	.section	.text._ZN4BlobINSt7__cxx1112basic_stringIcSt11char_traitsIcESaIcEEEE4backEv,"axG",@progbits,_ZN4BlobINSt7__cxx1112basic_stringIcSt11char_traitsIcESaIcEEEE4backEv,comdat
	.align 2
	.p2align 4
	.weak	_ZN4BlobINSt7__cxx1112basic_stringIcSt11char_traitsIcESaIcEEEE4backEv
	.type	_ZN4BlobINSt7__cxx1112basic_stringIcSt11char_traitsIcESaIcEEEE4backEv, @function
_ZN4BlobINSt7__cxx1112basic_stringIcSt11char_traitsIcESaIcEEEE4backEv:
.LFB3440:
	.cfi_startproc
	.cfi_personality 0x9b,DW.ref.__gxx_personality_v0
	.cfi_lsda 0x1b,.LLSDA3440
	endbr64
	pushq	%r13
	.cfi_def_cfa_offset 16
	.cfi_offset 13, -16
	xorl	%edx, %edx
	pushq	%r12
	.cfi_def_cfa_offset 24
	.cfi_offset 12, -24
	pushq	%rbp
	.cfi_def_cfa_offset 32
	.cfi_offset 6, -32
	pushq	%rbx
	.cfi_def_cfa_offset 40
	.cfi_offset 3, -40
	movq	%rdi, %rbx
	subq	$72, %rsp
	.cfi_def_cfa_offset 112
	movq	%fs:40, %rax
	movq	%rax, 56(%rsp)
	xorl	%eax, %eax
	leaq	16(%rsp), %r12
	leaq	32(%rsp), %rbp
	movq	$18, 8(%rsp)
	leaq	8(%rsp), %rsi
	movq	%r12, %rdi
	movq	%rbp, 16(%rsp)
.LEHB7:
	call	_ZNSt7__cxx1112basic_stringIcSt11char_traitsIcESaIcEE9_M_createERmm@PLT
.LEHE7:
	movq	8(%rsp), %rdx
	movdqa	.LC2(%rip), %xmm0
	movq	%rax, 16(%rsp)
	movq	%rdx, 32(%rsp)
	movl	$25199, %edx
	movups	%xmm0, (%rax)
	movw	%dx, 16(%rax)
	movq	8(%rsp), %rax
	movq	16(%rsp), %rdx
	movq	%rax, 24(%rsp)
	movb	$0, (%rdx,%rax)
	movq	8(%rbx), %rax
	movq	8(%rax), %rcx
	cmpq	%rcx, (%rax)
	je	.L166
	movq	16(%rsp), %rdi
	cmpq	%rbp, %rdi
	je	.L159
	call	_ZdlPv@PLT
	movq	8(%rbx), %rax
.L159:
	movq	8(%rax), %rax
	subq	$32, %rax
	movq	56(%rsp), %rcx
	xorq	%fs:40, %rcx
	jne	.L167
	addq	$72, %rsp
	.cfi_remember_state
	.cfi_def_cfa_offset 40
	popq	%rbx
	.cfi_def_cfa_offset 32
	popq	%rbp
	.cfi_def_cfa_offset 24
	popq	%r12
	.cfi_def_cfa_offset 16
	popq	%r13
	.cfi_def_cfa_offset 8
	ret
.L167:
	.cfi_restore_state
	call	__stack_chk_fail@PLT
.L166:
	movl	$16, %edi
	call	__cxa_allocate_exception@PLT
	movq	%r12, %rsi
	movq	%rax, %rdi
	movq	%rax, %r13
.LEHB8:
	call	_ZNSt12out_of_rangeC1ERKNSt7__cxx1112basic_stringIcSt11char_traitsIcESaIcEEE@PLT
.LEHE8:
	movq	_ZNSt12out_of_rangeD1Ev@GOTPCREL(%rip), %rdx
	leaq	_ZTISt12out_of_range(%rip), %rsi
	movq	%r13, %rdi
.LEHB9:
	call	__cxa_throw@PLT
.LEHE9:
.L163:
	endbr64
	movq	%rax, %r12
	jmp	.L157
.L162:
	endbr64
	movq	%rax, %r12
	jmp	.L158
.L157:
	movq	%r13, %rdi
	call	__cxa_free_exception@PLT
.L158:
	movq	16(%rsp), %rdi
	cmpq	%rbp, %rdi
	je	.L160
	call	_ZdlPv@PLT
.L160:
	movq	%r12, %rdi
.LEHB10:
	call	_Unwind_Resume@PLT
.LEHE10:
	.cfi_endproc
.LFE3440:
	.section	.gcc_except_table._ZN4BlobINSt7__cxx1112basic_stringIcSt11char_traitsIcESaIcEEEE4backEv,"aG",@progbits,_ZN4BlobINSt7__cxx1112basic_stringIcSt11char_traitsIcESaIcEEEE4backEv,comdat
.LLSDA3440:
	.byte	0xff
	.byte	0xff
	.byte	0x1
	.uleb128 .LLSDACSE3440-.LLSDACSB3440
.LLSDACSB3440:
	.uleb128 .LEHB7-.LFB3440
	.uleb128 .LEHE7-.LEHB7
	.uleb128 0
	.uleb128 0
	.uleb128 .LEHB8-.LFB3440
	.uleb128 .LEHE8-.LEHB8
	.uleb128 .L163-.LFB3440
	.uleb128 0
	.uleb128 .LEHB9-.LFB3440
	.uleb128 .LEHE9-.LEHB9
	.uleb128 .L162-.LFB3440
	.uleb128 0
	.uleb128 .LEHB10-.LFB3440
	.uleb128 .LEHE10-.LEHB10
	.uleb128 0
	.uleb128 0
.LLSDACSE3440:
	.section	.text._ZN4BlobINSt7__cxx1112basic_stringIcSt11char_traitsIcESaIcEEEE4backEv,"axG",@progbits,_ZN4BlobINSt7__cxx1112basic_stringIcSt11char_traitsIcESaIcEEEE4backEv,comdat
	.size	_ZN4BlobINSt7__cxx1112basic_stringIcSt11char_traitsIcESaIcEEEE4backEv, .-_ZN4BlobINSt7__cxx1112basic_stringIcSt11char_traitsIcESaIcEEEE4backEv
	.section	.text._ZN4BlobINSt7__cxx1112basic_stringIcSt11char_traitsIcESaIcEEEE7popBackEv,"axG",@progbits,_ZN4BlobINSt7__cxx1112basic_stringIcSt11char_traitsIcESaIcEEEE7popBackEv,comdat
	.align 2
	.p2align 4
	.weak	_ZN4BlobINSt7__cxx1112basic_stringIcSt11char_traitsIcESaIcEEEE7popBackEv
	.type	_ZN4BlobINSt7__cxx1112basic_stringIcSt11char_traitsIcESaIcEEEE7popBackEv, @function
_ZN4BlobINSt7__cxx1112basic_stringIcSt11char_traitsIcESaIcEEEE7popBackEv:
.LFB3444:
	.cfi_startproc
	.cfi_personality 0x9b,DW.ref.__gxx_personality_v0
	.cfi_lsda 0x1b,.LLSDA3444
	endbr64
	pushq	%r13
	.cfi_def_cfa_offset 16
	.cfi_offset 13, -16
	xorl	%edx, %edx
	pushq	%r12
	.cfi_def_cfa_offset 24
	.cfi_offset 12, -24
	pushq	%rbp
	.cfi_def_cfa_offset 32
	.cfi_offset 6, -32
	pushq	%rbx
	.cfi_def_cfa_offset 40
	.cfi_offset 3, -40
	movq	%rdi, %rbx
	subq	$72, %rsp
	.cfi_def_cfa_offset 112
	movq	%fs:40, %rax
	movq	%rax, 56(%rsp)
	xorl	%eax, %eax
	leaq	16(%rsp), %r12
	leaq	32(%rsp), %rbp
	movq	$21, 8(%rsp)
	leaq	8(%rsp), %rsi
	movq	%r12, %rdi
	movq	%rbp, 16(%rsp)
.LEHB11:
	call	_ZNSt7__cxx1112basic_stringIcSt11char_traitsIcESaIcEE9_M_createERmm@PLT
.LEHE11:
	movq	8(%rsp), %rdx
	movdqa	.LC3(%rip), %xmm0
	movq	%rax, 16(%rsp)
	movq	%rdx, 32(%rsp)
	movups	%xmm0, (%rax)
	movq	16(%rsp), %rdx
	movl	$1869365792, 16(%rax)
	movb	$98, 20(%rax)
	movq	8(%rsp), %rax
	movq	%rax, 24(%rsp)
	movb	$0, (%rdx,%rax)
	movq	8(%rbx), %rdx
	movq	8(%rdx), %rax
	cmpq	%rax, (%rdx)
	je	.L179
	movq	16(%rsp), %rdi
	cmpq	%rbp, %rdi
	je	.L172
	call	_ZdlPv@PLT
	movq	8(%rbx), %rdx
.L172:
	movq	8(%rdx), %rax
	movq	-32(%rax), %rdi
	leaq	-32(%rax), %rcx
	subq	$16, %rax
	movq	%rcx, 8(%rdx)
	cmpq	%rax, %rdi
	je	.L168
	call	_ZdlPv@PLT
.L168:
	movq	56(%rsp), %rax
	xorq	%fs:40, %rax
	jne	.L180
	addq	$72, %rsp
	.cfi_remember_state
	.cfi_def_cfa_offset 40
	popq	%rbx
	.cfi_def_cfa_offset 32
	popq	%rbp
	.cfi_def_cfa_offset 24
	popq	%r12
	.cfi_def_cfa_offset 16
	popq	%r13
	.cfi_def_cfa_offset 8
	ret
.L180:
	.cfi_restore_state
	call	__stack_chk_fail@PLT
.L179:
	movl	$16, %edi
	call	__cxa_allocate_exception@PLT
	movq	%r12, %rsi
	movq	%rax, %rdi
	movq	%rax, %r13
.LEHB12:
	call	_ZNSt12out_of_rangeC1ERKNSt7__cxx1112basic_stringIcSt11char_traitsIcESaIcEEE@PLT
.LEHE12:
	movq	_ZNSt12out_of_rangeD1Ev@GOTPCREL(%rip), %rdx
	leaq	_ZTISt12out_of_range(%rip), %rsi
	movq	%r13, %rdi
.LEHB13:
	call	__cxa_throw@PLT
.LEHE13:
.L177:
	endbr64
	movq	%rax, %r12
	jmp	.L170
.L176:
	endbr64
	movq	%rax, %r12
	jmp	.L171
.L170:
	movq	%r13, %rdi
	call	__cxa_free_exception@PLT
.L171:
	movq	16(%rsp), %rdi
	cmpq	%rbp, %rdi
	je	.L174
	call	_ZdlPv@PLT
.L174:
	movq	%r12, %rdi
.LEHB14:
	call	_Unwind_Resume@PLT
.LEHE14:
	.cfi_endproc
.LFE3444:
	.section	.gcc_except_table._ZN4BlobINSt7__cxx1112basic_stringIcSt11char_traitsIcESaIcEEEE7popBackEv,"aG",@progbits,_ZN4BlobINSt7__cxx1112basic_stringIcSt11char_traitsIcESaIcEEEE7popBackEv,comdat
.LLSDA3444:
	.byte	0xff
	.byte	0xff
	.byte	0x1
	.uleb128 .LLSDACSE3444-.LLSDACSB3444
.LLSDACSB3444:
	.uleb128 .LEHB11-.LFB3444
	.uleb128 .LEHE11-.LEHB11
	.uleb128 0
	.uleb128 0
	.uleb128 .LEHB12-.LFB3444
	.uleb128 .LEHE12-.LEHB12
	.uleb128 .L177-.LFB3444
	.uleb128 0
	.uleb128 .LEHB13-.LFB3444
	.uleb128 .LEHE13-.LEHB13
	.uleb128 .L176-.LFB3444
	.uleb128 0
	.uleb128 .LEHB14-.LFB3444
	.uleb128 .LEHE14-.LEHB14
	.uleb128 0
	.uleb128 0
.LLSDACSE3444:
	.section	.text._ZN4BlobINSt7__cxx1112basic_stringIcSt11char_traitsIcESaIcEEEE7popBackEv,"axG",@progbits,_ZN4BlobINSt7__cxx1112basic_stringIcSt11char_traitsIcESaIcEEEE7popBackEv,comdat
	.size	_ZN4BlobINSt7__cxx1112basic_stringIcSt11char_traitsIcESaIcEEEE7popBackEv, .-_ZN4BlobINSt7__cxx1112basic_stringIcSt11char_traitsIcESaIcEEEE7popBackEv
	.section	.text._ZN4BlobINSt7__cxx1112basic_stringIcSt11char_traitsIcESaIcEEEEixEm,"axG",@progbits,_ZN4BlobINSt7__cxx1112basic_stringIcSt11char_traitsIcESaIcEEEEixEm,comdat
	.align 2
	.p2align 4
	.weak	_ZN4BlobINSt7__cxx1112basic_stringIcSt11char_traitsIcESaIcEEEEixEm
	.type	_ZN4BlobINSt7__cxx1112basic_stringIcSt11char_traitsIcESaIcEEEEixEm, @function
_ZN4BlobINSt7__cxx1112basic_stringIcSt11char_traitsIcESaIcEEEEixEm:
.LFB3445:
	.cfi_startproc
	.cfi_personality 0x9b,DW.ref.__gxx_personality_v0
	.cfi_lsda 0x1b,.LLSDA3445
	endbr64
	pushq	%r14
	.cfi_def_cfa_offset 16
	.cfi_offset 14, -16
	xorl	%edx, %edx
	pushq	%r13
	.cfi_def_cfa_offset 24
	.cfi_offset 13, -24
	pushq	%r12
	.cfi_def_cfa_offset 32
	.cfi_offset 12, -32
	pushq	%rbp
	.cfi_def_cfa_offset 40
	.cfi_offset 6, -40
	movq	%rdi, %rbp
	pushq	%rbx
	.cfi_def_cfa_offset 48
	.cfi_offset 3, -48
	movq	%rsi, %rbx
	subq	$64, %rsp
	.cfi_def_cfa_offset 112
	movq	%fs:40, %rax
	movq	%rax, 56(%rsp)
	xorl	%eax, %eax
	leaq	16(%rsp), %r13
	leaq	32(%rsp), %r12
	movq	$22, 8(%rsp)
	leaq	8(%rsp), %rsi
	movq	%r13, %rdi
	movq	%r12, 16(%rsp)
.LEHB15:
	call	_ZNSt7__cxx1112basic_stringIcSt11char_traitsIcESaIcEE9_M_createERmm@PLT
.LEHE15:
	movq	8(%rsp), %rdx
	movdqa	.LC4(%rip), %xmm0
	movq	%rax, 16(%rsp)
	movq	%rdx, 32(%rsp)
	movl	$25959, %edx
	movups	%xmm0, (%rax)
	movw	%dx, 20(%rax)
	movq	16(%rsp), %rdx
	movl	$1851879968, 16(%rax)
	movq	8(%rsp), %rax
	movq	%rax, 24(%rsp)
	movb	$0, (%rdx,%rax)
	movq	8(%rbp), %rdx
	movq	8(%rdx), %rax
	subq	(%rdx), %rax
	sarq	$5, %rax
	cmpq	%rax, %rbx
	jnb	.L192
	movq	16(%rsp), %rdi
	cmpq	%r12, %rdi
	je	.L185
	call	_ZdlPv@PLT
	movq	8(%rbp), %rdx
.L185:
	movq	(%rdx), %rax
	salq	$5, %rbx
	addq	%rbx, %rax
	movq	56(%rsp), %rcx
	xorq	%fs:40, %rcx
	jne	.L193
	addq	$64, %rsp
	.cfi_remember_state
	.cfi_def_cfa_offset 48
	popq	%rbx
	.cfi_def_cfa_offset 40
	popq	%rbp
	.cfi_def_cfa_offset 32
	popq	%r12
	.cfi_def_cfa_offset 24
	popq	%r13
	.cfi_def_cfa_offset 16
	popq	%r14
	.cfi_def_cfa_offset 8
	ret
.L193:
	.cfi_restore_state
	call	__stack_chk_fail@PLT
.L192:
	movl	$16, %edi
	call	__cxa_allocate_exception@PLT
	movq	%r13, %rsi
	movq	%rax, %rdi
	movq	%rax, %r14
.LEHB16:
	call	_ZNSt12out_of_rangeC1ERKNSt7__cxx1112basic_stringIcSt11char_traitsIcESaIcEEE@PLT
.LEHE16:
	movq	_ZNSt12out_of_rangeD1Ev@GOTPCREL(%rip), %rdx
	leaq	_ZTISt12out_of_range(%rip), %rsi
	movq	%r14, %rdi
.LEHB17:
	call	__cxa_throw@PLT
.LEHE17:
.L189:
	endbr64
	movq	%rax, %rbp
	jmp	.L183
.L188:
	endbr64
	movq	%rax, %rbp
	jmp	.L184
.L183:
	movq	%r14, %rdi
	call	__cxa_free_exception@PLT
.L184:
	movq	16(%rsp), %rdi
	cmpq	%r12, %rdi
	je	.L186
	call	_ZdlPv@PLT
.L186:
	movq	%rbp, %rdi
.LEHB18:
	call	_Unwind_Resume@PLT
.LEHE18:
	.cfi_endproc
.LFE3445:
	.section	.gcc_except_table._ZN4BlobINSt7__cxx1112basic_stringIcSt11char_traitsIcESaIcEEEEixEm,"aG",@progbits,_ZN4BlobINSt7__cxx1112basic_stringIcSt11char_traitsIcESaIcEEEEixEm,comdat
.LLSDA3445:
	.byte	0xff
	.byte	0xff
	.byte	0x1
	.uleb128 .LLSDACSE3445-.LLSDACSB3445
.LLSDACSB3445:
	.uleb128 .LEHB15-.LFB3445
	.uleb128 .LEHE15-.LEHB15
	.uleb128 0
	.uleb128 0
	.uleb128 .LEHB16-.LFB3445
	.uleb128 .LEHE16-.LEHB16
	.uleb128 .L189-.LFB3445
	.uleb128 0
	.uleb128 .LEHB17-.LFB3445
	.uleb128 .LEHE17-.LEHB17
	.uleb128 .L188-.LFB3445
	.uleb128 0
	.uleb128 .LEHB18-.LFB3445
	.uleb128 .LEHE18-.LEHB18
	.uleb128 0
	.uleb128 0
.LLSDACSE3445:
	.section	.text._ZN4BlobINSt7__cxx1112basic_stringIcSt11char_traitsIcESaIcEEEEixEm,"axG",@progbits,_ZN4BlobINSt7__cxx1112basic_stringIcSt11char_traitsIcESaIcEEEEixEm,comdat
	.size	_ZN4BlobINSt7__cxx1112basic_stringIcSt11char_traitsIcESaIcEEEEixEm, .-_ZN4BlobINSt7__cxx1112basic_stringIcSt11char_traitsIcESaIcEEEEixEm
	.section	.text._ZN4BlobIiEC2ESt16initializer_listIiE,"axG",@progbits,_ZN4BlobIiEC5ESt16initializer_listIiE,comdat
	.align 2
	.p2align 4
	.weak	_ZN4BlobIiEC2ESt16initializer_listIiE
	.type	_ZN4BlobIiEC2ESt16initializer_listIiE, @function
_ZN4BlobIiEC2ESt16initializer_listIiE:
.LFB3452:
	.cfi_startproc
	.cfi_personality 0x9b,DW.ref.__gxx_personality_v0
	.cfi_lsda 0x1b,.LLSDA3452
	endbr64
	pushq	%r15
	.cfi_def_cfa_offset 16
	.cfi_offset 15, -16
	leaq	16+_ZTV4BlobIiE(%rip), %rax
	pushq	%r14
	.cfi_def_cfa_offset 24
	.cfi_offset 14, -24
	movq	%rsi, %r14
	pushq	%r13
	.cfi_def_cfa_offset 32
	.cfi_offset 13, -32
	pushq	%r12
	.cfi_def_cfa_offset 40
	.cfi_offset 12, -40
	movq	%rdx, %r12
	pushq	%rbp
	.cfi_def_cfa_offset 48
	.cfi_offset 6, -48
	pushq	%rbx
	.cfi_def_cfa_offset 56
	.cfi_offset 3, -56
	movq	%rdi, %rbx
	subq	$8, %rsp
	.cfi_def_cfa_offset 64
	movq	%rax, (%rdi)
	movq	$0, 8(%rdi)
	movl	$40, %edi
.LEHB19:
	call	_Znwm@PLT
.LEHE19:
	movq	%rax, %rbp
	salq	$2, %r12
	leaq	16+_ZTVSt23_Sp_counted_ptr_inplaceISt6vectorIiSaIiEESaIS2_ELN9__gnu_cxx12_Lock_policyE2EE(%rip), %rax
	pxor	%xmm0, %xmm0
	movq	%rax, 0(%rbp)
	leaq	16(%rbp), %r13
	movabsq	$4294967297, %rax
	movabsq	$2305843009213693951, %rdx
	movq	%rax, 8(%rbp)
	movq	%r12, %rax
	sarq	$2, %rax
	movq	$0, 32(%rbp)
	movups	%xmm0, 16(%rbp)
	cmpq	%rdx, %rax
	ja	.L216
	testq	%rax, %rax
	je	.L203
	movq	%r12, %rdi
.LEHB20:
	call	_Znwm@PLT
	movq	%rax, %rdi
.L196:
	leaq	(%rdi,%r12), %r15
	movq	%rdi, 16(%rbp)
	movq	%r15, 32(%rbp)
	testq	%r12, %r12
	je	.L197
	movq	%r12, %rdx
	movq	%r14, %rsi
	call	memcpy@PLT
.L197:
	movq	%r13, %xmm0
	movq	%rbp, %xmm1
	movq	%r15, 24(%rbp)
	punpcklqdq	%xmm1, %xmm0
	movups	%xmm0, 8(%rbx)
	addq	$8, %rsp
	.cfi_remember_state
	.cfi_def_cfa_offset 56
	popq	%rbx
	.cfi_def_cfa_offset 48
	popq	%rbp
	.cfi_def_cfa_offset 40
	popq	%r12
	.cfi_def_cfa_offset 32
	popq	%r13
	.cfi_def_cfa_offset 24
	popq	%r14
	.cfi_def_cfa_offset 16
	popq	%r15
	.cfi_def_cfa_offset 8
	ret
	.p2align 4,,10
	.p2align 3
.L203:
	.cfi_restore_state
	xorl	%edi, %edi
	jmp	.L196
.L216:
	leaq	.LC1(%rip), %rdi
	call	_ZSt20__throw_length_errorPKc@PLT
.LEHE20:
.L205:
	endbr64
	movq	%rax, %rdi
	movq	%rdx, %rax
	jmp	.L200
.L206:
	endbr64
	movq	%rax, %rbx
	movq	%rdx, %r12
.L198:
	movq	16(%rbp), %rdi
	testq	%rdi, %rdi
	je	.L199
	call	_ZdlPv@PLT
.L199:
	movq	%rbp, %rdi
	call	_ZdlPv@PLT
	movq	%rbx, %rdi
	movq	%r12, %rax
.L200:
	subq	$1, %rax
	jne	.L215
	call	__cxa_begin_catch@PLT
	movq	%rax, %rdi
.LEHB21:
	call	_ZN4BlobIiE20handle_out_of_memoryERKSt9exception.isra.0
	call	__cxa_rethrow@PLT
.LEHE21:
.L202:
	call	__cxa_end_catch@PLT
	movq	%rbp, %rdi
.L215:
.LEHB22:
	call	_Unwind_Resume@PLT
.LEHE22:
.L204:
	endbr64
	movq	%rax, %rbp
	jmp	.L202
	.cfi_endproc
.LFE3452:
	.section	.gcc_except_table._ZN4BlobIiEC2ESt16initializer_listIiE,"aG",@progbits,_ZN4BlobIiEC5ESt16initializer_listIiE,comdat
	.align 4
.LLSDA3452:
	.byte	0xff
	.byte	0x9b
	.uleb128 .LLSDATT3452-.LLSDATTD3452
.LLSDATTD3452:
	.byte	0x1
	.uleb128 .LLSDACSE3452-.LLSDACSB3452
.LLSDACSB3452:
	.uleb128 .LEHB19-.LFB3452
	.uleb128 .LEHE19-.LEHB19
	.uleb128 .L205-.LFB3452
	.uleb128 0x1
	.uleb128 .LEHB20-.LFB3452
	.uleb128 .LEHE20-.LEHB20
	.uleb128 .L206-.LFB3452
	.uleb128 0x3
	.uleb128 .LEHB21-.LFB3452
	.uleb128 .LEHE21-.LEHB21
	.uleb128 .L204-.LFB3452
	.uleb128 0
	.uleb128 .LEHB22-.LFB3452
	.uleb128 .LEHE22-.LEHB22
	.uleb128 0
	.uleb128 0
.LLSDACSE3452:
	.byte	0x1
	.byte	0
	.byte	0
	.byte	0x7d
	.align 4
	.long	DW.ref._ZTISt9bad_alloc-.
.LLSDATT3452:
	.section	.text._ZN4BlobIiEC2ESt16initializer_listIiE,"axG",@progbits,_ZN4BlobIiEC5ESt16initializer_listIiE,comdat
	.size	_ZN4BlobIiEC2ESt16initializer_listIiE, .-_ZN4BlobIiEC2ESt16initializer_listIiE
	.weak	_ZN4BlobIiEC1ESt16initializer_listIiE
	.set	_ZN4BlobIiEC1ESt16initializer_listIiE,_ZN4BlobIiEC2ESt16initializer_listIiE
	.section	.text._ZNSt16_Sp_counted_baseILN9__gnu_cxx12_Lock_policyE2EE15_M_weak_releaseEv,"axG",@progbits,_ZNSt16_Sp_counted_baseILN9__gnu_cxx12_Lock_policyE2EE15_M_weak_releaseEv,comdat
	.align 2
	.p2align 4
	.weak	_ZNSt16_Sp_counted_baseILN9__gnu_cxx12_Lock_policyE2EE15_M_weak_releaseEv
	.type	_ZNSt16_Sp_counted_baseILN9__gnu_cxx12_Lock_policyE2EE15_M_weak_releaseEv, @function
_ZNSt16_Sp_counted_baseILN9__gnu_cxx12_Lock_policyE2EE15_M_weak_releaseEv:
.LFB3600:
	.cfi_startproc
	endbr64
	cmpq	$0, _ZL28__gthrw___pthread_key_createPjPFvPvE@GOTPCREL(%rip)
	je	.L218
	movl	$-1, %eax
	lock xaddl	%eax, 12(%rdi)
	cmpl	$1, %eax
	je	.L221
.L217:
	ret
	.p2align 4,,10
	.p2align 3
.L218:
	movl	12(%rdi), %eax
	leal	-1(%rax), %edx
	movl	%edx, 12(%rdi)
	cmpl	$1, %eax
	jne	.L217
.L221:
	movq	(%rdi), %rax
	jmp	*24(%rax)
	.cfi_endproc
.LFE3600:
	.size	_ZNSt16_Sp_counted_baseILN9__gnu_cxx12_Lock_policyE2EE15_M_weak_releaseEv, .-_ZNSt16_Sp_counted_baseILN9__gnu_cxx12_Lock_policyE2EE15_M_weak_releaseEv
	.section	.text._ZNSt16_Sp_counted_baseILN9__gnu_cxx12_Lock_policyE2EE10_M_releaseEv,"axG",@progbits,_ZNSt16_Sp_counted_baseILN9__gnu_cxx12_Lock_policyE2EE10_M_releaseEv,comdat
	.align 2
	.p2align 4
	.weak	_ZNSt16_Sp_counted_baseILN9__gnu_cxx12_Lock_policyE2EE10_M_releaseEv
	.type	_ZNSt16_Sp_counted_baseILN9__gnu_cxx12_Lock_policyE2EE10_M_releaseEv, @function
_ZNSt16_Sp_counted_baseILN9__gnu_cxx12_Lock_policyE2EE10_M_releaseEv:
.LFB3639:
	.cfi_startproc
	endbr64
	pushq	%rbp
	.cfi_def_cfa_offset 16
	.cfi_offset 6, -16
	movq	%rdi, %rbp
	pushq	%rbx
	.cfi_def_cfa_offset 24
	.cfi_offset 3, -24
	subq	$8, %rsp
	.cfi_def_cfa_offset 32
	movq	_ZL28__gthrw___pthread_key_createPjPFvPvE@GOTPCREL(%rip), %rbx
	testq	%rbx, %rbx
	je	.L223
	movl	$-1, %eax
	lock xaddl	%eax, 8(%rdi)
	cmpl	$1, %eax
	je	.L231
.L222:
	addq	$8, %rsp
	.cfi_remember_state
	.cfi_def_cfa_offset 24
	popq	%rbx
	.cfi_def_cfa_offset 16
	popq	%rbp
	.cfi_def_cfa_offset 8
	ret
	.p2align 4,,10
	.p2align 3
.L223:
	.cfi_restore_state
	movl	8(%rdi), %eax
	leal	-1(%rax), %edx
	movl	%edx, 8(%rdi)
	cmpl	$1, %eax
	jne	.L222
.L231:
	movq	0(%rbp), %rax
	movq	%rbp, %rdi
	call	*16(%rax)
	testq	%rbx, %rbx
	je	.L227
	movl	$-1, %eax
	lock xaddl	%eax, 12(%rbp)
.L228:
	cmpl	$1, %eax
	jne	.L222
	movq	0(%rbp), %rax
	movq	%rbp, %rdi
	movq	24(%rax), %rax
	addq	$8, %rsp
	.cfi_remember_state
	.cfi_def_cfa_offset 24
	popq	%rbx
	.cfi_def_cfa_offset 16
	popq	%rbp
	.cfi_def_cfa_offset 8
	jmp	*%rax
	.p2align 4,,10
	.p2align 3
.L227:
	.cfi_restore_state
	movl	12(%rbp), %eax
	leal	-1(%rax), %edx
	movl	%edx, 12(%rbp)
	jmp	.L228
	.cfi_endproc
.LFE3639:
	.size	_ZNSt16_Sp_counted_baseILN9__gnu_cxx12_Lock_policyE2EE10_M_releaseEv, .-_ZNSt16_Sp_counted_baseILN9__gnu_cxx12_Lock_policyE2EE10_M_releaseEv
	.section	.text._ZNK7BlobPtrINSt7__cxx1112basic_stringIcSt11char_traitsIcESaIcEEEE5checkEmRKS5_,"axG",@progbits,_ZNK7BlobPtrINSt7__cxx1112basic_stringIcSt11char_traitsIcESaIcEEEE5checkEmRKS5_,comdat
	.align 2
	.p2align 4
	.weak	_ZNK7BlobPtrINSt7__cxx1112basic_stringIcSt11char_traitsIcESaIcEEEE5checkEmRKS5_
	.type	_ZNK7BlobPtrINSt7__cxx1112basic_stringIcSt11char_traitsIcESaIcEEEE5checkEmRKS5_, @function
_ZNK7BlobPtrINSt7__cxx1112basic_stringIcSt11char_traitsIcESaIcEEEE5checkEmRKS5_:
.LFB3601:
	.cfi_startproc
	.cfi_personality 0x9b,DW.ref.__gxx_personality_v0
	.cfi_lsda 0x1b,.LLSDA3601
	endbr64
	pushq	%r13
	.cfi_def_cfa_offset 16
	.cfi_offset 13, -16
	pushq	%r12
	.cfi_def_cfa_offset 24
	.cfi_offset 12, -24
	pushq	%rbp
	.cfi_def_cfa_offset 32
	.cfi_offset 6, -32
	pushq	%rbx
	.cfi_def_cfa_offset 40
	.cfi_offset 3, -40
	subq	$24, %rsp
	.cfi_def_cfa_offset 64
	movq	16(%rsi), %rbp
	testq	%rbp, %rbp
	je	.L233
	movl	8(%rbp), %eax
	movq	%rdi, %r12
	leaq	8(%rbp), %r8
.L235:
	testl	%eax, %eax
	je	.L233
	leal	1(%rax), %edi
	lock cmpxchgl	%edi, (%r8)
	jne	.L235
	movl	(%r8), %eax
	testl	%eax, %eax
	je	.L236
	movq	8(%rsi), %rdi
	testq	%rdi, %rdi
	je	.L236
	movq	8(%rdi), %rax
	subq	(%rdi), %rax
	sarq	$5, %rax
	cmpq	%rax, %rdx
	jnb	.L236
	movq	%rdi, %xmm0
	movq	%rbp, %xmm1
	movq	_ZL28__gthrw___pthread_key_createPjPFvPvE@GOTPCREL(%rip), %rbx
	punpcklqdq	%xmm1, %xmm0
	movups	%xmm0, (%r12)
	testq	%rbx, %rbx
	je	.L239
	lock addl	$1, (%r8)
	movl	$-1, %eax
	lock xaddl	%eax, (%r8)
	cmpl	$1, %eax
	je	.L270
.L232:
	addq	$24, %rsp
	.cfi_remember_state
	.cfi_def_cfa_offset 40
	movq	%r12, %rax
	popq	%rbx
	.cfi_def_cfa_offset 32
	popq	%rbp
	.cfi_def_cfa_offset 24
	popq	%r12
	.cfi_def_cfa_offset 16
	popq	%r13
	.cfi_def_cfa_offset 8
	ret
	.p2align 4,,10
	.p2align 3
.L233:
	.cfi_restore_state
	xorl	%ebp, %ebp
.L236:
	movl	$16, %edi
	movq	%rcx, 8(%rsp)
	call	__cxa_allocate_exception@PLT
	movq	8(%rsp), %rcx
	movq	%rax, %rdi
	movq	%rax, %r13
	movq	%rcx, %rsi
.LEHB23:
	call	_ZNSt12out_of_rangeC1ERKNSt7__cxx1112basic_stringIcSt11char_traitsIcESaIcEEE@PLT
.LEHE23:
	movq	_ZNSt12out_of_rangeD1Ev@GOTPCREL(%rip), %rdx
	leaq	_ZTISt12out_of_range(%rip), %rsi
	movq	%r13, %rdi
.LEHB24:
	call	__cxa_throw@PLT
.LEHE24:
	.p2align 4,,10
	.p2align 3
.L239:
	addl	$1, 8(%rbp)
	movl	8(%rbp), %eax
	leal	-1(%rax), %edx
	movl	%edx, 8(%rbp)
	cmpl	$1, %eax
	jne	.L232
.L270:
	movq	0(%rbp), %rax
	movq	%rbp, %rdi
	call	*16(%rax)
	testq	%rbx, %rbx
	je	.L244
	movl	$-1, %eax
	lock xaddl	%eax, 12(%rbp)
.L245:
	cmpl	$1, %eax
	jne	.L232
	movq	0(%rbp), %rax
	movq	%rbp, %rdi
	call	*24(%rax)
	jmp	.L232
	.p2align 4,,10
	.p2align 3
.L244:
	movl	12(%rbp), %eax
	leal	-1(%rax), %edx
	movl	%edx, 12(%rbp)
	jmp	.L245
.L255:
	endbr64
	movq	%rax, %r12
	jmp	.L248
.L254:
	endbr64
	movq	%rax, %r12
.L247:
	movq	%r13, %rdi
	call	__cxa_free_exception@PLT
.L248:
	testq	%rbp, %rbp
	je	.L249
	movq	%rbp, %rdi
	call	_ZNSt16_Sp_counted_baseILN9__gnu_cxx12_Lock_policyE2EE10_M_releaseEv
.L249:
	movq	%r12, %rdi
.LEHB25:
	call	_Unwind_Resume@PLT
.LEHE25:
	.cfi_endproc
.LFE3601:
	.section	.gcc_except_table._ZNK7BlobPtrINSt7__cxx1112basic_stringIcSt11char_traitsIcESaIcEEEE5checkEmRKS5_,"aG",@progbits,_ZNK7BlobPtrINSt7__cxx1112basic_stringIcSt11char_traitsIcESaIcEEEE5checkEmRKS5_,comdat
.LLSDA3601:
	.byte	0xff
	.byte	0xff
	.byte	0x1
	.uleb128 .LLSDACSE3601-.LLSDACSB3601
.LLSDACSB3601:
	.uleb128 .LEHB23-.LFB3601
	.uleb128 .LEHE23-.LEHB23
	.uleb128 .L254-.LFB3601
	.uleb128 0
	.uleb128 .LEHB24-.LFB3601
	.uleb128 .LEHE24-.LEHB24
	.uleb128 .L255-.LFB3601
	.uleb128 0
	.uleb128 .LEHB25-.LFB3601
	.uleb128 .LEHE25-.LEHB25
	.uleb128 0
	.uleb128 0
.LLSDACSE3601:
	.section	.text._ZNK7BlobPtrINSt7__cxx1112basic_stringIcSt11char_traitsIcESaIcEEEE5checkEmRKS5_,"axG",@progbits,_ZNK7BlobPtrINSt7__cxx1112basic_stringIcSt11char_traitsIcESaIcEEEE5checkEmRKS5_,comdat
	.size	_ZNK7BlobPtrINSt7__cxx1112basic_stringIcSt11char_traitsIcESaIcEEEE5checkEmRKS5_, .-_ZNK7BlobPtrINSt7__cxx1112basic_stringIcSt11char_traitsIcESaIcEEEE5checkEmRKS5_
	.section	.rodata._Z8CastTestIiER4BlobIT_ER10DeriveBlobIS1_E.str1.1,"aMS",@progbits,1
.LC5:
	.string	" to "
.LC6:
	.string	"Caught:"
	.section	.text._Z8CastTestIiER4BlobIT_ER10DeriveBlobIS1_E,"axG",@progbits,_Z8CastTestIiER4BlobIT_ER10DeriveBlobIS1_E,comdat
	.p2align 4
	.weak	_Z8CastTestIiER4BlobIT_ER10DeriveBlobIS1_E
	.type	_Z8CastTestIiER4BlobIT_ER10DeriveBlobIS1_E, @function
_Z8CastTestIiER4BlobIT_ER10DeriveBlobIS1_E:
.LFB3501:
	.cfi_startproc
	.cfi_personality 0x9b,DW.ref.__gxx_personality_v0
	.cfi_lsda 0x1b,.LLSDA3501
	endbr64
	pushq	%r13
	.cfi_def_cfa_offset 16
	.cfi_offset 13, -16
	pushq	%r12
	.cfi_def_cfa_offset 24
	.cfi_offset 12, -24
	pushq	%rbp
	.cfi_def_cfa_offset 32
	.cfi_offset 6, -32
	pushq	%rbx
	.cfi_def_cfa_offset 40
	.cfi_offset 3, -40
	movq	%rdi, %rbx
	movl	$40, %edi
	subq	$24, %rsp
	.cfi_def_cfa_offset 64
	movq	%fs:40, %rax
	movq	%rax, 8(%rsp)
	xorl	%eax, %eax
.LEHB26:
	call	_Znwm@PLT
.LEHE26:
	pxor	%xmm0, %xmm0
	movq	%rax, %rbp
	leaq	16+_ZTVSt23_Sp_counted_ptr_inplaceISt6vectorIiSaIiEESaIS2_ELN9__gnu_cxx12_Lock_policyE2EE(%rip), %rax
	movq	%rax, 0(%rbp)
	movabsq	$4294967297, %rax
	movq	%rax, 8(%rbp)
	movq	(%rbx), %rax
	movq	$0, 32(%rbp)
	movq	-8(%rax), %rax
	movups	%xmm0, 16(%rbp)
	movq	8(%rax), %r12
	xorl	%eax, %eax
	cmpb	$42, (%r12)
	sete	%al
	addq	%rax, %r12
	movq	%r12, %rdi
	call	strlen@PLT
	movq	%r12, %rsi
	leaq	_ZSt4cout(%rip), %rdi
	movq	%rax, %rdx
.LEHB27:
	call	_ZSt16__ostream_insertIcSt11char_traitsIcEERSt13basic_ostreamIT_T0_ES6_PKS3_l@PLT
	movl	$4, %edx
	leaq	.LC5(%rip), %rsi
	leaq	_ZSt4cout(%rip), %rdi
	call	_ZSt16__ostream_insertIcSt11char_traitsIcEERSt13basic_ostreamIT_T0_ES6_PKS3_l@PLT
	movl	$8, %edx
	leaq	_ZTS4BlobIiE(%rip), %rsi
	leaq	_ZSt4cout(%rip), %rdi
	call	_ZSt16__ostream_insertIcSt11char_traitsIcEERSt13basic_ostreamIT_T0_ES6_PKS3_l@PLT
	movq	_ZSt4cout(%rip), %rax
	leaq	_ZSt4cout(%rip), %rdx
	movq	-24(%rax), %rax
	movq	240(%rdx,%rax), %r12
	testq	%r12, %r12
	je	.L308
	cmpb	$0, 56(%r12)
	je	.L274
	movsbl	67(%r12), %esi
.L275:
	leaq	_ZSt4cout(%rip), %rdi
	call	_ZNSo3putEc@PLT
	movq	%rax, %rdi
	call	_ZNSo5flushEv@PLT
.LEHE27:
	movq	16(%rbx), %r12
	cmpq	%rbp, %r12
	je	.L276
	movq	_ZL28__gthrw___pthread_key_createPjPFvPvE@GOTPCREL(%rip), %rbx
	testq	%r12, %r12
	je	.L277
	testq	%rbx, %rbx
	je	.L278
	lock addl	$1, 8(%r12)
.L277:
	testq	%rbx, %rbx
	je	.L305
	movl	$-1, %eax
	lock xaddl	%eax, 8(%rbp)
	cmpl	$1, %eax
	je	.L309
.L281:
	testq	%r12, %r12
	jne	.L286
.L287:
	movq	8(%rsp), %rax
	xorq	%fs:40, %rax
	jne	.L310
	addq	$24, %rsp
	.cfi_remember_state
	.cfi_def_cfa_offset 40
	xorl	%eax, %eax
	popq	%rbx
	.cfi_def_cfa_offset 32
	popq	%rbp
	.cfi_def_cfa_offset 24
	popq	%r12
	.cfi_def_cfa_offset 16
	popq	%r13
	.cfi_def_cfa_offset 8
	ret
.L293:
	.cfi_restore_state
	subq	$1, %rax
	movq	%rdi, %r12
	jne	.L295
	leaq	16+_ZTVSt8bad_cast(%rip), %rax
	movq	%rsp, %r13
	movq	%rax, (%rsp)
	call	__cxa_begin_catch@PLT
	movl	$7, %edx
	leaq	.LC6(%rip), %rsi
	leaq	_ZSt4cerr(%rip), %rdi
.LEHB28:
	call	_ZSt16__ostream_insertIcSt11char_traitsIcEERSt13basic_ostreamIT_T0_ES6_PKS3_l@PLT
	movq	%rsp, %r13
	movq	%r13, %rdi
	call	_ZNKSt8bad_cast4whatEv@PLT
	leaq	_ZSt4cerr(%rip), %rdi
	movq	%rax, %rsi
	call	_ZStlsISt11char_traitsIcEERSt13basic_ostreamIcT_ES5_PKc@PLT
	movq	%rax, %rdi
	call	_ZSt4endlIcSt11char_traitsIcEERSt13basic_ostreamIT_T0_ES6_@PLT
.LEHE28:
	movq	%r13, %rdi
	call	_ZNSt8bad_castD1Ev@PLT
	call	__cxa_end_catch@PLT
	.p2align 4,,10
	.p2align 3
.L276:
	movq	_ZL28__gthrw___pthread_key_createPjPFvPvE@GOTPCREL(%rip), %rbx
	movq	%rbp, %r12
.L286:
	testq	%rbx, %rbx
	je	.L288
	movl	$-1, %eax
	lock xaddl	%eax, 8(%r12)
.L289:
	cmpl	$1, %eax
	jne	.L287
	movq	(%r12), %rax
	movq	%r12, %rdi
	call	*16(%rax)
	testq	%rbx, %rbx
	je	.L291
	movl	$-1, %eax
	lock xaddl	%eax, 12(%r12)
.L292:
	cmpl	$1, %eax
	jne	.L287
	movq	(%r12), %rax
	movq	%r12, %rdi
	call	*24(%rax)
	jmp	.L287
	.p2align 4,,10
	.p2align 3
.L274:
	movq	%r12, %rdi
.LEHB29:
	call	_ZNKSt5ctypeIcE13_M_widen_initEv@PLT
	movq	(%r12), %rax
	leaq	_ZNKSt5ctypeIcE8do_widenEc(%rip), %rdx
	movl	$10, %esi
	movq	48(%rax), %rax
	cmpq	%rdx, %rax
	je	.L275
	movq	%r12, %rdi
	call	*%rax
	movsbl	%al, %esi
	jmp	.L275
	.p2align 4,,10
	.p2align 3
.L288:
	movl	8(%r12), %eax
	leal	-1(%rax), %edx
	movl	%edx, 8(%r12)
	jmp	.L289
	.p2align 4,,10
	.p2align 3
.L278:
	addl	$1, 8(%r12)
.L305:
	movl	8(%rbp), %eax
	leal	-1(%rax), %edx
	movl	%edx, 8(%rbp)
	cmpl	$1, %eax
	jne	.L281
.L309:
	movq	0(%rbp), %rax
	movq	%rbp, %rdi
	call	*16(%rax)
	testq	%rbx, %rbx
	je	.L284
	movl	$-1, %eax
	lock xaddl	%eax, 12(%rbp)
.L285:
	cmpl	$1, %eax
	jne	.L281
	movq	0(%rbp), %rax
	movq	%rbp, %rdi
	call	*24(%rax)
	jmp	.L281
	.p2align 4,,10
	.p2align 3
.L291:
	movl	12(%r12), %eax
	leal	-1(%rax), %edx
	movl	%edx, 12(%r12)
	jmp	.L292
	.p2align 4,,10
	.p2align 3
.L284:
	movl	12(%rbp), %eax
	leal	-1(%rax), %edx
	movl	%edx, 12(%rbp)
	jmp	.L285
.L308:
	call	_ZSt16__throw_bad_castv@PLT
.LEHE29:
.L310:
	call	__stack_chk_fail@PLT
.L300:
	endbr64
	movq	%rax, %rdi
	movq	%rdx, %rax
	jmp	.L293
.L296:
	movq	%r13, %rdi
	call	_ZNSt8bad_castD1Ev@PLT
	call	__cxa_end_catch@PLT
.L295:
	movq	%rbp, %rdi
	call	_ZNSt16_Sp_counted_baseILN9__gnu_cxx12_Lock_policyE2EE10_M_releaseEv
	movq	%r12, %rdi
.LEHB30:
	call	_Unwind_Resume@PLT
.LEHE30:
.L301:
	endbr64
	movq	%rax, %r12
	jmp	.L296
	.cfi_endproc
.LFE3501:
	.section	.gcc_except_table._Z8CastTestIiER4BlobIT_ER10DeriveBlobIS1_E,"aG",@progbits,_Z8CastTestIiER4BlobIT_ER10DeriveBlobIS1_E,comdat
	.align 4
.LLSDA3501:
	.byte	0xff
	.byte	0x9b
	.uleb128 .LLSDATT3501-.LLSDATTD3501
.LLSDATTD3501:
	.byte	0x1
	.uleb128 .LLSDACSE3501-.LLSDACSB3501
.LLSDACSB3501:
	.uleb128 .LEHB26-.LFB3501
	.uleb128 .LEHE26-.LEHB26
	.uleb128 0
	.uleb128 0
	.uleb128 .LEHB27-.LFB3501
	.uleb128 .LEHE27-.LEHB27
	.uleb128 .L300-.LFB3501
	.uleb128 0x3
	.uleb128 .LEHB28-.LFB3501
	.uleb128 .LEHE28-.LEHB28
	.uleb128 .L301-.LFB3501
	.uleb128 0
	.uleb128 .LEHB29-.LFB3501
	.uleb128 .LEHE29-.LEHB29
	.uleb128 .L300-.LFB3501
	.uleb128 0x3
	.uleb128 .LEHB30-.LFB3501
	.uleb128 .LEHE30-.LEHB30
	.uleb128 0
	.uleb128 0
.LLSDACSE3501:
	.byte	0
	.byte	0
	.byte	0x1
	.byte	0x7d
	.align 4
	.long	DW.ref._ZTISt8bad_cast-.
.LLSDATT3501:
	.section	.text._Z8CastTestIiER4BlobIT_ER10DeriveBlobIS1_E,"axG",@progbits,_Z8CastTestIiER4BlobIT_ER10DeriveBlobIS1_E,comdat
	.size	_Z8CastTestIiER4BlobIT_ER10DeriveBlobIS1_E, .-_Z8CastTestIiER4BlobIT_ER10DeriveBlobIS1_E
	.section	.text._Z8CastTestIiER10DeriveBlobIT_ER4BlobIS1_E,"axG",@progbits,_Z8CastTestIiER10DeriveBlobIT_ER4BlobIS1_E,comdat
	.p2align 4
	.weak	_Z8CastTestIiER10DeriveBlobIT_ER4BlobIS1_E
	.type	_Z8CastTestIiER10DeriveBlobIT_ER4BlobIS1_E, @function
_Z8CastTestIiER10DeriveBlobIT_ER4BlobIS1_E:
.LFB3484:
	.cfi_startproc
	.cfi_personality 0x9b,DW.ref.__gxx_personality_v0
	.cfi_lsda 0x1b,.LLSDA3484
	endbr64
	pushq	%r13
	.cfi_def_cfa_offset 16
	.cfi_offset 13, -16
	movq	%rdi, %r13
	movl	$40, %edi
	pushq	%r12
	.cfi_def_cfa_offset 24
	.cfi_offset 12, -24
	pushq	%rbp
	.cfi_def_cfa_offset 32
	.cfi_offset 6, -32
	subq	$32, %rsp
	.cfi_def_cfa_offset 64
	movq	%fs:40, %rax
	movq	%rax, 24(%rsp)
	xorl	%eax, %eax
.LEHB31:
	call	_Znwm@PLT
.LEHE31:
	pxor	%xmm0, %xmm0
	movq	%rax, %rbp
	leaq	16+_ZTVSt23_Sp_counted_ptr_inplaceISt6vectorIiSaIiEESaIS2_ELN9__gnu_cxx12_Lock_policyE2EE(%rip), %rax
	movq	%rax, 0(%rbp)
	movabsq	$4294967297, %rax
	movq	%rax, 8(%rbp)
	movq	0(%r13), %rax
	movq	$0, 32(%rbp)
	movq	-8(%rax), %rax
	movups	%xmm0, 16(%rbp)
	movq	8(%rax), %r12
	xorl	%eax, %eax
	cmpb	$42, (%r12)
	sete	%al
	addq	%rax, %r12
	movq	%r12, %rdi
	call	strlen@PLT
	movq	%r12, %rsi
	leaq	_ZSt4cout(%rip), %rdi
	movq	%rax, %rdx
.LEHB32:
	call	_ZSt16__ostream_insertIcSt11char_traitsIcEERSt13basic_ostreamIT_T0_ES6_PKS3_l@PLT
	movl	$4, %edx
	leaq	.LC5(%rip), %rsi
	leaq	_ZSt4cout(%rip), %rdi
	call	_ZSt16__ostream_insertIcSt11char_traitsIcEERSt13basic_ostreamIT_T0_ES6_PKS3_l@PLT
	movl	$15, %edx
	leaq	_ZTS10DeriveBlobIiE(%rip), %rsi
	leaq	_ZSt4cout(%rip), %rdi
	call	_ZSt16__ostream_insertIcSt11char_traitsIcEERSt13basic_ostreamIT_T0_ES6_PKS3_l@PLT
	movq	_ZSt4cout(%rip), %rax
	leaq	_ZSt4cout(%rip), %rdx
	movq	-24(%rax), %rax
	movq	240(%rdx,%rax), %r12
	testq	%r12, %r12
	je	.L349
	cmpb	$0, 56(%r12)
	je	.L314
	movsbl	67(%r12), %esi
.L315:
	leaq	_ZSt4cout(%rip), %rdi
	call	_ZNSo3putEc@PLT
	movq	%rax, %rdi
	call	_ZNSo5flushEv@PLT
.LEHE32:
	xorl	%ecx, %ecx
	leaq	_ZTI10DeriveBlobIiE(%rip), %rdx
	leaq	_ZTI4BlobIiE(%rip), %rsi
	movq	%r13, %rdi
	call	__dynamic_cast@PLT
	testq	%rax, %rax
	je	.L316
	movq	16(%rax), %r12
	cmpq	%rbp, %r12
	je	.L317
	movq	_ZL28__gthrw___pthread_key_createPjPFvPvE@GOTPCREL(%rip), %r13
	testq	%r12, %r12
	je	.L318
	testq	%r13, %r13
	je	.L319
	lock addl	$1, 8(%r12)
.L318:
	testq	%r13, %r13
	je	.L346
	movl	$-1, %eax
	lock xaddl	%eax, 8(%rbp)
	cmpl	$1, %eax
	je	.L350
.L322:
	testq	%r12, %r12
	jne	.L327
.L329:
	movq	24(%rsp), %rax
	xorq	%fs:40, %rax
	jne	.L351
	addq	$32, %rsp
	.cfi_remember_state
	.cfi_def_cfa_offset 32
	xorl	%eax, %eax
	popq	%rbp
	.cfi_def_cfa_offset 24
	popq	%r12
	.cfi_def_cfa_offset 16
	popq	%r13
	.cfi_def_cfa_offset 8
	ret
.L334:
	.cfi_restore_state
	subq	$1, %rax
	movq	%rdi, %r12
	jne	.L336
	leaq	16+_ZTVSt8bad_cast(%rip), %rax
	leaq	16(%rsp), %r13
	movq	%rax, 16(%rsp)
	call	__cxa_begin_catch@PLT
	movl	$7, %edx
	leaq	.LC6(%rip), %rsi
	leaq	_ZSt4cerr(%rip), %rdi
.LEHB33:
	call	_ZSt16__ostream_insertIcSt11char_traitsIcEERSt13basic_ostreamIT_T0_ES6_PKS3_l@PLT
	leaq	16(%rsp), %r13
	movq	%r13, %rdi
	call	_ZNKSt8bad_cast4whatEv@PLT
	leaq	_ZSt4cerr(%rip), %rdi
	movq	%rax, %rsi
	call	_ZStlsISt11char_traitsIcEERSt13basic_ostreamIcT_ES5_PKc@PLT
	movq	%rax, %rdi
	leaq	15(%rsp), %rsi
	movl	$1, %edx
	movb	$10, 15(%rsp)
	call	_ZSt16__ostream_insertIcSt11char_traitsIcEERSt13basic_ostreamIT_T0_ES6_PKS3_l@PLT
.LEHE33:
	movq	%r13, %rdi
	call	_ZNSt8bad_castD1Ev@PLT
	call	__cxa_end_catch@PLT
	.p2align 4,,10
	.p2align 3
.L317:
	movq	_ZL28__gthrw___pthread_key_createPjPFvPvE@GOTPCREL(%rip), %r13
	movq	%rbp, %r12
.L327:
	testq	%r13, %r13
	je	.L330
	movl	$-1, %eax
	lock xaddl	%eax, 8(%r12)
.L331:
	cmpl	$1, %eax
	jne	.L329
	movq	(%r12), %rax
	movq	%r12, %rdi
	call	*16(%rax)
	testq	%r13, %r13
	je	.L332
	movl	$-1, %eax
	lock xaddl	%eax, 12(%r12)
.L333:
	cmpl	$1, %eax
	jne	.L329
	movq	(%r12), %rax
	movq	%r12, %rdi
	call	*24(%rax)
	jmp	.L329
	.p2align 4,,10
	.p2align 3
.L314:
	movq	%r12, %rdi
.LEHB34:
	call	_ZNKSt5ctypeIcE13_M_widen_initEv@PLT
	movq	(%r12), %rax
	leaq	_ZNKSt5ctypeIcE8do_widenEc(%rip), %rdx
	movl	$10, %esi
	movq	48(%rax), %rax
	cmpq	%rdx, %rax
	je	.L315
	movq	%r12, %rdi
	call	*%rax
	movsbl	%al, %esi
	jmp	.L315
	.p2align 4,,10
	.p2align 3
.L330:
	movl	8(%r12), %eax
	leal	-1(%rax), %edx
	movl	%edx, 8(%r12)
	jmp	.L331
	.p2align 4,,10
	.p2align 3
.L319:
	addl	$1, 8(%r12)
.L346:
	movl	8(%rbp), %eax
	leal	-1(%rax), %edx
	movl	%edx, 8(%rbp)
	cmpl	$1, %eax
	jne	.L322
.L350:
	movq	0(%rbp), %rax
	movq	%rbp, %rdi
	call	*16(%rax)
	testq	%r13, %r13
	je	.L325
	movl	$-1, %eax
	lock xaddl	%eax, 12(%rbp)
.L326:
	cmpl	$1, %eax
	jne	.L322
	movq	0(%rbp), %rax
	movq	%rbp, %rdi
	call	*24(%rax)
	jmp	.L322
	.p2align 4,,10
	.p2align 3
.L332:
	movl	12(%r12), %eax
	leal	-1(%rax), %edx
	movl	%edx, 12(%r12)
	jmp	.L333
	.p2align 4,,10
	.p2align 3
.L325:
	movl	12(%rbp), %eax
	leal	-1(%rax), %edx
	movl	%edx, 12(%rbp)
	jmp	.L326
.L349:
	call	_ZSt16__throw_bad_castv@PLT
.L351:
	call	__stack_chk_fail@PLT
.L316:
	call	__cxa_bad_cast@PLT
.LEHE34:
.L341:
	endbr64
	movq	%rax, %rdi
	movq	%rdx, %rax
	jmp	.L334
.L337:
	movq	%r13, %rdi
	call	_ZNSt8bad_castD1Ev@PLT
	call	__cxa_end_catch@PLT
.L336:
	movq	%rbp, %rdi
	call	_ZNSt16_Sp_counted_baseILN9__gnu_cxx12_Lock_policyE2EE10_M_releaseEv
	movq	%r12, %rdi
.LEHB35:
	call	_Unwind_Resume@PLT
.LEHE35:
.L342:
	endbr64
	movq	%rax, %r12
	jmp	.L337
	.cfi_endproc
.LFE3484:
	.section	.gcc_except_table._Z8CastTestIiER10DeriveBlobIT_ER4BlobIS1_E,"aG",@progbits,_Z8CastTestIiER10DeriveBlobIT_ER4BlobIS1_E,comdat
	.align 4
.LLSDA3484:
	.byte	0xff
	.byte	0x9b
	.uleb128 .LLSDATT3484-.LLSDATTD3484
.LLSDATTD3484:
	.byte	0x1
	.uleb128 .LLSDACSE3484-.LLSDACSB3484
.LLSDACSB3484:
	.uleb128 .LEHB31-.LFB3484
	.uleb128 .LEHE31-.LEHB31
	.uleb128 0
	.uleb128 0
	.uleb128 .LEHB32-.LFB3484
	.uleb128 .LEHE32-.LEHB32
	.uleb128 .L341-.LFB3484
	.uleb128 0x3
	.uleb128 .LEHB33-.LFB3484
	.uleb128 .LEHE33-.LEHB33
	.uleb128 .L342-.LFB3484
	.uleb128 0
	.uleb128 .LEHB34-.LFB3484
	.uleb128 .LEHE34-.LEHB34
	.uleb128 .L341-.LFB3484
	.uleb128 0x3
	.uleb128 .LEHB35-.LFB3484
	.uleb128 .LEHE35-.LEHB35
	.uleb128 0
	.uleb128 0
.LLSDACSE3484:
	.byte	0
	.byte	0
	.byte	0x1
	.byte	0x7d
	.align 4
	.long	DW.ref._ZTISt8bad_cast-.
.LLSDATT3484:
	.section	.text._Z8CastTestIiER10DeriveBlobIT_ER4BlobIS1_E,"axG",@progbits,_Z8CastTestIiER10DeriveBlobIT_ER4BlobIS1_E,comdat
	.size	_Z8CastTestIiER10DeriveBlobIT_ER4BlobIS1_E, .-_Z8CastTestIiER10DeriveBlobIT_ER4BlobIS1_E
	.section	.rodata._ZNSt6vectorINSt7__cxx1112basic_stringIcSt11char_traitsIcESaIcEEESaIS5_EE17_M_realloc_insertIJS5_EEEvN9__gnu_cxx17__normal_iteratorIPS5_S7_EEDpOT_.str1.1,"aMS",@progbits,1
.LC7:
	.string	"vector::_M_realloc_insert"
	.section	.text._ZNSt6vectorINSt7__cxx1112basic_stringIcSt11char_traitsIcESaIcEEESaIS5_EE17_M_realloc_insertIJS5_EEEvN9__gnu_cxx17__normal_iteratorIPS5_S7_EEDpOT_,"axG",@progbits,_ZNSt6vectorINSt7__cxx1112basic_stringIcSt11char_traitsIcESaIcEEESaIS5_EE17_M_realloc_insertIJS5_EEEvN9__gnu_cxx17__normal_iteratorIPS5_S7_EEDpOT_,comdat
	.align 2
	.p2align 4
	.weak	_ZNSt6vectorINSt7__cxx1112basic_stringIcSt11char_traitsIcESaIcEEESaIS5_EE17_M_realloc_insertIJS5_EEEvN9__gnu_cxx17__normal_iteratorIPS5_S7_EEDpOT_
	.type	_ZNSt6vectorINSt7__cxx1112basic_stringIcSt11char_traitsIcESaIcEEESaIS5_EE17_M_realloc_insertIJS5_EEEvN9__gnu_cxx17__normal_iteratorIPS5_S7_EEDpOT_, @function
_ZNSt6vectorINSt7__cxx1112basic_stringIcSt11char_traitsIcESaIcEEESaIS5_EE17_M_realloc_insertIJS5_EEEvN9__gnu_cxx17__normal_iteratorIPS5_S7_EEDpOT_:
.LFB3793:
	.cfi_startproc
	endbr64
	pushq	%r15
	.cfi_def_cfa_offset 16
	.cfi_offset 15, -16
	pushq	%r14
	.cfi_def_cfa_offset 24
	.cfi_offset 14, -24
	pushq	%r13
	.cfi_def_cfa_offset 32
	.cfi_offset 13, -32
	pushq	%r12
	.cfi_def_cfa_offset 40
	.cfi_offset 12, -40
	pushq	%rbp
	.cfi_def_cfa_offset 48
	.cfi_offset 6, -48
	pushq	%rbx
	.cfi_def_cfa_offset 56
	.cfi_offset 3, -56
	movq	%rsi, %rbx
	movabsq	$288230376151711743, %rsi
	subq	$24, %rsp
	.cfi_def_cfa_offset 80
	movq	8(%rdi), %rbp
	movq	(%rdi), %r14
	movq	%rbp, %rax
	subq	%r14, %rax
	sarq	$5, %rax
	cmpq	%rsi, %rax
	je	.L379
	movq	%rbx, %rcx
	movq	%rdi, %r12
	subq	%r14, %rcx
	testq	%rax, %rax
	je	.L370
	movabsq	$9223372036854775776, %r15
	leaq	(%rax,%rax), %rdi
	cmpq	%rdi, %rax
	jbe	.L380
.L354:
	movq	%r15, %rdi
	movq	%rdx, 8(%rsp)
	movq	%rcx, (%rsp)
	call	_Znwm@PLT
	movq	(%rsp), %rcx
	movq	8(%rsp), %rdx
	movq	%rax, %r13
	addq	%rax, %r15
	leaq	32(%rax), %r8
.L369:
	leaq	0(%r13,%rcx), %rax
	movq	(%rdx), %rsi
	leaq	16(%rax), %rcx
	movq	%rcx, (%rax)
	leaq	16(%rdx), %rcx
	cmpq	%rcx, %rsi
	je	.L381
	movq	%rsi, (%rax)
	movq	16(%rdx), %rsi
	movq	%rsi, 16(%rax)
.L357:
	movq	8(%rdx), %rsi
	movq	%rcx, (%rdx)
	movq	$0, 8(%rdx)
	movq	%rsi, 8(%rax)
	movb	$0, 16(%rdx)
	cmpq	%r14, %rbx
	je	.L358
	movq	%r13, %rcx
	movq	%r14, %rdx
	jmp	.L362
	.p2align 4,,10
	.p2align 3
.L359:
	movq	%rdi, (%rcx)
	movq	16(%rdx), %rax
	movq	%rax, 16(%rcx)
.L378:
	movq	8(%rdx), %rax
	addq	$32, %rdx
	addq	$32, %rcx
	movq	%rax, -24(%rcx)
	cmpq	%rdx, %rbx
	je	.L382
.L362:
	leaq	16(%rcx), %rax
	movq	%rax, (%rcx)
	movq	(%rdx), %rdi
	leaq	16(%rdx), %rax
	cmpq	%rax, %rdi
	jne	.L359
	movdqu	16(%rdx), %xmm1
	movups	%xmm1, 16(%rcx)
	jmp	.L378
	.p2align 4,,10
	.p2align 3
.L382:
	movq	%rbx, %rax
	subq	%r14, %rax
	leaq	32(%r13,%rax), %r8
.L358:
	cmpq	%rbp, %rbx
	je	.L363
	movq	%rbx, %rdx
	movq	%r8, %rcx
	.p2align 4,,10
	.p2align 3
.L367:
	leaq	16(%rcx), %rsi
	movq	(%rdx), %rdi
	movq	%rsi, (%rcx)
	leaq	16(%rdx), %rsi
	cmpq	%rsi, %rdi
	je	.L383
	movq	16(%rdx), %rax
	addq	$32, %rdx
	movq	%rdi, (%rcx)
	addq	$32, %rcx
	movq	%rax, -16(%rcx)
	movq	-24(%rdx), %rax
	movq	%rax, -24(%rcx)
	cmpq	%rbp, %rdx
	jne	.L367
.L365:
	subq	%rbx, %rbp
	addq	%rbp, %r8
.L363:
	testq	%r14, %r14
	je	.L368
	movq	%r14, %rdi
	movq	%r8, (%rsp)
	call	_ZdlPv@PLT
	movq	(%rsp), %r8
.L368:
	movq	%r13, %xmm0
	movq	%r8, %xmm3
	movq	%r15, 16(%r12)
	punpcklqdq	%xmm3, %xmm0
	movups	%xmm0, (%r12)
	addq	$24, %rsp
	.cfi_remember_state
	.cfi_def_cfa_offset 56
	popq	%rbx
	.cfi_def_cfa_offset 48
	popq	%rbp
	.cfi_def_cfa_offset 40
	popq	%r12
	.cfi_def_cfa_offset 32
	popq	%r13
	.cfi_def_cfa_offset 24
	popq	%r14
	.cfi_def_cfa_offset 16
	popq	%r15
	.cfi_def_cfa_offset 8
	ret
	.p2align 4,,10
	.p2align 3
.L383:
	.cfi_restore_state
	movdqu	16(%rdx), %xmm2
	movq	8(%rdx), %rax
	addq	$32, %rdx
	addq	$32, %rcx
	movups	%xmm2, -16(%rcx)
	movq	%rax, -24(%rcx)
	cmpq	%rdx, %rbp
	jne	.L367
	jmp	.L365
	.p2align 4,,10
	.p2align 3
.L380:
	testq	%rdi, %rdi
	jne	.L355
	movl	$32, %r8d
	xorl	%r15d, %r15d
	xorl	%r13d, %r13d
	jmp	.L369
	.p2align 4,,10
	.p2align 3
.L370:
	movl	$32, %r15d
	jmp	.L354
	.p2align 4,,10
	.p2align 3
.L381:
	movdqu	16(%rdx), %xmm4
	movups	%xmm4, 16(%rax)
	jmp	.L357
.L355:
	cmpq	%rsi, %rdi
	cmovbe	%rdi, %rsi
	movq	%rsi, %r15
	salq	$5, %r15
	jmp	.L354
.L379:
	leaq	.LC7(%rip), %rdi
	call	_ZSt20__throw_length_errorPKc@PLT
	.cfi_endproc
.LFE3793:
	.size	_ZNSt6vectorINSt7__cxx1112basic_stringIcSt11char_traitsIcESaIcEEESaIS5_EE17_M_realloc_insertIJS5_EEEvN9__gnu_cxx17__normal_iteratorIPS5_S7_EEDpOT_, .-_ZNSt6vectorINSt7__cxx1112basic_stringIcSt11char_traitsIcESaIcEEESaIS5_EE17_M_realloc_insertIJS5_EEEvN9__gnu_cxx17__normal_iteratorIPS5_S7_EEDpOT_
	.section	.rodata.str1.1,"aMS",@progbits,1
.LC8:
	.string	"hehe"
.LC9:
	.string	"lala"
.LC10:
	.string	"huhu"
	.section	.text.unlikely
.LCOLDB13:
	.section	.text.startup,"ax",@progbits
.LHOTB13:
	.p2align 4
	.globl	main
	.type	main, @function
main:
.LFB3167:
	.cfi_startproc
	.cfi_personality 0x9b,DW.ref.__gxx_personality_v0
	.cfi_lsda 0x1b,.LLSDA3167
	endbr64
	pushq	%r15
	.cfi_def_cfa_offset 16
	.cfi_offset 15, -16
	leaq	.LC8(%rip), %rsi
	pushq	%r14
	.cfi_def_cfa_offset 24
	.cfi_offset 14, -24
	pushq	%r13
	.cfi_def_cfa_offset 32
	.cfi_offset 13, -32
	pushq	%r12
	.cfi_def_cfa_offset 40
	.cfi_offset 12, -40
	pushq	%rbp
	.cfi_def_cfa_offset 48
	.cfi_offset 6, -48
	pushq	%rbx
	.cfi_def_cfa_offset 56
	.cfi_offset 3, -56
	subq	$312, %rsp
	.cfi_def_cfa_offset 368
	movq	%fs:40, %rax
	movq	%rax, 296(%rsp)
	xorl	%eax, %eax
	leaq	224(%rsp), %r12
	leaq	32(%rsp), %rbp
	movq	%r12, %rdi
.LEHB36:
	call	_ZNSt7__cxx1112basic_stringIcSt11char_traitsIcESaIcEEC2IS3_EEPKcRKS3_.constprop.0
	leaq	256(%rsp), %rdi
	leaq	.LC9(%rip), %rsi
	call	_ZNSt7__cxx1112basic_stringIcSt11char_traitsIcESaIcEEC2IS3_EEPKcRKS3_.constprop.0
.LEHE36:
	movq	%r12, %rsi
	movl	$2, %edx
	movq	%rbp, %rdi
.LEHB37:
	call	_ZN4BlobINSt7__cxx1112basic_stringIcSt11char_traitsIcESaIcEEEEC1ESt16initializer_listIS5_E
.LEHE37:
	movq	256(%rsp), %rdi
	leaq	272(%rsp), %rax
	cmpq	%rax, %rdi
	je	.L385
	call	_ZdlPv@PLT
.L385:
	movq	224(%rsp), %rdi
	leaq	240(%rsp), %rbx
	cmpq	%rbx, %rdi
	je	.L386
	call	_ZdlPv@PLT
.L386:
	movq	%rbp, %rdi
.LEHB38:
	call	_ZN4BlobINSt7__cxx1112basic_stringIcSt11char_traitsIcESaIcEEEE4backEv
	movq	8(%rax), %rdx
	movq	(%rax), %rsi
	leaq	_ZSt4cout(%rip), %rdi
	call	_ZSt16__ostream_insertIcSt11char_traitsIcEERSt13basic_ostreamIT_T0_ES6_PKS3_l@PLT
	movq	%rax, %rdi
	call	_ZSt4endlIcSt11char_traitsIcEERSt13basic_ostreamIT_T0_ES6_@PLT
	movq	%rbp, %rdi
	call	_ZN4BlobINSt7__cxx1112basic_stringIcSt11char_traitsIcESaIcEEEE7popBackEv
	movq	%rbp, %rdi
	call	_ZN4BlobINSt7__cxx1112basic_stringIcSt11char_traitsIcESaIcEEEE4backEv
	movq	8(%rax), %rdx
	movq	(%rax), %rsi
	leaq	_ZSt4cout(%rip), %rdi
	call	_ZSt16__ostream_insertIcSt11char_traitsIcEERSt13basic_ostreamIT_T0_ES6_PKS3_l@PLT
	movq	%rax, %rdi
	call	_ZSt4endlIcSt11char_traitsIcEERSt13basic_ostreamIT_T0_ES6_@PLT
	xorl	%esi, %esi
	movq	%rbp, %rdi
	call	_ZN4BlobINSt7__cxx1112basic_stringIcSt11char_traitsIcESaIcEEEEixEm
	movq	8(%rax), %rdx
	movq	(%rax), %rsi
	leaq	_ZSt4cout(%rip), %rdi
	call	_ZSt16__ostream_insertIcSt11char_traitsIcEERSt13basic_ostreamIT_T0_ES6_PKS3_l@PLT
	movq	%rax, %rdi
	call	_ZSt4endlIcSt11char_traitsIcEERSt13basic_ostreamIT_T0_ES6_@PLT
	xorl	%esi, %esi
	movq	%rbp, %rdi
	call	_ZN4BlobINSt7__cxx1112basic_stringIcSt11char_traitsIcESaIcEEEEixEm
.LEHE38:
	leaq	208(%rsp), %rcx
	movq	8(%rax), %r14
	movq	%rcx, 192(%rsp)
	movq	(%rax), %r13
	movq	%rcx, 8(%rsp)
	movq	%r13, %rax
	addq	%r14, %rax
	je	.L391
	testq	%r13, %r13
	je	.L495
.L391:
	movq	%r14, 160(%rsp)
	cmpq	$15, %r14
	ja	.L496
	cmpq	$1, %r14
	jne	.L394
	movzbl	0(%r13), %eax
	movb	%al, 208(%rsp)
.L395:
	movq	160(%rsp), %rax
	movq	192(%rsp), %rdx
	leaq	.LC10(%rip), %rsi
	movq	%r12, %rdi
	movq	%rax, 200(%rsp)
	movb	$0, (%rdx,%rax)
.LEHB39:
	call	_ZNSt7__cxx1112basic_stringIcSt11char_traitsIcESaIcEEC2IS3_EEPKcRKS3_.constprop.0
	movq	40(%rsp), %rdi
	movq	8(%rdi), %rsi
	cmpq	16(%rdi), %rsi
	je	.L396
	leaq	16(%rsi), %rax
	movq	%rax, (%rsi)
	movq	224(%rsp), %rax
	cmpq	%rbx, %rax
	je	.L497
	movq	%rax, (%rsi)
	movq	240(%rsp), %rax
	movq	%rax, 16(%rsi)
.L398:
	movq	232(%rsp), %rax
	movq	%rax, 8(%rsi)
	movb	$0, 240(%rsp)
	addq	$32, 8(%rdi)
.L399:
	movq	%rbp, %rdi
	call	_ZN4BlobINSt7__cxx1112basic_stringIcSt11char_traitsIcESaIcEEEE4backEv
	movq	8(%rax), %rdx
	movq	(%rax), %rsi
	leaq	_ZSt4cout(%rip), %rdi
	call	_ZSt16__ostream_insertIcSt11char_traitsIcEERSt13basic_ostreamIT_T0_ES6_PKS3_l@PLT
	movq	%rax, %rdi
	call	_ZSt4endlIcSt11char_traitsIcEERSt13basic_ostreamIT_T0_ES6_@PLT
	leaq	64(%rsp), %rdi
	movq	%r12, %rsi
	movl	$3, %edx
	movabsq	$8589934593, %rax
	movq	%rax, 224(%rsp)
	movl	$3, 232(%rsp)
	call	_ZN4BlobIiEC1ESt16initializer_listIiE
.LEHE39:
	movdqu	40(%rsp), %xmm1
	movq	48(%rsp), %rax
	movq	$0, 96(%rsp)
	movups	%xmm1, 104(%rsp)
	testq	%rax, %rax
	je	.L400
	cmpq	$0, _ZL28__gthrw___pthread_key_createPjPFvPvE@GOTPCREL(%rip)
	je	.L401
	lock addl	$1, 12(%rax)
.L400:
	leaq	31(%rsp), %rsi
	movl	$1, %edx
	movb	$32, 31(%rsp)
	leaq	_ZSt4cout(%rip), %rdi
.LEHB40:
	call	_ZSt16__ostream_insertIcSt11char_traitsIcEERSt13basic_ostreamIT_T0_ES6_PKS3_l@PLT
	leaq	160(%rsp), %r14
	xorl	%edx, %edx
	movq	%r12, %rdi
	movq	%rax, %rbp
	movq	%r14, %rsi
	movq	%rbx, 224(%rsp)
	movq	$24, 160(%rsp)
	call	_ZNSt7__cxx1112basic_stringIcSt11char_traitsIcESaIcEE9_M_createERmm@PLT
.LEHE40:
	movq	160(%rsp), %rdx
	leaq	96(%rsp), %rsi
	movq	%r14, %rdi
	movdqa	.LC12(%rip), %xmm0
	movabsq	$7306930285237528175, %rcx
	movq	%rax, 224(%rsp)
	movq	%rdx, 240(%rsp)
	movq	%rcx, 16(%rax)
	movq	%r12, %rcx
	movups	%xmm0, (%rax)
	movq	160(%rsp), %rax
	movq	224(%rsp), %rdx
	movq	%rax, 232(%rsp)
	movb	$0, (%rdx,%rax)
	movq	96(%rsp), %rdx
.LEHB41:
	call	_ZNK7BlobPtrINSt7__cxx1112basic_stringIcSt11char_traitsIcESaIcEEEE5checkEmRKS5_
.LEHE41:
	movq	224(%rsp), %rdi
	cmpq	%rbx, %rdi
	je	.L402
	call	_ZdlPv@PLT
.L402:
	movq	96(%rsp), %rbx
	movq	160(%rsp), %rax
	movq	168(%rsp), %r12
	salq	$5, %rbx
	addq	(%rax), %rbx
	testq	%r12, %r12
	je	.L404
	movq	_ZL28__gthrw___pthread_key_createPjPFvPvE@GOTPCREL(%rip), %r13
	testq	%r13, %r13
	je	.L405
	orl	$-1, %eax
	lock xaddl	%eax, 8(%r12)
.L406:
	subl	$1, %eax
	je	.L498
.L404:
	movq	8(%rbx), %rdx
	movq	(%rbx), %rsi
	movq	%rbp, %rdi
.LEHB42:
	call	_ZSt16__ostream_insertIcSt11char_traitsIcEERSt13basic_ostreamIT_T0_ES6_PKS3_l@PLT
	movq	%rax, %rdi
	call	_ZSt4endlIcSt11char_traitsIcEERSt13basic_ostreamIT_T0_ES6_@PLT
	movdqa	.LC11(%rip), %xmm0
	movl	$24, %edi
	movabsq	$21474836484, %rax
	movq	%rax, 240(%rsp)
	movaps	%xmm0, 224(%rsp)
	call	_Znwm@PLT
.LEHE42:
	movq	%rax, %r12
	leaq	16+_ZTV4BlobIiE(%rip), %rbx
	movl	$40, %edi
	movdqa	224(%rsp), %xmm2
	movq	%rbx, 128(%rsp)
	movups	%xmm2, (%rax)
	movq	240(%rsp), %rax
	movq	$0, 136(%rsp)
	movq	%rax, 16(%r12)
.LEHB43:
	call	_Znwm@PLT
.LEHE43:
	movq	%rax, %rbp
	leaq	16(%rax), %r13
	pxor	%xmm0, %xmm0
	movl	$24, %edi
	leaq	16+_ZTVSt23_Sp_counted_ptr_inplaceISt6vectorIiSaIiEESaIS2_ELN9__gnu_cxx12_Lock_policyE2EE(%rip), %r15
	movq	%r15, (%rax)
	movabsq	$4294967297, %rax
	movq	%rax, 8(%rbp)
	movq	$0, 32(%rbp)
	movups	%xmm0, 16(%rbp)
.LEHB44:
	call	_Znwm@PLT
.LEHE44:
	movq	16(%r12), %rcx
	leaq	24(%rax), %rdx
	movdqu	(%r12), %xmm3
	movq	%rax, 16(%rbp)
	movq	%rdx, 32(%rbp)
	movq	%r13, %xmm0
	movq	%rbp, %xmm4
	movl	$6, %esi
	movq	%rcx, 16(%rax)
	punpcklqdq	%xmm4, %xmm0
	leaq	_ZSt4cout(%rip), %rdi
	movq	%rdx, 24(%rbp)
	movups	%xmm3, (%rax)
	movups	%xmm0, 136(%rsp)
.LEHB45:
	call	_ZNSo9_M_insertImEERSoT_@PLT
	movq	%rax, %rdi
	call	_ZSt4endlIcSt11char_traitsIcEERSt13basic_ostreamIT_T0_ES6_@PLT
	leaq	128(%rsp), %rdi
	call	_Z8CastTestIiER10DeriveBlobIT_ER4BlobIS1_E
	movl	$40, %edi
	movq	%rbx, 160(%rsp)
	movq	$0, 168(%rsp)
	call	_Znwm@PLT
.LEHE45:
	movabsq	$4294967297, %rcx
	movq	%r15, (%rax)
	pxor	%xmm0, %xmm0
	movq	%r14, %rdi
	movq	%rcx, 8(%rax)
	movq	$0, 32(%rax)
	movups	%xmm0, 16(%rax)
	movq	%rax, 176(%rsp)
	addq	$16, %rax
	movq	%rax, 168(%rsp)
	leaq	16+_ZTV10DeriveBlobIiE(%rip), %rax
	movq	%rax, 160(%rsp)
.LEHB46:
	call	_Z8CastTestIiER4BlobIT_ER10DeriveBlobIS1_E
	movl	$5, %esi
	leaq	_ZSt4cout(%rip), %rdi
	call	_ZNSo9_M_insertImEERSoT_@PLT
	movq	%rax, %rdi
	movl	$5, %esi
	call	_ZNSo9_M_insertImEERSoT_@PLT
	movq	%rax, %rdi
	call	_ZSt4endlIcSt11char_traitsIcEERSt13basic_ostreamIT_T0_ES6_@PLT
	movl	$1, %esi
	leaq	_ZSt4cout(%rip), %rdi
	call	_ZNSolsEi@PLT
	movq	%rax, %rdi
	call	_ZSt4endlIcSt11char_traitsIcEERSt13basic_ostreamIT_T0_ES6_@PLT
.LEHE46:
	movq	176(%rsp), %rdi
	movq	%rbx, 160(%rsp)
	testq	%rdi, %rdi
	je	.L418
	call	_ZNSt16_Sp_counted_baseILN9__gnu_cxx12_Lock_policyE2EE10_M_releaseEv
.L418:
	movq	144(%rsp), %rdi
	movq	%rbx, 128(%rsp)
	testq	%rdi, %rdi
	je	.L419
	call	_ZNSt16_Sp_counted_baseILN9__gnu_cxx12_Lock_policyE2EE10_M_releaseEv
.L419:
	movq	%r12, %rdi
	call	_ZdlPv@PLT
	movq	112(%rsp), %rdi
	testq	%rdi, %rdi
	je	.L436
	call	_ZNSt16_Sp_counted_baseILN9__gnu_cxx12_Lock_policyE2EE15_M_weak_releaseEv
.L436:
	movq	80(%rsp), %rdi
	movq	%rbx, 64(%rsp)
	testq	%rdi, %rdi
	je	.L420
	call	_ZNSt16_Sp_counted_baseILN9__gnu_cxx12_Lock_policyE2EE10_M_releaseEv
.L420:
	movq	192(%rsp), %rdi
	cmpq	8(%rsp), %rdi
	je	.L421
	call	_ZdlPv@PLT
.L421:
	movq	48(%rsp), %rdi
	leaq	16+_ZTV4BlobINSt7__cxx1112basic_stringIcSt11char_traitsIcESaIcEEEE(%rip), %rax
	movq	%rax, 32(%rsp)
	testq	%rdi, %rdi
	je	.L422
	call	_ZNSt16_Sp_counted_baseILN9__gnu_cxx12_Lock_policyE2EE10_M_releaseEv
.L422:
	movq	296(%rsp), %rax
	xorq	%fs:40, %rax
	jne	.L499
	addq	$312, %rsp
	.cfi_remember_state
	.cfi_def_cfa_offset 56
	xorl	%eax, %eax
	popq	%rbx
	.cfi_def_cfa_offset 48
	popq	%rbp
	.cfi_def_cfa_offset 40
	popq	%r12
	.cfi_def_cfa_offset 32
	popq	%r13
	.cfi_def_cfa_offset 24
	popq	%r14
	.cfi_def_cfa_offset 16
	popq	%r15
	.cfi_def_cfa_offset 8
	ret
.L394:
	.cfi_restore_state
	testq	%r14, %r14
	je	.L395
	movq	8(%rsp), %rdi
	jmp	.L393
.L496:
	leaq	160(%rsp), %rsi
	leaq	192(%rsp), %rdi
	xorl	%edx, %edx
.LEHB47:
	call	_ZNSt7__cxx1112basic_stringIcSt11char_traitsIcESaIcEE9_M_createERmm@PLT
.LEHE47:
	movq	%rax, 192(%rsp)
	movq	%rax, %rdi
	movq	160(%rsp), %rax
	movq	%rax, 208(%rsp)
.L393:
	movq	%r14, %rdx
	movq	%r13, %rsi
	call	memcpy@PLT
	jmp	.L395
.L401:
	addl	$1, 12(%rax)
	jmp	.L400
.L405:
	movl	8(%r12), %eax
	leal	-1(%rax), %edx
	movl	%edx, 8(%r12)
	jmp	.L406
.L497:
	movdqa	240(%rsp), %xmm5
	movups	%xmm5, 16(%rsi)
	jmp	.L398
.L498:
	movq	(%r12), %rax
	movq	%r12, %rdi
	call	*16(%rax)
	testq	%r13, %r13
	je	.L408
	orl	$-1, %eax
	lock xaddl	%eax, 12(%r12)
.L409:
	subl	$1, %eax
	jne	.L404
	movq	(%r12), %rax
	movq	%r12, %rdi
	call	*24(%rax)
	jmp	.L404
.L396:
	movq	%r12, %rdx
.LEHB48:
	call	_ZNSt6vectorINSt7__cxx1112basic_stringIcSt11char_traitsIcESaIcEEESaIS5_EE17_M_realloc_insertIJS5_EEEvN9__gnu_cxx17__normal_iteratorIPS5_S7_EEDpOT_
.LEHE48:
	movq	224(%rsp), %rdi
	cmpq	%rbx, %rdi
	je	.L399
	call	_ZdlPv@PLT
	jmp	.L399
.L408:
	movl	12(%r12), %eax
	leal	-1(%rax), %edx
	movl	%edx, 12(%r12)
	jmp	.L409
.L499:
	call	__stack_chk_fail@PLT
.L495:
	leaq	.LC0(%rip), %rdi
.LEHB49:
	call	_ZSt19__throw_logic_errorPKc@PLT
.LEHE49:
.L446:
	endbr64
	movq	%rax, %rbp
	jmp	.L411
.L438:
	endbr64
	movq	%rax, %rbp
	jmp	.L388
.L440:
	endbr64
	movq	%rax, %rbp
	jmp	.L423
.L443:
	endbr64
	movq	%rax, %rbp
	jmp	.L417
.L447:
	endbr64
	movq	%rax, %r13
	jmp	.L415
.L444:
	endbr64
	movq	%rax, %rbp
	jmp	.L428
.L445:
	endbr64
	movq	%rax, %rbp
	jmp	.L426
.L439:
	endbr64
	movq	%rax, %rbp
	jmp	.L433
.L441:
	endbr64
	movq	%rax, %rbp
	jmp	.L425
.L442:
	endbr64
	movq	%rax, %rbp
	leaq	16+_ZTV4BlobIiE(%rip), %rbx
	jmp	.L413
	.section	.gcc_except_table,"a",@progbits
.LLSDA3167:
	.byte	0xff
	.byte	0xff
	.byte	0x1
	.uleb128 .LLSDACSE3167-.LLSDACSB3167
.LLSDACSB3167:
	.uleb128 .LEHB36-.LFB3167
	.uleb128 .LEHE36-.LEHB36
	.uleb128 0
	.uleb128 0
	.uleb128 .LEHB37-.LFB3167
	.uleb128 .LEHE37-.LEHB37
	.uleb128 .L438-.LFB3167
	.uleb128 0
	.uleb128 .LEHB38-.LFB3167
	.uleb128 .LEHE38-.LEHB38
	.uleb128 .L439-.LFB3167
	.uleb128 0
	.uleb128 .LEHB39-.LFB3167
	.uleb128 .LEHE39-.LEHB39
	.uleb128 .L441-.LFB3167
	.uleb128 0
	.uleb128 .LEHB40-.LFB3167
	.uleb128 .LEHE40-.LEHB40
	.uleb128 .L442-.LFB3167
	.uleb128 0
	.uleb128 .LEHB41-.LFB3167
	.uleb128 .LEHE41-.LEHB41
	.uleb128 .L446-.LFB3167
	.uleb128 0
	.uleb128 .LEHB42-.LFB3167
	.uleb128 .LEHE42-.LEHB42
	.uleb128 .L442-.LFB3167
	.uleb128 0
	.uleb128 .LEHB43-.LFB3167
	.uleb128 .LEHE43-.LEHB43
	.uleb128 .L443-.LFB3167
	.uleb128 0
	.uleb128 .LEHB44-.LFB3167
	.uleb128 .LEHE44-.LEHB44
	.uleb128 .L447-.LFB3167
	.uleb128 0
	.uleb128 .LEHB45-.LFB3167
	.uleb128 .LEHE45-.LEHB45
	.uleb128 .L444-.LFB3167
	.uleb128 0
	.uleb128 .LEHB46-.LFB3167
	.uleb128 .LEHE46-.LEHB46
	.uleb128 .L445-.LFB3167
	.uleb128 0
	.uleb128 .LEHB47-.LFB3167
	.uleb128 .LEHE47-.LEHB47
	.uleb128 .L439-.LFB3167
	.uleb128 0
	.uleb128 .LEHB48-.LFB3167
	.uleb128 .LEHE48-.LEHB48
	.uleb128 .L440-.LFB3167
	.uleb128 0
	.uleb128 .LEHB49-.LFB3167
	.uleb128 .LEHE49-.LEHB49
	.uleb128 .L439-.LFB3167
	.uleb128 0
.LLSDACSE3167:
	.section	.text.startup
	.cfi_endproc
	.section	.text.unlikely
	.cfi_startproc
	.cfi_personality 0x9b,DW.ref.__gxx_personality_v0
	.cfi_lsda 0x1b,.LLSDAC3167
	.type	main.cold, @function
main.cold:
.LFSB3167:
.L411:
	.cfi_def_cfa_offset 368
	.cfi_offset 3, -56
	.cfi_offset 6, -48
	.cfi_offset 12, -40
	.cfi_offset 13, -32
	.cfi_offset 14, -24
	.cfi_offset 15, -16
	movq	224(%rsp), %rdi
	cmpq	%rbx, %rdi
	je	.L412
	call	_ZdlPv@PLT
.L412:
	leaq	16+_ZTV4BlobIiE(%rip), %rbx
.L413:
	movq	112(%rsp), %rdi
	testq	%rdi, %rdi
	je	.L430
	call	_ZNSt16_Sp_counted_baseILN9__gnu_cxx12_Lock_policyE2EE15_M_weak_releaseEv
.L430:
	movq	80(%rsp), %rdi
	movq	%rbx, 64(%rsp)
	testq	%rdi, %rdi
	je	.L425
	call	_ZNSt16_Sp_counted_baseILN9__gnu_cxx12_Lock_policyE2EE10_M_releaseEv
.L425:
	movq	192(%rsp), %rdi
	cmpq	8(%rsp), %rdi
	je	.L433
	call	_ZdlPv@PLT
.L433:
	movq	48(%rsp), %rdi
	leaq	16+_ZTV4BlobINSt7__cxx1112basic_stringIcSt11char_traitsIcESaIcEEEE(%rip), %rax
	movq	%rax, 32(%rsp)
	testq	%rdi, %rdi
	je	.L434
	call	_ZNSt16_Sp_counted_baseILN9__gnu_cxx12_Lock_policyE2EE10_M_releaseEv
.L434:
	movq	%rbp, %rdi
.LEHB50:
	call	_Unwind_Resume@PLT
.L388:
	movq	256(%rsp), %rdi
	leaq	272(%rsp), %rax
	cmpq	%rax, %rdi
	je	.L389
	call	_ZdlPv@PLT
.L389:
	movq	224(%rsp), %rdi
	leaq	240(%rsp), %rax
	cmpq	%rax, %rdi
	je	.L390
	call	_ZdlPv@PLT
.L390:
	movq	%rbp, %rdi
	call	_Unwind_Resume@PLT
.LEHE50:
.L423:
	movq	224(%rsp), %rdi
	cmpq	%rbx, %rdi
	je	.L425
	call	_ZdlPv@PLT
	jmp	.L425
.L415:
	movq	16(%rbp), %rdi
	testq	%rdi, %rdi
	je	.L416
	call	_ZdlPv@PLT
.L416:
	movq	%rbp, %rdi
	movq	%r13, %rbp
	call	_ZdlPv@PLT
.L417:
	movq	%r12, %rdi
	call	_ZdlPv@PLT
	jmp	.L413
.L426:
	movq	176(%rsp), %rdi
	movq	%rbx, 160(%rsp)
	testq	%rdi, %rdi
	je	.L428
	call	_ZNSt16_Sp_counted_baseILN9__gnu_cxx12_Lock_policyE2EE10_M_releaseEv
.L428:
	movq	144(%rsp), %rdi
	movq	%rbx, 128(%rsp)
	testq	%rdi, %rdi
	je	.L417
	call	_ZNSt16_Sp_counted_baseILN9__gnu_cxx12_Lock_policyE2EE10_M_releaseEv
	jmp	.L417
	.cfi_endproc
.LFE3167:
	.section	.gcc_except_table
.LLSDAC3167:
	.byte	0xff
	.byte	0xff
	.byte	0x1
	.uleb128 .LLSDACSEC3167-.LLSDACSBC3167
.LLSDACSBC3167:
	.uleb128 .LEHB50-.LCOLDB13
	.uleb128 .LEHE50-.LEHB50
	.uleb128 0
	.uleb128 0
.LLSDACSEC3167:
	.section	.text.unlikely
	.section	.text.startup
	.size	main, .-main
	.section	.text.unlikely
	.size	main.cold, .-main.cold
.LCOLDE13:
	.section	.text.startup
.LHOTE13:
	.p2align 4
	.type	_GLOBAL__sub_I_main, @function
_GLOBAL__sub_I_main:
.LFB4224:
	.cfi_startproc
	endbr64
	subq	$8, %rsp
	.cfi_def_cfa_offset 16
	leaq	_ZStL8__ioinit(%rip), %rdi
	call	_ZNSt8ios_base4InitC1Ev@PLT
	movq	_ZNSt8ios_base4InitD1Ev@GOTPCREL(%rip), %rdi
	addq	$8, %rsp
	.cfi_def_cfa_offset 8
	leaq	__dso_handle(%rip), %rdx
	leaq	_ZStL8__ioinit(%rip), %rsi
	jmp	__cxa_atexit@PLT
	.cfi_endproc
.LFE4224:
	.size	_GLOBAL__sub_I_main, .-_GLOBAL__sub_I_main
	.section	.init_array,"aw"
	.align 8
	.quad	_GLOBAL__sub_I_main
	.weak	_ZTSSt11_Mutex_baseILN9__gnu_cxx12_Lock_policyE2EE
	.section	.rodata._ZTSSt11_Mutex_baseILN9__gnu_cxx12_Lock_policyE2EE,"aG",@progbits,_ZTSSt11_Mutex_baseILN9__gnu_cxx12_Lock_policyE2EE,comdat
	.align 32
	.type	_ZTSSt11_Mutex_baseILN9__gnu_cxx12_Lock_policyE2EE, @object
	.size	_ZTSSt11_Mutex_baseILN9__gnu_cxx12_Lock_policyE2EE, 47
_ZTSSt11_Mutex_baseILN9__gnu_cxx12_Lock_policyE2EE:
	.string	"St11_Mutex_baseILN9__gnu_cxx12_Lock_policyE2EE"
	.weak	_ZTISt11_Mutex_baseILN9__gnu_cxx12_Lock_policyE2EE
	.section	.data.rel.ro._ZTISt11_Mutex_baseILN9__gnu_cxx12_Lock_policyE2EE,"awG",@progbits,_ZTISt11_Mutex_baseILN9__gnu_cxx12_Lock_policyE2EE,comdat
	.align 8
	.type	_ZTISt11_Mutex_baseILN9__gnu_cxx12_Lock_policyE2EE, @object
	.size	_ZTISt11_Mutex_baseILN9__gnu_cxx12_Lock_policyE2EE, 16
_ZTISt11_Mutex_baseILN9__gnu_cxx12_Lock_policyE2EE:
	.quad	_ZTVN10__cxxabiv117__class_type_infoE+16
	.quad	_ZTSSt11_Mutex_baseILN9__gnu_cxx12_Lock_policyE2EE
	.weak	_ZTSSt19_Sp_make_shared_tag
	.section	.rodata._ZTSSt19_Sp_make_shared_tag,"aG",@progbits,_ZTSSt19_Sp_make_shared_tag,comdat
	.align 16
	.type	_ZTSSt19_Sp_make_shared_tag, @object
	.size	_ZTSSt19_Sp_make_shared_tag, 24
_ZTSSt19_Sp_make_shared_tag:
	.string	"St19_Sp_make_shared_tag"
	.weak	_ZTSSt16_Sp_counted_baseILN9__gnu_cxx12_Lock_policyE2EE
	.section	.rodata._ZTSSt16_Sp_counted_baseILN9__gnu_cxx12_Lock_policyE2EE,"aG",@progbits,_ZTSSt16_Sp_counted_baseILN9__gnu_cxx12_Lock_policyE2EE,comdat
	.align 32
	.type	_ZTSSt16_Sp_counted_baseILN9__gnu_cxx12_Lock_policyE2EE, @object
	.size	_ZTSSt16_Sp_counted_baseILN9__gnu_cxx12_Lock_policyE2EE, 52
_ZTSSt16_Sp_counted_baseILN9__gnu_cxx12_Lock_policyE2EE:
	.string	"St16_Sp_counted_baseILN9__gnu_cxx12_Lock_policyE2EE"
	.weak	_ZTISt16_Sp_counted_baseILN9__gnu_cxx12_Lock_policyE2EE
	.section	.data.rel.ro._ZTISt16_Sp_counted_baseILN9__gnu_cxx12_Lock_policyE2EE,"awG",@progbits,_ZTISt16_Sp_counted_baseILN9__gnu_cxx12_Lock_policyE2EE,comdat
	.align 8
	.type	_ZTISt16_Sp_counted_baseILN9__gnu_cxx12_Lock_policyE2EE, @object
	.size	_ZTISt16_Sp_counted_baseILN9__gnu_cxx12_Lock_policyE2EE, 24
_ZTISt16_Sp_counted_baseILN9__gnu_cxx12_Lock_policyE2EE:
	.quad	_ZTVN10__cxxabiv120__si_class_type_infoE+16
	.quad	_ZTSSt16_Sp_counted_baseILN9__gnu_cxx12_Lock_policyE2EE
	.quad	_ZTISt11_Mutex_baseILN9__gnu_cxx12_Lock_policyE2EE
	.weak	_ZTS4BlobINSt7__cxx1112basic_stringIcSt11char_traitsIcESaIcEEEE
	.section	.rodata._ZTS4BlobINSt7__cxx1112basic_stringIcSt11char_traitsIcESaIcEEEE,"aG",@progbits,_ZTS4BlobINSt7__cxx1112basic_stringIcSt11char_traitsIcESaIcEEEE,comdat
	.align 32
	.type	_ZTS4BlobINSt7__cxx1112basic_stringIcSt11char_traitsIcESaIcEEEE, @object
	.size	_ZTS4BlobINSt7__cxx1112basic_stringIcSt11char_traitsIcESaIcEEEE, 60
_ZTS4BlobINSt7__cxx1112basic_stringIcSt11char_traitsIcESaIcEEEE:
	.string	"4BlobINSt7__cxx1112basic_stringIcSt11char_traitsIcESaIcEEEE"
	.weak	_ZTI4BlobINSt7__cxx1112basic_stringIcSt11char_traitsIcESaIcEEEE
	.section	.data.rel.ro._ZTI4BlobINSt7__cxx1112basic_stringIcSt11char_traitsIcESaIcEEEE,"awG",@progbits,_ZTI4BlobINSt7__cxx1112basic_stringIcSt11char_traitsIcESaIcEEEE,comdat
	.align 8
	.type	_ZTI4BlobINSt7__cxx1112basic_stringIcSt11char_traitsIcESaIcEEEE, @object
	.size	_ZTI4BlobINSt7__cxx1112basic_stringIcSt11char_traitsIcESaIcEEEE, 16
_ZTI4BlobINSt7__cxx1112basic_stringIcSt11char_traitsIcESaIcEEEE:
	.quad	_ZTVN10__cxxabiv117__class_type_infoE+16
	.quad	_ZTS4BlobINSt7__cxx1112basic_stringIcSt11char_traitsIcESaIcEEEE
	.weak	_ZTS4BlobIiE
	.section	.rodata._ZTS4BlobIiE,"aG",@progbits,_ZTS4BlobIiE,comdat
	.align 8
	.type	_ZTS4BlobIiE, @object
	.size	_ZTS4BlobIiE, 9
_ZTS4BlobIiE:
	.string	"4BlobIiE"
	.weak	_ZTI4BlobIiE
	.section	.data.rel.ro._ZTI4BlobIiE,"awG",@progbits,_ZTI4BlobIiE,comdat
	.align 8
	.type	_ZTI4BlobIiE, @object
	.size	_ZTI4BlobIiE, 16
_ZTI4BlobIiE:
	.quad	_ZTVN10__cxxabiv117__class_type_infoE+16
	.quad	_ZTS4BlobIiE
	.weak	_ZTS10DeriveBlobIiE
	.section	.rodata._ZTS10DeriveBlobIiE,"aG",@progbits,_ZTS10DeriveBlobIiE,comdat
	.align 16
	.type	_ZTS10DeriveBlobIiE, @object
	.size	_ZTS10DeriveBlobIiE, 16
_ZTS10DeriveBlobIiE:
	.string	"10DeriveBlobIiE"
	.weak	_ZTI10DeriveBlobIiE
	.section	.data.rel.ro._ZTI10DeriveBlobIiE,"awG",@progbits,_ZTI10DeriveBlobIiE,comdat
	.align 8
	.type	_ZTI10DeriveBlobIiE, @object
	.size	_ZTI10DeriveBlobIiE, 24
_ZTI10DeriveBlobIiE:
	.quad	_ZTVN10__cxxabiv120__si_class_type_infoE+16
	.quad	_ZTS10DeriveBlobIiE
	.quad	_ZTI4BlobIiE
	.weak	_ZTSSt23_Sp_counted_ptr_inplaceISt6vectorINSt7__cxx1112basic_stringIcSt11char_traitsIcESaIcEEESaIS6_EESaIS8_ELN9__gnu_cxx12_Lock_policyE2EE
	.section	.rodata._ZTSSt23_Sp_counted_ptr_inplaceISt6vectorINSt7__cxx1112basic_stringIcSt11char_traitsIcESaIcEEESaIS6_EESaIS8_ELN9__gnu_cxx12_Lock_policyE2EE,"aG",@progbits,_ZTSSt23_Sp_counted_ptr_inplaceISt6vectorINSt7__cxx1112basic_stringIcSt11char_traitsIcESaIcEEESaIS6_EESaIS8_ELN9__gnu_cxx12_Lock_policyE2EE,comdat
	.align 32
	.type	_ZTSSt23_Sp_counted_ptr_inplaceISt6vectorINSt7__cxx1112basic_stringIcSt11char_traitsIcESaIcEEESaIS6_EESaIS8_ELN9__gnu_cxx12_Lock_policyE2EE, @object
	.size	_ZTSSt23_Sp_counted_ptr_inplaceISt6vectorINSt7__cxx1112basic_stringIcSt11char_traitsIcESaIcEEESaIS6_EESaIS8_ELN9__gnu_cxx12_Lock_policyE2EE, 136
_ZTSSt23_Sp_counted_ptr_inplaceISt6vectorINSt7__cxx1112basic_stringIcSt11char_traitsIcESaIcEEESaIS6_EESaIS8_ELN9__gnu_cxx12_Lock_policyE2EE:
	.string	"St23_Sp_counted_ptr_inplaceISt6vectorINSt7__cxx1112basic_stringIcSt11char_traitsIcESaIcEEESaIS6_EESaIS8_ELN9__gnu_cxx12_Lock_policyE2EE"
	.weak	_ZTISt23_Sp_counted_ptr_inplaceISt6vectorINSt7__cxx1112basic_stringIcSt11char_traitsIcESaIcEEESaIS6_EESaIS8_ELN9__gnu_cxx12_Lock_policyE2EE
	.section	.data.rel.ro._ZTISt23_Sp_counted_ptr_inplaceISt6vectorINSt7__cxx1112basic_stringIcSt11char_traitsIcESaIcEEESaIS6_EESaIS8_ELN9__gnu_cxx12_Lock_policyE2EE,"awG",@progbits,_ZTISt23_Sp_counted_ptr_inplaceISt6vectorINSt7__cxx1112basic_stringIcSt11char_traitsIcESaIcEEESaIS6_EESaIS8_ELN9__gnu_cxx12_Lock_policyE2EE,comdat
	.align 8
	.type	_ZTISt23_Sp_counted_ptr_inplaceISt6vectorINSt7__cxx1112basic_stringIcSt11char_traitsIcESaIcEEESaIS6_EESaIS8_ELN9__gnu_cxx12_Lock_policyE2EE, @object
	.size	_ZTISt23_Sp_counted_ptr_inplaceISt6vectorINSt7__cxx1112basic_stringIcSt11char_traitsIcESaIcEEESaIS6_EESaIS8_ELN9__gnu_cxx12_Lock_policyE2EE, 24
_ZTISt23_Sp_counted_ptr_inplaceISt6vectorINSt7__cxx1112basic_stringIcSt11char_traitsIcESaIcEEESaIS6_EESaIS8_ELN9__gnu_cxx12_Lock_policyE2EE:
	.quad	_ZTVN10__cxxabiv120__si_class_type_infoE+16
	.quad	_ZTSSt23_Sp_counted_ptr_inplaceISt6vectorINSt7__cxx1112basic_stringIcSt11char_traitsIcESaIcEEESaIS6_EESaIS8_ELN9__gnu_cxx12_Lock_policyE2EE
	.quad	_ZTISt16_Sp_counted_baseILN9__gnu_cxx12_Lock_policyE2EE
	.weak	_ZTSSt23_Sp_counted_ptr_inplaceISt6vectorIiSaIiEESaIS2_ELN9__gnu_cxx12_Lock_policyE2EE
	.section	.rodata._ZTSSt23_Sp_counted_ptr_inplaceISt6vectorIiSaIiEESaIS2_ELN9__gnu_cxx12_Lock_policyE2EE,"aG",@progbits,_ZTSSt23_Sp_counted_ptr_inplaceISt6vectorIiSaIiEESaIS2_ELN9__gnu_cxx12_Lock_policyE2EE,comdat
	.align 32
	.type	_ZTSSt23_Sp_counted_ptr_inplaceISt6vectorIiSaIiEESaIS2_ELN9__gnu_cxx12_Lock_policyE2EE, @object
	.size	_ZTSSt23_Sp_counted_ptr_inplaceISt6vectorIiSaIiEESaIS2_ELN9__gnu_cxx12_Lock_policyE2EE, 83
_ZTSSt23_Sp_counted_ptr_inplaceISt6vectorIiSaIiEESaIS2_ELN9__gnu_cxx12_Lock_policyE2EE:
	.string	"St23_Sp_counted_ptr_inplaceISt6vectorIiSaIiEESaIS2_ELN9__gnu_cxx12_Lock_policyE2EE"
	.weak	_ZTISt23_Sp_counted_ptr_inplaceISt6vectorIiSaIiEESaIS2_ELN9__gnu_cxx12_Lock_policyE2EE
	.section	.data.rel.ro._ZTISt23_Sp_counted_ptr_inplaceISt6vectorIiSaIiEESaIS2_ELN9__gnu_cxx12_Lock_policyE2EE,"awG",@progbits,_ZTISt23_Sp_counted_ptr_inplaceISt6vectorIiSaIiEESaIS2_ELN9__gnu_cxx12_Lock_policyE2EE,comdat
	.align 8
	.type	_ZTISt23_Sp_counted_ptr_inplaceISt6vectorIiSaIiEESaIS2_ELN9__gnu_cxx12_Lock_policyE2EE, @object
	.size	_ZTISt23_Sp_counted_ptr_inplaceISt6vectorIiSaIiEESaIS2_ELN9__gnu_cxx12_Lock_policyE2EE, 24
_ZTISt23_Sp_counted_ptr_inplaceISt6vectorIiSaIiEESaIS2_ELN9__gnu_cxx12_Lock_policyE2EE:
	.quad	_ZTVN10__cxxabiv120__si_class_type_infoE+16
	.quad	_ZTSSt23_Sp_counted_ptr_inplaceISt6vectorIiSaIiEESaIS2_ELN9__gnu_cxx12_Lock_policyE2EE
	.quad	_ZTISt16_Sp_counted_baseILN9__gnu_cxx12_Lock_policyE2EE
	.weak	_ZTV4BlobINSt7__cxx1112basic_stringIcSt11char_traitsIcESaIcEEEE
	.section	.data.rel.ro.local._ZTV4BlobINSt7__cxx1112basic_stringIcSt11char_traitsIcESaIcEEEE,"awG",@progbits,_ZTV4BlobINSt7__cxx1112basic_stringIcSt11char_traitsIcESaIcEEEE,comdat
	.align 8
	.type	_ZTV4BlobINSt7__cxx1112basic_stringIcSt11char_traitsIcESaIcEEEE, @object
	.size	_ZTV4BlobINSt7__cxx1112basic_stringIcSt11char_traitsIcESaIcEEEE, 32
_ZTV4BlobINSt7__cxx1112basic_stringIcSt11char_traitsIcESaIcEEEE:
	.quad	0
	.quad	_ZTI4BlobINSt7__cxx1112basic_stringIcSt11char_traitsIcESaIcEEEE
	.quad	_ZN4BlobINSt7__cxx1112basic_stringIcSt11char_traitsIcESaIcEEEED1Ev
	.quad	_ZN4BlobINSt7__cxx1112basic_stringIcSt11char_traitsIcESaIcEEEED0Ev
	.weak	_ZTV4BlobIiE
	.section	.data.rel.ro.local._ZTV4BlobIiE,"awG",@progbits,_ZTV4BlobIiE,comdat
	.align 8
	.type	_ZTV4BlobIiE, @object
	.size	_ZTV4BlobIiE, 32
_ZTV4BlobIiE:
	.quad	0
	.quad	_ZTI4BlobIiE
	.quad	_ZN4BlobIiED1Ev
	.quad	_ZN4BlobIiED0Ev
	.weak	_ZTV10DeriveBlobIiE
	.section	.data.rel.ro.local._ZTV10DeriveBlobIiE,"awG",@progbits,_ZTV10DeriveBlobIiE,comdat
	.align 8
	.type	_ZTV10DeriveBlobIiE, @object
	.size	_ZTV10DeriveBlobIiE, 32
_ZTV10DeriveBlobIiE:
	.quad	0
	.quad	_ZTI10DeriveBlobIiE
	.quad	_ZN10DeriveBlobIiED1Ev
	.quad	_ZN10DeriveBlobIiED0Ev
	.weak	_ZTVSt23_Sp_counted_ptr_inplaceISt6vectorINSt7__cxx1112basic_stringIcSt11char_traitsIcESaIcEEESaIS6_EESaIS8_ELN9__gnu_cxx12_Lock_policyE2EE
	.section	.data.rel.ro.local._ZTVSt23_Sp_counted_ptr_inplaceISt6vectorINSt7__cxx1112basic_stringIcSt11char_traitsIcESaIcEEESaIS6_EESaIS8_ELN9__gnu_cxx12_Lock_policyE2EE,"awG",@progbits,_ZTVSt23_Sp_counted_ptr_inplaceISt6vectorINSt7__cxx1112basic_stringIcSt11char_traitsIcESaIcEEESaIS6_EESaIS8_ELN9__gnu_cxx12_Lock_policyE2EE,comdat
	.align 8
	.type	_ZTVSt23_Sp_counted_ptr_inplaceISt6vectorINSt7__cxx1112basic_stringIcSt11char_traitsIcESaIcEEESaIS6_EESaIS8_ELN9__gnu_cxx12_Lock_policyE2EE, @object
	.size	_ZTVSt23_Sp_counted_ptr_inplaceISt6vectorINSt7__cxx1112basic_stringIcSt11char_traitsIcESaIcEEESaIS6_EESaIS8_ELN9__gnu_cxx12_Lock_policyE2EE, 56
_ZTVSt23_Sp_counted_ptr_inplaceISt6vectorINSt7__cxx1112basic_stringIcSt11char_traitsIcESaIcEEESaIS6_EESaIS8_ELN9__gnu_cxx12_Lock_policyE2EE:
	.quad	0
	.quad	_ZTISt23_Sp_counted_ptr_inplaceISt6vectorINSt7__cxx1112basic_stringIcSt11char_traitsIcESaIcEEESaIS6_EESaIS8_ELN9__gnu_cxx12_Lock_policyE2EE
	.quad	_ZNSt23_Sp_counted_ptr_inplaceISt6vectorINSt7__cxx1112basic_stringIcSt11char_traitsIcESaIcEEESaIS6_EESaIS8_ELN9__gnu_cxx12_Lock_policyE2EED1Ev
	.quad	_ZNSt23_Sp_counted_ptr_inplaceISt6vectorINSt7__cxx1112basic_stringIcSt11char_traitsIcESaIcEEESaIS6_EESaIS8_ELN9__gnu_cxx12_Lock_policyE2EED0Ev
	.quad	_ZNSt23_Sp_counted_ptr_inplaceISt6vectorINSt7__cxx1112basic_stringIcSt11char_traitsIcESaIcEEESaIS6_EESaIS8_ELN9__gnu_cxx12_Lock_policyE2EE10_M_disposeEv
	.quad	_ZNSt23_Sp_counted_ptr_inplaceISt6vectorINSt7__cxx1112basic_stringIcSt11char_traitsIcESaIcEEESaIS6_EESaIS8_ELN9__gnu_cxx12_Lock_policyE2EE10_M_destroyEv
	.quad	_ZNSt23_Sp_counted_ptr_inplaceISt6vectorINSt7__cxx1112basic_stringIcSt11char_traitsIcESaIcEEESaIS6_EESaIS8_ELN9__gnu_cxx12_Lock_policyE2EE14_M_get_deleterERKSt9type_info
	.weak	_ZTVSt23_Sp_counted_ptr_inplaceISt6vectorIiSaIiEESaIS2_ELN9__gnu_cxx12_Lock_policyE2EE
	.section	.data.rel.ro.local._ZTVSt23_Sp_counted_ptr_inplaceISt6vectorIiSaIiEESaIS2_ELN9__gnu_cxx12_Lock_policyE2EE,"awG",@progbits,_ZTVSt23_Sp_counted_ptr_inplaceISt6vectorIiSaIiEESaIS2_ELN9__gnu_cxx12_Lock_policyE2EE,comdat
	.align 8
	.type	_ZTVSt23_Sp_counted_ptr_inplaceISt6vectorIiSaIiEESaIS2_ELN9__gnu_cxx12_Lock_policyE2EE, @object
	.size	_ZTVSt23_Sp_counted_ptr_inplaceISt6vectorIiSaIiEESaIS2_ELN9__gnu_cxx12_Lock_policyE2EE, 56
_ZTVSt23_Sp_counted_ptr_inplaceISt6vectorIiSaIiEESaIS2_ELN9__gnu_cxx12_Lock_policyE2EE:
	.quad	0
	.quad	_ZTISt23_Sp_counted_ptr_inplaceISt6vectorIiSaIiEESaIS2_ELN9__gnu_cxx12_Lock_policyE2EE
	.quad	_ZNSt23_Sp_counted_ptr_inplaceISt6vectorIiSaIiEESaIS2_ELN9__gnu_cxx12_Lock_policyE2EED1Ev
	.quad	_ZNSt23_Sp_counted_ptr_inplaceISt6vectorIiSaIiEESaIS2_ELN9__gnu_cxx12_Lock_policyE2EED0Ev
	.quad	_ZNSt23_Sp_counted_ptr_inplaceISt6vectorIiSaIiEESaIS2_ELN9__gnu_cxx12_Lock_policyE2EE10_M_disposeEv
	.quad	_ZNSt23_Sp_counted_ptr_inplaceISt6vectorIiSaIiEESaIS2_ELN9__gnu_cxx12_Lock_policyE2EE10_M_destroyEv
	.quad	_ZNSt23_Sp_counted_ptr_inplaceISt6vectorIiSaIiEESaIS2_ELN9__gnu_cxx12_Lock_policyE2EE14_M_get_deleterERKSt9type_info
	.weak	_ZZNSt19_Sp_make_shared_tag5_S_tiEvE5__tag
	.section	.rodata._ZZNSt19_Sp_make_shared_tag5_S_tiEvE5__tag,"aG",@progbits,_ZZNSt19_Sp_make_shared_tag5_S_tiEvE5__tag,comdat
	.align 8
	.type	_ZZNSt19_Sp_make_shared_tag5_S_tiEvE5__tag, @gnu_unique_object
	.size	_ZZNSt19_Sp_make_shared_tag5_S_tiEvE5__tag, 16
_ZZNSt19_Sp_make_shared_tag5_S_tiEvE5__tag:
	.zero	16
	.local	_ZStL8__ioinit
	.comm	_ZStL8__ioinit,1,1
	.weakref	_ZL28__gthrw___pthread_key_createPjPFvPvE,__pthread_key_create
	.section	.rodata.cst16,"aM",@progbits,16
	.align 16
.LC2:
	.quad	2336927441683177826
	.quad	7800833210575777125
	.align 16
.LC3:
	.quad	2336070101636247408
	.quad	8751743591038086767
	.align 16
.LC4:
	.quad	8100131176265708915
	.quad	7381153998842044532
	.align 16
.LC11:
	.long	0
	.long	1
	.long	2
	.long	3
	.align 16
.LC12:
	.quad	7310016635638801764
	.quad	2338623226657465198
	.hidden	DW.ref._ZTISt8bad_cast
	.weak	DW.ref._ZTISt8bad_cast
	.section	.data.rel.local.DW.ref._ZTISt8bad_cast,"awG",@progbits,DW.ref._ZTISt8bad_cast,comdat
	.align 8
	.type	DW.ref._ZTISt8bad_cast, @object
	.size	DW.ref._ZTISt8bad_cast, 8
DW.ref._ZTISt8bad_cast:
	.quad	_ZTISt8bad_cast
	.hidden	DW.ref._ZTISt9bad_alloc
	.weak	DW.ref._ZTISt9bad_alloc
	.section	.data.rel.local.DW.ref._ZTISt9bad_alloc,"awG",@progbits,DW.ref._ZTISt9bad_alloc,comdat
	.align 8
	.type	DW.ref._ZTISt9bad_alloc, @object
	.size	DW.ref._ZTISt9bad_alloc, 8
DW.ref._ZTISt9bad_alloc:
	.quad	_ZTISt9bad_alloc
	.hidden	DW.ref.__gxx_personality_v0
	.weak	DW.ref.__gxx_personality_v0
	.section	.data.rel.local.DW.ref.__gxx_personality_v0,"awG",@progbits,DW.ref.__gxx_personality_v0,comdat
	.align 8
	.type	DW.ref.__gxx_personality_v0, @object
	.size	DW.ref.__gxx_personality_v0, 8
DW.ref.__gxx_personality_v0:
	.quad	__gxx_personality_v0
	.hidden	__dso_handle
	.ident	"GCC: (Ubuntu 9.3.0-17ubuntu1~20.04) 9.3.0"
	.section	.note.GNU-stack,"",@progbits
	.section	.note.gnu.property,"a"
	.align 8
	.long	 1f - 0f
	.long	 4f - 1f
	.long	 5
0:
	.string	 "GNU"
1:
	.align 8
	.long	 0xc0000002
	.long	 3f - 2f
2:
	.long	 0x3
3:
	.align 8
4:
